(dp1
VThe Film Stage/Christopher Schobert
p2
ccopy_reg
_reconstructor
p3
(ccritic
Critic
p4
c__builtin__
object
p5
NtRp6
(dp7
S'ident'
p8
g2
sS'name'
p9
VChristopher Schobert
p10
sS'url'
p11
S'http://www.metacritic.com/critic/christopher-schobert?filter=movies'
p12
sS'reviews'
p13
(dp14
S'12-years-a-slave'
p15
F10
ssS'source'
p16
VThe Film Stage
p17
sS'correlation'
p18
NsbsVThe Playlist/Nick Schager
p19
g3
(g4
g5
NtRp20
(dp21
g8
g19
sg9
VNick Schager
p22
sg11
S'http://www.metacritic.com/critic/nick-schager?filter=movies'
p23
sg13
(dp24
S'sand-storm'
p25
F7.5
ssg16
VThe Playlist
p26
sg18
NsbsVThe New York Times/Nicolas Rapold
p27
g3
(g4
g5
NtRp28
(dp29
g8
g27
sg9
VNicolas Rapold
p30
sg11
S'http://www.metacritic.com/critic/nicolas-rapold?filter=movies'
p31
sg13
(dp32
S'the-tale-of-the-princess-kaguya'
p33
F8
ssg16
VThe New York Times
p34
sg18
NsbsVEmpire/Alan Morrison
p35
g3
(g4
g5
NtRp36
(dp37
g8
g35
sg9
VAlan Morrison
p38
sg11
S'http://www.metacritic.com/critic/alan-morrison?filter=movies'
p39
sg13
(dp40
S'the-lord-of-the-rings-the-return-of-the-king'
p41
F10
sS'the-lives-of-others'
p42
F10
sS'paris-je-taime'
p43
F8
ssg16
VEmpire
p44
sg18
NsbsVSan Francisco Examiner/Walter Addiego
p45
g3
(g4
g5
NtRp46
(dp47
g8
g45
sg9
VWalter Addiego
p48
sg11
S'http://www.metacritic.com/critic/walter-addiego?filter=movies'
p49
sg13
(dp50
S'chungking-express'
p51
F8.8000000000000007
ssg16
VSan Francisco Examiner
p52
sg18
NsbsVThe New Yorker/Terrence Rafferty
p53
g3
(g4
g5
NtRp54
(dp55
g8
g53
sg9
VTerrence Rafferty
p56
sg11
S'http://www.metacritic.com/critic?filter=movies'
p57
sg13
(dp58
S'schindlers-list'
p59
F10
sS'anaconda'
p60
F3
ssg16
VThe New Yorker
p61
sg18
NsbsVThe Telegraph/Robbie Collin
p62
g3
(g4
g5
NtRp63
(dp64
g8
g62
sg9
VRobbie Collin
p65
sg11
S'http://www.metacritic.com/critic/robbie-collin?filter=movies'
p66
sg13
(dp67
S'after-the-storm-2016'
p68
F8
sS'inherent-vice'
p69
F10
sS'winter-sleep'
p70
F8
sS'the-nice-guys'
p71
F8
sS'gravity'
p72
F10
sS'inside-out-2015'
p73
F10
sS'birdman-or-the-unexpected-virtue-of-ignorance'
p74
F10
sS'toni-erdmann'
p75
F10
sS'nebraska'
p76
F8
sS'the-lobster'
p77
F8
sg33
F10
sS'a-pigeon-sat-on-a-branch-reflecting-on-existence'
p78
F10
sS'about-elly-2009'
p79
F8
sS'spotlight'
p80
F8
sS'anomalisa'
p81
F10
sS'inside-llewyn-davis'
p82
F10
ssg16
VThe Telegraph
p83
sg18
NsbsVEmpire/James White
p84
g3
(g4
g5
NtRp85
(dp86
g8
g84
sg9
VJames White
p87
sg11
S'http://www.metacritic.com/critic/james-white?filter=movies'
p88
sg13
(dp89
g71
F8
ssg16
VEmpire
p90
sg18
NsbsVThe Globe and Mail (Toronto)/Kate Taylor
p91
g3
(g4
g5
NtRp92
(dp93
g8
g91
sg9
VKate Taylor
p94
sg11
S'http://www.metacritic.com/critic/kate-taylor?filter=movies'
p95
sg13
(dp96
S'the-salesman'
p97
F10
sS'manchester-by-the-sea'
p98
F10
sS'up'
p99
F7.5
sS'son-of-saul'
p100
F10
sg75
F7.5
sS'paterson'
p101
F7.5
sS'rams'
p102
F7.5
sg77
F7.5
ssg16
VThe Globe and Mail (Toronto)
p103
sg18
NsbsVL.A. Weekly/F. X. Feeney
p104
g3
(g4
g5
NtRp105
(dp106
g8
g104
sg9
VF. X. Feeney
p107
sg11
S'http://www.metacritic.com/critic/f-x-feeney?filter=movies'
p108
sg13
(dp109
S'magnolia'
p110
F10
ssg16
VL.A. Weekly
p111
sg18
NsbsVReelViews/James Berardinelli
p112
g3
(g4
g5
NtRp113
(dp114
g8
g112
sg9
VJames Berardinelli
p115
sg11
S'http://www.metacritic.com/critic/james-berardinelli?filter=movies'
p116
sg13
(dp117
S'zero-dark-thirty'
p118
F8.8000000000000007
sS'django-unchained'
p119
F8.8000000000000007
sg98
F8.8000000000000007
sS'the-master'
p120
F7.5
sS'dr-strangelove-or-how-i-learned-to-stop-worrying-and-love-the-bomb'
p121
F10
sS'pans-labyrinth'
p122
F8.8000000000000007
sg72
F10
sS'american-wedding'
p123
F6.2999999999999998
sS'inglourious-basterds'
p124
F10
sg60
F5
sS'2-fast-2-furious'
p125
F1.2
sS'amour'
p126
F8.8000000000000007
sS'the-lord-of-the-rings-the-two-towers'
p127
F10
sS'captain-fantastic'
p128
F7.5
sS'a-separation'
p129
F8.8000000000000007
sS'ghost-rider'
p130
F5
sS'the-sixth-sense'
p131
F3.7999999999999998
sS'her'
p132
F8.8000000000000007
sg74
F7.5
sS'crazy-stupid-love'
p133
F7.5
sg71
F7.5
sS'the-hobbit-an-unexpected-journey'
p134
F7.5
sg100
F8.8000000000000007
sS'capote'
p135
F8.8000000000000007
sS'2001-a-space-odyssey'
p136
F10
sg41
F10
sS'children-of-men'
p137
F7.5
sS'wall-e'
p138
F8.8000000000000007
sS'the-hangover'
p139
F7.5
sg42
F8.8000000000000007
sS'ray'
p140
F5
sS'there-will-be-blood'
p141
F7.5
sS'sully'
p142
F7.5
sS'the-hangover-part-ii'
p143
F7.5
sS'eyes-wide-shut'
p144
F8.8000000000000007
sS'the-dark-knight'
p145
F10
sS'a-clockwork-orange'
p146
F10
sS'sideways'
p147
F8.8000000000000007
sS'the-grand-budapest-hotel'
p148
F7.5
sS'midnight-in-paris'
p149
F7.5
sS'the-dark-knight-rises'
p150
F8.8000000000000007
sS'superman-returns'
p151
F8.8000000000000007
sS'no-country-for-old-men'
p152
F8.8000000000000007
sS'into-the-wild'
p153
F8.8000000000000007
sS'fargo'
p154
F7.5
sS'brooklyn'
p155
F8.8000000000000007
sg73
F8.8000000000000007
sS'a-very-long-engagement'
p156
F7.5
sS'borat-cultural-learnings-of-america-for-make-benefit-glorious-nation-of-kazakhstan'
p157
F7.5
sS'inception'
p158
F8.8000000000000007
sg51
F8.8000000000000007
sS'carol'
p159
F8.8000000000000007
sS'blue-valentine'
p160
F8.8000000000000007
sS'lincoln'
p161
F8.8000000000000007
sS'the-dukes-of-hazzard'
p162
F1.2
sg69
F7.5
sS'rocknrolla'
p163
F5
sS'ratatouille'
p164
F7.5
sg59
F10
sS'me-and-earl-and-the-dying-girl'
p165
F8.8000000000000007
sS'batman-begins'
p166
F8.8000000000000007
sS'sicario'
p167
F8.8000000000000007
sg99
F7.5
sS'the-pianist'
p168
F8.8000000000000007
sS'4-months-3-weeks-and-2-days'
p169
F8.8000000000000007
sg76
F8.8000000000000007
sS'the-social-network'
p170
F8.8000000000000007
sS'avatar'
p171
F10
sg15
F8.8000000000000007
sS'brokeback-mountain'
p172
F7.5
sS'eternal-sunshine-of-the-spotless-mind'
p173
F8.8000000000000007
sS'spring-summer-fall-winter-and-spring'
p174
F8.8000000000000007
sS'lost-in-translation'
p175
F10
sg80
F8.8000000000000007
sg81
F7.5
sg82
F7.5
ssg16
VReelViews
p176
sg18
NsbsVRogerEbert.com/Susan Wloszczyna
p177
g3
(g4
g5
NtRp178
(dp179
g8
g177
sg9
VSusan Wloszczyna
p180
sg11
S'http://www.metacritic.com/critic/susan-wloszczyna?filter=movies'
p181
sg13
(dp182
g142
F7.5
sS'45-years'
p183
F10
sg75
F10
sg15
F8.8000000000000007
ssg16
VRogerEbert.com
p184
sg18
NsbsVNew York Daily News/Dave Kehr
p185
g3
(g4
g5
NtRp186
(dp187
g8
g185
sg9
VDave Kehr
p188
sg11
S'http://www.metacritic.com/critic/dave-kehr?filter=movies'
p189
sg13
(dp190
g51
F9
ssg16
VNew York Daily News
p191
sg18
NsbsVThe Playlist/Todd Gilchrist
p192
g3
(g4
g5
NtRp193
(dp194
g8
g192
sg9
VTodd Gilchrist
p195
sg11
S'http://www.metacritic.com/critic/todd-gilchrist?filter=movies'
p196
sg13
(dp197
g150
F10
ssg16
VThe Playlist
p198
sg18
NsbsVVillage Voice/Michael Atkinson
p199
g3
(g4
g5
NtRp200
(dp201
g8
g199
sg9
VMichael Atkinson
p202
sg11
S'http://www.metacritic.com/critic/michael-atkinson?filter=movies'
p203
sg13
(dp204
S'brazil'
p205
F10
sg131
F5
sg166
F6
sg146
F8
sg121
F10
sS'the-academy-of-muses'
p206
F9
sg174
F8
sg140
F5
ssg16
VVillage Voice
p207
sg18
NsbsVSlant Magazine/Chuck Bowen
p208
g3
(g4
g5
NtRp209
(dp210
g8
g208
sg9
VChuck Bowen
p211
sg11
S'http://www.metacritic.com/critic/chuck-bowen?filter=movies'
p212
sg13
(dp213
g97
F10
sS'leviathan-2014'
p214
F8.8000000000000007
sS'victoria'
p215
F5
sg102
F7.5
sg81
F7.5
sg79
F8.8000000000000007
sS'wild-tales'
p216
F7.5
ssg16
VSlant Magazine
p217
sg18
NsbsVThe Dissolve/Tasha Robinson
p218
g3
(g4
g5
NtRp219
(dp220
g8
g218
sg9
VTasha Robinson
p221
sg11
S'http://www.metacritic.com/critic/tasha-robinson?filter=movies'
p222
sg13
(dp223
g73
F10
sg216
F7
ssg16
VThe Dissolve
p224
sg18
NsbsVMiami Herald/Marta Barber
p225
g3
(g4
g5
NtRp226
(dp227
g8
g225
sg9
VMarta Barber
p228
sg11
S'http://www.metacritic.com/critic/marta-barber?filter=movies'
p229
sg13
(dp230
S'the-return-2004'
p231
F8.8000000000000007
ssg16
VMiami Herald
p232
sg18
NsbsVWe Got This Covered/ Darren Ruecker
p233
g3
(g4
g5
NtRp234
(dp235
g8
g233
sg9
V Darren Ruecker
p236
sg11
S'http://www.metacritic.com/critic/darren-ruecker?filter=movies'
p237
sg13
(dp238
g98
F10
ssg16
VWe Got This Covered
p239
sg18
NsbsVNew York Post/Megan Lehmann
p240
g3
(g4
g5
NtRp241
(dp242
g8
g240
sg9
VMegan Lehmann
p243
sg11
S'http://www.metacritic.com/critic/megan-lehmann?filter=movies'
p244
sg13
(dp245
g147
F10
ssg16
VNew York Post
p246
sg18
NsbsVVillage Voice/Nathan Lee
p247
g3
(g4
g5
NtRp248
(dp249
g8
g247
sg9
VNathan Lee
p250
sg11
S'http://www.metacritic.com/critic?filter=movies'
p251
sg13
(dp252
g130
F4
ssg16
VVillage Voice
p253
sg18
NsbsVThe A.V. Club/Keith Uhlich
p254
g3
(g4
g5
NtRp255
(dp256
g8
g254
sg9
VKeith Uhlich
p257
sg11
S'http://www.metacritic.com/critic?filter=movies'
p258
sg13
(dp259
S'the-salt-of-the-earth'
p260
F7.5
sS'gett-the-trial-of-viviane-amsalem'
p261
F9.0999999999999996
ssg16
VThe A.V. Club
p262
sg18
NsbsVVariety/Charles Gant
p263
g3
(g4
g5
NtRp264
(dp265
g8
g263
sg9
VCharles Gant
p266
sg11
S'http://www.metacritic.com/critic/charles-gant?filter=movies'
p267
sg13
(dp268
g183
F8
ssg16
VVariety
p269
sg18
NsbsVThe Guardian/Peter Bradshaw
p270
g3
(g4
g5
NtRp271
(dp272
g8
g270
sg9
VPeter Bradshaw
p273
sg11
S'http://www.metacritic.com/critic/peter-bradshaw?filter=movies'
p274
sg13
(dp275
g119
F10
sS'once-upon-a-time-in-anatolia'
p276
F10
sS'mommy'
p277
F8
sg126
F10
sg79
F8
sg167
F8
sg132
F6
sg71
F8
sg214
F10
sg134
F6
sg100
F10
sg101
F8
sS'sweet-bean'
p278
F4
sg155
F8
sg73
F8
sg183
F10
sg82
F10
sg159
F10
sg97
F6
sS'beyond-the-hills'
p279
F8
sg75
F8
sS'graduation'
p280
F10
sg76
F8
sg80
F6
sg77
F6
sS'ida'
p281
F8
ssg16
VThe Guardian
p282
sg18
NsbsVPortland Oregonian/Shawn Levy
p283
g3
(g4
g5
NtRp284
(dp285
g8
g283
sg9
VShawn Levy
p286
sg11
S'http://www.metacritic.com/critic/shawn-levy?filter=movies'
p287
sg13
(dp288
g276
F8.3000000000000007
sg120
F8.3000000000000007
sg122
F10
sg157
F8.3000000000000007
sg133
F5.7999999999999998
sg129
F9.0999999999999996
sg140
F8.3000000000000007
sS'american-beauty'
p289
F8.3000000000000007
sg173
F9.0999999999999996
sg110
F8.3000000000000007
sg127
F9.0999999999999996
sg135
F10
sg41
F10
sg137
F7.5
sg138
F8.3000000000000007
sg139
F7.5
sg42
F10
sg162
F5
sg141
F9.0999999999999996
sg143
F6.7000000000000002
sg124
F7.5
sg145
F8.3000000000000007
sg147
F9.0999999999999996
sg149
F8.3000000000000007
sg150
F7.5
sg151
F5.7999999999999998
sg152
F9.0999999999999996
sg153
F8.3000000000000007
sS'persepolis'
p290
F8.3000000000000007
sg156
F9.0999999999999996
sg158
F10
sS'amelie'
p291
F8.3000000000000007
sS'waking-life'
p292
F10
sg164
F9.0999999999999996
sg166
F9.0999999999999996
sg99
F8.3000000000000007
sg169
F8.3000000000000007
sg170
F10
sg171
F8.3000000000000007
sg172
F9.0999999999999996
sg168
F9.0999999999999996
sg175
F10
ssg16
VPortland Oregonian
p293
sg18
NsbsVChicago Tribune/Allison Benedikt
p294
g3
(g4
g5
NtRp295
(dp296
g8
g294
sg9
VAllison Benedikt
p297
sg11
S'http://www.metacritic.com/critic/allison-benedikt?filter=movies'
p298
sg13
(dp299
g162
F1.2
ssg16
VChicago Tribune
p300
sg18
NsbsVSan Francisco Chronicle/Carla Meyer
p301
g3
(g4
g5
NtRp302
(dp303
g8
g301
sg9
VCarla Meyer
p304
sg11
S'http://www.metacritic.com/critic?filter=movies'
p305
sg13
(dp306
g231
F5
sg147
F10
sg174
F10
sS'gosford-park'
p307
F7.5
ssg16
VSan Francisco Chronicle
p308
sg18
NsbsVVariety/Emanuel Levy
p309
g3
(g4
g5
NtRp310
(dp311
g8
g309
sg9
VEmanuel Levy
p312
sg11
S'http://www.metacritic.com/critic/emanuel-levy?filter=movies'
p313
sg13
(dp314
g110
F7
ssg16
VVariety
p315
sg18
NsbsVThe Telegraph/Tim Robey
p316
g3
(g4
g5
NtRp317
(dp318
g8
g316
sg9
VTim Robey
p319
sg11
S'http://www.metacritic.com/critic/tim-robey?filter=movies'
p320
sg13
(dp321
g183
F10
sg97
F6
sg98
F8
sg167
F6
sg148
F10
sg214
F8
sg280
F8
sg100
F8
sg155
F8
sS'dheepan'
p322
F8
sg101
F10
sg15
F10
sg159
F10
sg277
F6
ssg16
VThe Telegraph
p323
sg18
NsbsVSalon.com/Laura Miller
p324
g3
(g4
g5
NtRp325
(dp326
g8
g324
sg9
VLaura Miller
p327
sg11
S'http://www.metacritic.com/critic?filter=movies'
p328
sg13
(dp329
g154
F5
ssg16
VSalon.com
p330
sg18
NsbsVPremiere/Stephen Saito
p331
g3
(g4
g5
NtRp332
(dp333
g8
g331
sg9
VStephen Saito
p334
sg11
S'http://www.metacritic.com/critic?filter=movies'
p335
sg13
(dp336
g137
F8.8000000000000007
ssg16
VPremiere
p337
sg18
NsbsVSlant Magazine/Clayton Dillard
p338
g3
(g4
g5
NtRp339
(dp340
g8
g338
sg9
VClayton Dillard
p341
sg11
S'http://www.metacritic.com/critic/clayton-dillard?filter=movies'
p342
sg13
(dp343
g25
F6.2999999999999998
sg260
F7.5
ssg16
VSlant Magazine
p344
sg18
NsbsVL.A. Weekly/John Powers
p345
g3
(g4
g5
NtRp346
(dp347
g8
g345
sg9
VJohn Powers
p348
sg11
S'http://www.metacritic.com/critic/john-powers?filter=movies'
p349
sg13
(dp350
g173
F7
ssg16
VL.A. Weekly
p351
sg18
NsbsVNPR/Stephanie Zacharek
p352
g3
(g4
g5
NtRp353
(dp354
g8
g352
sg9
VStephanie Zacharek
p355
sg11
S'http://www.metacritic.com/critic?filter=movies'
p356
sg13
(dp357
g119
F9
ssg16
VNPR
p358
sg18
NsbsVNew York Magazine (Vulture)/Bilge Ebiri
p359
g3
(g4
g5
NtRp360
(dp361
g8
g359
sg9
VBilge Ebiri
p362
sg11
S'http://www.metacritic.com/critic/bilge-ebiri?filter=movies'
p363
sg13
(dp364
g33
F10
sg98
F10
sg70
F7
sg214
F8
sg25
F9
sg260
F8
ssg16
VNew York Magazine (Vulture)
p365
sg18
NsbsVScreen International/Wendy Ide
p366
g3
(g4
g5
NtRp367
(dp368
g8
g366
sg9
VWendy Ide
p369
sg11
S'http://www.metacritic.com/critic/wendy-ide?filter=movies'
p370
sg13
(dp371
g68
F8
ssg16
VScreen International
p372
sg18
NsbsVVillage Voice/Peter L'Official
p373
g3
(g4
g5
NtRp374
(dp375
g8
g373
sg9
VPeter L'Official
p376
sg11
S'http://www.metacritic.com/critic?filter=movies'
p377
sg13
(dp378
g162
F3
ssg16
VVillage Voice
p379
sg18
NsbsVConsequence of Sound/None
p380
g3
(g4
g5
NtRp381
(dp382
g8
g380
sg9
Nsg11
Nsg13
(dp383
g98
F10
ssg16
VConsequence of Sound
p384
sg18
NsbsVFilm Threat/Pete Vonder Haar
p385
g3
(g4
g5
NtRp386
(dp387
g8
g385
sg9
VPete Vonder Haar
p388
sg11
S'http://www.metacritic.com/critic/pete-vonder-haar?filter=movies'
p389
sg13
(dp390
g145
F9
sg166
F8
sg151
F5
sg153
F9
sg157
F10
sg164
F8
sg138
F9
sg162
F3
ssg16
VFilm Threat
p391
sg18
NsbsVSlant Magazine/Keith Watson
p392
g3
(g4
g5
NtRp393
(dp394
g8
g392
sg9
VKeith Watson
p395
sg11
S'http://www.metacritic.com/critic/keith-watson?filter=movies'
p396
sg13
(dp397
g128
F2.5
ssg16
VSlant Magazine
p398
sg18
NsbsVThe Guardian/Katey Rich
p399
g3
(g4
g5
NtRp400
(dp401
g8
g399
sg9
VKatey Rich
p402
sg11
S'http://www.metacritic.com/critic?filter=movies'
p403
sg13
(dp404
g118
F10
sg161
F8
ssg16
VThe Guardian
p405
sg18
NsbsVSlate/Michael Agger
p406
g3
(g4
g5
NtRp407
(dp408
g8
g406
sg9
VMichael Agger
p409
sg11
S'http://www.metacritic.com/critic?filter=movies'
p410
sg13
(dp411
g125
F3
ssg16
VSlate
p412
sg18
NsbsVThe New York Times/Glenn Kenny
p413
g3
(g4
g5
NtRp414
(dp415
g8
g413
sg9
VGlenn Kenny
p416
sg11
S'http://www.metacritic.com/critic/glenn-kenny?filter=movies'
p417
sg13
(dp418
S'april-and-the-extraordinary-world'
p419
F10
sg278
F9
ssg16
VThe New York Times
p420
sg18
NsbsVMiami Herald/Charles Savage
p421
g3
(g4
g5
NtRp422
(dp423
g8
g421
sg9
VCharles Savage
p424
sg11
S'http://www.metacritic.com/critic/charles-savage?filter=movies'
p425
sg13
(dp426
S'gone-in-sixty-seconds'
p427
F5
ssg16
VMiami Herald
p428
sg18
NsbsVEmpire/Mark Dinning
p429
g3
(g4
g5
NtRp430
(dp431
g8
g429
sg9
VMark Dinning
p432
sg11
S'http://www.metacritic.com/critic?filter=movies'
p433
sg13
(dp434
g145
F10
ssg16
VEmpire
p435
sg18
NsbsVL.A. Weekly/David Chute
p436
g3
(g4
g5
NtRp437
(dp438
g8
g436
sg9
VDavid Chute
p439
sg11
S'http://www.metacritic.com/critic/david-chute?filter=movies'
p440
sg13
(dp441
g125
F6
ssg16
VL.A. Weekly
p442
sg18
NsbsVVariety/Andrew Barker
p443
g3
(g4
g5
NtRp444
(dp445
g8
g443
sg9
VAndrew Barker
p446
sg11
S'http://www.metacritic.com/critic?filter=movies'
p447
sg13
(dp448
g143
F5
ssg16
VVariety
p449
sg18
NsbsVTotal Film/Kevin Harley
p450
g3
(g4
g5
NtRp451
(dp452
g8
g450
sg9
VKevin Harley
p453
sg11
S'http://www.metacritic.com/critic/kevin-harley?filter=movies'
p454
sg13
(dp455
g159
F10
sg165
F8
ssg16
VTotal Film
p456
sg18
NsbsVDallas Observer/Luke Y. Thompson
p457
g3
(g4
g5
NtRp458
(dp459
g8
g457
sg9
VLuke Y. Thompson
p460
sg11
S'http://www.metacritic.com/critic/luke-y-thompson?filter=movies'
p461
sg13
(dp462
g123
F5
sS'the-wedding-planner'
p463
F2
ssg16
VDallas Observer
p464
sg18
NsbsVArizona Republic/Barbara VanDenburgh
p465
g3
(g4
g5
NtRp466
(dp467
g8
g465
sg9
VBarbara VanDenburgh
p468
sg11
S'http://www.metacritic.com/critic/barbara-vandenburgh?filter=movies'
p469
sg13
(dp470
g322
F7
ssg16
VArizona Republic
p471
sg18
NsbsVTheWrap/Ben Croll
p472
g3
(g4
g5
NtRp473
(dp474
g8
g472
sg9
VBen Croll
p475
sg11
S'http://www.metacritic.com/critic/ben-croll?filter=movies'
p476
sg13
(dp477
g97
F8
sg101
F8.5
ssg16
VTheWrap
p478
sg18
NsbsVL.A. Weekly/Ernest Hardy
p479
g3
(g4
g5
NtRp480
(dp481
g8
g479
sg9
VErnest Hardy
p482
sg11
S'http://www.metacritic.com/critic/ernest-hardy?filter=movies'
p483
sg13
(dp484
g60
F3
ssg16
VL.A. Weekly
p485
sg18
NsbsVScreen International/Allan Hunter
p486
g3
(g4
g5
NtRp487
(dp488
g8
g486
sg9
VAllan Hunter
p489
sg11
S'http://www.metacritic.com/critic/allan-hunter?filter=movies'
p490
sg13
(dp491
g97
F8
sg322
F9
sg102
F8
ssg16
VScreen International
p492
sg18
NsbsVRogerEbert.com/Christy Lemire
p493
g3
(g4
g5
NtRp494
(dp495
g8
g493
sg9
VChristy Lemire
p496
sg11
S'http://www.metacritic.com/critic?filter=movies'
p497
sg13
(dp498
g74
F10
sg76
F8.8000000000000007
sg100
F8.8000000000000007
ssg16
VRogerEbert.com
p499
sg18
NsbsVWashington Post/Phillip Kennicott
p500
g3
(g4
g5
NtRp501
(dp502
g8
g500
sg9
VPhillip Kennicott
p503
sg11
S'http://www.metacritic.com/critic?filter=movies'
p504
sg13
(dp505
g174
F6
ssg16
VWashington Post
p506
sg18
NsbsVThe Guardian/Jordan Hoffman
p507
g3
(g4
g5
NtRp508
(dp509
g8
g507
sg9
VJordan Hoffman
p510
sg11
S'http://www.metacritic.com/critic/jordan-hoffman?filter=movies'
p511
sg13
(dp512
S'the-end-of-the-tour'
p513
F8
ssg16
VThe Guardian
p514
sg18
NsbsVTotal Film/Rosie Fletcher
p515
g3
(g4
g5
NtRp516
(dp517
g8
g515
sg9
VRosie Fletcher
p518
sg11
S'http://www.metacritic.com/critic?filter=movies'
p519
sg13
(dp520
S'what-we-do-in-the-shadows'
p521
F8
ssg16
VTotal Film
p522
sg18
NsbsVChicago Sun-Times/Roger Ebert
p523
g3
(g4
g5
NtRp524
(dp525
g8
g523
sg9
VRoger Ebert
p526
sg11
S'http://www.metacritic.com/critic/roger-ebert?filter=movies'
p527
sg13
(dp528
g118
F7.5
sg231
F7.5
sg119
F10
sg276
F8.8000000000000007
sg120
F6.2999999999999998
sg121
F10
sg122
F10
sS'in-the-mood-for-love'
p529
F7.5
sg123
F7.5
sg124
F10
sS'full-metal-jacket'
p530
F6.2999999999999998
sg125
F7.5
sg126
F10
sg129
F10
sg140
F10
sg205
F5
sg289
F10
sg154
F10
sg173
F8.8000000000000007
sg110
F10
sg127
F7.5
sg135
F10
sg136
F10
sg41
F8.8000000000000007
sg137
F10
sg307
F10
sg138
F8.8000000000000007
sg139
F8.8000000000000007
sg42
F10
sg162
F2.5
sg141
F8.8000000000000007
sg427
F5
sg143
F5
sg144
F8.8000000000000007
sg145
F10
sg146
F5
sg147
F10
sg149
F8.8000000000000007
sg150
F7.5
sg151
F5
sg152
F10
sg153
F10
sg172
F10
sg131
F7.5
sg156
F8.8000000000000007
sg157
F10
sg158
F10
sg291
F8.8000000000000007
sS'crimes-and-misdemeanors'
p531
F10
sg160
F8.8000000000000007
sg161
F10
sg292
F10
sg51
F7.5
sg163
F7.5
sg164
F10
sg59
F10
sg166
F10
sg99
F10
sg169
F10
sg133
F7.5
sg170
F10
sg171
F10
sg290
F10
sg463
F5
sg60
F8.8000000000000007
sg168
F8.8000000000000007
sS'the-lord-of-the-rings-the-fellowship-of-the-ring'
p532
F7.5
sg175
F10
ssg16
VChicago Sun-Times
p533
sg18
NsbsVPremiere/Eric Kohn
p534
g3
(g4
g5
NtRp535
(dp536
g8
g534
sg9
VEric Kohn
p537
sg11
S'http://www.metacritic.com/critic?filter=movies'
p538
sg13
(dp539
g145
F7.5
ssg16
VPremiere
p540
sg18
NsbsVFilm.com/Kate Erbland
p541
g3
(g4
g5
NtRp542
(dp543
g8
g541
sg9
VKate Erbland
p544
sg11
S'http://www.metacritic.com/critic?filter=movies'
p545
sg13
(dp546
g148
F8.1999999999999993
ssg16
VFilm.com
p547
sg18
NsbsVEmpire/Kim Newman
p548
g3
(g4
g5
NtRp549
(dp550
g8
g548
sg9
VKim Newman
p551
sg11
S'http://www.metacritic.com/critic/kim-newman?filter=movies'
p552
sg13
(dp553
g118
F10
sg146
F10
sg59
F10
sg166
F8
sg122
F10
sg135
F10
ssg16
VEmpire
p554
sg18
NsbsVNew York Post/Farran Smith Nehme
p555
g3
(g4
g5
NtRp556
(dp557
g8
g555
sg9
VFarran Smith Nehme
p558
sg11
S'http://www.metacritic.com/critic/farran-smith-nehme?filter=movies'
p559
sg13
(dp560
g183
F8.8000000000000007
sg79
F10
sg215
F6.2999999999999998
sg279
F8.8000000000000007
sg70
F7.5
sg277
F6.2999999999999998
sg214
F10
sg100
F6.2999999999999998
sg322
F7.5
sg261
F8.8000000000000007
sg78
F7.5
sg126
F10
sg102
F8.8000000000000007
sg216
F7.5
sg281
F8.8000000000000007
ssg16
VNew York Post
p561
sg18
NsbsVTotal Film/James Mottram
p562
g3
(g4
g5
NtRp563
(dp564
g8
g562
sg9
VJames Mottram
p565
sg11
S'http://www.metacritic.com/critic/james-mottram?filter=movies'
p566
sg13
(dp567
g70
F8
sg71
F8
sg69
F8
sg72
F10
sg78
F6
ssg16
VTotal Film
p568
sg18
NsbsVBoxoffice Magazine/James Rocchi
p569
g3
(g4
g5
NtRp570
(dp571
g8
g569
sg9
VJames Rocchi
p572
sg11
S'http://www.metacritic.com/critic?filter=movies'
p573
sg13
(dp574
g118
F9
sg126
F8
sg134
F4
sg119
F10
ssg16
VBoxoffice Magazine
p575
sg18
NsbsVEmpire/Rob Fraser
p576
g3
(g4
g5
NtRp577
(dp578
g8
g576
sg9
VRob Fraser
p579
sg11
S'http://www.metacritic.com/critic?filter=movies'
p580
sg13
(dp581
g175
F10
ssg16
VEmpire
p582
sg18
NsbsVVariety/Joe Leydon
p583
g3
(g4
g5
NtRp584
(dp585
g8
g583
sg9
VJoe Leydon
p586
sg11
S'http://www.metacritic.com/critic/joe-leydon?filter=movies'
p587
sg13
(dp588
g139
F9
sg163
F8
sg60
F5
ssg16
VVariety
p589
sg18
NsbsVThe Playlist/Chris Willman
p590
g3
(g4
g5
NtRp591
(dp592
g8
g590
sg9
VChris Willman
p593
sg11
S'http://www.metacritic.com/critic?filter=movies'
p594
sg13
(dp595
g15
F9.0999999999999996
ssg16
VThe Playlist
p596
sg18
NsbsVVariety/Robert Koehler
p597
g3
(g4
g5
NtRp598
(dp599
g8
g597
sg9
VRobert Koehler
p600
sg11
S'http://www.metacritic.com/critic/robert-koehler?filter=movies'
p601
sg13
(dp602
g123
F8
sg463
F3
sg130
F2
ssg16
VVariety
p603
sg18
NsbsVNew York Daily News/Elizabeth Weitzman
p604
g3
(g4
g5
NtRp605
(dp606
g8
g604
sg9
VElizabeth Weitzman
p607
sg11
S'http://www.metacritic.com/critic/elizabeth-weitzman?filter=movies'
p608
sg13
(dp609
g143
F4
sg124
F8
sg69
F8
sg163
F5
sg132
F10
sg134
F6
sg99
F8
sg74
F8
sg133
F6
sg82
F10
sg174
F7.5
sg158
F10
ssg16
VNew York Daily News
p610
sg18
NsbsVThe New Yorker/Anthony Lane
p611
g3
(g4
g5
NtRp612
(dp613
g8
g611
sg9
VAnthony Lane
p614
sg11
S'http://www.metacritic.com/critic/anthony-lane?filter=movies'
p615
sg13
(dp616
g231
F9
sg119
F5
sg98
F9
sg120
F9
sg122
F9
sg126
F9
sg79
F8
sg167
F8
sg129
F9
sg132
F9
sg71
F7
sg214
F8
sg134
F6
sg521
F7
sg100
F9
sg74
F9
sg41
F8
sg137
F8
sg101
F7
sg127
F9
sg42
F10
sg157
F8
sg151
F5
sg173
F8
sg150
F7
sg161
F7
sg152
F7
sg290
F7
sg73
F9
sg82
F8
sg159
F9
sg291
F4
sg160
F8
sg97
F8
sg69
F8
sg163
F5
sg279
F8
sg80
F9
sg169
F8
sg77
F7
sg172
F9
sg513
F7
sg81
F8
ssg16
VThe New Yorker
p617
sg18
NsbsVNPR/Ella Taylor
p618
g3
(g4
g5
NtRp619
(dp620
g8
g618
sg9
VElla Taylor
p621
sg11
S'http://www.metacritic.com/critic/ella-taylor?filter=movies'
p622
sg13
(dp623
g126
F9
sg120
F9.5
sg149
F7.5
ssg16
VNPR
p624
sg18
NsbsVFilm.com/William Goss
p625
g3
(g4
g5
NtRp626
(dp627
g8
g625
sg9
VWilliam Goss
p628
sg11
S'http://www.metacritic.com/critic/william-goss?filter=movies'
p629
sg13
(dp630
g15
F8.5999999999999996
sg72
F9.4000000000000004
ssg16
VFilm.com
p631
sg18
NsbsVAustin Chronicle/Josh Kupecki
p632
g3
(g4
g5
NtRp633
(dp634
g8
g632
sg9
VJosh Kupecki
p635
sg11
S'http://www.metacritic.com/critic?filter=movies'
p636
sg13
(dp637
g260
F7.7999999999999998
sg69
F7.7999999999999998
sg77
F7.7999999999999998
ssg16
VAustin Chronicle
p638
sg18
NsbsVFilm Threat/Kevin Carr
p639
g3
(g4
g5
NtRp640
(dp641
g8
g639
sg9
VKevin Carr
p642
sg11
S'http://www.metacritic.com/critic?filter=movies'
p643
sg13
(dp644
g41
F7
ssg16
VFilm Threat
p645
sg18
NsbsVSlant Magazine/Christopher Gray
p646
g3
(g4
g5
NtRp647
(dp648
g8
g646
sg9
VChristopher Gray
p649
sg11
S'http://www.metacritic.com/critic/christopher-gray?filter=movies'
p650
sg13
(dp651
g165
F3.7999999999999998
sg75
F8.8000000000000007
sg73
F7.5
sg98
F8.8000000000000007
ssg16
VSlant Magazine
p652
sg18
NsbsVThe Playlist/Noel Murray
p653
g3
(g4
g5
NtRp654
(dp655
g8
g653
sg9
VNoel Murray
p656
sg11
S'http://www.metacritic.com/critic/noel-murray?filter=movies'
p657
sg13
(dp658
g98
F9.0999999999999996
ssg16
VThe Playlist
p659
sg18
NsbsVThe A.V. Club/Keith Phipps
p660
g3
(g4
g5
NtRp661
(dp662
g8
g660
sg9
VKeith Phipps
p663
sg11
S'http://www.metacritic.com/critic/keith-phipps?filter=movies'
p664
sg13
(dp665
g161
F7.5
sg124
F6.7000000000000002
sg130
F3.2999999999999998
sg145
F10
sg149
F6.7000000000000002
sg152
F10
sg131
F8
sg127
F10
sg41
F9
sg137
F10
sg172
F8
sg139
F5.7999999999999998
sg162
F5
sg170
F9.0999999999999996
sg166
F10
ssg16
VThe A.V. Club
p666
sg18
NsbsVCineVue/John Bleasdale
p667
g3
(g4
g5
NtRp668
(dp669
g8
g667
sg9
VJohn Bleasdale
p670
sg11
S'http://www.metacritic.com/critic/john-bleasdale?filter=movies'
p671
sg13
(dp672
g97
F8
sg278
F6
sS'the-postmans-white-nights'
p673
F8
sg70
F8
sg277
F10
sg214
F10
sg102
F8
sg77
F8
sg74
F10
sg75
F6
sg322
F6
sg81
F10
sg101
F10
sg78
F8
sg167
F8
sg100
F10
sg128
F6
sg216
F6
ssg16
VCineVue
p674
sg18
NsbsVSeattle Post-Intelligencer/Sean Axmaker
p675
g3
(g4
g5
NtRp676
(dp677
g8
g675
sg9
VSean Axmaker
p678
sg11
S'http://www.metacritic.com/critic/sean-axmaker?filter=movies'
p679
sg13
(dp680
g529
F10
sg292
F6.7000000000000002
sg123
F6.7000000000000002
sg145
F10
sg164
F9.0999999999999996
sg122
F10
sg152
F10
sg169
F10
sg290
F10
sg307
F10
sg138
F9.0999999999999996
sg42
F8.3000000000000007
sg43
F9.0999999999999996
sg175
F10
ssg16
VSeattle Post-Intelligencer
p681
sg18
NsbsVThe Film Stage/Raphael Deutsch
p682
g3
(g4
g5
NtRp683
(dp684
g8
g682
sg9
VRaphael Deutsch
p685
sg11
S'http://www.metacritic.com/critic?filter=movies'
p686
sg13
(dp687
g102
F7.5
ssg16
VThe Film Stage
p688
sg18
NsbsVMovieline/Alison Willmore
p689
g3
(g4
g5
NtRp690
(dp691
g8
g689
sg9
VAlison Willmore
p692
sg11
S'http://www.metacritic.com/critic?filter=movies'
p693
sg13
(dp694
g118
F9
sg126
F7
sg161
F9
sg120
F9
sg119
F6
ssg16
VMovieline
p695
sg18
NsbsVWashington Post/Rita Kempley
p696
g3
(g4
g5
NtRp697
(dp698
g8
g696
sg9
VRita Kempley
p699
sg11
S'http://www.metacritic.com/critic/rita-kempley?filter=movies'
p700
sg13
(dp701
g59
F6
sg110
F8
sg532
F10
sg60
F3
sg154
F9
sg530
F9
sg291
F9
sg531
F7
ssg16
VWashington Post
p702
sg18
NsbsVMovie Nation/Roger Moore
p703
g3
(g4
g5
NtRp704
(dp705
g8
g703
sg9
VRoger Moore
p706
sg11
S'http://www.metacritic.com/critic/roger-moore?filter=movies'
p707
sg13
(dp708
g98
F8.8000000000000007
sg277
F7.5
sg167
F8.8000000000000007
sg71
F6.2999999999999998
sg214
F7.5
sg521
F6.2999999999999998
sg128
F6.2999999999999998
sg101
F5
sg142
F7.5
sg261
F7.5
sg215
F7.5
sg155
F7.5
sg73
F8.8000000000000007
sg159
F7.5
sg97
F7.5
sg165
F8.8000000000000007
sg75
F6.2999999999999998
sg513
F8.8000000000000007
sg81
F5
sg78
F5
sg80
F10
sg77
F5
ssg16
VMovie Nation
p709
sg18
NsbsVFilm.com/Jordan Hoffman
p710
g3
(g4
g5
NtRp711
(dp712
g8
g710
sg9
VJordan Hoffman
p713
sg11
S'http://www.metacritic.com/critic/jordan-hoffman?filter=movies'
p714
sg13
(dp715
g76
F6.9000000000000004
sg82
F9.5
ssg16
VFilm.com
p716
sg18
NsbsVSan Francisco Chronicle/Bob Graham
p717
g3
(g4
g5
NtRp718
(dp719
g8
g717
sg9
VBob Graham
p720
sg11
S'http://www.metacritic.com/critic/bob-graham?filter=movies'
p721
sg13
(dp722
g110
F7.5
sg144
F7.5
sg463
F5
ssg16
VSan Francisco Chronicle
p723
sg18
NsbsVTime/Stephanie Zacharek
p724
g3
(g4
g5
NtRp725
(dp726
g8
g724
sg9
VStephanie Zacharek
p727
sg11
S'http://www.metacritic.com/critic/stephanie-zacharek?filter=movies'
p728
sg13
(dp729
g98
F9
sg71
F7
sg100
F10
sg75
F9
sg183
F9
sg77
F8
sg101
F10
sg128
F7
sg81
F6
ssg16
VTime
p730
sg18
NsbsVFilm Threat/Michael Dequina
p731
g3
(g4
g5
NtRp732
(dp733
g8
g731
sg9
VMichael Dequina
p734
sg11
S'http://www.metacritic.com/critic/michael-dequina?filter=movies'
p735
sg13
(dp736
g125
F7
ssg16
VFilm Threat
p737
sg18
NsbsVLos Angeles Times/Kevin Thomas
p738
g3
(g4
g5
NtRp739
(dp740
g8
g738
sg9
VKevin Thomas
p741
sg11
S'http://www.metacritic.com/critic/kevin-thomas?filter=movies'
p742
sg13
(dp743
g463
F6
sg292
F8
sg51
F10
ssg16
VLos Angeles Times
p744
sg18
NsbsVSalon.com/Scott Rosenberg
p745
g3
(g4
g5
NtRp746
(dp747
g8
g745
sg9
VScott Rosenberg
p748
sg11
S'http://www.metacritic.com/critic?filter=movies'
p749
sg13
(dp750
g136
F10
ssg16
VSalon.com
p751
sg18
NsbsVTV Guide Magazine/Staff (Not Credited)
p752
g3
(g4
g5
NtRp753
(dp754
g8
g752
sg9
VStaff (Not Credited)
p755
sg11
S'http://www.metacritic.com/critic?filter=movies'
p756
sg13
(dp757
g205
F7
sg146
F10
sg59
F10
sg121
F10
sg136
F9
sg60
F5
sg530
F8
sg531
F7
ssg16
VTV Guide Magazine
p758
sg18
NsbsVVillage Voice/Eric Hynes
p759
g3
(g4
g5
NtRp760
(dp761
g8
g759
sg9
VEric Hynes
p762
sg11
S'http://www.metacritic.com/critic?filter=movies'
p763
sg13
(dp764
g143
F2
ssg16
VVillage Voice
p765
sg18
NsbsVPhiladelphia Inquirer/Steven Rea
p766
g3
(g4
g5
NtRp767
(dp768
g8
g766
sg9
VSteven Rea
p769
sg11
S'http://www.metacritic.com/critic/steven-rea?filter=movies'
p770
sg13
(dp771
g118
F10
sg119
F6.2999999999999998
sg82
F10
sg277
F7.5
sg72
F10
sg529
F10
sg157
F8.8000000000000007
sg80
F10
sg126
F10
sg43
F6.2999999999999998
sg77
F10
sg129
F8.8000000000000007
sg140
F6.2999999999999998
sg132
F10
sg110
F7.5
sg71
F7.5
sg214
F8.8000000000000007
sg134
F5
sg521
F7.5
sg100
F8.8000000000000007
sg74
F10
sg322
F8.8000000000000007
sg137
F8.8000000000000007
sg261
F8.8000000000000007
sg138
F7.5
sg41
F7.5
sg162
F5
sg120
F7.5
sg532
F6.2999999999999998
sg141
F8.8000000000000007
sg142
F8.8000000000000007
sg124
F5
sg148
F10
sg173
F10
sg150
F7.5
sg151
F8.8000000000000007
sg152
F8.8000000000000007
sg155
F10
sg73
F10
sg183
F10
sg156
F7.5
sg139
F7.5
sg158
F6.2999999999999998
sg159
F10
sg291
F10
sg216
F8.8000000000000007
sg160
F6.2999999999999998
sg161
F8.8000000000000007
sg292
F8.8000000000000007
sg69
F6.2999999999999998
sg163
F5
sg164
F8.8000000000000007
sg279
F7.5
sg167
F7.5
sg102
F8.8000000000000007
sg76
F10
sg171
F8.8000000000000007
sg15
F10
sg513
F8.8000000000000007
sg81
F8.8000000000000007
sg281
F10
ssg16
VPhiladelphia Inquirer
p772
sg18
NsbsVTime/John Anderson
p773
g3
(g4
g5
NtRp774
(dp775
g8
g773
sg9
VJohn Anderson
p776
sg11
S'http://www.metacritic.com/critic?filter=movies'
p777
sg13
(dp778
g80
F9
ssg16
VTime
p779
sg18
NsbsVWe Got This Covered/Joseph Falcone
p780
g3
(g4
g5
NtRp781
(dp782
g8
g780
sg9
VJoseph Falcone
p783
sg11
S'http://www.metacritic.com/critic/joseph-falcone?filter=movies'
p784
sg13
(dp785
g101
F8
ssg16
VWe Got This Covered
p786
sg18
NsbsVVariety/Scott Foundas
p787
g3
(g4
g5
NtRp788
(dp789
g8
g787
sg9
VScott Foundas
p790
sg11
S'http://www.metacritic.com/critic/scott-foundas?filter=movies'
p791
sg13
(dp792
g69
F10
sg132
F10
sg76
F10
sg322
F7
sg82
F10
sg167
F10
ssg16
VVariety
p793
sg18
NsbsVEntertainment Weekly/Bruce Fretts
p794
g3
(g4
g5
NtRp795
(dp796
g8
g794
sg9
VBruce Fretts
p797
sg11
S'http://www.metacritic.com/critic/bruce-fretts?filter=movies'
p798
sg13
(dp799
g123
F1.6000000000000001
ssg16
VEntertainment Weekly
p800
sg18
NsbsVTime Out London/Guy Lodge
p801
g3
(g4
g5
NtRp802
(dp803
g8
g801
sg9
VGuy Lodge
p804
sg11
S'http://www.metacritic.com/critic/guy-lodge?filter=movies'
p805
sg13
(dp806
g167
F6
ssg16
VTime Out London
p807
sg18
NsbsVVariety/Maggie Lee
p808
g3
(g4
g5
NtRp809
(dp810
g8
g808
sg9
VMaggie Lee
p811
sg11
S'http://www.metacritic.com/critic/maggie-lee?filter=movies'
p812
sg13
(dp813
g68
F8
sg33
F9
ssg16
VVariety
p814
sg18
NsbsVThe New York Times/Bosley Crowther
p815
g3
(g4
g5
NtRp816
(dp817
g8
g815
sg9
VBosley Crowther
p818
sg11
S'http://www.metacritic.com/critic?filter=movies'
p819
sg13
(dp820
g121
F7
ssg16
VThe New York Times
p821
sg18
NsbsVNew York Daily News/Stephen Whitty 
p822
g3
(g4
g5
NtRp823
(dp824
g8
g822
sg9
VStephen Whitty 
p825
sg11
S'http://www.metacritic.com/critic/stephen-whitty?filter=movies'
p826
sg13
(dp827
g142
F6
sg98
F10
sg155
F8
sg159
F10
sg128
F8
sg77
F7
ssg16
VNew York Daily News
p828
sg18
NsbsVUSA Today/Scott Bowles
p829
g3
(g4
g5
NtRp830
(dp831
g8
g829
sg9
VScott Bowles
p832
sg11
S'http://www.metacritic.com/critic/scott-bowles?filter=movies'
p833
sg13
(dp834
g143
F5
ssg16
VUSA Today
p835
sg18
NsbsVMr. Showbiz/Kevin Maynard
p836
g3
(g4
g5
NtRp837
(dp838
g8
g836
sg9
VKevin Maynard
p839
sg11
S'http://www.metacritic.com/critic/kevin-maynard?filter=movies'
p840
sg13
(dp841
g131
F3
sg110
F8.5
sg463
F3.5
ssg16
VMr. Showbiz
p842
sg18
NsbsVVariety/David Rooney
p843
g3
(g4
g5
NtRp844
(dp845
g8
g843
sg9
VDavid Rooney
p846
sg11
S'http://www.metacritic.com/critic/david-rooney?filter=movies'
p847
sg13
(dp848
g135
F10
sg175
F8
ssg16
VVariety
p849
sg18
NsbsVIndiewire/Anisha Jhaveri
p850
g3
(g4
g5
NtRp851
(dp852
g8
g850
sg9
VAnisha Jhaveri
p853
sg11
S'http://www.metacritic.com/critic?filter=movies'
p854
sg13
(dp855
g165
F10
ssg16
VIndiewire
p856
sg18
NsbsVChristian Science Monitor/David Sterritt
p857
g3
(g4
g5
NtRp858
(dp859
g8
g857
sg9
VDavid Sterritt
p860
sg11
S'http://www.metacritic.com/critic/david-sterritt?filter=movies'
p861
sg13
(dp862
g231
F10
sg529
F7.5
sg123
F2.5
sg60
F7.5
sg125
F2.5
sg530
F10
sg140
F7.5
sg131
F5
sg110
F5
sg127
F7.5
sg41
F5
sg307
F10
sg427
F2.5
sg144
F7.5
sg147
F10
sg173
F10
sg156
F7.5
sg174
F10
sg291
F7.5
sg532
F6.2999999999999998
sg292
F7.5
sg59
F8.8000000000000007
sg166
F5
sg289
F7.5
sg463
F0
sg168
F7.5
sg175
F10
ssg16
VChristian Science Monitor
p863
sg18
NsbsVCineVue/Rory O'Connor
p864
g3
(g4
g5
NtRp865
(dp866
g8
g864
sg9
VRory O'Connor
p867
sg11
S'http://www.metacritic.com/critic?filter=movies'
p868
sg13
(dp869
g159
F8
ssg16
VCineVue
p870
sg18
NsbsVThe Seattle Times/Soren Andersen
p871
g3
(g4
g5
NtRp872
(dp873
g8
g871
sg9
VSoren Andersen
p874
sg11
S'http://www.metacritic.com/critic/soren-andersen?filter=movies'
p875
sg13
(dp876
g81
F8.8000000000000007
ssg16
VThe Seattle Times
p877
sg18
NsbsVVillage Voice/Amy Nicholson
p878
g3
(g4
g5
NtRp879
(dp880
g8
g878
sg9
VAmy Nicholson
p881
sg11
S'http://www.metacritic.com/critic/amy-nicholson?filter=movies'
p882
sg13
(dp883
g148
F9
sg73
F8
sg215
F10
sg76
F9
sg167
F6
sg81
F10
ssg16
VVillage Voice
p884
sg18
NsbsVScreen International/Charles Gant
p885
g3
(g4
g5
NtRp886
(dp887
g8
g885
sg9
VCharles Gant
p888
sg11
S'http://www.metacritic.com/critic?filter=movies'
p889
sg13
(dp890
g73
F8
ssg16
VScreen International
p891
sg18
NsbsVVillage Voice/Simon Abrams
p892
g3
(g4
g5
NtRp893
(dp894
g8
g892
sg9
VSimon Abrams
p895
sg11
S'http://www.metacritic.com/critic/simon-abrams?filter=movies'
p896
sg13
(dp897
g261
F9
ssg16
VVillage Voice
p898
sg18
NsbsVPortland Oregonian/Roger Moore
p899
g3
(g4
g5
NtRp900
(dp901
g8
g899
sg9
VRoger Moore
p902
sg11
S'http://www.metacritic.com/critic?filter=movies'
p903
sg13
(dp904
g123
F5
ssg16
VPortland Oregonian
p905
sg18
NsbsVSlant Magazine/Eric Henderson
p906
g3
(g4
g5
NtRp907
(dp908
g8
g906
sg9
VEric Henderson
p909
sg11
S'http://www.metacritic.com/critic/eric-henderson?filter=movies'
p910
sg13
(dp911
g142
F6.2999999999999998
sg72
F8.8000000000000007
ssg16
VSlant Magazine
p912
sg18
NsbsVThe Globe and Mail (Toronto)/Simon Houpt
p913
g3
(g4
g5
NtRp914
(dp915
g8
g913
sg9
VSimon Houpt
p916
sg11
S'http://www.metacritic.com/critic?filter=movies'
p917
sg13
(dp918
g142
F6.2999999999999998
ssg16
VThe Globe and Mail (Toronto)
p919
sg18
NsbsVPremiere/Peter Debruge
p920
g3
(g4
g5
NtRp921
(dp922
g8
g920
sg9
VPeter Debruge
p923
sg11
S'http://www.metacritic.com/critic/peter-debruge?filter=movies'
p924
sg13
(dp925
g162
F5
sg140
F7.5
ssg16
VPremiere
p926
sg18
NsbsVThe New York Times/Janet Maslin
p927
g3
(g4
g5
NtRp928
(dp929
g8
g927
sg9
VJanet Maslin
p930
sg11
S'http://www.metacritic.com/critic?filter=movies'
p931
sg13
(dp932
g205
F10
sg289
F9
sg110
F8
sg51
F6
ssg16
VThe New York Times
p933
sg18
NsbsVVillage Voice/Nick Schager
p934
g3
(g4
g5
NtRp935
(dp936
g8
g934
sg9
VNick Schager
p937
sg11
S'http://www.metacritic.com/critic/nick-schager?filter=movies'
p938
sg13
(dp939
g155
F10
ssg16
VVillage Voice
p940
sg18
NsbsVSlant Magazine/Ed Gonzalez
p941
g3
(g4
g5
NtRp942
(dp943
g8
g941
sg9
VEd Gonzalez
p944
sg11
S'http://www.metacritic.com/critic/ed-gonzalez?filter=movies'
p945
sg13
(dp946
g132
F10
sg134
F7.5
sg100
F5
sg529
F10
sg15
F5
sg167
F7.5
ssg16
VSlant Magazine
p947
sg18
NsbsVNew York Daily News/Allen Salkin
p948
g3
(g4
g5
NtRp949
(dp950
g8
g948
sg9
VAllen Salkin
p951
sg11
S'http://www.metacritic.com/critic?filter=movies'
p952
sg13
(dp953
g81
F10
ssg16
VNew York Daily News
p954
sg18
NsbsVLos Angeles Times/Betsy Sharkey
p955
g3
(g4
g5
NtRp956
(dp957
g8
g955
sg9
VBetsy Sharkey
p958
sg11
S'http://www.metacritic.com/critic/betsy-sharkey?filter=movies'
p959
sg13
(dp960
g119
F10
sg69
F10
sg143
F5
sg70
F9
sg74
F10
sg133
F8
sg139
F8
sg261
F9
sg160
F8
ssg16
VLos Angeles Times
p961
sg18
NsbsVThe Playlist/Kevin Jagernauth
p962
g3
(g4
g5
NtRp963
(dp964
g8
g962
sg9
VKevin Jagernauth
p965
sg11
S'http://www.metacritic.com/critic/kevin-jagernauth?filter=movies'
p966
sg13
(dp967
g279
F8.3000000000000007
sg126
F8.3000000000000007
sg82
F10
ssg16
VThe Playlist
p968
sg18
NsbsVChicago Tribune/Michael Wilmington
p969
g3
(g4
g5
NtRp970
(dp971
g8
g969
sg9
VMichael Wilmington
p972
sg11
S'http://www.metacritic.com/critic/michael-wilmington?filter=movies'
p973
sg13
(dp974
g231
F10
sg121
F10
sg122
F10
sg529
F7.5
sg123
F3.7999999999999998
sg43
F8.8000000000000007
sg140
F10
sg110
F10
sg127
F10
sg136
F10
sg41
F10
sg307
F10
sg42
F8.8000000000000007
sg427
F8.8000000000000007
sg144
F10
sg147
F10
sg156
F10
sg174
F8.8000000000000007
sg291
F10
sg532
F10
sg292
F10
sg51
F8.8000000000000007
sg166
F7.5
sg289
F8.8000000000000007
sg168
F10
ssg16
VChicago Tribune
p975
sg18
NsbsVEntertainment Weekly/Staff (Not Credited)
p976
g3
(g4
g5
NtRp977
(dp978
g8
g976
sg9
VStaff (Not Credited)
p979
sg11
S'http://www.metacritic.com/critic?filter=movies'
p980
sg13
(dp981
g205
F10
ssg16
VEntertainment Weekly
p982
sg18
NsbsVUSA Today/Mike Clark
p983
g3
(g4
g5
NtRp984
(dp985
g8
g983
sg9
VMike Clark
p986
sg11
S'http://www.metacritic.com/critic/mike-clark?filter=movies'
p987
sg13
(dp988
g289
F10
sg154
F7.5
sg144
F10
sg147
F10
sg59
F10
sg110
F8.8000000000000007
sg166
F6.2999999999999998
sg175
F8.8000000000000007
sg529
F5
sg123
F6.2999999999999998
sg168
F8.8000000000000007
sg156
F8.8000000000000007
sg125
F5
sg307
F10
sg172
F10
sg530
F10
sg463
F3.7999999999999998
sg162
F6.2999999999999998
sg60
F7.5
sg131
F8.8000000000000007
sg140
F8.8000000000000007
ssg16
VUSA Today
p989
sg18
NsbsVRogerEbert.com/Godfrey Cheshire
p990
g3
(g4
g5
NtRp991
(dp992
g8
g990
sg9
VGodfrey Cheshire
p993
sg11
S'http://www.metacritic.com/critic?filter=movies'
p994
sg13
(dp995
g97
F8.8000000000000007
sg214
F8.8000000000000007
sg25
F6.2999999999999998
sg79
F10
sg216
F10
sg281
F10
ssg16
VRogerEbert.com
p996
sg18
NsbsVSlant Magazine/Jesse Cataldo
p997
g3
(g4
g5
NtRp998
(dp999
g8
g997
sg9
VJesse Cataldo
p1000
sg11
S'http://www.metacritic.com/critic/jesse-cataldo?filter=movies'
p1001
sg13
(dp1002
g70
F8.8000000000000007
sg148
F8.8000000000000007
sg80
F6.2999999999999998
sg322
F6.2999999999999998
sg78
F7.5
sg513
F6.2999999999999998
ssg16
VSlant Magazine
p1003
sg18
NsbsVSlant Magazine/Oleg Ivanov
p1004
g3
(g4
g5
NtRp1005
(dp1006
g8
g1004
sg9
VOleg Ivanov
p1007
sg11
S'http://www.metacritic.com/critic?filter=movies'
p1008
sg13
(dp1009
g419
F7.5
sg521
F8.8000000000000007
ssg16
VSlant Magazine
p1010
sg18
NsbsVThe A.V. Club/Tasha Robinson
p1011
g3
(g4
g5
NtRp1012
(dp1013
g8
g1011
sg9
VTasha Robinson
p1014
sg11
S'http://www.metacritic.com/critic/tasha-robinson?filter=movies'
p1015
sg13
(dp1016
g138
F10
sg164
F9.0999999999999996
sg134
F6.7000000000000002
sg99
F8.3000000000000007
ssg16
VThe A.V. Club
p1017
sg18
NsbsVMiami Herald/Connie Ogle
p1018
g3
(g4
g5
NtRp1019
(dp1020
g8
g1018
sg9
VConnie Ogle
p1021
sg11
S'http://www.metacritic.com/critic/connie-ogle?filter=movies'
p1022
sg13
(dp1023
g165
F6.2999999999999998
sg162
F2.5
sg155
F10
sg307
F8.8000000000000007
ssg16
VMiami Herald
p1024
sg18
NsbsVTotal Film/Phillip Kemp
p1025
g3
(g4
g5
NtRp1026
(dp1027
g8
g1025
sg9
VPhillip Kemp
p1028
sg11
S'http://www.metacritic.com/critic?filter=movies'
p1029
sg13
(dp1030
g155
F10
ssg16
VTotal Film
p1031
sg18
NsbsVVariety/Derek Elley
p1032
g3
(g4
g5
NtRp1033
(dp1034
g8
g1032
sg9
VDerek Elley
p1035
sg11
S'http://www.metacritic.com/critic/derek-elley?filter=movies'
p1036
sg13
(dp1037
g42
F8
sg51
F7
sg137
F8
sg174
F8
ssg16
VVariety
p1038
sg18
NsbsVEmpire/Ian Freer
p1039
g3
(g4
g5
NtRp1040
(dp1041
g8
g1039
sg9
VIan Freer
p1042
sg11
S'http://www.metacritic.com/critic?filter=movies'
p1043
sg13
(dp1044
g70
F8
sg277
F8
sg99
F8
sg74
F10
sg75
F10
sg73
F10
sg15
F8
sg81
F10
ssg16
VEmpire
p1045
sg18
NsbsVDallas Observer/Melissa Levine
p1046
g3
(g4
g5
NtRp1047
(dp1048
g8
g1046
sg9
VMelissa Levine
p1049
sg11
S'http://www.metacritic.com/critic?filter=movies'
p1050
sg13
(dp1051
g147
F9
sg156
F5
ssg16
VDallas Observer
p1052
sg18
NsbsVTime Out London/Dave Calhoun
p1053
g3
(g4
g5
NtRp1054
(dp1055
g8
g1053
sg9
VDave Calhoun
p1056
sg11
S'http://www.metacritic.com/critic/dave-calhoun?filter=movies'
p1057
sg13
(dp1058
g97
F6
sg70
F8
sg148
F8
sg214
F8
sg73
F8
sg280
F10
sg80
F10
sg75
F10
sg76
F8
sg322
F8
sg77
F6
sg183
F10
sg159
F10
sg79
F6
sg277
F8
sg81
F10
sg82
F10
ssg16
VTime Out London
p1059
sg18
NsbsVVillage Voice/Bilge Ebiri
p1060
g3
(g4
g5
NtRp1061
(dp1062
g8
g1060
sg9
VBilge Ebiri
p1063
sg11
S'http://www.metacritic.com/critic/bilge-ebiri?filter=movies'
p1064
sg13
(dp1065
g97
F6
sg322
F8
sg101
F10
ssg16
VVillage Voice
p1066
sg18
NsbsVMovieline/Michelle Orange
p1067
g3
(g4
g5
NtRp1068
(dp1069
g8
g1067
sg9
VMichelle Orange
p1070
sg11
S'http://www.metacritic.com/critic/michelle-orange?filter=movies'
p1071
sg13
(dp1072
g276
F8.5
sg150
F7.5
ssg16
VMovieline
p1073
sg18
NsbsVFilm Threat/Tim Merrill
p1074
g3
(g4
g5
NtRp1075
(dp1076
g8
g1074
sg9
VTim Merrill
p1077
sg11
S'http://www.metacritic.com/critic/tim-merrill?filter=movies'
p1078
sg13
(dp1079
g307
F8
ssg16
VFilm Threat
p1080
sg18
NsbsVThe Telegraph/Mike McCahill
p1081
g3
(g4
g5
NtRp1082
(dp1083
g8
g1081
sg9
VMike McCahill
p1084
sg11
S'http://www.metacritic.com/critic/mike-mccahill?filter=movies'
p1085
sg13
(dp1086
g216
F6
ssg16
VThe Telegraph
p1087
sg18
NsbsVFilm.com/Eric D. Snider
p1088
g3
(g4
g5
NtRp1089
(dp1090
g8
g1088
sg9
VEric D. Snider
p1091
sg11
S'http://www.metacritic.com/critic?filter=movies'
p1092
sg13
(dp1093
g279
F2.5
ssg16
VFilm.com
p1094
sg18
NsbsVTNT RoughCut/Gabriel J.P. Goldberg
p1095
g3
(g4
g5
NtRp1096
(dp1097
g8
g1095
sg9
VGabriel J.P. Goldberg
p1098
sg11
S'http://www.metacritic.com/critic?filter=movies'
p1099
sg13
(dp1100
g154
F10
ssg16
VTNT RoughCut
p1101
sg18
NsbsVTNT RoughCut/J. Rentilly
p1102
g3
(g4
g5
NtRp1103
(dp1104
g8
g1102
sg9
VJ. Rentilly
p1105
sg11
S'http://www.metacritic.com/critic/j-rentilly?filter=movies'
p1106
sg13
(dp1107
g427
F3
ssg16
VTNT RoughCut
p1108
sg18
NsbsVDallas Observer/Arnold Wayne Jones
p1109
g3
(g4
g5
NtRp1110
(dp1111
g8
g1109
sg9
VArnold Wayne Jones
p1112
sg11
S'http://www.metacritic.com/critic?filter=movies'
p1113
sg13
(dp1114
g154
F10
ssg16
VDallas Observer
p1115
sg18
NsbsVVillage Voice/Jessica Winter
p1116
g3
(g4
g5
NtRp1117
(dp1118
g8
g1116
sg9
VJessica Winter
p1119
sg11
S'http://www.metacritic.com/critic/jessica-winter?filter=movies'
p1120
sg13
(dp1121
g463
F4
sg156
F6
ssg16
VVillage Voice
p1122
sg18
NsbsVEmpire/Ian Nathan
p1123
g3
(g4
g5
NtRp1124
(dp1125
g8
g1123
sg9
VIan Nathan
p1126
sg11
S'http://www.metacritic.com/critic/ian-nathan?filter=movies'
p1127
sg13
(dp1128
g161
F10
sg69
F8
sg132
F8
sg164
F10
sg72
F10
sg152
F10
sg156
F8
sg151
F10
ssg16
VEmpire
p1129
sg18
NsbsVTime/Mary Pols
p1130
g3
(g4
g5
NtRp1131
(dp1132
g8
g1130
sg9
VMary Pols
p1133
sg11
S'http://www.metacritic.com/critic/mary-pols?filter=movies'
p1134
sg13
(dp1135
g133
F8
sg143
F8
sg73
F10
sg279
F8
sg160
F8
ssg16
VTime
p1136
sg18
NsbsVVillage Voice/Sherilyn Connelly
p1137
g3
(g4
g5
NtRp1138
(dp1139
g8
g1137
sg9
VSherilyn Connelly
p1140
sg11
S'http://www.metacritic.com/critic/sherilyn-connelly?filter=movies'
p1141
sg13
(dp1142
g33
F7
sg419
F8
ssg16
VVillage Voice
p1143
sg18
NsbsVEmpire/Dan Jolin
p1144
g3
(g4
g5
NtRp1145
(dp1146
g8
g1144
sg9
VDan Jolin
p1147
sg11
S'http://www.metacritic.com/critic/dan-jolin?filter=movies'
p1148
sg13
(dp1149
g119
F8
sg33
F8
sg147
F10
sg134
F8
sg521
F8
sg153
F8
sg157
F10
sg167
F10
sg82
F10
ssg16
VEmpire
p1150
sg18
NsbsVEmpire/Nick de Semlyen
p1151
g3
(g4
g5
NtRp1152
(dp1153
g8
g1151
sg9
VNick de Semlyen
p1154
sg11
S'http://www.metacritic.com/critic?filter=movies'
p1155
sg13
(dp1156
g143
F4
ssg16
VEmpire
p1157
sg18
NsbsVNewsweek/Ann-Rebecca Laschever
p1158
g3
(g4
g5
NtRp1159
(dp1160
g8
g1158
sg9
VAnn-Rebecca Laschever
p1161
sg11
S'http://www.metacritic.com/critic?filter=movies'
p1162
sg13
(dp1163
g289
F4
ssg16
VNewsweek
p1164
sg18
NsbsVPremiere/Glenn Kenny
p1165
g3
(g4
g5
NtRp1166
(dp1167
g8
g1165
sg9
VGlenn Kenny
p1168
sg11
S'http://www.metacritic.com/critic/glenn-kenny?filter=movies'
p1169
sg13
(dp1170
g231
F6.2999999999999998
sg169
F10
sg173
F10
sg164
F10
sg147
F10
sg125
F6.2999999999999998
sg174
F8.8000000000000007
sg122
F10
sg152
F10
sg153
F7.5
sg172
F10
sg41
F10
sg156
F8.8000000000000007
sg135
F8.8000000000000007
sg290
F10
sg42
F8.8000000000000007
sg175
F10
sg141
F10
ssg16
VPremiere
p1171
sg18
NsbsVLos Angeles Times/Manohla Dargis
p1172
g3
(g4
g5
NtRp1173
(dp1174
g8
g1172
sg9
VManohla Dargis
p1175
sg11
S'http://www.metacritic.com/critic/manohla-dargis?filter=movies'
p1176
sg13
(dp1177
g125
F3
sg123
F3
sg173
F9
sg168
F9
sg127
F7
ssg16
VLos Angeles Times
p1178
sg18
NsbsVThe Hollywood Reporter/David Hunter
p1179
g3
(g4
g5
NtRp1180
(dp1181
g8
g1179
sg9
VDavid Hunter
p1182
sg11
S'http://www.metacritic.com/critic?filter=movies'
p1183
sg13
(dp1184
g51
F9
sg41
F10
ssg16
VThe Hollywood Reporter
p1185
sg18
NsbsVDallas Observer/Andy Klein
p1186
g3
(g4
g5
NtRp1187
(dp1188
g8
g1186
sg9
VAndy Klein
p1189
sg11
S'http://www.metacritic.com/critic/andy-klein?filter=movies'
p1190
sg13
(dp1191
g529
F8
sg168
F9
ssg16
VDallas Observer
p1192
sg18
NsbsVTV Guide Magazine/Ethan Alter
p1193
g3
(g4
g5
NtRp1194
(dp1195
g8
g1193
sg9
VEthan Alter
p1196
sg11
S'http://www.metacritic.com/critic?filter=movies'
p1197
sg13
(dp1198
g147
F8
sg140
F6
ssg16
VTV Guide Magazine
p1199
sg18
NsbsVPremiere/Jessica Letkemann
p1200
g3
(g4
g5
NtRp1201
(dp1202
g8
g1200
sg9
VJessica Letkemann
p1203
sg11
S'http://www.metacritic.com/critic/jessica-letkemann?filter=movies'
p1204
sg13
(dp1205
g157
F7.5
ssg16
VPremiere
p1206
sg18
NsbsVFilm.com/Elizabeth Weitzman
p1207
g3
(g4
g5
NtRp1208
(dp1209
g8
g1207
sg9
VElizabeth Weitzman
p1210
sg11
S'http://www.metacritic.com/critic/elizabeth-weitzman?filter=movies'
p1211
sg13
(dp1212
g154
F8
ssg16
VFilm.com
p1213
sg18
NsbsVPremiere/Rob Calvert
p1214
g3
(g4
g5
NtRp1215
(dp1216
g8
g1214
sg9
VRob Calvert
p1217
sg11
S'http://www.metacritic.com/critic?filter=movies'
p1218
sg13
(dp1219
g139
F10
ssg16
VPremiere
p1220
sg18
NsbsVThe New York Times/Jeannette Catsoulis
p1221
g3
(g4
g5
NtRp1222
(dp1223
g8
g1221
sg9
VJeannette Catsoulis
p1224
sg11
S'http://www.metacritic.com/critic/jeannette-catsoulis?filter=movies'
p1225
sg13
(dp1226
g130
F3
sg521
F8
ssg16
VThe New York Times
p1227
sg18
NsbsVTime Out London/Tom Huddleston
p1228
g3
(g4
g5
NtRp1229
(dp1230
g8
g1228
sg9
VTom Huddleston
p1231
sg11
S'http://www.metacritic.com/critic/tom-huddleston?filter=movies'
p1232
sg13
(dp1233
g15
F10
sg72
F8
sg281
F8
ssg16
VTime Out London
p1234
sg18
NsbsVEmpire/Chris Hewitt (1)
p1235
g3
(g4
g5
NtRp1236
(dp1237
g8
g1235
sg9
VChris Hewitt (1)
p1238
sg11
S'http://www.metacritic.com/critic/chris-hewitt-1?filter=movies'
p1239
sg13
(dp1240
g124
F8
sg171
F10
ssg16
VEmpire
p1241
sg18
NsbsVTotal Film/Neil Smith
p1242
g3
(g4
g5
NtRp1243
(dp1244
g8
g1242
sg9
VNeil Smith
p1245
sg11
S'http://www.metacritic.com/critic/neil-smith?filter=movies'
p1246
sg13
(dp1247
g118
F8
sg128
F8
ssg16
VTotal Film
p1248
sg18
NsbsVVillage Voice/Scott Tobias
p1249
g3
(g4
g5
NtRp1250
(dp1251
g8
g1249
sg9
VScott Tobias
p1252
sg11
S'http://www.metacritic.com/critic/scott-tobias?filter=movies'
p1253
sg13
(dp1254
g100
F8
ssg16
VVillage Voice
p1255
sg18
NsbsVNew York Post/Kyle Smith
p1256
g3
(g4
g5
NtRp1257
(dp1258
g8
g1256
sg9
VKyle Smith
p1259
sg11
S'http://www.metacritic.com/critic/kyle-smith?filter=movies'
p1260
sg13
(dp1261
g119
F7.5
sg98
F10
sg133
F7.5
sg167
F8.8000000000000007
sg129
F7.5
sg130
F2.5
sg521
F5
sg139
F7.5
sg137
F6.2999999999999998
sg162
F7.5
sg145
F8.8000000000000007
sg148
F5
sg155
F7.5
sg82
F7.5
sg160
F8.8000000000000007
sg69
F3.7999999999999998
sg163
F7.5
sg166
F10
sg77
F6.2999999999999998
sg172
F7.5
sg513
F10
sg81
F8.8000000000000007
ssg16
VNew York Post
p1262
sg18
NsbsVFilm Threat/Zack Haddad
p1263
g3
(g4
g5
NtRp1264
(dp1265
g8
g1263
sg9
VZack Haddad
p1266
sg11
S'http://www.metacritic.com/critic?filter=movies'
p1267
sg13
(dp1268
g141
F10
ssg16
VFilm Threat
p1269
sg18
NsbsVNPR/Bob Mondello
p1270
g3
(g4
g5
NtRp1271
(dp1272
g8
g1270
sg9
VBob Mondello
p1273
sg11
S'http://www.metacritic.com/critic/bob-mondello?filter=movies'
p1274
sg13
(dp1275
g118
F9.5
sg69
F7.5
sg145
F9.5
sg133
F7
sg72
F9
sg165
F8
sg214
F9
sg134
F7.5
sg150
F8.5
sg100
F10
sg74
F9
sg76
F9.5
sg170
F10
sg77
F9
sg138
F9
sg15
F10
sg79
F9
sg260
F9
sg129
F10
ssg16
VNPR
p1276
sg18
NsbsVThe New York Times/Renata Adler
p1277
g3
(g4
g5
NtRp1278
(dp1279
g8
g1277
sg9
VRenata Adler
p1280
sg11
S'http://www.metacritic.com/critic?filter=movies'
p1281
sg13
(dp1282
g136
F6
ssg16
VThe New York Times
p1283
sg18
NsbsVEntertainment Weekly/Owen Gleiberman
p1284
g3
(g4
g5
NtRp1285
(dp1286
g8
g1284
sg9
VOwen Gleiberman
p1287
sg11
S'http://www.metacritic.com/critic/owen-gleiberman?filter=movies'
p1288
sg13
(dp1289
g118
F10
sg119
F6.7000000000000002
sg130
F4.2000000000000002
sg133
F10
sg126
F10
sg43
F9.0999999999999996
sg129
F10
sg140
F9.0999999999999996
sg72
F10
sg127
F7.5
sg135
F9.0999999999999996
sg136
F10
sg139
F7.5
sg157
F9.0999999999999996
sg307
F9.0999999999999996
sg138
F10
sg15
F10
sg162
F8.3000000000000007
sg143
F8.3000000000000007
sg144
F5
sg145
F9.0999999999999996
sg148
F9.0999999999999996
sg173
F10
sg151
F7.5
sg153
F9.0999999999999996
sg82
F9.0999999999999996
sg174
F9.0999999999999996
sg160
F10
sg161
F10
sg163
F8.3000000000000007
sg164
F7.5
sg59
F10
sg289
F8.3000000000000007
sg170
F10
sg171
F7.5
sg172
F10
ssg16
VEntertainment Weekly
p1290
sg18
NsbsVTV Guide Magazine/Frank Lovece
p1291
g3
(g4
g5
NtRp1292
(dp1293
g8
g1291
sg9
VFrank Lovece
p1294
sg11
S'http://www.metacritic.com/critic/frank-lovece?filter=movies'
p1295
sg13
(dp1296
g154
F6
sg463
F2
sg292
F4
ssg16
VTV Guide Magazine
p1297
sg18
NsbsVPhiladelphia Inquirer/Tirdad Derakhshani
p1298
g3
(g4
g5
NtRp1299
(dp1300
g8
g1298
sg9
VTirdad Derakhshani
p1301
sg11
S'http://www.metacritic.com/critic/tirdad-derakhshani?filter=movies'
p1302
sg13
(dp1303
g98
F8.8000000000000007
sg75
F10
sg419
F8.8000000000000007
sg101
F10
sg79
F8.8000000000000007
sg260
F10
ssg16
VPhiladelphia Inquirer
p1304
sg18
NsbsVWashington Post/Teresa Wiltz
p1305
g3
(g4
g5
NtRp1306
(dp1307
g8
g1305
sg9
VTeresa Wiltz
p1308
sg11
S'http://www.metacritic.com/critic?filter=movies'
p1309
sg13
(dp1310
g147
F10
sg140
F7
ssg16
VWashington Post
p1311
sg18
NsbsVAustin Chronicle/Marrit Ingman
p1312
g3
(g4
g5
NtRp1313
(dp1314
g8
g1312
sg9
VMarrit Ingman
p1315
sg11
S'http://www.metacritic.com/critic/marrit-ingman?filter=movies'
p1316
sg13
(dp1317
g162
F3
sg43
F7.7999999999999998
sg174
F8.9000000000000004
ssg16
VAustin Chronicle
p1318
sg18
NsbsVCineVue/Ben Nicholson
p1319
g3
(g4
g5
NtRp1320
(dp1321
g8
g1319
sg9
VBen Nicholson
p1322
sg11
S'http://www.metacritic.com/critic/ben-nicholson?filter=movies'
p1323
sg13
(dp1324
g148
F8
sg98
F8
sg33
F6
ssg16
VCineVue
p1325
sg18
NsbsVVillage Voice/Nick Pinkerton
p1326
g3
(g4
g5
NtRp1327
(dp1328
g8
g1326
sg9
VNick Pinkerton
p1329
sg11
S'http://www.metacritic.com/critic?filter=movies'
p1330
sg13
(dp1331
g290
F9
sg126
F5
sg150
F4
sg158
F3
sg163
F1
ssg16
VVillage Voice
p1332
sg18
NsbsVWall Street Journal/Joe Morgenstern
p1333
g3
(g4
g5
NtRp1334
(dp1335
g8
g1333
sg9
VJoe Morgenstern
p1336
sg11
S'http://www.metacritic.com/critic/joe-morgenstern?filter=movies'
p1337
sg13
(dp1338
g118
F10
sg231
F9
sg82
F9
sg98
F10
sg119
F10
sg277
F7
sg174
F9
sg122
F10
sg72
F10
sg529
F10
sg123
F1
sg133
F8
sg125
F1
sg126
F10
sg127
F10
sg128
F9
sg129
F10
sg140
F9
sg155
F9
sg132
F10
sg71
F7
sg134
F7
sg521
F8
sg100
F10
sg135
F10
sg74
F10
sg322
F10
sg137
F5
sg307
F9
sg138
F10
sg41
F10
sg42
F10
sg162
F3
sg260
F10
sg120
F9
sg532
F10
sg141
F10
sg142
F9
sg143
F2
sg151
F8
sg173
F10
sg278
F6
sg145
F6
sg147
F10
sg148
F9
sg149
F9
sg150
F8
sg161
F10
sg152
F10
sg153
F8
sg172
F10
sg75
F10
sg73
F10
sg183
F9
sg156
F10
sg157
F9
sg159
F9
sg215
F9
sg291
F8
sg216
F5
sg160
F9
sg97
F10
sg69
F7
sg164
F10
sg279
F8
sg165
F9
sg166
F7
sg99
F5
sg168
F6
sg169
F10
sg76
F10
sg170
F10
sg171
F9
sg15
F10
sg290
F9
sg463
F2
sg175
F10
sg80
F10
sg81
F8
sg281
F10
ssg16
VWall Street Journal
p1339
sg18
NsbsVWe Got This Covered/Matt Donato
p1340
g3
(g4
g5
NtRp1341
(dp1342
g8
g1340
sg9
VMatt Donato
p1343
sg11
S'http://www.metacritic.com/critic/matt-donato?filter=movies'
p1344
sg13
(dp1345
g15
F9
ssg16
VWe Got This Covered
p1346
sg18
NsbsVFilm Threat/Michael Ferraro
p1347
g3
(g4
g5
NtRp1348
(dp1349
g8
g1347
sg9
VMichael Ferraro
p1350
sg11
S'http://www.metacritic.com/critic?filter=movies'
p1351
sg13
(dp1352
g147
F9
sg156
F9
ssg16
VFilm Threat
p1353
sg18
NsbsVChicago Tribune/Michael Phillips
p1354
g3
(g4
g5
NtRp1355
(dp1356
g8
g1354
sg9
VMichael Phillips
p1357
sg11
S'http://www.metacritic.com/critic/michael-phillips?filter=movies'
p1358
sg13
(dp1359
g118
F10
sg119
F5
sg33
F8.8000000000000007
sg98
F10
sg276
F10
sg70
F10
sg277
F7.5
sg72
F8.8000000000000007
sg157
F10
sg133
F5
sg126
F10
sg79
F7.5
sg77
F8.8000000000000007
sg129
F10
sg132
F10
sg71
F6.2999999999999998
sg214
F8.8000000000000007
sg134
F6.2999999999999998
sg100
F10
sg135
F10
sg74
F7.5
sg15
F10
sg137
F8.8000000000000007
sg138
F10
sg260
F7.5
sg120
F10
sg141
F10
sg155
F8.8000000000000007
sg143
F3.7999999999999998
sg151
F6.2999999999999998
sg124
F6.2999999999999998
sg145
F10
sg148
F8.8000000000000007
sg149
F8.8000000000000007
sg150
F6.2999999999999998
sg161
F10
sg152
F8.8000000000000007
sg153
F7.5
sg75
F10
sg73
F8.8000000000000007
sg183
F10
sg82
F8.8000000000000007
sg158
F7.5
sg159
F10
sg160
F7.5
sg97
F8.8000000000000007
sg69
F8.8000000000000007
sg163
F3.7999999999999998
sg164
F10
sg279
F8.8000000000000007
sg165
F7.5
sg167
F7.5
sg99
F10
sg80
F10
sg169
F10
sg76
F7.5
sg170
F8.8000000000000007
sg171
F7.5
sg172
F8.8000000000000007
sg513
F7.5
sg81
F10
sg281
F10
ssg16
VChicago Tribune
p1360
sg18
NsbsVThe Verge/Tasha Robinson
p1361
g3
(g4
g5
NtRp1362
(dp1363
g8
g1361
sg9
VTasha Robinson
p1364
sg11
S'http://www.metacritic.com/critic/tasha-robinson?filter=movies'
p1365
sg13
(dp1366
g142
F7.2999999999999998
sg71
F7.7000000000000002
sg419
F8.8000000000000007
sg77
F8.4000000000000004
sg100
F10
ssg16
VThe Verge
p1367
sg18
NsbsVNewsweek/Walaika Haskins
p1368
g3
(g4
g5
NtRp1369
(dp1370
g8
g1368
sg9
VWalaika Haskins
p1371
sg11
S'http://www.metacritic.com/critic?filter=movies'
p1372
sg13
(dp1373
g131
F7
ssg16
VNewsweek
p1374
sg18
NsbsVTime Out London/Geoff Andrew
p1375
g3
(g4
g5
NtRp1376
(dp1377
g8
g1375
sg9
VGeoff Andrew
p1378
sg11
S'http://www.metacritic.com/critic/geoff-andrew?filter=movies'
p1379
sg13
(dp1380
g101
F8
ssg16
VTime Out London
p1381
sg18
NsbsVVillage Voice/Jim Ridley
p1382
g3
(g4
g5
NtRp1383
(dp1384
g8
g1382
sg9
VJim Ridley
p1385
sg11
S'http://www.metacritic.com/critic?filter=movies'
p1386
sg13
(dp1387
g139
F7
ssg16
VVillage Voice
p1388
sg18
NsbsVEmpire/Olly Richards
p1389
g3
(g4
g5
NtRp1390
(dp1391
g8
g1389
sg9
VOlly Richards
p1392
sg11
S'http://www.metacritic.com/critic/olly-richards?filter=movies'
p1393
sg13
(dp1394
g138
F10
sg142
F6
sg133
F8
ssg16
VEmpire
p1395
sg18
NsbsVChicago Sun-Times/Richard Roeper
p1396
g3
(g4
g5
NtRp1397
(dp1398
g8
g1396
sg9
VRichard Roeper
p1399
sg11
S'http://www.metacritic.com/critic/richard-roeper?filter=movies'
p1400
sg13
(dp1401
g142
F10
sg98
F10
sg132
F8.8000000000000007
sg165
F10
sg71
F7.5
sg167
F10
sg72
F8.8000000000000007
sg73
F10
sg100
F10
sg74
F10
sg76
F10
sg15
F10
sg77
F7.5
sg101
F8.8000000000000007
sg80
F8.8000000000000007
sg159
F8.8000000000000007
sg513
F10
sg81
F10
sg82
F8.8000000000000007
ssg16
VChicago Sun-Times
p1402
sg18
NsbsVThe Hollywood Reporter/Jordan Mintzer
p1403
g3
(g4
g5
NtRp1404
(dp1405
g8
g1403
sg9
VJordan Mintzer
p1406
sg11
S'http://www.metacritic.com/critic/jordan-mintzer?filter=movies'
p1407
sg13
(dp1408
g419
F7
ssg16
VThe Hollywood Reporter
p1409
sg18
NsbsVL.A. Weekly/Hazel-Dawn Dumpert
p1410
g3
(g4
g5
NtRp1411
(dp1412
g8
g1410
sg9
VHazel-Dawn Dumpert
p1413
sg11
S'http://www.metacritic.com/critic/hazel-dawn-dumpert?filter=movies'
p1414
sg13
(dp1415
g427
F3
ssg16
VL.A. Weekly
p1416
sg18
NsbsVNPR/Scott Tobias
p1417
g3
(g4
g5
NtRp1418
(dp1419
g8
g1417
sg9
VScott Tobias
p1420
sg11
S'http://www.metacritic.com/critic?filter=movies'
p1421
sg13
(dp1422
g124
F6.7000000000000002
sg160
F9
ssg16
VNPR
p1423
sg18
NsbsVTime Out New York/Joshua Rothkopf
p1424
g3
(g4
g5
NtRp1425
(dp1426
g8
g1424
sg9
VJoshua Rothkopf
p1427
sg11
S'http://www.metacritic.com/critic/joshua-rothkopf?filter=movies'
p1428
sg13
(dp1429
g142
F6
sg118
F10
sg161
F10
sg69
F8
sg98
F10
sg119
F8
sg120
F6
sg148
F10
sg143
F8
sg72
F8
sg513
F8
sg155
F10
sg170
F10
sg82
F10
sg261
F10
sg158
F8
sg126
F8
sg128
F6
sg129
F10
sg160
F10
ssg16
VTime Out New York
p1430
sg18
NsbsVNew York Daily News/Graham Fuller
p1431
g3
(g4
g5
NtRp1432
(dp1433
g8
g1431
sg9
VGraham Fuller
p1434
sg11
S'http://www.metacritic.com/critic?filter=movies'
p1435
sg13
(dp1436
g70
F10
sg277
F8
sg214
F10
sg33
F8
ssg16
VNew York Daily News
p1437
sg18
NsbsVThe Hollywood Reporter/Ray Bennett
p1438
g3
(g4
g5
NtRp1439
(dp1440
g8
g1438
sg9
VRay Bennett
p1441
sg11
S'http://www.metacritic.com/critic/ray-bennett?filter=movies'
p1442
sg13
(dp1443
g122
F8
sg152
F8
sg169
F8
sg137
F8
sg172
F10
sg43
F6
ssg16
VThe Hollywood Reporter
p1444
sg18
NsbsVUSA Today/Susan Wloszczyna
p1445
g3
(g4
g5
NtRp1446
(dp1447
g8
g1445
sg9
VSusan Wloszczyna
p1448
sg11
S'http://www.metacritic.com/critic/susan-wloszczyna?filter=movies'
p1449
sg13
(dp1450
g427
F6.2999999999999998
ssg16
VUSA Today
p1451
sg18
NsbsVEntertainment Weekly/Lisa Schwarzbaum
p1452
g3
(g4
g5
NtRp1453
(dp1454
g8
g1452
sg9
VLisa Schwarzbaum
p1455
sg11
S'http://www.metacritic.com/critic/lisa-schwarzbaum?filter=movies'
p1456
sg13
(dp1457
g231
F10
sg120
F10
sg122
F10
sg529
F8.3000000000000007
sg60
F6.7000000000000002
sg125
F5.7999999999999998
sg131
F8.3000000000000007
sg110
F8.3000000000000007
sg134
F8.3000000000000007
sg41
F10
sg137
F10
sg154
F10
sg42
F9.0999999999999996
sg141
F10
sg427
F2.5
sg124
F7.5
sg147
F10
sg149
F7.5
sg150
F7.5
sg152
F9.0999999999999996
sg156
F9.0999999999999996
sg158
F8.3000000000000007
sg291
F9.0999999999999996
sg532
F10
sg292
F10
sg166
F10
sg99
F10
sg169
F10
sg290
F10
sg463
F5
sg168
F9.0999999999999996
sg175
F10
ssg16
VEntertainment Weekly
p1458
sg18
NsbsVFilm Threat/Darrin Keene
p1459
g3
(g4
g5
NtRp1460
(dp1461
g8
g1459
sg9
VDarrin Keene
p1462
sg11
S'http://www.metacritic.com/critic?filter=movies'
p1463
sg13
(dp1464
g168
F8
ssg16
VFilm Threat
p1465
sg18
NsbsVL.A. Weekly/Russel Swensen
p1466
g3
(g4
g5
NtRp1467
(dp1468
g8
g1466
sg9
VRussel Swensen
p1469
sg11
S'http://www.metacritic.com/critic?filter=movies'
p1470
sg13
(dp1471
g127
F7
ssg16
VL.A. Weekly
p1472
sg18
NsbsVNew York Observer/Rex Reed
p1473
g3
(g4
g5
NtRp1474
(dp1475
g8
g1473
sg9
VRex Reed
p1476
sg11
S'http://www.metacritic.com/critic/rex-reed?filter=movies'
p1477
sg13
(dp1478
g118
F5
sg119
F10
sg98
F10
sg120
F2.5
sg133
F2.5
sg126
F10
sg128
F8.8000000000000007
sg71
F0
sg72
F7.5
sg521
F7.5
sg74
F2.5
sg15
F10
sg142
F7.5
sg148
F7.5
sg149
F10
sg150
F2.5
sg155
F10
sg158
F2.5
sg159
F10
sg160
F10
sg161
F5
sg165
F7.5
sg76
F8.8000000000000007
sg170
F7.5
sg80
F10
ssg16
VNew York Observer
p1479
sg18
NsbsVPremiere/Aaron Hillis
p1480
g3
(g4
g5
NtRp1481
(dp1482
g8
g1480
sg9
VAaron Hillis
p1483
sg11
S'http://www.metacritic.com/critic/aaron-hillis?filter=movies'
p1484
sg13
(dp1485
g166
F6.2999999999999998
ssg16
VPremiere
p1486
sg18
NsbsVThe Guardian/Nigel M Smith
p1487
g3
(g4
g5
NtRp1488
(dp1489
g8
g1487
sg9
VNigel M Smith
p1490
sg11
S'http://www.metacritic.com/critic/nigel-m-smith?filter=movies'
p1491
sg13
(dp1492
g142
F6
sg215
F10
ssg16
VThe Guardian
p1493
sg18
NsbsVTheWrap/Robert Abele
p1494
g3
(g4
g5
NtRp1495
(dp1496
g8
g1494
sg9
VRobert Abele
p1497
sg11
S'http://www.metacritic.com/critic/robert-abele?filter=movies'
p1498
sg13
(dp1499
g142
F8.5
sg322
F9
sg98
F7
ssg16
VTheWrap
p1500
sg18
NsbsVVariety/Peter Debruge
p1501
g3
(g4
g5
NtRp1502
(dp1503
g8
g1501
sg9
VPeter Debruge
p1504
sg11
S'http://www.metacritic.com/critic/peter-debruge?filter=movies'
p1505
sg13
(dp1506
g142
F7
sg118
F9
sg161
F7
sg119
F10
sg133
F8
sg165
F9
sg149
F8
sg214
F10
sg134
F6
sg73
F10
sg128
F8
sg74
F10
sg155
F7
sg419
F10
sg15
F10
sg78
F10
sg126
F9
sg277
F9
sg81
F10
sg281
F6
ssg16
VVariety
p1507
sg18
NsbsVFilm Threat/Matthew Sorrento
p1508
g3
(g4
g5
NtRp1509
(dp1510
g8
g1508
sg9
VMatthew Sorrento
p1511
sg11
S'http://www.metacritic.com/critic?filter=movies'
p1512
sg13
(dp1513
g42
F10
sg99
F5
ssg16
VFilm Threat
p1514
sg18
NsbsVTotal Film/Philip Kemp
p1515
g3
(g4
g5
NtRp1516
(dp1517
g8
g1515
sg9
VPhilip Kemp
p1518
sg11
S'http://www.metacritic.com/critic?filter=movies'
p1519
sg13
(dp1520
g142
F6
sg76
F8
sg79
F8
sg82
F10
ssg16
VTotal Film
p1521
sg18
NsbsVSlant Magazine/Andrew Schenker
p1522
g3
(g4
g5
NtRp1523
(dp1524
g8
g1522
sg9
VAndrew Schenker
p1525
sg11
S'http://www.metacritic.com/critic/andrew-schenker?filter=movies'
p1526
sg13
(dp1527
g276
F3.7999999999999998
sg133
F5
ssg16
VSlant Magazine
p1528
sg18
NsbsVNew York Magazine (Vulture)/Ken Tucker
p1529
g3
(g4
g5
NtRp1530
(dp1531
g8
g1529
sg9
VKen Tucker
p1532
sg11
S'http://www.metacritic.com/critic/ken-tucker?filter=movies'
p1533
sg13
(dp1534
g172
F9
sg135
F6
sg166
F5
sg156
F9
sg140
F6
ssg16
VNew York Magazine (Vulture)
p1535
sg18
NsbsVFilm.com/Robert Horton
p1536
g3
(g4
g5
NtRp1537
(dp1538
g8
g1536
sg9
VRobert Horton
p1539
sg11
S'http://www.metacritic.com/critic/robert-horton?filter=movies'
p1540
sg13
(dp1541
g427
F4
sg289
F7
sg463
F4
sg144
F9
ssg16
VFilm.com
p1542
sg18
NsbsVThe Seattle Times/Tom Keogh
p1543
g3
(g4
g5
NtRp1544
(dp1545
g8
g1543
sg9
VTom Keogh
p1546
sg11
S'http://www.metacritic.com/critic/tom-keogh?filter=movies'
p1547
sg13
(dp1548
g101
F7.5
ssg16
VThe Seattle Times
p1549
sg18
NsbsVThe New York Times/Dave Kehr
p1550
g3
(g4
g5
NtRp1551
(dp1552
g8
g1550
sg9
VDave Kehr
p1553
sg11
S'http://www.metacritic.com/critic/dave-kehr?filter=movies'
p1554
sg13
(dp1555
g231
F9
ssg16
VThe New York Times
p1556
sg18
NsbsVTime/Staff (Not Credited)
p1557
g3
(g4
g5
NtRp1558
(dp1559
g8
g1557
sg9
VStaff (Not Credited)
p1560
sg11
S'http://www.metacritic.com/critic?filter=movies'
p1561
sg13
(dp1562
g59
F10
ssg16
VTime
p1563
sg18
NsbsVEmpire/David Parkinson
p1564
g3
(g4
g5
NtRp1565
(dp1566
g8
g1564
sg9
VDavid Parkinson
p1567
sg11
S'http://www.metacritic.com/critic/david-parkinson?filter=movies'
p1568
sg13
(dp1569
g278
F6
sg276
F8
sg102
F8
sg279
F8
sg79
F6
sg129
F8
ssg16
VEmpire
p1570
sg18
NsbsVEntertainment Weekly/Leah Greenblatt
p1571
g3
(g4
g5
NtRp1572
(dp1573
g8
g1571
sg9
VLeah Greenblatt
p1574
sg11
S'http://www.metacritic.com/critic/leah-greenblatt?filter=movies'
p1575
sg13
(dp1576
g165
F8.3000000000000007
sg183
F9.0999999999999996
sg128
F8.3000000000000007
ssg16
VEntertainment Weekly
p1577
sg18
NsbsVThe Dissolve/Mike D'Angelo
p1578
g3
(g4
g5
NtRp1579
(dp1580
g8
g1578
sg9
VMike D'Angelo
p1581
sg11
S'http://www.metacritic.com/critic/mike-dangelo?filter=movies'
p1582
sg13
(dp1583
g78
F6
ssg16
VThe Dissolve
p1584
sg18
NsbsVBaltimore Sun/Michael Sragow
p1585
g3
(g4
g5
NtRp1586
(dp1587
g8
g1585
sg9
VMichael Sragow
p1588
sg11
S'http://www.metacritic.com/critic/michael-sragow?filter=movies'
p1589
sg13
(dp1590
g231
F5
sg122
F10
sg127
F10
sg135
F10
sg139
F3.7999999999999998
sg157
F10
sg307
F8.8000000000000007
sg138
F10
sg41
F10
sg42
F10
sg141
F4.2000000000000002
sg124
F3.7999999999999998
sg145
F5
sg173
F5
sg151
F5.7999999999999998
sg152
F10
sg153
F10
sg156
F10
sg532
F10
sg292
F10
sg163
F6.2999999999999998
sg164
F10
sg166
F5
sg99
F10
sg169
F10
sg172
F5
sg168
F10
sg175
F6.2999999999999998
ssg16
VBaltimore Sun
p1591
sg18
NsbsVVariety/Deborah Young
p1592
g3
(g4
g5
NtRp1593
(dp1594
g8
g1592
sg9
VDeborah Young
p1595
sg11
S'http://www.metacritic.com/critic/deborah-young?filter=movies'
p1596
sg13
(dp1597
g231
F8
ssg16
VVariety
p1598
sg18
NsbsVPremiere/Sara Brady
p1599
g3
(g4
g5
NtRp1600
(dp1601
g8
g1599
sg9
VSara Brady
p1602
sg11
S'http://www.metacritic.com/critic?filter=movies'
p1603
sg13
(dp1604
g151
F7.5
ssg16
VPremiere
p1605
sg18
NsbsVThe New York Times/Elvis Mitchell
p1606
g3
(g4
g5
NtRp1607
(dp1608
g8
g1606
sg9
VElvis Mitchell
p1609
sg11
S'http://www.metacritic.com/critic/elvis-mitchell?filter=movies'
p1610
sg13
(dp1611
g154
F9
sg59
F10
sg144
F9
sg532
F9
sg173
F7
ssg16
VThe New York Times
p1612
sg18
NsbsVSan Francisco Chronicle/David Wiegand
p1613
g3
(g4
g5
NtRp1614
(dp1615
g8
g1613
sg9
VDavid Wiegand
p1616
sg11
S'http://www.metacritic.com/critic/david-wiegand?filter=movies'
p1617
sg13
(dp1618
g101
F10
ssg16
VSan Francisco Chronicle
p1619
sg18
NsbsVVariety/Staff (Not Credited)
p1620
g3
(g4
g5
NtRp1621
(dp1622
g8
g1620
sg9
VStaff (Not Credited)
p1623
sg11
S'http://www.metacritic.com/critic?filter=movies'
p1624
sg13
(dp1625
g205
F9
sg146
F8
sg59
F10
sg121
F9
sg136
F4
sg530
F9
sg531
F7
ssg16
VVariety
p1626
sg18
NsbsVTime/Richard Schickel
p1627
g3
(g4
g5
NtRp1628
(dp1629
g8
g1627
sg9
VRichard Schickel
p1630
sg11
S'http://www.metacritic.com/critic/richard-schickel?filter=movies'
p1631
sg13
(dp1632
g289
F8
sg110
F6
sg166
F5
sg152
F10
sg153
F5
sg168
F8
sg307
F3
sg172
F7
sg43
F6
sg131
F7
sg531
F8
sg141
F10
ssg16
VTime
p1633
sg18
NsbsVVillage Voice/David Ng
p1634
g3
(g4
g5
NtRp1635
(dp1636
g8
g1634
sg9
VDavid Ng
p1637
sg11
S'http://www.metacritic.com/critic?filter=movies'
p1638
sg13
(dp1639
g123
F5
ssg16
VVillage Voice
p1640
sg18
NsbsVVariety/Jay Weissberg
p1641
g3
(g4
g5
NtRp1642
(dp1643
g8
g1641
sg9
VJay Weissberg
p1644
sg11
S'http://www.metacritic.com/critic?filter=movies'
p1645
sg13
(dp1646
g673
F6
sg280
F7
sg169
F10
sg261
F9
sg260
F9
sg216
F8
ssg16
VVariety
p1647
sg18
NsbsVVariety/Dennis Harvey
p1648
g3
(g4
g5
NtRp1649
(dp1650
g8
g1648
sg9
VDennis Harvey
p1651
sg11
S'http://www.metacritic.com/critic/dennis-harvey?filter=movies'
p1652
sg13
(dp1653
g153
F7
sg513
F5
ssg16
VVariety
p1654
sg18
NsbsVVillage Voice/Scott Foundas
p1655
g3
(g4
g5
NtRp1656
(dp1657
g8
g1655
sg9
VScott Foundas
p1658
sg11
S'http://www.metacritic.com/critic?filter=movies'
p1659
sg13
(dp1660
g118
F10
sg119
F9
sg145
F10
sg279
F9
sg164
F9
sg134
F5
sg152
F10
sg153
F9
ssg16
VVillage Voice
p1661
sg18
NsbsVNew York Magazine (Vulture)/David Edelstein
p1662
g3
(g4
g5
NtRp1663
(dp1664
g8
g1662
sg9
VDavid Edelstein
p1665
sg11
S'http://www.metacritic.com/critic/david-edelstein?filter=movies'
p1666
sg13
(dp1667
g118
F10
sg119
F8
sg120
F8
sg122
F8
sg72
F10
sg157
F5
sg133
F7
sg126
F10
sg79
F10
sg128
F8
sg129
F9
sg155
F8
sg132
F9
sg71
F7
sg134
F5
sg521
F8
sg100
F4
sg74
F6
sg15
F7
sg137
F8
sg101
F9
sg138
F10
sg42
F9
sg141
F10
sg142
F6
sg151
F4
sg124
F8
sg261
F9
sg145
F5
sg148
F9
sg149
F9
sg161
F9
sg152
F9
sg153
F5
sg75
F9
sg73
F10
sg183
F9
sg82
F9
sg158
F4
sg159
F8
sg216
F7
sg160
F8
sg97
F9
sg69
F7
sg164
F10
sg165
F4
sg167
F9
sg99
F9
sg80
F10
sg169
F9
sg76
F9
sg170
F6
sg171
F10
sg290
F9
sg513
F10
sg81
F6
sg281
F8
ssg16
VNew York Magazine (Vulture)
p1668
sg18
NsbsVBaltimore Sun/Ann Hornaday
p1669
g3
(g4
g5
NtRp1670
(dp1671
g8
g1669
sg9
VAnn Hornaday
p1672
sg11
S'http://www.metacritic.com/critic/ann-hornaday?filter=movies'
p1673
sg13
(dp1674
g427
F3.7999999999999998
sg289
F10
sg110
F7.5
sg154
F10
ssg16
VBaltimore Sun
p1675
sg18
NsbsVHitfix/Daniel Fienberg
p1676
g3
(g4
g5
NtRp1677
(dp1678
g8
g1676
sg9
VDaniel Fienberg
p1679
sg11
S'http://www.metacritic.com/critic?filter=movies'
p1680
sg13
(dp1681
g513
F8.3000000000000007
ssg16
VHitfix
p1682
sg18
NsbsVTV Guide Magazine/Cammila Albertson
p1683
g3
(g4
g5
NtRp1684
(dp1685
g8
g1683
sg9
VCammila Albertson
p1686
sg11
S'http://www.metacritic.com/critic?filter=movies'
p1687
sg13
(dp1688
g139
F8.8000000000000007
ssg16
VTV Guide Magazine
p1689
sg18
NsbsVEntertainment Weekly/Kevin P. Sullivan
p1690
g3
(g4
g5
NtRp1691
(dp1692
g8
g1690
sg9
VKevin P. Sullivan
p1693
sg11
S'http://www.metacritic.com/critic?filter=movies'
p1694
sg13
(dp1695
g521
F8.3000000000000007
ssg16
VEntertainment Weekly
p1696
sg18
NsbsVSlant Magazine/R. Kurt Osenlund
p1697
g3
(g4
g5
NtRp1698
(dp1699
g8
g1697
sg9
VR. Kurt Osenlund
p1700
sg11
S'http://www.metacritic.com/critic/r-kurt-osenlund?filter=movies'
p1701
sg13
(dp1702
g74
F5
sg161
F8.8000000000000007
sg76
F7.5
ssg16
VSlant Magazine
p1703
sg18
NsbsVThe Playlist/Gregory Ellwood
p1704
g3
(g4
g5
NtRp1705
(dp1706
g8
g1704
sg9
VGregory Ellwood
p1707
sg11
S'http://www.metacritic.com/critic/gregory-ellwood?filter=movies'
p1708
sg13
(dp1709
g142
F7.5
ssg16
VThe Playlist
p1710
sg18
NsbsVThe Film Stage/Jared Mobarak
p1711
g3
(g4
g5
NtRp1712
(dp1713
g8
g1711
sg9
VJared Mobarak
p1714
sg11
S'http://www.metacritic.com/critic/jared-mobarak?filter=movies'
p1715
sg13
(dp1716
g419
F8.3000000000000007
ssg16
VThe Film Stage
p1717
sg18
NsbsVSan Francisco Chronicle/G. Allen Johnson
p1718
g3
(g4
g5
NtRp1719
(dp1720
g8
g1718
sg9
VG. Allen Johnson
p1721
sg11
S'http://www.metacritic.com/critic?filter=movies'
p1722
sg13
(dp1723
g419
F5
sg278
F7.5
sg102
F5
ssg16
VSan Francisco Chronicle
p1724
sg18
NsbsVVillage Voice/Melissa Anderson
p1725
g3
(g4
g5
NtRp1726
(dp1727
g8
g1725
sg9
VMelissa Anderson
p1728
sg11
S'http://www.metacritic.com/critic/melissa-anderson?filter=movies'
p1729
sg13
(dp1730
g75
F10
sg183
F10
ssg16
VVillage Voice
p1731
sg18
NsbsVSan Francisco Chronicle/Ruthe Stein
p1732
g3
(g4
g5
NtRp1733
(dp1734
g8
g1732
sg9
VRuthe Stein
p1735
sg11
S'http://www.metacritic.com/critic/ruthe-stein?filter=movies'
p1736
sg13
(dp1737
g122
F10
sg156
F10
ssg16
VSan Francisco Chronicle
p1738
sg18
NsbsVThe Globe and Mail (Toronto)/James Adams
p1739
g3
(g4
g5
NtRp1740
(dp1741
g8
g1739
sg9
VJames Adams
p1742
sg11
S'http://www.metacritic.com/critic/james-adams?filter=movies'
p1743
sg13
(dp1744
g82
F7.5
ssg16
VThe Globe and Mail (Toronto)
p1745
sg18
NsbsVVillage Voice/Robert Wilonsky
p1746
g3
(g4
g5
NtRp1747
(dp1748
g8
g1746
sg9
VRobert Wilonsky
p1749
sg11
S'http://www.metacritic.com/critic?filter=movies'
p1750
sg13
(dp1751
g138
F10
sg99
F10
ssg16
VVillage Voice
p1752
sg18
NsbsVScreen International/Lee Marshall
p1753
g3
(g4
g5
NtRp1754
(dp1755
g8
g1753
sg9
VLee Marshall
p1756
sg11
S'http://www.metacritic.com/critic/lee-marshall?filter=movies'
p1757
sg13
(dp1758
g75
F10
sg77
F8
sg81
F8
sg215
F6
ssg16
VScreen International
p1759
sg18
NsbsVMr. Showbiz/Michael Atkinson
p1760
g3
(g4
g5
NtRp1761
(dp1762
g8
g1760
sg9
VMichael Atkinson
p1763
sg11
S'http://www.metacritic.com/critic/michael-atkinson?filter=movies'
p1764
sg13
(dp1765
g529
F9
sg144
F3
sg292
F8
ssg16
VMr. Showbiz
p1766
sg18
NsbsVFilm Threat/Nick Antosca
p1767
g3
(g4
g5
NtRp1768
(dp1769
g8
g1767
sg9
VNick Antosca
p1770
sg11
S'http://www.metacritic.com/critic?filter=movies'
p1771
sg13
(dp1772
g124
F7
ssg16
VFilm Threat
p1773
sg18
NsbsVIndiewire/Greg Cwick
p1774
g3
(g4
g5
NtRp1775
(dp1776
g8
g1774
sg9
VGreg Cwick
p1777
sg11
S'http://www.metacritic.com/critic?filter=movies'
p1778
sg13
(dp1779
g281
F10
ssg16
VIndiewire
p1780
sg18
NsbsVPremiere/Staff (Not Credited)
p1781
g3
(g4
g5
NtRp1782
(dp1783
g8
g1781
sg9
VStaff (Not Credited)
p1784
sg11
S'http://www.metacritic.com/critic?filter=movies'
p1785
sg13
(dp1786
g136
F10
ssg16
VPremiere
p1787
sg18
NsbsVScreen International/Fionnuala Halligan
p1788
g3
(g4
g5
NtRp1789
(dp1790
g8
g1788
sg9
VFionnuala Halligan
p1791
sg11
S'http://www.metacritic.com/critic/fionnuala-halligan?filter=movies'
p1792
sg13
(dp1793
g98
F10
sg167
F9
ssg16
VScreen International
p1794
sg18
NsbsVAustin Chronicle/Marjorie Baumgarten
p1795
g3
(g4
g5
NtRp1796
(dp1797
g8
g1795
sg9
VMarjorie Baumgarten
p1798
sg11
S'http://www.metacritic.com/critic/marjorie-baumgarten?filter=movies'
p1799
sg13
(dp1800
g119
F7.7999999999999998
sg33
F8.9000000000000004
sg98
F10
sg277
F5
sg121
F10
sg122
F10
sg529
F7.7999999999999998
sg133
F6.7000000000000002
sg126
F8.9000000000000004
sg167
F7.7999999999999998
sg129
F10
sg140
F6.7000000000000002
sg205
F10
sg134
F5
sg136
F10
sg322
F7.7999999999999998
sg137
F7.7999999999999998
sg101
F10
sg141
F10
sg261
F8.9000000000000004
sg146
F10
sg147
F7.7999999999999998
sg173
F10
sg151
F6.7000000000000002
sg152
F8.9000000000000004
sg290
F8.9000000000000004
sg159
F10
sg215
F8.9000000000000004
sg59
F8.9000000000000004
sg99
F8.9000000000000004
sg80
F8.9000000000000004
sg172
F8.9000000000000004
sg513
F7.7999999999999998
sg281
F8.9000000000000004
ssg16
VAustin Chronicle
p1801
sg18
NsbsVVillage Voice/Aaron Cutler
p1802
g3
(g4
g5
NtRp1803
(dp1804
g8
g1802
sg9
VAaron Cutler
p1805
sg11
S'http://www.metacritic.com/critic/aaron-cutler?filter=movies'
p1806
sg13
(dp1807
g281
F9
ssg16
VVillage Voice
p1808
sg18
NsbsVScreenCrush/Britt Hayes
p1809
g3
(g4
g5
NtRp1810
(dp1811
g8
g1809
sg9
VBritt Hayes
p1812
sg11
S'http://www.metacritic.com/critic?filter=movies'
p1813
sg13
(dp1814
g77
F9
ssg16
VScreenCrush
p1815
sg18
NsbsVSan Francisco Chronicle/Peter Hartlaub
p1816
g3
(g4
g5
NtRp1817
(dp1818
g8
g1816
sg9
VPeter Hartlaub
p1819
sg11
S'http://www.metacritic.com/critic/peter-hartlaub?filter=movies'
p1820
sg13
(dp1821
g142
F7.5
sg164
F10
sg130
F2.5
sg137
F10
ssg16
VSan Francisco Chronicle
p1822
sg18
NsbsVTime Out London/Alex Dudok de Wit
p1823
g3
(g4
g5
NtRp1824
(dp1825
g8
g1823
sg9
VAlex Dudok de Wit
p1826
sg11
S'http://www.metacritic.com/critic?filter=movies'
p1827
sg13
(dp1828
g33
F8
ssg16
VTime Out London
p1829
sg18
NsbsVScreen International/Anthony Kaufman
p1830
g3
(g4
g5
NtRp1831
(dp1832
g8
g1830
sg9
VAnthony Kaufman
p1833
sg11
S'http://www.metacritic.com/critic?filter=movies'
p1834
sg13
(dp1835
g155
F7
sg128
F5
ssg16
VScreen International
p1836
sg18
NsbsVThe Globe and Mail (Toronto)/Brad Wheeler
p1837
g3
(g4
g5
NtRp1838
(dp1839
g8
g1837
sg9
VBrad Wheeler
p1840
sg11
S'http://www.metacritic.com/critic/brad-wheeler?filter=movies'
p1841
sg13
(dp1842
g150
F8.8000000000000007
sg215
F8.8000000000000007
ssg16
VThe Globe and Mail (Toronto)
p1843
sg18
NsbsVTV Guide Magazine/Perry Seibert
p1844
g3
(g4
g5
NtRp1845
(dp1846
g8
g1844
sg9
VPerry Seibert
p1847
sg11
S'http://www.metacritic.com/critic?filter=movies'
p1848
sg13
(dp1849
g99
F10
ssg16
VTV Guide Magazine
p1850
sg18
NsbsVThe Film Stage/Zhuo-Ning Su
p1851
g3
(g4
g5
NtRp1852
(dp1853
g8
g1851
sg9
VZhuo-Ning Su
p1854
sg11
S'http://www.metacritic.com/critic/zhuo-ning-su?filter=movies'
p1855
sg13
(dp1856
g322
F9.0999999999999996
sg278
F8.3000000000000007
ssg16
VThe Film Stage
p1857
sg18
NsbsVChristian Science Monitor/Peter Rainer
p1858
g3
(g4
g5
NtRp1859
(dp1860
g8
g1858
sg9
VPeter Rainer
p1861
sg11
S'http://www.metacritic.com/critic/peter-rainer?filter=movies'
p1862
sg13
(dp1863
g118
F5.7999999999999998
sg119
F7.5
sg33
F10
sg98
F10
sg70
F10
sg277
F5.7999999999999998
sg122
F10
sg72
F8.3000000000000007
sg157
F10
sg80
F7.5
sg126
F6.7000000000000002
sg79
F7.5
sg43
F8.3000000000000007
sg77
F5.7999999999999998
sg129
F10
sg155
F10
sg132
F10
sg71
F5
sg214
F10
sg134
F5.7999999999999998
sg100
F7.5
sg135
F10
sg74
F5.7999999999999998
sg322
F8.3000000000000007
sg137
F10
sg101
F6.7000000000000002
sg138
F9.0999999999999996
sg15
F7.5
sg42
F8.3000000000000007
sg260
F9.0999999999999996
sg120
F10
sg141
F9.0999999999999996
sg142
F7.5
sg143
F3.2999999999999998
sg151
F7.5
sg124
F6.7000000000000002
sg278
F9.0999999999999996
sg145
F9.0999999999999996
sg148
F8.3000000000000007
sg149
F7.5
sg150
F5.7999999999999998
sg161
F7.5
sg152
F10
sg153
F7.5
sg75
F6.7000000000000002
sg73
F8.3000000000000007
sg183
F9.0999999999999996
sg82
F9.0999999999999996
sg158
F7.5
sg216
F7.5
sg160
F5
sg97
F8.3000000000000007
sg69
F7.5
sg164
F8.3000000000000007
sg279
F7.5
sg165
F8.3000000000000007
sg99
F8.3000000000000007
sg102
F9.0999999999999996
sg169
F10
sg76
F7.5
sg170
F8.3000000000000007
sg171
F8.3000000000000007
sg172
F10
sg513
F8.3000000000000007
sg81
F9.0999999999999996
sg281
F9.0999999999999996
ssg16
VChristian Science Monitor
p1864
sg18
NsbsVBoston Globe/Peter Keough
p1865
g3
(g4
g5
NtRp1866
(dp1867
g8
g1865
sg9
VPeter Keough
p1868
sg11
S'http://www.metacritic.com/critic/peter-keough?filter=movies'
p1869
sg13
(dp1870
g97
F10
sg70
F10
sg521
F7.5
sg81
F10
sg261
F8.8000000000000007
sg79
F8.8000000000000007
sg77
F8.8000000000000007
ssg16
VBoston Globe
p1871
sg18
NsbsVNew York Magazine (Vulture)/Peter Rainer
p1872
g3
(g4
g5
NtRp1873
(dp1874
g8
g1872
sg9
VPeter Rainer
p1875
sg11
S'http://www.metacritic.com/critic/peter-rainer?filter=movies'
p1876
sg13
(dp1877
g231
F8
sg292
F10
sg173
F8
sg147
F10
sg174
F9
sg127
F10
sg529
F5
sg41
F10
sg307
F10
sg168
F9
sg291
F7
sg532
F8
sg175
F9
ssg16
VNew York Magazine (Vulture)
p1878
sg18
NsbsVFilm Threat/David Grove
p1879
g3
(g4
g5
NtRp1880
(dp1881
g8
g1879
sg9
VDavid Grove
p1882
sg11
S'http://www.metacritic.com/critic/david-grove?filter=movies'
p1883
sg13
(dp1884
g123
F6
ssg16
VFilm Threat
p1885
sg18
NsbsVAustin Chronicle/Josh Rosenblatt
p1886
g3
(g4
g5
NtRp1887
(dp1888
g8
g1886
sg9
VJosh Rosenblatt
p1889
sg11
S'http://www.metacritic.com/critic?filter=movies'
p1890
sg13
(dp1891
g153
F6.7000000000000002
sg169
F7.7999999999999998
sg42
F8.9000000000000004
sg163
F6.7000000000000002
ssg16
VAustin Chronicle
p1892
sg18
NsbsVSt. Louis Post-Dispatch/Gail Pennington
p1893
g3
(g4
g5
NtRp1894
(dp1895
g8
g1893
sg9
VGail Pennington
p1896
sg11
S'http://www.metacritic.com/critic/gail-pennington?filter=movies'
p1897
sg13
(dp1898
g73
F7.5
ssg16
VSt. Louis Post-Dispatch
p1899
sg18
NsbsVDallas Observer/Staff (Not credited)
p1900
g3
(g4
g5
NtRp1901
(dp1902
g8
g1900
sg9
VStaff (Not credited)
p1903
sg11
S'http://www.metacritic.com/critic?filter=movies'
p1904
sg13
(dp1905
g174
F8
ssg16
VDallas Observer
p1906
sg18
NsbsVThe New Yorker/Pauline Kael
p1907
g3
(g4
g5
NtRp1908
(dp1909
g8
g1907
sg9
VPauline Kael
p1910
sg11
S'http://www.metacritic.com/critic/pauline-kael?filter=movies'
p1911
sg13
(dp1912
g530
F3
ssg16
VThe New Yorker
p1913
sg18
NsbsVThe Globe and Mail (Toronto)/Gayle MacDonald
p1914
g3
(g4
g5
NtRp1915
(dp1916
g8
g1914
sg9
VGayle MacDonald
p1917
sg11
S'http://www.metacritic.com/critic?filter=movies'
p1918
sg13
(dp1919
g143
F5
ssg16
VThe Globe and Mail (Toronto)
p1920
sg18
NsbsVChicago Reader/Staff (not credited)
p1921
g3
(g4
g5
NtRp1922
(dp1923
g8
g1921
sg9
VStaff (not credited)
p1924
sg11
S'http://www.metacritic.com/critic?filter=movies'
p1925
sg13
(dp1926
g164
F10
ssg16
VChicago Reader
p1927
sg18
NsbsVThe Globe and Mail (Toronto)/Staff (Not Credited)
p1928
g3
(g4
g5
NtRp1929
(dp1930
g8
g1928
sg9
VStaff (Not Credited)
p1931
sg11
S'http://www.metacritic.com/critic?filter=movies'
p1932
sg13
(dp1933
g531
F8.8000000000000007
ssg16
VThe Globe and Mail (Toronto)
p1934
sg18
NsbsVThe Hollywood Reporter/Eric Hansen
p1935
g3
(g4
g5
NtRp1936
(dp1937
g8
g1935
sg9
VEric Hansen
p1938
sg11
S'http://www.metacritic.com/critic?filter=movies'
p1939
sg13
(dp1940
g42
F8
ssg16
VThe Hollywood Reporter
p1941
sg18
NsbsVChicago Reader/Ronnie Scheib
p1942
g3
(g4
g5
NtRp1943
(dp1944
g8
g1942
sg9
VRonnie Scheib
p1945
sg11
S'http://www.metacritic.com/critic/ronnie-scheib?filter=movies'
p1946
sg13
(dp1947
g291
F5
ssg16
VChicago Reader
p1948
sg18
NsbsVTime Out New York/Keith Uhlich
p1949
g3
(g4
g5
NtRp1950
(dp1951
g8
g1949
sg9
VKeith Uhlich
p1952
sg11
S'http://www.metacritic.com/critic/keith-uhlich?filter=movies'
p1953
sg13
(dp1954
g124
F8
sg279
F8
sg149
F8
sg134
F8
sg133
F6
sg171
F6
ssg16
VTime Out New York
p1955
sg18
NsbsVVillage Voice/Ed Gonzalez
p1956
g3
(g4
g5
NtRp1957
(dp1958
g8
g1956
sg9
VEd Gonzalez
p1959
sg11
S'http://www.metacritic.com/critic?filter=movies'
p1960
sg13
(dp1961
g43
F5
ssg16
VVillage Voice
p1962
sg18
NsbsVAustin Chronicle/Steve Davis
p1963
g3
(g4
g5
NtRp1964
(dp1965
g8
g1963
sg9
VSteve Davis
p1966
sg11
S'http://www.metacritic.com/critic/steve-davis?filter=movies'
p1967
sg13
(dp1968
g155
F8.9000000000000004
sg15
F10
sg128
F6.7000000000000002
sg216
F8.9000000000000004
ssg16
VAustin Chronicle
p1969
sg18
NsbsVLos Angeles Times/Kenneth Turan
p1970
g3
(g4
g5
NtRp1971
(dp1972
g8
g1970
sg9
VKenneth Turan
p1973
sg11
S'http://www.metacritic.com/critic/kenneth-turan?filter=movies'
p1974
sg13
(dp1975
g118
F10
sg142
F8
sg33
F10
sg98
F10
sg120
F10
sg122
F9
sg72
F10
sg529
F9
sg157
F8
sg124
F5
sg60
F3
sg126
F10
sg79
F9
sg129
F10
sg140
F7
sg289
F9
sg132
F10
sg110
F8
sg134
F5
sg100
F10
sg25
F10
sg419
F9
sg41
F10
sg137
F10
sg307
F9
sg138
F10
sg15
F10
sg42
F9
sg162
F2
sg260
F9
sg231
F10
sg141
F9
sg427
F3
sg144
F8
sg145
F10
sg147
F10
sg148
F10
sg149
F8
sg150
F10
sg151
F6
sg215
F6
sg153
F8
sg154
F8
sg155
F10
sg73
F10
sg183
F10
sg82
F10
sg174
F9
sg158
F10
sg159
F10
sg152
F10
sg291
F4
sg532
F10
sg161
F9
sg164
F10
sg59
F9
sg166
F9
sg99
F10
sg102
F8
sg169
F10
sg76
F10
sg170
F10
sg171
F10
sg172
F10
sg175
F10
sg80
F10
sg281
F10
ssg16
VLos Angeles Times
p1976
sg18
NsbsVLos Angeles Times/John Anderson
p1977
g3
(g4
g5
NtRp1978
(dp1979
g8
g1977
sg9
VJohn Anderson
p1980
sg11
S'http://www.metacritic.com/critic?filter=movies'
p1981
sg13
(dp1982
g131
F8
ssg16
VLos Angeles Times
p1983
sg18
NsbsVThe Globe and Mail (Toronto)/Barry Hertz
p1984
g3
(g4
g5
NtRp1985
(dp1986
g8
g1984
sg9
VBarry Hertz
p1987
sg11
S'http://www.metacritic.com/critic/barry-hertz?filter=movies'
p1988
sg13
(dp1989
g71
F8.8000000000000007
sg322
F6.2999999999999998
sg80
F8.8000000000000007
sg81
F5
sg167
F8.8000000000000007
ssg16
VThe Globe and Mail (Toronto)
p1990
sg18
NsbsVFilm.com/James Rocchi
p1991
g3
(g4
g5
NtRp1992
(dp1993
g8
g1991
sg9
VJames Rocchi
p1994
sg11
S'http://www.metacritic.com/critic/james-rocchi?filter=movies'
p1995
sg13
(dp1996
g74
F6.2999999999999998
ssg16
VFilm.com
p1997
sg18
NsbsVFilm.com/Tom Keogh
p1998
g3
(g4
g5
NtRp1999
(dp2000
g8
g1998
sg9
VTom Keogh
p2001
sg11
S'http://www.metacritic.com/critic/tom-keogh?filter=movies'
p2002
sg13
(dp2003
g427
F4
sg131
F8
ssg16
VFilm.com
p2004
sg18
NsbsVChicago Sun-Times/Patrick Z. McGavin
p2005
g3
(g4
g5
NtRp2006
(dp2007
g8
g2005
sg9
VPatrick Z. McGavin
p2008
sg11
S'http://www.metacritic.com/critic?filter=movies'
p2009
sg13
(dp2010
g521
F7.5
ssg16
VChicago Sun-Times
p2011
sg18
NsbsVPremiere/Nick Starkey
p2012
g3
(g4
g5
NtRp2013
(dp2014
g8
g2012
sg9
VNick Starkey
p2015
sg11
S'http://www.metacritic.com/critic?filter=movies'
p2016
sg13
(dp2017
g171
F10
ssg16
VPremiere
p2018
sg18
NsbsVVillage Voice/Danny King
p2019
g3
(g4
g5
NtRp2020
(dp2021
g8
g2019
sg9
VDanny King
p2022
sg11
S'http://www.metacritic.com/critic/danny-king?filter=movies'
p2023
sg13
(dp2024
g142
F8
ssg16
VVillage Voice
p2025
sg18
NsbsVChicago Reader/Lisa Alspector
p2026
g3
(g4
g5
NtRp2027
(dp2028
g8
g2026
sg9
VLisa Alspector
p2029
sg11
S'http://www.metacritic.com/critic/lisa-alspector?filter=movies'
p2030
sg13
(dp2031
g131
F8
ssg16
VChicago Reader
p2032
sg18
NsbsVChicago Sun-Times/Bruce Ingram
p2033
g3
(g4
g5
NtRp2034
(dp2035
g8
g2033
sg9
VBruce Ingram
p2036
sg11
S'http://www.metacritic.com/critic/bruce-ingram?filter=movies'
p2037
sg13
(dp2038
g148
F10
sg216
F7.5
ssg16
VChicago Sun-Times
p2039
sg18
NsbsVThe Dissolve/Nathan Rabin
p2040
g3
(g4
g5
NtRp2041
(dp2042
g8
g2040
sg9
VNathan Rabin
p2043
sg11
S'http://www.metacritic.com/critic/nathan-rabin?filter=movies'
p2044
sg13
(dp2045
g521
F8
ssg16
VThe Dissolve
p2046
sg18
NsbsVThe Guardian/Andrew Pulver
p2047
g3
(g4
g5
NtRp2048
(dp2049
g8
g2047
sg9
VAndrew Pulver
p2050
sg11
S'http://www.metacritic.com/critic/andrew-pulver?filter=movies'
p2051
sg13
(dp2052
g322
F8
sg148
F8
sg260
F8
ssg16
VThe Guardian
p2053
sg18
NsbsVThe Verge/Chris Plante
p2054
g3
(g4
g5
NtRp2055
(dp2056
g8
g2054
sg9
VChris Plante
p2057
sg11
S'http://www.metacritic.com/critic?filter=movies'
p2058
sg13
(dp2059
g98
F9.5
ssg16
VThe Verge
p2060
sg18
NsbsVThe Hollywood Reporter/Sura Wood
p2061
g3
(g4
g5
NtRp2062
(dp2063
g8
g2061
sg9
VSura Wood
p2064
sg11
S'http://www.metacritic.com/critic?filter=movies'
p2065
sg13
(dp2066
g153
F6
ssg16
VThe Hollywood Reporter
p2067
sg18
NsbsVHitfix/Catherine Bray
p2068
g3
(g4
g5
NtRp2069
(dp2070
g8
g2068
sg9
VCatherine Bray
p2071
sg11
S'http://www.metacritic.com/critic?filter=movies'
p2072
sg13
(dp2073
g74
F9.0999999999999996
ssg16
VHitfix
p2074
sg18
NsbsVChicago Reader/J.R. Jones
p2075
g3
(g4
g5
NtRp2076
(dp2077
g8
g2075
sg9
VJ.R. Jones
p2078
sg11
S'http://www.metacritic.com/critic/jr-jones?filter=movies'
p2079
sg13
(dp2080
g143
F7
sg124
F7
sg166
F5
sg130
F5
sg145
F8
sg158
F5
sg125
F4
sg149
F8
sg150
F3
sg151
F6
sg127
F9
sg169
F10
sg123
F5
sg139
F9
sg171
F10
sg174
F8
sg290
F10
sg170
F10
sg160
F8
sg129
F10
sg157
F10
ssg16
VChicago Reader
p2081
sg18
NsbsVThe Guardian/Xan Brooks
p2082
g3
(g4
g5
NtRp2083
(dp2084
g8
g2082
sg9
VXan Brooks
p2085
sg11
S'http://www.metacritic.com/critic/xan-brooks?filter=movies'
p2086
sg13
(dp2087
g69
F8
sg70
F8
sg120
F10
sg150
F8
sg72
F8
sg74
F6
sg78
F10
ssg16
VThe Guardian
p2088
sg18
NsbsVWashington Post/Ann Hornaday
p2089
g3
(g4
g5
NtRp2090
(dp2091
g8
g2089
sg9
VAnn Hornaday
p2092
sg11
S'http://www.metacritic.com/critic/ann-hornaday?filter=movies'
p2093
sg13
(dp2094
g118
F10
sg119
F6.2999999999999998
sg98
F10
sg70
F10
sg277
F7.5
sg122
F10
sg72
F10
sg157
F10
sg133
F5
sg126
F10
sg79
F7.5
sg43
F7
sg128
F10
sg155
F10
sg132
F10
sg71
F6.2999999999999998
sg214
F10
sg134
F3.7999999999999998
sg100
F10
sg74
F10
sg322
F8.8000000000000007
sg137
F10
sg101
F10
sg15
F10
sg260
F6.2999999999999998
sg120
F6.2999999999999998
sg141
F10
sg142
F8.8000000000000007
sg143
F2.5
sg124
F5
sg148
F7.5
sg149
F7.5
sg150
F8.8000000000000007
sg161
F10
sg153
F9
sg75
F8.8000000000000007
sg73
F10
sg183
F10
sg82
F10
sg158
F8.8000000000000007
sg159
F10
sg160
F7.5
sg97
F8.8000000000000007
sg69
F10
sg279
F7.5
sg165
F6.2999999999999998
sg166
F5
sg99
F10
sg80
F10
sg169
F9
sg76
F10
sg170
F10
sg171
F7.5
sg172
F7
sg173
F9
sg513
F10
sg81
F7.5
sg281
F7.5
ssg16
VWashington Post
p2095
sg18
NsbsVNPR/Mark Jenkins
p2096
g3
(g4
g5
NtRp2097
(dp2098
g8
g2096
sg9
VMark Jenkins
p2099
sg11
S'http://www.metacritic.com/critic/mark-jenkins?filter=movies'
p2100
sg13
(dp2101
g279
F7
ssg16
VNPR
p2102
sg18
NsbsVIndiewire/Adam Cook
p2103
g3
(g4
g5
NtRp2104
(dp2105
g8
g2103
sg9
VAdam Cook
p2106
sg11
S'http://www.metacritic.com/critic?filter=movies'
p2107
sg13
(dp2108
g278
F4.2000000000000002
ssg16
VIndiewire
p2109
sg18
NsbsVTNT RoughCut/Graham Verdon
p2110
g3
(g4
g5
NtRp2111
(dp2112
g8
g2110
sg9
VGraham Verdon
p2113
sg11
S'http://www.metacritic.com/critic?filter=movies'
p2114
sg13
(dp2115
g110
F4
ssg16
VTNT RoughCut
p2116
sg18
NsbsVTime Out New York/Cath Clarke
p2117
g3
(g4
g5
NtRp2118
(dp2119
g8
g2117
sg9
VCath Clarke
p2120
sg11
S'http://www.metacritic.com/critic?filter=movies'
p2121
sg13
(dp2122
g78
F8
ssg16
VTime Out New York
p2123
sg18
NsbsVConsequence of Sound/Dominick Suzanne-Mayer
p2124
g3
(g4
g5
NtRp2125
(dp2126
g8
g2124
sg9
VDominick Suzanne-Mayer
p2127
sg11
S'http://www.metacritic.com/critic/dominick-suzanne-mayer?filter=movies'
p2128
sg13
(dp2129
g142
F5.7999999999999998
sg15
F10
sg128
F4.2000000000000002
sg100
F9.0999999999999996
ssg16
VConsequence of Sound
p2130
sg18
NsbsVNew Times (L.A.)/Gregory Weinkauf
p2131
g3
(g4
g5
NtRp2132
(dp2133
g8
g2131
sg9
VGregory Weinkauf
p2134
sg11
S'http://www.metacritic.com/critic/gregory-weinkauf?filter=movies'
p2135
sg13
(dp2136
g292
F7
sg532
F9
ssg16
VNew Times (L.A.)
p2137
sg18
NsbsVEmpire/Phil de Semlyen
p2138
g3
(g4
g5
NtRp2139
(dp2140
g8
g2138
sg9
VPhil de Semlyen
p2141
sg11
S'http://www.metacritic.com/critic/phil-de-semlyen?filter=movies'
p2142
sg13
(dp2143
g214
F10
sg98
F10
ssg16
VEmpire
p2144
sg18
NsbsVChicago Tribune/Dave Kehr
p2145
g3
(g4
g5
NtRp2146
(dp2147
g8
g2145
sg9
VDave Kehr
p2148
sg11
S'http://www.metacritic.com/critic/dave-kehr?filter=movies'
p2149
sg13
(dp2150
g530
F8.8000000000000007
ssg16
VChicago Tribune
p2151
sg18
NsbsVSlant Magazine/Steve Macfarlane
p2152
g3
(g4
g5
NtRp2153
(dp2154
g8
g2152
sg9
VSteve Macfarlane
p2155
sg11
S'http://www.metacritic.com/critic/steve-macfarlane?filter=movies'
p2156
sg13
(dp2157
g159
F7.5
ssg16
VSlant Magazine
p2158
sg18
NsbsVWe Got This Covered/Sam Woolf
p2159
g3
(g4
g5
NtRp2160
(dp2161
g8
g2159
sg9
VSam Woolf
p2162
sg11
S'http://www.metacritic.com/critic?filter=movies'
p2163
sg13
(dp2164
g167
F8
ssg16
VWe Got This Covered
p2165
sg18
NsbsVWashington Post/Desson Thomson
p2166
g3
(g4
g5
NtRp2167
(dp2168
g8
g2166
sg9
VDesson Thomson
p2169
sg11
S'http://www.metacritic.com/critic/desson-thomson?filter=movies'
p2170
sg13
(dp2171
g529
F9
sg123
F8
sg60
F4
sg125
F6
sg530
F10
sg140
F8
sg131
F9
sg127
F10
sg136
F10
sg139
F7
sg307
F9
sg154
F9
sg41
F10
sg42
F10
sg162
F8
sg427
F3
sg144
F8
sg147
F10
sg156
F6
sg174
F9
sg291
F10
sg532
F10
sg292
F9
sg51
F8
sg164
F9
sg59
F7
sg166
F9
sg289
F9
sg463
F4
sg168
F10
sg175
F8
ssg16
VWashington Post
p2172
sg18
NsbsVPortland Oregonian/Jeff Baker
p2173
g3
(g4
g5
NtRp2174
(dp2175
g8
g2173
sg9
VJeff Baker
p2176
sg11
S'http://www.metacritic.com/critic/jeff-baker?filter=movies'
p2177
sg13
(dp2178
g69
F8.3000000000000007
sg165
F6.7000000000000002
sg167
F9.0999999999999996
sg521
F9.0999999999999996
sg80
F10
sg155
F8.3000000000000007
sg159
F10
sg260
F9.0999999999999996
sg513
F9.0999999999999996
ssg16
VPortland Oregonian
p2179
sg18
NsbsVSlant Magazine/John Semley
p2180
g3
(g4
g5
NtRp2181
(dp2182
g8
g2180
sg9
VJohn Semley
p2183
sg11
S'http://www.metacritic.com/critic?filter=movies'
p2184
sg13
(dp2185
g118
F7.5
sg119
F6.2999999999999998
ssg16
VSlant Magazine
p2186
sg18
NsbsVVariety/Lisa Nesselson
p2187
g3
(g4
g5
NtRp2188
(dp2189
g8
g2187
sg9
VLisa Nesselson
p2190
sg11
S'http://www.metacritic.com/critic/lisa-nesselson?filter=movies'
p2191
sg13
(dp2192
g290
F9
sg291
F8
sg156
F9
ssg16
VVariety
p2193
sg18
NsbsVCineVue/Craig Williams
p2194
g3
(g4
g5
NtRp2195
(dp2196
g8
g2194
sg9
VCraig Williams
p2197
sg11
S'http://www.metacritic.com/critic?filter=movies'
p2198
sg13
(dp2199
g69
F10
ssg16
VCineVue
p2200
sg18
NsbsVThe Globe and Mail (Toronto)/Rick Groen
p2201
g3
(g4
g5
NtRp2202
(dp2203
g8
g2201
sg9
VRick Groen
p2204
sg11
S'http://www.metacritic.com/critic/rick-groen?filter=movies'
p2205
sg13
(dp2206
g231
F6.2999999999999998
sg133
F7.5
sg60
F3.7999999999999998
sg126
F10
sg43
F6.2999999999999998
sg129
F8.8000000000000007
sg173
F7.5
sg135
F8.8000000000000007
sg157
F7.5
sg42
F8.8000000000000007
sg162
F3.7999999999999998
sg137
F10
sg124
F5
sg147
F7.5
sg149
F7.5
sg151
F7.5
sg152
F10
sg153
F6.2999999999999998
sg290
F8.8000000000000007
sg156
F7.5
sg158
F7.5
sg160
F8.8000000000000007
sg161
F8.8000000000000007
sg279
F7.5
sg59
F8.8000000000000007
sg170
F8.8000000000000007
sg171
F7.5
sg172
F7.5
ssg16
VThe Globe and Mail (Toronto)
p2207
sg18
NsbsVRogerEbert.com/Sheila O'Malley
p2208
g3
(g4
g5
NtRp2209
(dp2210
g8
g2208
sg9
VSheila O'Malley
p2211
sg11
S'http://www.metacritic.com/critic/sheila-omalley?filter=movies'
p2212
sg13
(dp2213
g165
F3.7999999999999998
sg128
F3.7999999999999998
sg322
F7.5
sg159
F8.8000000000000007
sg80
F8.8000000000000007
sg77
F8.8000000000000007
ssg16
VRogerEbert.com
p2214
sg18
NsbsVThe A.V. Club/Nathan Rabin
p2215
g3
(g4
g5
NtRp2216
(dp2217
g8
g2215
sg9
VNathan Rabin
p2218
sg11
S'http://www.metacritic.com/critic/nathan-rabin?filter=movies'
p2219
sg13
(dp2220
g119
F9.0999999999999996
sg144
F10
sg143
F7.5
sg175
F9
sg135
F8
sg123
F7
sg157
F8.3000000000000007
sg141
F10
sg160
F10
sg140
F5
ssg16
VThe A.V. Club
p2221
sg18
NsbsVThe A.V. Club/Mike D'Angelo
p2222
g3
(g4
g5
NtRp2223
(dp2224
g8
g2222
sg9
VMike D'Angelo
p2225
sg11
S'http://www.metacritic.com/critic/mike-dangelo?filter=movies'
p2226
sg13
(dp2227
g97
F8.3000000000000007
sg278
F5
sg70
F7.5
sg277
F6.7000000000000002
sg214
F8.3000000000000007
sg521
F7.5
sg215
F5
sg75
F10
sg159
F9.0999999999999996
sg102
F8.3000000000000007
sg167
F10
sg81
F9.0999999999999996
ssg16
VThe A.V. Club
p2228
sg18
NsbsVFilm Threat/Staff (Not credited)
p2229
g3
(g4
g5
NtRp2230
(dp2231
g8
g2229
sg9
VStaff (Not credited)
p2232
sg11
S'http://www.metacritic.com/critic?filter=movies'
p2233
sg13
(dp2234
g231
F6
ssg16
VFilm Threat
p2235
sg18
NsbsVSeattle Post-Intelligencer/William Arnold
p2236
g3
(g4
g5
NtRp2237
(dp2238
g8
g2236
sg9
VWilliam Arnold
p2239
sg11
S'http://www.metacritic.com/critic/william-arnold?filter=movies'
p2240
sg13
(dp2241
g125
F2.5
sg140
F10
sg131
F10
sg110
F8.3000000000000007
sg127
F10
sg135
F8.3000000000000007
sg41
F10
sg157
F5
sg162
F5.7999999999999998
sg137
F6.7000000000000002
sg427
F4.2000000000000002
sg144
F7.5
sg147
F8.3000000000000007
sg173
F7.5
sg151
F9.0999999999999996
sg153
F10
sg156
F7.5
sg291
F10
sg532
F9.0999999999999996
sg163
F5.7999999999999998
sg166
F9.0999999999999996
sg289
F10
sg172
F9.0999999999999996
sg463
F4.2000000000000002
sg141
F10
sg168
F6.7000000000000002
ssg16
VSeattle Post-Intelligencer
p2242
sg18
NsbsVCineVue/Joe Walsh
p2243
g3
(g4
g5
NtRp2244
(dp2245
g8
g2243
sg9
VJoe Walsh
p2246
sg11
S'http://www.metacritic.com/critic/joe-walsh?filter=movies'
p2247
sg13
(dp2248
g73
F8
sg15
F10
ssg16
VCineVue
p2249
sg18
NsbsVVillage Voice/J. Hoberman
p2250
g3
(g4
g5
NtRp2251
(dp2252
g8
g2250
sg9
VJ. Hoberman
p2253
sg11
S'http://www.metacritic.com/critic/j-hoberman?filter=movies'
p2254
sg13
(dp2255
g231
F7
sg276
F8
sg122
F10
sg529
F9
sg124
F9
sg129
F8
sg289
F4
sg110
F8
sg127
F7
sg135
F7
sg41
F8
sg157
F9
sg42
F7
sg141
F10
sg144
F4
sg147
F9
sg173
F9
sg151
F8
sg137
F9
sg291
F7
sg532
F8
sg292
F4
sg169
F10
sg170
F7
sg171
F7
sg172
F7
sg168
F7
sg175
F9
ssg16
VVillage Voice
p2256
sg18
NsbsVScreen International/David D'Arcy
p2257
g3
(g4
g5
NtRp2258
(dp2259
g8
g2257
sg9
VDavid D'Arcy
p2260
sg11
S'http://www.metacritic.com/critic/david-darcy?filter=movies'
p2261
sg13
(dp2262
g25
F7
ssg16
VScreen International
p2263
sg18
NsbsVThe Film Stage/Rory O'Connor
p2264
g3
(g4
g5
NtRp2265
(dp2266
g8
g2264
sg9
VRory O'Connor
p2267
sg11
S'http://www.metacritic.com/critic/rory-oconnor?filter=movies'
p2268
sg13
(dp2269
g68
F10
ssg16
VThe Film Stage
p2270
sg18
NsbsVFilm Threat/Zach Haddad
p2271
g3
(g4
g5
NtRp2272
(dp2273
g8
g2271
sg9
VZach Haddad
p2274
sg11
S'http://www.metacritic.com/critic?filter=movies'
p2275
sg13
(dp2276
g130
F6
ssg16
VFilm Threat
p2277
sg18
NsbsVConsequence of Sound/Collin Brennan
p2278
g3
(g4
g5
NtRp2279
(dp2280
g8
g2278
sg9
VCollin Brennan
p2281
sg11
S'http://www.metacritic.com/critic/collin-brennan?filter=movies'
p2282
sg13
(dp2283
g322
F5
ssg16
VConsequence of Sound
p2284
sg18
NsbsVThe Globe and Mail (Toronto)/Geoff Pevere
p2285
g3
(g4
g5
NtRp2286
(dp2287
g8
g2285
sg9
VGeoff Pevere
p2288
sg11
S'http://www.metacritic.com/critic?filter=movies'
p2289
sg13
(dp2290
g260
F7.5
ssg16
VThe Globe and Mail (Toronto)
p2291
sg18
NsbsVBoxoffice Magazine/Pete Hammond
p2292
g3
(g4
g5
NtRp2293
(dp2294
g8
g2292
sg9
VPete Hammond
p2295
sg11
S'http://www.metacritic.com/critic/pete-hammond?filter=movies'
p2296
sg13
(dp2297
g158
F10
sg170
F10
sg161
F8
sg149
F9
sg133
F9
ssg16
VBoxoffice Magazine
p2298
sg18
NsbsVThe Hollywood Reporter/John DeFore
p2299
g3
(g4
g5
NtRp2300
(dp2301
g8
g2299
sg9
VJohn DeFore
p2302
sg11
S'http://www.metacritic.com/critic/john-defore?filter=movies'
p2303
sg13
(dp2304
g165
F10
sg521
F8
sg141
F10
ssg16
VThe Hollywood Reporter
p2305
sg18
NsbsVEntertainment Weekly/Joe McGovern
p2306
g3
(g4
g5
NtRp2307
(dp2308
g8
g2306
sg9
VJoe McGovern
p2309
sg11
S'http://www.metacritic.com/critic/joe-mcgovern?filter=movies'
p2310
sg13
(dp2311
g97
F10
sg214
F8.3000000000000007
sg33
F9.0999999999999996
sg102
F9.0999999999999996
ssg16
VEntertainment Weekly
p2312
sg18
NsbsVScreenCrush/Jordan Hoffman
p2313
g3
(g4
g5
NtRp2314
(dp2315
g8
g2313
sg9
VJordan Hoffman
p2316
sg11
S'http://www.metacritic.com/critic?filter=movies'
p2317
sg13
(dp2318
g15
F10
ssg16
VScreenCrush
p2319
sg18
NsbsVThe Hollywood Reporter/Todd McCarthy
p2320
g3
(g4
g5
NtRp2321
(dp2322
g8
g2320
sg9
VTodd McCarthy
p2323
sg11
S'http://www.metacritic.com/critic/todd-mccarthy?filter=movies'
p2324
sg13
(dp2325
g118
F10
sg119
F8
sg98
F9
sg120
F10
sg134
F6
sg167
F10
sg132
F9
sg71
F5
sg72
F10
sg25
F6
sg74
F10
sg15
F9
sg101
F7
sg142
F9
sg148
F9
sg149
F9
sg150
F10
sg155
F10
sg73
F9
sg82
F10
sg159
F9
sg161
F8
sg69
F7
sg102
F8
sg76
F8
sg80
F6
sg281
F10
ssg16
VThe Hollywood Reporter
p2326
sg18
NsbsVWall Street Journal/John Anderson
p2327
g3
(g4
g5
NtRp2328
(dp2329
g8
g2327
sg9
VJohn Anderson
p2330
sg11
S'http://www.metacritic.com/critic/john-anderson?filter=movies'
p2331
sg13
(dp2332
g158
F5
sg102
F8
ssg16
VWall Street Journal
p2333
sg18
NsbsVFilm Threat/Stina Chyn
p2334
g3
(g4
g5
NtRp2335
(dp2336
g8
g2334
sg9
VStina Chyn
p2337
sg11
S'http://www.metacritic.com/critic/stina-chyn?filter=movies'
p2338
sg13
(dp2339
g43
F8
sg175
F8
ssg16
VFilm Threat
p2340
sg18
NsbsVDallas Observer/Gregory Weinkauf
p2341
g3
(g4
g5
NtRp2342
(dp2343
g8
g2341
sg9
VGregory Weinkauf
p2344
sg11
S'http://www.metacritic.com/critic/gregory-weinkauf?filter=movies'
p2345
sg13
(dp2346
g121
F10
sg41
F10
sg175
F4
sg127
F9
ssg16
VDallas Observer
p2347
sg18
NsbsVThe Globe and Mail (Toronto)/John Semley
p2348
g3
(g4
g5
NtRp2349
(dp2350
g8
g2348
sg9
VJohn Semley
p2351
sg11
S'http://www.metacritic.com/critic/john-semley?filter=movies'
p2352
sg13
(dp2353
g513
F2.5
ssg16
VThe Globe and Mail (Toronto)
p2354
sg18
NsbsVVariety/Owen Gleiberman
p2355
g3
(g4
g5
NtRp2356
(dp2357
g8
g2355
sg9
VOwen Gleiberman
p2358
sg11
S'http://www.metacritic.com/critic/owen-gleiberman?filter=movies'
p2359
sg13
(dp2360
g97
F10
sg71
F9
sg101
F6
ssg16
VVariety
p2361
sg18
NsbsVLos Angeles Times/Mark Olsen
p2362
g3
(g4
g5
NtRp2363
(dp2364
g8
g2362
sg9
VMark Olsen
p2365
sg11
S'http://www.metacritic.com/critic/mark-olsen?filter=movies'
p2366
sg13
(dp2367
g167
F9
ssg16
VLos Angeles Times
p2368
sg18
NsbsVEmpire/Simon Braund
p2369
g3
(g4
g5
NtRp2370
(dp2371
g8
g2369
sg9
VSimon Braund
p2372
sg11
S'http://www.metacritic.com/critic?filter=movies'
p2373
sg13
(dp2374
g162
F4
sg139
F8
ssg16
VEmpire
p2375
sg18
NsbsVSan Francisco Chronicle/Michael Ordoa
p2376
g3
(g4
g5
NtRp2377
(dp2378
g8
g2376
sg9
VMichael Ordoa
p2379
sg11
S'http://www.metacritic.com/critic?filter=movies'
p2380
sg13
(dp2381
g322
F7.5
ssg16
VSan Francisco Chronicle
p2382
sg18
NsbsVThe Playlist/Russ Fischer
p2383
g3
(g4
g5
NtRp2384
(dp2385
g8
g2383
sg9
VRuss Fischer
p2386
sg11
S'http://www.metacritic.com/critic/russ-fischer?filter=movies'
p2387
sg13
(dp2388
g71
F9.0999999999999996
sg128
F5
ssg16
VThe Playlist
p2389
sg18
NsbsVTheWrap/Alonso Duralde
p2390
g3
(g4
g5
NtRp2391
(dp2392
g8
g2390
sg9
VAlonso Duralde
p2393
sg11
S'http://www.metacritic.com/critic/alonso-duralde?filter=movies'
p2394
sg13
(dp2395
g277
F6.5999999999999996
sg71
F7.2000000000000002
sg167
F8.5
sg521
F9
sg513
F8
sg74
F9
sg155
F8.5
sg73
F8.9000000000000004
sg183
F8.5
sg80
F9.5
sg159
F9.5
sg128
F9
sg216
F9.1999999999999993
ssg16
VTheWrap
p2396
sg18
NsbsVNewsweek/Jack Kroll
p2397
g3
(g4
g5
NtRp2398
(dp2399
g8
g2397
sg9
VJack Kroll
p2400
sg11
S'http://www.metacritic.com/critic?filter=movies'
p2401
sg13
(dp2402
g530
F10
sg144
F8
ssg16
VNewsweek
p2403
sg18
NsbsVPremiere/Staff (Not credited)
p2404
g3
(g4
g5
NtRp2405
(dp2406
g8
g2404
sg9
VStaff (Not credited)
p2407
sg11
S'http://www.metacritic.com/critic?filter=movies'
p2408
sg13
(dp2409
g158
F8.8000000000000007
sg99
F8.8000000000000007
ssg16
VPremiere
p2410
sg18
NsbsVVillage Voice/April Wolfe
p2411
g3
(g4
g5
NtRp2412
(dp2413
g8
g2411
sg9
VApril Wolfe
p2414
sg11
S'http://www.metacritic.com/critic/april-wolfe?filter=movies'
p2415
sg13
(dp2416
g98
F10
ssg16
VVillage Voice
p2417
sg18
NsbsVThe Hollywood Reporter/Deborah Young
p2418
g3
(g4
g5
NtRp2419
(dp2420
g8
g2418
sg9
VDeborah Young
p2421
sg11
S'http://www.metacritic.com/critic/deborah-young?filter=movies'
p2422
sg13
(dp2423
g97
F8
sg278
F5
sg276
F7
sg70
F8
sg68
F9
sg78
F8
sg126
F10
sg79
F9
sg129
F9
ssg16
VThe Hollywood Reporter
p2424
sg18
NsbsVTheWrap/Inkoo Kang
p2425
g3
(g4
g5
NtRp2426
(dp2427
g8
g2425
sg9
VInkoo Kang
p2428
sg11
S'http://www.metacritic.com/critic/inkoo-kang?filter=movies'
p2429
sg13
(dp2430
g165
F5.5
sg100
F10
sg33
F9
sg215
F7.5
ssg16
VTheWrap
p2431
sg18
NsbsVHitfix/Drew McWeeny
p2432
g3
(g4
g5
NtRp2433
(dp2434
g8
g2432
sg9
VDrew McWeeny
p2435
sg11
S'http://www.metacritic.com/critic/drew-mcweeny?filter=movies'
p2436
sg13
(dp2437
g142
F5
sg69
F10
sg98
F10
sg148
F10
sg71
F8.3000000000000007
sg73
F10
sg81
F10
sg216
F10
ssg16
VHitfix
p2438
sg18
NsbsVEmpire/David Hughes
p2439
g3
(g4
g5
NtRp2440
(dp2441
g8
g2439
sg9
VDavid Hughes
p2442
sg11
S'http://www.metacritic.com/critic/david-hughes?filter=movies'
p2443
sg13
(dp2444
g231
F8
sg126
F10
sg281
F8
sg260
F10
sg78
F8
ssg16
VEmpire
p2445
sg18
NsbsVThe Playlist/Drew Taylor
p2446
g3
(g4
g5
NtRp2447
(dp2448
g8
g2446
sg9
VDrew Taylor
p2449
sg11
S'http://www.metacritic.com/critic/drew-taylor?filter=movies'
p2450
sg13
(dp2451
g161
F5
sg521
F7.5
ssg16
VThe Playlist
p2452
sg18
NsbsVChicago Reader/Dave Kehr
p2453
g3
(g4
g5
NtRp2454
(dp2455
g8
g2453
sg9
VDave Kehr
p2456
sg11
S'http://www.metacritic.com/critic/dave-kehr?filter=movies'
p2457
sg13
(dp2458
g205
F10
sg146
F2
ssg16
VChicago Reader
p2459
sg18
NsbsVSlant Magazine/Chris Cabin
p2460
g3
(g4
g5
NtRp2461
(dp2462
g8
g2460
sg9
VChris Cabin
p2463
sg11
S'http://www.metacritic.com/critic/chris-cabin?filter=movies'
p2464
sg13
(dp2465
g277
F6.2999999999999998
sg69
F10
sg82
F8.8000000000000007
sg281
F7.5
ssg16
VSlant Magazine
p2466
sg18
NsbsVThe Globe and Mail (Toronto)/Ray Conlogue
p2467
g3
(g4
g5
NtRp2468
(dp2469
g8
g2467
sg9
VRay Conlogue
p2470
sg11
S'http://www.metacritic.com/critic/ray-conlogue?filter=movies'
p2471
sg13
(dp2472
g123
F7.5
ssg16
VThe Globe and Mail (Toronto)
p2473
sg18
NsbsVEmpire/Liz Beardsworth
p2474
g3
(g4
g5
NtRp2475
(dp2476
g8
g2474
sg9
VLiz Beardsworth
p2477
sg11
S'http://www.metacritic.com/critic?filter=movies'
p2478
sg13
(dp2479
g322
F8
sg215
F10
ssg16
VEmpire
p2480
sg18
NsbsVChicago Tribune/Tasha Robinson
p2481
g3
(g4
g5
NtRp2482
(dp2483
g8
g2481
sg9
VTasha Robinson
p2484
sg11
S'http://www.metacritic.com/critic?filter=movies'
p2485
sg13
(dp2486
g290
F8.8000000000000007
ssg16
VChicago Tribune
p2487
sg18
NsbsVThe Playlist/Rodrigo Perez
p2488
g3
(g4
g5
NtRp2489
(dp2490
g8
g2488
sg9
VRodrigo Perez
p2491
sg11
S'http://www.metacritic.com/critic/rodrigo-perez?filter=movies'
p2492
sg13
(dp2493
g118
F8.3000000000000007
sg119
F4.2000000000000002
sg69
F8.3000000000000007
sg132
F9.0999999999999996
sg165
F9.0999999999999996
sg134
F8.3000000000000007
sg155
F10
sg79
F8.3000000000000007
sg260
F9.0999999999999996
sg513
F8.3000000000000007
sg81
F8.3000000000000007
ssg16
VThe Playlist
p2494
sg18
NsbsVTNT RoughCut/Christopher Brandon
p2495
g3
(g4
g5
NtRp2496
(dp2497
g8
g2495
sg9
VChristopher Brandon
p2498
sg11
S'http://www.metacritic.com/critic/christopher-brandon?filter=movies'
p2499
sg13
(dp2500
g289
F10
sg144
F7
ssg16
VTNT RoughCut
p2501
sg18
NsbsVSan Francisco Examiner/G. Allen Johnson
p2502
g3
(g4
g5
NtRp2503
(dp2504
g8
g2502
sg9
VG. Allen Johnson
p2505
sg11
S'http://www.metacritic.com/critic/g-allen-johnson?filter=movies'
p2506
sg13
(dp2507
g154
F8.8000000000000007
sg60
F0
ssg16
VSan Francisco Examiner
p2508
sg18
NsbsVThe Seattle Times/Michael Upchurch
p2509
g3
(g4
g5
NtRp2510
(dp2511
g8
g2509
sg9
VMichael Upchurch
p2512
sg11
S'http://www.metacritic.com/critic?filter=movies'
p2513
sg13
(dp2514
g102
F7.5
ssg16
VThe Seattle Times
p2515
sg18
NsbsVVillage Voice/Stephanie Zacharek
p2516
g3
(g4
g5
NtRp2517
(dp2518
g8
g2516
sg9
VStephanie Zacharek
p2519
sg11
S'http://www.metacritic.com/critic/stephanie-zacharek?filter=movies'
p2520
sg13
(dp2521
g69
F9
sg132
F4
sg165
F7
sg214
F9
sg72
F10
sg521
F8
sg80
F10
sg74
F7
sg15
F8
sg82
F10
sg159
F8
sg260
F9
sg277
F9
sg216
F9
ssg16
VVillage Voice
p2522
sg18
NsbsVThe Globe and Mail (Toronto)/Nathalie Atkinson 
p2523
g3
(g4
g5
NtRp2524
(dp2525
g8
g2523
sg9
VNathalie Atkinson 
p2526
sg11
S'http://www.metacritic.com/critic?filter=movies'
p2527
sg13
(dp2528
g521
F7.5
ssg16
VThe Globe and Mail (Toronto)
p2529
sg18
NsbsVSan Francisco Chronicle/C.W. Nevius
p2530
g3
(g4
g5
NtRp2531
(dp2532
g8
g2530
sg9
VC.W. Nevius
p2533
sg11
S'http://www.metacritic.com/critic/cw-nevius?filter=movies'
p2534
sg13
(dp2535
g125
F7.5
ssg16
VSan Francisco Chronicle
p2536
sg18
NsbsVEmpire/Staff (Not credited)
p2537
g3
(g4
g5
NtRp2538
(dp2539
g8
g2537
sg9
VStaff (Not credited)
p2540
sg11
S'http://www.metacritic.com/critic?filter=movies'
p2541
sg13
(dp2542
g172
F10
sg183
F8
ssg16
VEmpire
p2543
sg18
NsbsVLos Angeles Times/Michael Ordona
p2544
g3
(g4
g5
NtRp2545
(dp2546
g8
g2544
sg9
VMichael Ordona
p2547
sg11
S'http://www.metacritic.com/critic?filter=movies'
p2548
sg13
(dp2549
g130
F5
ssg16
VLos Angeles Times
p2550
sg18
NsbsVTotal Film/Matt Glasby
p2551
g3
(g4
g5
NtRp2552
(dp2553
g8
g2551
sg9
VMatt Glasby
p2554
sg11
S'http://www.metacritic.com/critic/matt-glasby?filter=movies'
p2555
sg13
(dp2556
g119
F8
sg277
F8
sg167
F10
ssg16
VTotal Film
p2557
sg18
NsbsVThe A.V. Club/Scott Tobias
p2558
g3
(g4
g5
NtRp2559
(dp2560
g8
g2558
sg9
VScott Tobias
p2561
sg11
S'http://www.metacritic.com/critic/scott-tobias?filter=movies'
p2562
sg13
(dp2563
g118
F10
sg169
F10
sg276
F9.0999999999999996
sg147
F9
sg120
F10
sg173
F9
sg150
F9.0999999999999996
sg151
F7.5
sg153
F9.0999999999999996
sg125
F5
sg133
F7.5
sg231
F8
sg171
F5
sg158
F9.0999999999999996
sg126
F10
sg279
F9.0999999999999996
sg168
F7
sg129
F10
sg156
F6
ssg16
VThe A.V. Club
p2564
sg18
NsbsVChicago Sun-Times/Mary Houlihan
p2565
g3
(g4
g5
NtRp2566
(dp2567
g8
g2565
sg9
VMary Houlihan
p2568
sg11
S'http://www.metacritic.com/critic/mary-houlihan?filter=movies'
p2569
sg13
(dp2570
g33
F7.5
ssg16
VChicago Sun-Times
p2571
sg18
NsbsVFilm.com/John Hartl
p2572
g3
(g4
g5
NtRp2573
(dp2574
g8
g2572
sg9
VJohn Hartl
p2575
sg11
S'http://www.metacritic.com/critic/john-hartl?filter=movies'
p2576
sg13
(dp2577
g205
F10
sg59
F10
sg131
F8
ssg16
VFilm.com
p2578
sg18
NsbsVMTV News/Amy Nicholson
p2579
g3
(g4
g5
NtRp2580
(dp2581
g8
g2579
sg9
VAmy Nicholson
p2582
sg11
S'http://www.metacritic.com/critic/amy-nicholson?filter=movies'
p2583
sg13
(dp2584
g142
F5
sg98
F6.7000000000000002
sg128
F6.7000000000000002
ssg16
VMTV News
p2585
sg18
NsbsVVariety/Editor
p2586
g3
(g4
g5
NtRp2587
(dp2588
g8
g2586
sg9
VEditor
p2589
sg11
S'http://www.metacritic.com/critic?filter=movies'
p2590
sg13
(dp2591
g427
F2
ssg16
VVariety
p2592
sg18
NsbsVTotal Film/Kate Stables
p2593
g3
(g4
g5
NtRp2594
(dp2595
g8
g2593
sg9
VKate Stables
p2596
sg11
S'http://www.metacritic.com/critic?filter=movies'
p2597
sg13
(dp2598
g161
F8
ssg16
VTotal Film
p2599
sg18
NsbsVThe New York Times/Ken Jaworowski
p2600
g3
(g4
g5
NtRp2601
(dp2602
g8
g2600
sg9
VKen Jaworowski
p2603
sg11
S'http://www.metacritic.com/critic/ken-jaworowski?filter=movies'
p2604
sg13
(dp2605
g206
F7
ssg16
VThe New York Times
p2606
sg18
NsbsVPremiere/Jenni Miller
p2607
g3
(g4
g5
NtRp2608
(dp2609
g8
g2607
sg9
VJenni Miller
p2610
sg11
S'http://www.metacritic.com/critic?filter=movies'
p2611
sg13
(dp2612
g138
F7.5
sg163
F7.5
ssg16
VPremiere
p2613
sg18
NsbsVMr. Showbiz/Larry Terenzi
p2614
g3
(g4
g5
NtRp2615
(dp2616
g8
g2614
sg9
VLarry Terenzi
p2617
sg11
S'http://www.metacritic.com/critic/larry-terenzi?filter=movies'
p2618
sg13
(dp2619
g427
F6
ssg16
VMr. Showbiz
p2620
sg18
NsbsVThe Dissolve/Noel Murray
p2621
g3
(g4
g5
NtRp2622
(dp2623
g8
g2621
sg9
VNoel Murray
p2624
sg11
S'http://www.metacritic.com/critic/noel-murray?filter=movies'
p2625
sg13
(dp2626
g33
F8
sg261
F8
ssg16
VThe Dissolve
p2627
sg18
NsbsVDallas Observer/Bill Gallo
p2628
g3
(g4
g5
NtRp2629
(dp2630
g8
g2628
sg9
VBill Gallo
p2631
sg11
S'http://www.metacritic.com/critic/bill-gallo?filter=movies'
p2632
sg13
(dp2633
g172
F9
sg289
F10
sg125
F7
sg131
F5
ssg16
VDallas Observer
p2634
sg18
NsbsVL.A. Weekly/Paul Malcolm
p2635
g3
(g4
g5
NtRp2636
(dp2637
g8
g2635
sg9
VPaul Malcolm
p2638
sg11
S'http://www.metacritic.com/critic/paul-malcolm?filter=movies'
p2639
sg13
(dp2640
g162
F3
ssg16
VL.A. Weekly
p2641
sg18
NsbsVWashington Post/Mark Jenkins
p2642
g3
(g4
g5
NtRp2643
(dp2644
g8
g2642
sg9
VMark Jenkins
p2645
sg11
S'http://www.metacritic.com/critic?filter=movies'
p2646
sg13
(dp2647
g231
F9
ssg16
VWashington Post
p2648
sg18
NsbsVThe A.V. Club/Ignatiy Vishnevetsky
p2649
g3
(g4
g5
NtRp2650
(dp2651
g8
g2649
sg9
VIgnatiy Vishnevetsky
p2652
sg11
S'http://www.metacritic.com/critic/ignatiy-vishnevetsky?filter=movies'
p2653
sg13
(dp2654
g142
F9.0999999999999996
sg165
F5.7999999999999998
sg71
F7.5
sg322
F5
ssg16
VThe A.V. Club
p2655
sg18
NsbsVRogerEbert.com/Simon Abrams
p2656
g3
(g4
g5
NtRp2657
(dp2658
g8
g2656
sg9
VSimon Abrams
p2659
sg11
S'http://www.metacritic.com/critic/simon-abrams?filter=movies'
p2660
sg13
(dp2661
g521
F8.8000000000000007
sg78
F7.5
ssg16
VRogerEbert.com
p2662
sg18
NsbsVL.A. Weekly/Kim Morgan
p2663
g3
(g4
g5
NtRp2664
(dp2665
g8
g2663
sg9
VKim Morgan
p2666
sg11
S'http://www.metacritic.com/critic?filter=movies'
p2667
sg13
(dp2668
g147
F9
sg140
F4
ssg16
VL.A. Weekly
p2669
sg18
NsbsVIndiewire/Sterlin Johnson
p2670
g3
(g4
g5
NtRp2671
(dp2672
g8
g2670
sg9
VSterlin Johnson
p2673
sg11
S'http://www.metacritic.com/critic?filter=movies'
p2674
sg13
(dp2675
g155
F6.7000000000000002
ssg16
VIndiewire
p2676
sg18
NsbsVNew Times (L.A.)/Bill Gallo
p2677
g3
(g4
g5
NtRp2678
(dp2679
g8
g2677
sg9
VBill Gallo
p2680
sg11
S'http://www.metacritic.com/critic/bill-gallo?filter=movies'
p2681
sg13
(dp2682
g291
F6
ssg16
VNew Times (L.A.)
p2683
sg18
NsbsVSalon.com/Charles Taylor
p2684
g3
(g4
g5
NtRp2685
(dp2686
g8
g2684
sg9
VCharles Taylor
p2687
sg11
S'http://www.metacritic.com/critic/charles-taylor?filter=movies'
p2688
sg13
(dp2689
g427
F4
sg144
F2
sg147
F6
sg110
F6
sg127
F9
sg131
F3
sg156
F9
sg168
F10
sg125
F1
sg291
F4
sg140
F10
ssg16
VSalon.com
p2690
sg18
NsbsVChicago Tribune/Katie Walsh
p2691
g3
(g4
g5
NtRp2692
(dp2693
g8
g2691
sg9
VKatie Walsh
p2694
sg11
S'http://www.metacritic.com/critic/katie-walsh?filter=movies'
p2695
sg13
(dp2696
g142
F8.8000000000000007
ssg16
VChicago Tribune
p2697
sg18
NsbsVScreen International/Tim Grierson
p2698
g3
(g4
g5
NtRp2699
(dp2700
g8
g2698
sg9
VTim Grierson
p2701
sg11
S'http://www.metacritic.com/critic/tim-grierson?filter=movies'
p2702
sg13
(dp2703
g142
F7
sg165
F7
sg15
F8
sg101
F10
sg159
F9
sg80
F7
ssg16
VScreen International
p2704
sg18
NsbsVThe Guardian/Paul MacInnes
p2705
g3
(g4
g5
NtRp2706
(dp2707
g8
g2705
sg9
VPaul MacInnes
p2708
sg11
S'http://www.metacritic.com/critic?filter=movies'
p2709
sg13
(dp2710
g15
F10
ssg16
VThe Guardian
p2711
sg18
NsbsVDallas Observer/Hal Hinson
p2712
g3
(g4
g5
NtRp2713
(dp2714
g8
g2712
sg9
VHal Hinson
p2715
sg11
S'http://www.metacritic.com/critic?filter=movies'
p2716
sg13
(dp2717
g144
F5
ssg16
VDallas Observer
p2718
sg18
NsbsVTime Out New York/Geoff Andrew
p2719
g3
(g4
g5
NtRp2720
(dp2721
g8
g2719
sg9
VGeoff Andrew
p2722
sg11
S'http://www.metacritic.com/critic?filter=movies'
p2723
sg13
(dp2724
g216
F8
ssg16
VTime Out New York
p2725
sg18
NsbsVIndiewire/David Ehrlich
p2726
g3
(g4
g5
NtRp2727
(dp2728
g8
g2726
sg9
VDavid Ehrlich
p2729
sg11
S'http://www.metacritic.com/critic/david-ehrlich?filter=movies'
p2730
sg13
(dp2731
g322
F7.5
ssg16
VIndiewire
p2732
sg18
NsbsVTV Guide Magazine/Ken Fox
p2733
g3
(g4
g5
NtRp2734
(dp2735
g8
g2733
sg9
VKen Fox
p2736
sg11
S'http://www.metacritic.com/critic/ken-fox?filter=movies'
p2737
sg13
(dp2738
g169
F10
sg173
F8
sg172
F8.8000000000000007
sg164
F8.8000000000000007
sg174
F7
sg153
F8.8000000000000007
sg290
F8.8000000000000007
sg156
F7
sg529
F8
sg135
F10
sg138
F10
sg42
F10
sg168
F8
sg175
F6
ssg16
VTV Guide Magazine
p2739
sg18
NsbsVNew York Post/Rod Dreher
p2740
g3
(g4
g5
NtRp2741
(dp2742
g8
g2740
sg9
VRod Dreher
p2743
sg11
S'http://www.metacritic.com/critic?filter=movies'
p2744
sg13
(dp2745
g289
F10
sg131
F8.8000000000000007
sg144
F6.2999999999999998
ssg16
VNew York Post
p2746
sg18
NsbsVThe Film Stage/Dan Mecca
p2747
g3
(g4
g5
NtRp2748
(dp2749
g8
g2747
sg9
VDan Mecca
p2750
sg11
S'http://www.metacritic.com/critic?filter=movies'
p2751
sg13
(dp2752
g128
F8.3000000000000007
ssg16
VThe Film Stage
p2753
sg18
NsbsVThe Film Stage/Jordan Raup
p2754
g3
(g4
g5
NtRp2755
(dp2756
g8
g2754
sg9
VJordan Raup
p2757
sg11
S'http://www.metacritic.com/critic/jordan-raup?filter=movies'
p2758
sg13
(dp2759
g98
F9.0999999999999996
ssg16
VThe Film Stage
p2760
sg18
NsbsVTime Out New York/David Ehrlich
p2761
g3
(g4
g5
NtRp2762
(dp2763
g8
g2761
sg9
VDavid Ehrlich
p2764
sg11
S'http://www.metacritic.com/critic/david-ehrlich?filter=movies'
p2765
sg13
(dp2766
g165
F8
sg260
F6
sg521
F6
ssg16
VTime Out New York
p2767
sg18
NsbsVNew Orleans Times-Picayune/Mike Scott
p2768
g3
(g4
g5
NtRp2769
(dp2770
g8
g2768
sg9
VMike Scott
p2771
sg11
S'http://www.metacritic.com/critic/mike-scott?filter=movies'
p2772
sg13
(dp2773
g118
F10
sg119
F8
sg98
F10
sg120
F6
sg72
F10
sg133
F7.5
sg126
F8
sg129
F8
sg132
F6
sg134
F6
sg74
F10
sg139
F7.5
sg15
F10
sg148
F10
sg149
F8.8000000000000007
sg150
F6
sg155
F8
sg73
F10
sg82
F8
sg158
F8.8000000000000007
sg160
F10
sg161
F10
sg69
F4
sg99
F10
sg80
F10
sg170
F10
sg81
F8
sg513
F4
sg77
F8
sg281
F8
ssg16
VNew Orleans Times-Picayune
p2774
sg18
NsbsVFilm Threat/Ellen Marshall
p2775
g3
(g4
g5
NtRp2776
(dp2777
g8
g2775
sg9
VEllen Marshall
p2778
sg11
S'http://www.metacritic.com/critic?filter=movies'
p2779
sg13
(dp2780
g135
F10
ssg16
VFilm Threat
p2781
sg18
NsbsVThe Playlist/Charlie Schmidilin
p2782
g3
(g4
g5
NtRp2783
(dp2784
g8
g2782
sg9
VCharlie Schmidilin
p2785
sg11
S'http://www.metacritic.com/critic?filter=movies'
p2786
sg13
(dp2787
g120
F8.3000000000000007
ssg16
VThe Playlist
p2788
sg18
NsbsVSalon.com/Stephanie Zacharek
p2789
g3
(g4
g5
NtRp2790
(dp2791
g8
g2789
sg9
VStephanie Zacharek
p2792
sg11
S'http://www.metacritic.com/critic/stephanie-zacharek?filter=movies'
p2793
sg13
(dp2794
g122
F9
sg529
F9
sg123
F1
sg135
F6
sg139
F9
sg157
F9
sg307
F9
sg138
F7
sg42
F8
sg162
F4
sg141
F5
sg124
F6
sg145
F5
sg173
F7
sg151
F9
sg153
F6
sg137
F8
sg532
F10
sg292
F9
sg163
F4
sg164
F10
sg166
F4
sg99
F5
sg171
F5
sg172
F5
sg175
F10
ssg16
VSalon.com
p2795
sg18
NsbsVArizona Republic/Randy Cordova
p2796
g3
(g4
g5
NtRp2797
(dp2798
g8
g2796
sg9
VRandy Cordova
p2799
sg11
S'http://www.metacritic.com/critic?filter=movies'
p2800
sg13
(dp2801
g143
F5
ssg16
VArizona Republic
p2802
sg18
NsbsVFilm.com/Sean Means
p2803
g3
(g4
g5
NtRp2804
(dp2805
g8
g2803
sg9
VSean Means
p2806
sg11
S'http://www.metacritic.com/critic/sean-means?filter=movies'
p2807
sg13
(dp2808
g144
F9
ssg16
VFilm.com
p2809
sg18
NsbsVTime Out New York/David Fear
p2810
g3
(g4
g5
NtRp2811
(dp2812
g8
g2810
sg9
VDavid Fear
p2813
sg11
S'http://www.metacritic.com/critic/david-fear?filter=movies'
p2814
sg13
(dp2815
g276
F6
sg150
F6
sg76
F6
sg15
F10
sg132
F8
ssg16
VTime Out New York
p2816
sg18
NsbsVSt. Louis Post-Dispatch/Joe Williams
p2817
g3
(g4
g5
NtRp2818
(dp2819
g8
g2817
sg9
VJoe Williams
p2820
sg11
S'http://www.metacritic.com/critic/joe-williams?filter=movies'
p2821
sg13
(dp2822
g119
F10
sg161
F5
sg124
F8.8000000000000007
sg69
F8.8000000000000007
sg132
F10
sg143
F5
sg133
F6.2999999999999998
sg148
F10
sg149
F7.5
sg150
F10
sg134
F7.5
sg72
F8.8000000000000007
sg279
F7.5
sg76
F8.8000000000000007
sg171
F7.5
sg261
F8.8000000000000007
sg158
F6.2999999999999998
sg120
F10
sg129
F8.8000000000000007
sg160
F8.8000000000000007
ssg16
VSt. Louis Post-Dispatch
p2823
sg18
NsbsVBoxoffice Magazine/Ray Greene
p2824
g3
(g4
g5
NtRp2825
(dp2826
g8
g2824
sg9
VRay Greene
p2827
sg11
S'http://www.metacritic.com/critic/ray-greene?filter=movies'
p2828
sg13
(dp2829
g160
F6
ssg16
VBoxoffice Magazine
p2830
sg18
NsbsVTotal Film/Tom Dawson
p2831
g3
(g4
g5
NtRp2832
(dp2833
g8
g2831
sg9
VTom Dawson
p2834
sg11
S'http://www.metacritic.com/critic/tom-dawson?filter=movies'
p2835
sg13
(dp2836
g276
F8
sg279
F8
ssg16
VTotal Film
p2837
sg18
NsbsVSlant Magazine/Kenji Fujishima
p2838
g3
(g4
g5
NtRp2839
(dp2840
g8
g2838
sg9
VKenji Fujishima
p2841
sg11
S'http://www.metacritic.com/critic/kenji-fujishima?filter=movies'
p2842
sg13
(dp2843
g77
F6.2999999999999998
sg280
F7.5
ssg16
VSlant Magazine
p2844
sg18
NsbsVThe Globe and Mail (Toronto)/Kiva Reardon
p2845
g3
(g4
g5
NtRp2846
(dp2847
g8
g2845
sg9
VKiva Reardon
p2848
sg11
S'http://www.metacritic.com/critic?filter=movies'
p2849
sg13
(dp2850
g281
F10
ssg16
VThe Globe and Mail (Toronto)
p2851
sg18
NsbsVThe Dissolve/Scott Tobias
p2852
g3
(g4
g5
NtRp2853
(dp2854
g8
g2852
sg9
VScott Tobias
p2855
sg11
S'http://www.metacritic.com/critic/scott-tobias?filter=movies'
p2856
sg13
(dp2857
g132
F10
sg70
F9
sg148
F9
sg214
F8
sg277
F6
sg74
F3
sg76
F9
sg15
F9
sg79
F9
sg260
F8
sg165
F3
sg281
F8
ssg16
VThe Dissolve
p2858
sg18
NsbsVNew York Daily News/Joe Neumaier
p2859
g3
(g4
g5
NtRp2860
(dp2861
g8
g2859
sg9
VJoe Neumaier
p2862
sg11
S'http://www.metacritic.com/critic/joe-neumaier?filter=movies'
p2863
sg13
(dp2864
g118
F8
sg119
F8
sg276
F6
sg120
F8
sg126
F10
sg167
F8
sg129
F8
sg72
F10
sg139
F5
sg138
F8
sg15
F10
sg145
F10
sg148
F6
sg149
F8
sg150
F8
sg73
F10
sg160
F10
sg161
F8
sg279
F8
sg165
F8
sg76
F8
sg170
F10
sg171
F6
sg513
F10
sg281
F8
ssg16
VNew York Daily News
p2865
sg18
NsbsVThe Film Stage/Daniel Schindel
p2866
g3
(g4
g5
NtRp2867
(dp2868
g8
g2866
sg9
VDaniel Schindel
p2869
sg11
S'http://www.metacritic.com/critic/daniel-schindel?filter=movies'
p2870
sg13
(dp2871
g25
F6.7000000000000002
sg71
F9.0999999999999996
ssg16
VThe Film Stage
p2872
sg18
NsbsVThe New Republic/Stanley Kauffmann
p2873
g3
(g4
g5
NtRp2874
(dp2875
g8
g2873
sg9
VStanley Kauffmann
p2876
sg11
S'http://www.metacritic.com/critic/stanley-kauffmann?filter=movies'
p2877
sg13
(dp2878
g205
F4
sg231
F5
sg59
F10
sg173
F10
sg135
F7
sg154
F8
sg156
F7
sg147
F8
sg172
F10
sg530
F3
sg42
F9
sg43
F6
sg168
F8
sg531
F8
sg175
F9
ssg16
VThe New Republic
p2879
sg18
NsbsVPortland Oregonian/Stan Hall
p2880
g3
(g4
g5
NtRp2881
(dp2882
g8
g2880
sg9
VStan Hall
p2883
sg11
S'http://www.metacritic.com/critic/stan-hall?filter=movies'
p2884
sg13
(dp2885
g279
F8.3000000000000007
ssg16
VPortland Oregonian
p2886
sg18
NsbsVAustin Chronicle/Joey O'Bryan
p2887
g3
(g4
g5
NtRp2888
(dp2889
g8
g2887
sg9
VJoey O'Bryan
p2890
sg11
S'http://www.metacritic.com/critic?filter=movies'
p2891
sg13
(dp2892
g51
F8.9000000000000004
ssg16
VAustin Chronicle
p2893
sg18
NsbsVDallas Observer/Robert Wilonsky
p2894
g3
(g4
g5
NtRp2895
(dp2896
g8
g2894
sg9
VRobert Wilonsky
p2897
sg11
S'http://www.metacritic.com/critic/robert-wilonsky?filter=movies'
p2898
sg13
(dp2899
g427
F3
sg173
F10
sg110
F4
sg166
F4
sg151
F7
sg135
F10
sg162
F1
sg140
F5
ssg16
VDallas Observer
p2900
sg18
NsbsVFilm.com/Peter Brunette
p2901
g3
(g4
g5
NtRp2902
(dp2903
g8
g2901
sg9
VPeter Brunette
p2904
sg11
S'http://www.metacritic.com/critic/peter-brunette?filter=movies'
p2905
sg13
(dp2906
g529
F9
sg289
F9
sg144
F10
sg131
F8
ssg16
VFilm.com
p2907
sg18
NsbsVMr. Showbiz/Richard T. Jameson
p2908
g3
(g4
g5
NtRp2909
(dp2910
g8
g2908
sg9
VRichard T. Jameson
p2911
sg11
S'http://www.metacritic.com/critic?filter=movies'
p2912
sg13
(dp2913
g154
F9
ssg16
VMr. Showbiz
p2914
sg18
NsbsVFilm Threat/Chris Barsanti
p2915
g3
(g4
g5
NtRp2916
(dp2917
g8
g2915
sg9
VChris Barsanti
p2918
sg11
S'http://www.metacritic.com/critic?filter=movies'
p2919
sg13
(dp2920
g292
F10
ssg16
VFilm Threat
p2921
sg18
NsbsVTheWrap/Dave White
p2922
g3
(g4
g5
NtRp2923
(dp2924
g8
g2922
sg9
VDave White
p2925
sg11
S'http://www.metacritic.com/critic/dave-white?filter=movies'
p2926
sg13
(dp2927
g75
F9.5
sg77
F9
ssg16
VTheWrap
p2928
sg18
NsbsVConsequence of Sound/Sarah Kurchak
p2929
g3
(g4
g5
NtRp2930
(dp2931
g8
g2929
sg9
VSarah Kurchak
p2932
sg11
S'http://www.metacritic.com/critic/sarah-kurchak?filter=movies'
p2933
sg13
(dp2934
g97
F6.7000000000000002
sg183
F9.0999999999999996
sg81
F10
ssg16
VConsequence of Sound
p2935
sg18
NsbsVNew York Daily News/Jack Mathews
p2936
g3
(g4
g5
NtRp2937
(dp2938
g8
g2936
sg9
VJack Mathews
p2939
sg11
S'http://www.metacritic.com/critic/jack-mathews?filter=movies'
p2940
sg13
(dp2941
g130
F5
sg122
F10
sg529
F8.8000000000000007
sg123
F5
sg43
F7.5
sg140
F8.8000000000000007
sg169
F10
sg127
F10
sg135
F7.5
sg41
F10
sg157
F10
sg42
F8.8000000000000007
sg162
F3.7999999999999998
sg141
F8.8000000000000007
sg427
F2.5
sg144
F7.5
sg147
F10
sg173
F10
sg151
F10
sg152
F8.8000000000000007
sg153
F6.2999999999999998
sg137
F7.5
sg291
F6.2999999999999998
sg532
F8.8000000000000007
sg164
F10
sg166
F7.5
sg131
F6.2999999999999998
sg290
F8.8000000000000007
sg463
F3.7999999999999998
sg175
F8.8000000000000007
sg156
F7.5
ssg16
VNew York Daily News
p2942
sg18
NsbsVSt. Louis Post-Dispatch/Calvin Wilson
p2943
g3
(g4
g5
NtRp2944
(dp2945
g8
g2943
sg9
VCalvin Wilson
p2946
sg11
S'http://www.metacritic.com/critic/calvin-wilson?filter=movies'
p2947
sg13
(dp2948
g118
F10
sg98
F10
sg126
F10
sg167
F8.8000000000000007
sg71
F8.8000000000000007
sg128
F8.8000000000000007
sg74
F10
sg15
F10
sg101
F10
sg142
F8.8000000000000007
sg155
F10
sg183
F8.8000000000000007
sg82
F10
sg159
F10
sg97
F10
sg165
F10
sg75
F8.8000000000000007
sg513
F8.8000000000000007
sg170
F10
sg81
F8.8000000000000007
sg80
F8.8000000000000007
sg77
F8.8000000000000007
ssg16
VSt. Louis Post-Dispatch
p2949
sg18
NsbsVEmpire/Nev Pierce
p2950
g3
(g4
g5
NtRp2951
(dp2952
g8
g2950
sg9
VNev Pierce
p2953
sg11
S'http://www.metacritic.com/critic?filter=movies'
p2954
sg13
(dp2955
g158
F10
sg159
F8
sg150
F10
sg160
F8
ssg16
VEmpire
p2956
sg18
NsbsVSlant Magazine/Calum Marsh
p2957
g3
(g4
g5
NtRp2958
(dp2959
g8
g2957
sg9
VCalum Marsh
p2960
sg11
S'http://www.metacritic.com/critic?filter=movies'
p2961
sg13
(dp2962
g126
F5
sg120
F5
ssg16
VSlant Magazine
p2963
sg18
NsbsVVariety/Leonard Klady
p2964
g3
(g4
g5
NtRp2965
(dp2966
g8
g2964
sg9
VLeonard Klady
p2967
sg11
S'http://www.metacritic.com/critic?filter=movies'
p2968
sg13
(dp2969
g154
F9
ssg16
VVariety
p2970
sg18
NsbsVRogerEbert.com/Glenn Kenny
p2971
g3
(g4
g5
NtRp2972
(dp2973
g8
g2971
sg9
VGlenn Kenny
p2974
sg11
S'http://www.metacritic.com/critic?filter=movies'
p2975
sg13
(dp2976
g33
F10
sg132
F8.8000000000000007
sg70
F10
sg148
F10
sg155
F10
sg82
F10
sg101
F10
sg277
F2.5
ssg16
VRogerEbert.com
p2977
sg18
NsbsVThe Guardian/Caspar Llewellyn Smith
p2978
g3
(g4
g5
NtRp2979
(dp2980
g8
g2978
sg9
VCaspar Llewellyn Smith
p2981
sg11
S'http://www.metacritic.com/critic?filter=movies'
p2982
sg13
(dp2983
g102
F6
ssg16
VThe Guardian
p2984
sg18
NsbsVWashington Post/Stephen Hunter
p2985
g3
(g4
g5
NtRp2986
(dp2987
g8
g2985
sg9
VStephen Hunter
p2988
sg11
S'http://www.metacritic.com/critic/stephen-hunter?filter=movies'
p2989
sg13
(dp2990
g427
F3
sg131
F7
sg144
F2
sg145
F7
sg125
F2
sg151
F7
sg152
F5
sg135
F10
sg136
F1
sg292
F6
sg41
F9
sg156
F9
sg307
F8
sg290
F8
sg127
F10
sg162
F2
sg168
F10
sg231
F9
sg175
F9
ssg16
VWashington Post
p2991
sg18
NsbsVLos Angeles Times/Justin Chang
p2992
g3
(g4
g5
NtRp2993
(dp2994
g8
g2992
sg9
VJustin Chang
p2995
sg11
S'http://www.metacritic.com/critic/justin-chang?filter=movies'
p2996
sg13
(dp2997
g97
F9
sg71
F6
sg75
F10
sg322
F6
sg101
F10
sg128
F5
sg77
F8
ssg16
VLos Angeles Times
p2998
sg18
NsbsVWe Got This Covered/Josh Cabrita
p2999
g3
(g4
g5
NtRp3000
(dp3001
g8
g2999
sg9
VJosh Cabrita
p3002
sg11
S'http://www.metacritic.com/critic/josh-cabrita?filter=movies'
p3003
sg13
(dp3004
g75
F10
ssg16
VWe Got This Covered
p3005
sg18
NsbsVArizona Republic/Kerry Lengel
p3006
g3
(g4
g5
NtRp3007
(dp3008
g8
g3006
sg9
VKerry Lengel
p3009
sg11
S'http://www.metacritic.com/critic/kerry-lengel?filter=movies'
p3010
sg13
(dp3011
g149
F8
ssg16
VArizona Republic
p3012
sg18
NsbsVThe Globe and Mail (Toronto)/Johanna Schneller
p3013
g3
(g4
g5
NtRp3014
(dp3015
g8
g3013
sg9
VJohanna Schneller
p3016
sg11
S'http://www.metacritic.com/critic?filter=movies'
p3017
sg13
(dp3018
g128
F6.2999999999999998
ssg16
VThe Globe and Mail (Toronto)
p3019
sg18
NsbsVRogerEbert.com/Peter Sobczynski
p3020
g3
(g4
g5
NtRp3021
(dp3022
g8
g3020
sg9
VPeter Sobczynski
p3023
sg11
S'http://www.metacritic.com/critic/peter-sobczynski?filter=movies'
p3024
sg13
(dp3025
g260
F8.8000000000000007
ssg16
VRogerEbert.com
p3026
sg18
NsbsVVariety/Brian Lowry
p3027
g3
(g4
g5
NtRp3028
(dp3029
g8
g3027
sg9
VBrian Lowry
p3030
sg11
S'http://www.metacritic.com/critic/brian-lowry?filter=movies'
p3031
sg13
(dp3032
g162
F6
ssg16
VVariety
p3033
sg18
NsbsVThe Hollywood Reporter/Michael Rechtshaffen
p3034
g3
(g4
g5
NtRp3035
(dp3036
g8
g3034
sg9
VMichael Rechtshaffen
p3037
sg11
S'http://www.metacritic.com/critic/michael-rechtshaffen?filter=movies'
p3038
sg13
(dp3039
g123
F6
sg162
F4
sg139
F9
sg99
F10
sg143
F8
ssg16
VThe Hollywood Reporter
p3040
sg18
NsbsVLos Angeles Times/Sam Adams
p3041
g3
(g4
g5
NtRp3042
(dp3043
g8
g3041
sg9
VSam Adams
p3044
sg11
S'http://www.metacritic.com/critic?filter=movies'
p3045
sg13
(dp3046
g163
F6
ssg16
VLos Angeles Times
p3047
sg18
NsbsVBoston Globe/Ty Burr
p3048
g3
(g4
g5
NtRp3049
(dp3050
g8
g3048
sg9
VTy Burr
p3051
sg11
S'http://www.metacritic.com/critic/ty-burr?filter=movies'
p3052
sg13
(dp3053
g118
F10
sg231
F8.8000000000000007
sg82
F8.8000000000000007
sg168
F10
sg98
F10
sg15
F10
sg121
F10
sg33
F8.8000000000000007
sg72
F8.8000000000000007
sg80
F10
sg126
F10
sg127
F10
sg167
F6.2999999999999998
sg130
F3.7999999999999998
sg155
F8.8000000000000007
sg132
F10
sg71
F6.2999999999999998
sg214
F10
sg134
F6.2999999999999998
sg100
F8.8000000000000007
sg135
F8.8000000000000007
sg74
F10
sg419
F8.8000000000000007
sg322
F7.5
sg157
F10
sg101
F10
sg138
F10
sg41
F8.8000000000000007
sg42
F8.8000000000000007
sg140
F6.2999999999999998
sg142
F7.5
sg143
F3.7999999999999998
sg124
F6.2999999999999998
sg145
F7.5
sg147
F10
sg148
F8.8000000000000007
sg149
F7.5
sg150
F8.8000000000000007
sg151
F7.5
sg152
F10
sg153
F7.5
sg172
F8.8000000000000007
sg75
F8.8000000000000007
sg73
F8.8000000000000007
sg183
F10
sg156
F8.8000000000000007
sg139
F7.5
sg159
F10
sg215
F7.5
sg216
F8.8000000000000007
sg161
F8.8000000000000007
sg69
F8.8000000000000007
sg279
F8.8000000000000007
sg165
F6.2999999999999998
sg166
F7.5
sg99
F10
sg102
F7.5
sg169
F10
sg76
F8.8000000000000007
sg170
F10
sg171
F8.8000000000000007
sg78
F8.8000000000000007
sg290
F8.8000000000000007
sg173
F7.5
sg174
F8.8000000000000007
sg175
F10
sg513
F8.8000000000000007
sg281
F8.8000000000000007
ssg16
VBoston Globe
p3054
sg18
NsbsVThe Hollywood Reporter/Leslie Felperin
p3055
g3
(g4
g5
NtRp3056
(dp3057
g8
g3055
sg9
VLeslie Felperin
p3058
sg11
S'http://www.metacritic.com/critic/leslie-felperin?filter=movies'
p3059
sg13
(dp3060
g33
F10
sg214
F10
sg280
F8
sg75
F10
sg261
F9
sg128
F5
sg77
F9
ssg16
VThe Hollywood Reporter
p3061
sg18
NsbsVLos Angeles Times/Michael Rechtshaffen
p3062
g3
(g4
g5
NtRp3063
(dp3064
g8
g3062
sg9
VMichael Rechtshaffen
p3065
sg11
S'http://www.metacritic.com/critic/michael-rechtshaffen?filter=movies'
p3066
sg13
(dp3067
g521
F8
ssg16
VLos Angeles Times
p3068
sg18
NsbsVSan Francisco Chronicle/Steve Rubenstein
p3069
g3
(g4
g5
NtRp3070
(dp3071
g8
g3069
sg9
VSteve Rubenstein
p3072
sg11
S'http://www.metacritic.com/critic?filter=movies'
p3073
sg13
(dp3074
g78
F5
ssg16
VSan Francisco Chronicle
p3075
sg18
NsbsVSan Francisco Chronicle/Peter Stack
p3076
g3
(g4
g5
NtRp3077
(dp3078
g8
g3076
sg9
VPeter Stack
p3079
sg11
S'http://www.metacritic.com/critic/peter-stack?filter=movies'
p3080
sg13
(dp3081
g154
F10
sg59
F10
ssg16
VSan Francisco Chronicle
p3082
sg18
NsbsVLos Angeles Times/Sheri Linden
p3083
g3
(g4
g5
NtRp3084
(dp3085
g8
g3083
sg9
VSheri Linden
p3086
sg11
S'http://www.metacritic.com/critic/sheri-linden?filter=movies'
p3087
sg13
(dp3088
g279
F8
sg513
F10
sg278
F7
ssg16
VLos Angeles Times
p3089
sg18
NsbsVThe Globe and Mail (Toronto)/Jeff Gray
p3090
g3
(g4
g5
NtRp3091
(dp3092
g8
g3090
sg9
VJeff Gray
p3093
sg11
S'http://www.metacritic.com/critic?filter=movies'
p3094
sg13
(dp3095
g131
F5
ssg16
VThe Globe and Mail (Toronto)
p3096
sg18
NsbsVNew York Post/Lou Lumenick
p3097
g3
(g4
g5
NtRp3098
(dp3099
g8
g3097
sg9
VLou Lumenick
p3100
sg11
S'http://www.metacritic.com/critic/lou-lumenick?filter=movies'
p3101
sg13
(dp3102
g118
F10
sg142
F8.8000000000000007
sg120
F8.8000000000000007
sg122
F10
sg72
F10
sg123
F5
sg125
F6.2999999999999998
sg128
F8.8000000000000007
sg140
F8.8000000000000007
sg132
F6.2999999999999998
sg110
F10
sg71
F7.5
sg134
F7.5
sg135
F8.8000000000000007
sg74
F8.8000000000000007
sg41
F10
sg157
F10
sg138
F10
sg15
F10
sg42
F8.8000000000000007
sg141
F8.8000000000000007
sg427
F6.2999999999999998
sg143
F5
sg124
F8.8000000000000007
sg149
F7.5
sg150
F10
sg151
F8.8000000000000007
sg152
F10
sg153
F7.5
sg73
F10
sg156
F7.5
sg158
F10
sg159
F8.8000000000000007
sg291
F7.5
sg532
F10
sg161
F7.5
sg292
F7.5
sg164
F10
sg165
F8.8000000000000007
sg99
F10
sg76
F7.5
sg170
F10
sg171
F8.8000000000000007
sg173
F10
sg80
F10
sg175
F10
ssg16
VNew York Post
p3103
sg18
NsbsVVariety/l
p3104
g3
(g4
g5
NtRp3105
(dp3106
g8
g3104
sg9
Vl
sg11
S'http://www.metacritic.com/critic?filter=movies'
p3107
sg13
(dp3108
g43
F5
ssg16
VVariety
p3109
sg18
NsbsVBoston Globe/Wesley Morris
p3110
g3
(g4
g5
NtRp3111
(dp3112
g8
g3110
sg9
VWesley Morris
p3113
sg11
S'http://www.metacritic.com/critic/wesley-morris?filter=movies'
p3114
sg13
(dp3115
g119
F8.8000000000000007
sg160
F5
sg163
F6.2999999999999998
sg164
F8.8000000000000007
sg276
F8.8000000000000007
sg125
F6.2999999999999998
sg122
F10
sg123
F5
sg133
F7.5
sg137
F10
sg158
F7.5
sg162
F5
sg43
F6.2999999999999998
sg120
F10
sg129
F10
sg141
F10
ssg16
VBoston Globe
p3116
sg18
NsbsVWashington Post/John Anderson
p3117
g3
(g4
g5
NtRp3118
(dp3119
g8
g3117
sg9
VJohn Anderson
p3120
sg11
S'http://www.metacritic.com/critic?filter=movies'
p3121
sg13
(dp3122
g138
F10
ssg16
VWashington Post
p3123
sg18
NsbsVSan Francisco Examiner/Wesley Morris
p3124
g3
(g4
g5
NtRp3125
(dp3126
g8
g3124
sg9
VWesley Morris
p3127
sg11
S'http://www.metacritic.com/critic/wesley-morris?filter=movies'
p3128
sg13
(dp3129
g427
F7.5
sg205
F10
sg144
F6.2999999999999998
sg110
F10
sg131
F7.5
sg289
F6.2999999999999998
ssg16
VSan Francisco Examiner
p3130
sg18
NsbsVCineVue/Patrick Gamble
p3131
g3
(g4
g5
NtRp3132
(dp3133
g8
g3131
sg9
VPatrick Gamble
p3134
sg11
S'http://www.metacritic.com/critic/patrick-gamble?filter=movies'
p3135
sg13
(dp3136
g215
F6
ssg16
VCineVue
p3137
sg18
NsbsVThe Hollywood Reporter/Stephen Dalton
p3138
g3
(g4
g5
NtRp3139
(dp3140
g8
g3138
sg9
VStephen Dalton
p3141
sg11
S'http://www.metacritic.com/critic/stephen-dalton?filter=movies'
p3142
sg13
(dp3143
g279
F7
sg277
F8
sg183
F7
sg215
F8
ssg16
VThe Hollywood Reporter
p3144
sg18
NsbsVConsequence of Sound/Michael Roffman
p3145
g3
(g4
g5
NtRp3146
(dp3147
g8
g3145
sg9
VMichael Roffman
p3148
sg11
S'http://www.metacritic.com/critic/michael-roffman?filter=movies'
p3149
sg13
(dp3150
g71
F8.3000000000000007
sg167
F10
sg77
F8.3000000000000007
ssg16
VConsequence of Sound
p3151
sg18
NsbsVVariety/Ella Taylor
p3152
g3
(g4
g5
NtRp3153
(dp3154
g8
g3152
sg9
VElla Taylor
p3155
sg11
S'http://www.metacritic.com/critic/ella-taylor?filter=movies'
p3156
sg13
(dp3157
g25
F8
ssg16
VVariety
p3158
sg18
NsbsVMiami Herald/Rene Rodriguez
p3159
g3
(g4
g5
NtRp3160
(dp3161
g8
g3159
sg9
VRene Rodriguez
p3162
sg11
S'http://www.metacritic.com/critic/rene-rodriguez?filter=movies'
p3163
sg13
(dp3164
g118
F8.8000000000000007
sg119
F7.5
sg98
F10
sg15
F10
sg277
F8.8000000000000007
sg174
F8.8000000000000007
sg122
F10
sg72
F8.8000000000000007
sg529
F6.2999999999999998
sg123
F5
sg125
F5
sg126
F10
sg79
F8.8000000000000007
sg43
F7.5
sg77
F8.8000000000000007
sg129
F10
sg140
F7.5
sg289
F8.8000000000000007
sg132
F10
sg110
F7.5
sg71
F6.2999999999999998
sg214
F10
sg134
F7.5
sg127
F8.8000000000000007
sg135
F8.8000000000000007
sg74
F8.8000000000000007
sg41
F10
sg137
F8.8000000000000007
sg101
F10
sg138
F10
sg139
F7.5
sg42
F8.8000000000000007
sg260
F8.8000000000000007
sg120
F5
sg532
F7.5
sg141
F10
sg143
F5
sg124
F10
sg145
F8.8000000000000007
sg147
F10
sg149
F7.5
sg150
F10
sg151
F7.5
sg215
F7.5
sg153
F6.2999999999999998
sg73
F7.5
sg183
F8.8000000000000007
sg156
F6.2999999999999998
sg157
F8.8000000000000007
sg158
F8.8000000000000007
sg159
F10
sg152
F10
sg291
F8.8000000000000007
sg216
F7.5
sg160
F8.8000000000000007
sg97
F7.5
sg292
F7.5
sg51
F7.5
sg163
F7.5
sg164
F7.5
sg166
F7.5
sg167
F8.8000000000000007
sg99
F10
sg168
F8.8000000000000007
sg169
F10
sg76
F8.8000000000000007
sg170
F10
sg171
F6.2999999999999998
sg78
F8.8000000000000007
sg172
F10
sg173
F10
sg463
F5
sg175
F8.8000000000000007
sg80
F10
sg81
F7.5
sg82
F10
ssg16
VMiami Herald
p3165
sg18
NsbsVSlant Magazine/None
p3166
g3
(g4
g5
NtRp3167
(dp3168
g8
g3166
sg9
Nsg11
Nsg13
(dp3169
g279
F8.8000000000000007
ssg16
VSlant Magazine
p3170
sg18
NsbsVVariety/Leslie Felperin
p3171
g3
(g4
g5
NtRp3172
(dp3173
g8
g3171
sg9
VLeslie Felperin
p3174
sg11
S'http://www.metacritic.com/critic?filter=movies'
p3175
sg13
(dp3176
g157
F9
ssg16
VVariety
p3177
sg18
NsbsVVillage Voice/Karina Longworth
p3178
g3
(g4
g5
NtRp3179
(dp3180
g8
g3178
sg9
VKarina Longworth
p3181
sg11
S'http://www.metacritic.com/critic?filter=movies'
p3182
sg13
(dp3183
g133
F7
sg120
F9
sg149
F8
sg160
F5
ssg16
VVillage Voice
p3184
sg18
NsbsVPremiere/Kelly Borgeson
p3185
g3
(g4
g5
NtRp3186
(dp3187
g8
g3185
sg9
VKelly Borgeson
p3188
sg11
S'http://www.metacritic.com/critic/kelly-borgeson?filter=movies'
p3189
sg13
(dp3190
g123
F7.5
ssg16
VPremiere
p3191
sg18
NsbsVEmpire/Angie Errigo
p3192
g3
(g4
g5
NtRp3193
(dp3194
g8
g3192
sg9
VAngie Errigo
p3195
sg11
S'http://www.metacritic.com/critic/angie-errigo?filter=movies'
p3196
sg13
(dp3197
g136
F10
sg155
F8
sg140
F8
ssg16
VEmpire
p3198
sg18
NsbsVThe New Yorker/Richard Brody
p3199
g3
(g4
g5
NtRp3200
(dp3201
g8
g3199
sg9
VRichard Brody
p3202
sg11
S'http://www.metacritic.com/critic/richard-brody?filter=movies'
p3203
sg13
(dp3204
g155
F3
ssg16
VThe New Yorker
p3205
sg18
NsbsVHitfix/Guy Lodge
p3206
g3
(g4
g5
NtRp3207
(dp3208
g8
g3206
sg9
VGuy Lodge
p3209
sg11
S'http://www.metacritic.com/critic?filter=movies'
p3210
sg13
(dp3211
g277
F6.7000000000000002
ssg16
VHitfix
p3212
sg18
NsbsVEmpire/Helen O'Hara
p3213
g3
(g4
g5
NtRp3214
(dp3215
g8
g3213
sg9
VHelen O'Hara
p3216
sg11
S'http://www.metacritic.com/critic?filter=movies'
p3217
sg13
(dp3218
g290
F8
sg128
F8
sg101
F8
sg141
F10
ssg16
VEmpire
p3219
sg18
NsbsVThe Guardian/Catherine Shoard
p3220
g3
(g4
g5
NtRp3221
(dp3222
g8
g3220
sg9
VCatherine Shoard
p3223
sg11
S'http://www.metacritic.com/critic/catherine-shoard?filter=movies'
p3224
sg13
(dp3225
g81
F10
ssg16
VThe Guardian
p3226
sg18
NsbsVLos Angeles Times/Charles Solomon
p3227
g3
(g4
g5
NtRp3228
(dp3229
g8
g3227
sg9
VCharles Solomon
p3230
sg11
S'http://www.metacritic.com/critic/charles-solomon?filter=movies'
p3231
sg13
(dp3232
g216
F4
ssg16
VLos Angeles Times
p3233
sg18
NsbsVVariety/Justin Chang
p3234
g3
(g4
g5
NtRp3235
(dp3236
g8
g3234
sg9
VJustin Chang
p3237
sg11
S'http://www.metacritic.com/critic/justin-chang?filter=movies'
p3238
sg13
(dp3239
g98
F10
sg145
F10
sg276
F8
sg70
F10
sg148
F10
sg164
F10
sg122
F8
sg72
F10
sg150
F9
sg100
F9
sg279
F6
sg170
F10
sg80
F9
sg158
F10
sg159
F10
sg120
F9
ssg16
VVariety
p3240
sg18
NsbsVThe Globe and Mail (Toronto)/Liam Lacey
p3241
g3
(g4
g5
NtRp3242
(dp3243
g8
g3241
sg9
VLiam Lacey
p3244
sg11
S'http://www.metacritic.com/critic/liam-lacey?filter=movies'
p3245
sg13
(dp3246
g118
F7.5
sg119
F6.2999999999999998
sg130
F6.2999999999999998
sg276
F10
sg70
F10
sg120
F10
sg122
F10
sg72
F10
sg125
F5
sg140
F6.2999999999999998
sg132
F8.8000000000000007
sg214
F8.8000000000000007
sg134
F6.2999999999999998
sg127
F7.5
sg74
F7.5
sg41
F7.5
sg138
F10
sg139
F5
sg141
F8.8000000000000007
sg144
F10
sg145
F7.5
sg148
F8.8000000000000007
sg174
F6.2999999999999998
sg216
F7.5
sg164
F8.8000000000000007
sg166
F6.2999999999999998
sg169
F8.8000000000000007
sg76
F10
sg15
F10
sg168
F8.8000000000000007
sg175
F7.5
ssg16
VThe Globe and Mail (Toronto)
p3247
sg18
NsbsVTime Out London/Cath Clarke
p3248
g3
(g4
g5
NtRp3249
(dp3250
g8
g3248
sg9
VCath Clarke
p3251
sg11
S'http://www.metacritic.com/critic/cath-clarke?filter=movies'
p3252
sg13
(dp3253
g74
F10
sg132
F8
sg521
F8
sg78
F8
ssg16
VTime Out London
p3254
sg18
NsbsVLos Angeles Times/Sheila Benson
p3255
g3
(g4
g5
NtRp3256
(dp3257
g8
g3255
sg9
VSheila Benson
p3258
sg11
S'http://www.metacritic.com/critic/sheila-benson?filter=movies'
p3259
sg13
(dp3260
g530
F9
ssg16
VLos Angeles Times
p3261
sg18
NsbsVThe A.V. Club/Ben Kenigsberg
p3262
g3
(g4
g5
NtRp3263
(dp3264
g8
g3262
sg9
VBen Kenigsberg
p3265
sg11
S'http://www.metacritic.com/critic/ben-kenigsberg?filter=movies'
p3266
sg13
(dp3267
g69
F10
ssg16
VThe A.V. Club
p3268
sg18
NsbsVNew Times (L.A.)/Andy Klein
p3269
g3
(g4
g5
NtRp3270
(dp3271
g8
g3269
sg9
VAndy Klein
p3272
sg11
S'http://www.metacritic.com/critic/andy-klein?filter=movies'
p3273
sg13
(dp3274
g307
F9
ssg16
VNew Times (L.A.)
p3275
sg18
NsbsVSan Francisco Chronicle/Edward Guthmann
p3276
g3
(g4
g5
NtRp3277
(dp3278
g8
g3276
sg9
VEdward Guthmann
p3279
sg11
S'http://www.metacritic.com/critic/edward-guthmann?filter=movies'
p3280
sg13
(dp3281
g529
F7.5
sg289
F10
sg175
F10
ssg16
VSan Francisco Chronicle
p3282
sg18
NsbsVBaltimore Sun/Chris Kaltenbach
p3283
g3
(g4
g5
NtRp3284
(dp3285
g8
g3283
sg9
VChris Kaltenbach
p3286
sg11
S'http://www.metacritic.com/critic/chris-kaltenbach?filter=movies'
p3287
sg13
(dp3288
g147
F10
sg125
F3.7999999999999998
sg529
F8.8000000000000007
sg123
F5
sg137
F6.7000000000000002
sg174
F8.8000000000000007
sg290
F9.0999999999999996
sg162
F2.5
sg291
F6.2999999999999998
sg140
F6.2999999999999998
ssg16
VBaltimore Sun
p3289
sg18
NsbsVEmpire/David Eimer
p3290
g3
(g4
g5
NtRp3291
(dp3292
g8
g3290
sg9
VDavid Eimer
p3293
sg11
S'http://www.metacritic.com/critic?filter=movies'
p3294
sg13
(dp3295
g60
F4
ssg16
VEmpire
p3296
sg18
NsbsVTotal Film/Emma Dibdin
p3297
g3
(g4
g5
NtRp3298
(dp3299
g8
g3297
sg9
VEmma Dibdin
p3300
sg11
S'http://www.metacritic.com/critic/emma-dibdin?filter=movies'
p3301
sg13
(dp3302
g120
F10
sg15
F8
sg132
F8
ssg16
VTotal Film
p3303
sg18
NsbsVChicago Sun-Times/Bill Stamets
p3304
g3
(g4
g5
NtRp3305
(dp3306
g8
g3304
sg9
VBill Stamets
p3307
sg11
S'http://www.metacritic.com/critic/bill-stamets?filter=movies'
p3308
sg13
(dp3309
g260
F8.8000000000000007
sg214
F8.8000000000000007
sg281
F10
ssg16
VChicago Sun-Times
p3310
sg18
NsbsVFilm.com/Keith Simanton
p3311
g3
(g4
g5
NtRp3312
(dp3313
g8
g3311
sg9
VKeith Simanton
p3314
sg11
S'http://www.metacritic.com/critic?filter=movies'
p3315
sg13
(dp3316
g154
F7
ssg16
VFilm.com
p3317
sg18
NsbsVConsequence of Sound/Nico Lang
p3318
g3
(g4
g5
NtRp3319
(dp3320
g8
g3318
sg9
VNico Lang
p3321
sg11
S'http://www.metacritic.com/critic/nico-lang?filter=movies'
p3322
sg13
(dp3323
g75
F10
sg101
F9.0999999999999996
ssg16
VConsequence of Sound
p3324
sg18
NsbsVAustin Chronicle/Marc Savlov
p3325
g3
(g4
g5
NtRp3326
(dp3327
g8
g3325
sg9
VMarc Savlov
p3328
sg11
S'http://www.metacritic.com/critic/marc-savlov?filter=movies'
p3329
sg13
(dp3330
g231
F8.9000000000000004
sg142
F7.7999999999999998
sg130
F3
sg123
F4
sg124
F6.7000000000000002
sg60
F2
sg125
F2
sg127
F8.9000000000000004
sg289
F8.9000000000000004
sg110
F6.7000000000000002
sg214
F8.9000000000000004
sg72
F8.9000000000000004
sg521
F7.7999999999999998
sg100
F8.9000000000000004
sg419
F8.9000000000000004
sg41
F7.7999999999999998
sg157
F8.9000000000000004
sg154
F8.9000000000000004
sg427
F3
sg143
F4
sg144
F7.7999999999999998
sg145
F5
sg150
F7.7999999999999998
sg138
F8.9000000000000004
sg75
F8.9000000000000004
sg532
F8.9000000000000004
sg164
F8.9000000000000004
sg166
F7.7999999999999998
sg131
F7.7999999999999998
sg171
F8.9000000000000004
sg168
F8.9000000000000004
ssg16
VAustin Chronicle
p3331
sg18
NsbsVThe Hollywood Reporter/Boyd van Hoeij
p3332
g3
(g4
g5
NtRp3333
(dp3334
g8
g3332
sg9
VBoyd van Hoeij
p3335
sg11
S'http://www.metacritic.com/critic/boyd-van-hoeij?filter=movies'
p3336
sg13
(dp3337
g206
F8
sg260
F8
sg100
F8
ssg16
VThe Hollywood Reporter
p3338
sg18
NsbsVSlant Magazine/Carson Lund
p3339
g3
(g4
g5
NtRp3340
(dp3341
g8
g3339
sg9
VCarson Lund
p3342
sg11
S'http://www.metacritic.com/critic/carson-lund?filter=movies'
p3343
sg13
(dp3344
g206
F6.2999999999999998
ssg16
VSlant Magazine
p3345
sg18
NsbsVThe Hollywood Reporter/David Rooney
p3346
g3
(g4
g5
NtRp3347
(dp3348
g8
g3346
sg9
VDavid Rooney
p3349
sg11
S'http://www.metacritic.com/critic/david-rooney?filter=movies'
p3350
sg13
(dp3351
g673
F10
sg81
F10
sg322
F8
sg513
F9
sg216
F7
ssg16
VThe Hollywood Reporter
p3352
sg18
NsbsVChicago Reader/Andrea Gronvall
p3353
g3
(g4
g5
NtRp3354
(dp3355
g8
g3353
sg9
VAndrea Gronvall
p3356
sg11
S'http://www.metacritic.com/critic/andrea-gronvall?filter=movies'
p3357
sg13
(dp3358
g138
F8
sg153
F5
sg41
F10
sg99
F9
sg163
F0
ssg16
VChicago Reader
p3359
sg18
NsbsVThe New Yorker/David Denby
p3360
g3
(g4
g5
NtRp3361
(dp3362
g8
g3360
sg9
VDavid Denby
p3363
sg11
S'http://www.metacritic.com/critic/david-denby?filter=movies'
p3364
sg13
(dp3365
g118
F9
sg133
F7
sg140
F8
sg72
F9
sg135
F10
sg15
F10
sg307
F10
sg138
F9
sg141
F10
sg143
F5
sg124
F5
sg145
F5
sg147
F9
sg148
F6
sg149
F7
sg153
F5
sg158
F5
sg532
F9
sg292
F8
sg164
F10
sg166
F5
sg99
F8
sg76
F7
sg170
F10
sg171
F9
sg175
F8
sg168
F7
sg281
F10
ssg16
VThe New Yorker
p3366
sg18
NsbsVThe Playlist/Kimber Myers
p3367
g3
(g4
g5
NtRp3368
(dp3369
g8
g3367
sg9
VKimber Myers
p3370
sg11
S'http://www.metacritic.com/critic/kimber-myers?filter=movies'
p3371
sg13
(dp3372
g419
F8.3000000000000007
ssg16
VThe Playlist
p3373
sg18
NsbsVFilm Threat/Rick Kisonak
p3374
g3
(g4
g5
NtRp3375
(dp3376
g8
g3374
sg9
VRick Kisonak
p3377
sg11
S'http://www.metacritic.com/critic/rick-kisonak?filter=movies'
p3378
sg13
(dp3379
g290
F8
sg169
F8
sg175
F8
sg139
F7
sg140
F6
ssg16
VFilm Threat
p3380
sg18
NsbsVBoxoffice Magazine/Wade Major
p3381
g3
(g4
g5
NtRp3382
(dp3383
g8
g3381
sg9
VWade Major
p3384
sg11
S'http://www.metacritic.com/critic/wade-major?filter=movies'
p3385
sg13
(dp3386
g129
F8
ssg16
VBoxoffice Magazine
p3387
sg18
NsbsVL.A. Weekly/Ella Taylor
p3388
g3
(g4
g5
NtRp3389
(dp3390
g8
g3388
sg9
VElla Taylor
p3391
sg11
S'http://www.metacritic.com/critic/ella-taylor?filter=movies'
p3392
sg13
(dp3393
g231
F9
sg135
F9
sg292
F7
sg122
F10
sg169
F10
sg156
F5
sg307
F10
sg172
F9
sg289
F8
sg463
F2
sg168
F8
sg175
F10
ssg16
VL.A. Weekly
p3394
sg18
NsbsVThe Film Stage/Nick Newman
p3395
g3
(g4
g5
NtRp3396
(dp3397
g8
g3395
sg9
VNick Newman
p3398
sg11
S'http://www.metacritic.com/critic/nick-newman?filter=movies'
p3399
sg13
(dp3400
g142
F7.5
ssg16
VThe Film Stage
p3401
sg18
NsbsVSlant Magazine/Elise Nakhnikian
p3402
g3
(g4
g5
NtRp3403
(dp3404
g8
g3402
sg9
VElise Nakhnikian
p3405
sg11
S'http://www.metacritic.com/critic/elise-nakhnikian?filter=movies'
p3406
sg13
(dp3407
g155
F6.2999999999999998
sg33
F8.8000000000000007
sg261
F8.8000000000000007
ssg16
VSlant Magazine
p3408
sg18
NsbsVSlant Magazine/Matt Noller
p3409
g3
(g4
g5
NtRp3410
(dp3411
g8
g3409
sg9
VMatt Noller
p3412
sg11
S'http://www.metacritic.com/critic?filter=movies'
p3413
sg13
(dp3414
g51
F8.8000000000000007
ssg16
VSlant Magazine
p3415
sg18
NsbsVSan Francisco Chronicle/Mick LaSalle
p3416
g3
(g4
g5
NtRp3417
(dp3418
g8
g3416
sg9
VMick LaSalle
p3419
sg11
S'http://www.metacritic.com/critic/mick-lasalle?filter=movies'
p3420
sg13
(dp3421
g118
F10
sg119
F10
sg98
F7.5
sg276
F5
sg277
F7.5
sg72
F10
sg123
F2.5
sg133
F7.5
sg60
F2.5
sg126
F7.5
sg127
F7.5
sg43
F7.5
sg167
F7.5
sg140
F7.5
sg131
F7.5
sg132
F5
sg71
F7.5
sg134
F2.5
sg521
F7.5
sg100
F10
sg135
F10
sg74
F10
sg41
F7.5
sg157
F10
sg138
F7.5
sg139
F7.5
sg42
F10
sg162
F0
sg120
F5
sg532
F10
sg141
F5
sg427
F5
sg124
F10
sg145
F7.5
sg148
F10
sg149
F10
sg150
F5
sg151
F5
sg152
F10
sg153
F7.5
sg172
F10
sg155
F10
sg73
F7.5
sg183
F10
sg82
F7.5
sg159
F10
sg215
F7.5
sg291
F7.5
sg216
F10
sg160
F10
sg161
F10
sg292
F5
sg51
F5
sg163
F2.5
sg165
F7.5
sg166
F7.5
sg99
F7.5
sg80
F10
sg169
F10
sg76
F7.5
sg170
F10
sg15
F10
sg290
F7.5
sg173
F7.5
sg513
F7.5
sg81
F10
sg168
F10
ssg16
VSan Francisco Chronicle
p3422
sg18
NsbsVThe Playlist/Oliver Lyttelton
p3423
g3
(g4
g5
NtRp3424
(dp3425
g8
g3423
sg9
VOliver Lyttelton
p3426
sg11
S'http://www.metacritic.com/critic/oliver-lyttelton?filter=movies'
p3427
sg13
(dp3428
g33
F9.0999999999999996
sg278
F4.2000000000000002
sg214
F10
sg72
F10
sg100
F8.3000000000000007
sg322
F9.0999999999999996
sg216
F7.5
sg77
F10
ssg16
VThe Playlist
p3429
sg18
NsbsVWashington Post/Stephanie Merry
p3430
g3
(g4
g5
NtRp3431
(dp3432
g8
g3430
sg9
VStephanie Merry
p3433
sg11
S'http://www.metacritic.com/critic/stephanie-merry?filter=movies'
p3434
sg13
(dp3435
g419
F7.5
sg167
F7.5
sg77
F6.2999999999999998
sg215
F7.5
ssg16
VWashington Post
p3436
sg18
NsbsVThe Hollywood Reporter/Sheri Linden
p3437
g3
(g4
g5
NtRp3438
(dp3439
g8
g3437
sg9
VSheri Linden
p3440
sg11
S'http://www.metacritic.com/critic/sheri-linden?filter=movies'
p3441
sg13
(dp3442
g231
F9
ssg16
VThe Hollywood Reporter
p3443
sg18
NsbsVVariety/Todd McCarthy
p3444
g3
(g4
g5
NtRp3445
(dp3446
g8
g3444
sg9
VTodd McCarthy
p3447
sg11
S'http://www.metacritic.com/critic/todd-mccarthy?filter=movies'
p3448
sg13
(dp3449
g124
F8
sg125
F6
sg140
F8
sg289
F9
sg127
F9
sg41
F10
sg307
F9
sg138
F8
sg141
F10
sg144
F9
sg147
F9
sg173
F9
sg151
F9
sg152
F10
sg532
F9
sg160
F8
sg292
F7
sg166
F7
sg99
F10
sg131
F6
sg171
F9
sg172
F8
sg168
F5
ssg16
VVariety
p3450
sg18
NsbsVThe New York Times/Manohla Dargis
p3451
g3
(g4
g5
NtRp3452
(dp3453
g8
g3451
sg9
VManohla Dargis
p3454
sg11
S'http://www.metacritic.com/critic/manohla-dargis?filter=movies'
p3455
sg13
(dp3456
g118
F10
sg276
F9
sg70
F6
sg126
F10
sg128
F8
sg132
F10
sg214
F8
sg25
F7
sg74
F10
sg15
F10
sg157
F9
sg101
F9
sg137
F10
sg141
F10
sg142
F9
sg143
F4
sg124
F5
sg261
F10
sg145
F9
sg147
F9
sg150
F8
sg151
F5
sg156
F6
sg216
F7
sg69
F10
sg163
F5
sg166
F9
sg99
F7
sg169
F10
sg170
F9
sg171
F10
sg81
F10
ssg16
VThe New York Times
p3457
sg18
NsbsVFilm Threat/Don R. Lewis
p3458
g3
(g4
g5
NtRp3459
(dp3460
g8
g3458
sg9
VDon R. Lewis
p3461
sg11
S'http://www.metacritic.com/critic?filter=movies'
p3462
sg13
(dp3463
g122
F9
sg152
F10
ssg16
VFilm Threat
p3464
sg18
NsbsVThe Hollywood Reporter/Bernard Besserglik
p3465
g3
(g4
g5
NtRp3466
(dp3467
g8
g3465
sg9
VBernard Besserglik
p3468
sg11
S'http://www.metacritic.com/critic?filter=movies'
p3469
sg13
(dp3470
g156
F8
ssg16
VThe Hollywood Reporter
p3471
sg18
NsbsVCineVue/Matthew Anderson
p3472
g3
(g4
g5
NtRp3473
(dp3474
g8
g3472
sg9
VMatthew Anderson
p3475
sg11
S'http://www.metacritic.com/critic/matthew-anderson?filter=movies'
p3476
sg13
(dp3477
g71
F8
ssg16
VCineVue
p3478
sg18
NsbsVNew York Observer/Thelma Adams
p3479
g3
(g4
g5
NtRp3480
(dp3481
g8
g3479
sg9
VThelma Adams
p3482
sg11
S'http://www.metacritic.com/critic?filter=movies'
p3483
sg13
(dp3484
g97
F7.5
ssg16
VNew York Observer
p3485
sg18
NsbsVFilm Threat/Mark Bell
p3486
g3
(g4
g5
NtRp3487
(dp3488
g8
g3486
sg9
VMark Bell
p3489
sg11
S'http://www.metacritic.com/critic?filter=movies'
p3490
sg13
(dp3491
g137
F7
sg163
F7
ssg16
VFilm Threat
p3492
sg18
NsbsVThe Seattle Times/Moira Macdonald
p3493
g3
(g4
g5
NtRp3494
(dp3495
g8
g3493
sg9
VMoira Macdonald
p3496
sg11
S'http://www.metacritic.com/critic/moira-macdonald?filter=movies'
p3497
sg13
(dp3498
g142
F8.8000000000000007
sg98
F10
sg71
F6.2999999999999998
sg15
F10
sg159
F10
sg167
F8.8000000000000007
ssg16
VThe Seattle Times
p3499
sg18
NsbsVThe Playlist/Jessica Kiang
p3500
g3
(g4
g5
NtRp3501
(dp3502
g8
g3500
sg9
VJessica Kiang
p3503
sg11
S'http://www.metacritic.com/critic/jessica-kiang?filter=movies'
p3504
sg13
(dp3505
g97
F8.3000000000000007
sg73
F8.3000000000000007
sg673
F10
sg70
F5
sg148
F8.3000000000000007
sg167
F7.5
sg68
F8.3000000000000007
sg280
F9.0999999999999996
sg102
F7.5
sg80
F9.0999999999999996
sg74
F10
sg75
F9.0999999999999996
sg76
F6.7000000000000002
sg183
F10
sg101
F9.0999999999999996
sg78
F9.0999999999999996
sg159
F10
sg215
F8.3000000000000007
sg277
F10
sg281
F8.3000000000000007
ssg16
VThe Playlist
p3506
sg18
NsbsVSalon.com/Andrew O'Hehir
p3507
g3
(g4
g5
NtRp3508
(dp3509
g8
g3507
sg9
VAndrew O'Hehir
p3510
sg11
S'http://www.metacritic.com/critic/andrew-ohehir?filter=movies'
p3511
sg13
(dp3512
g118
F10
sg276
F9
sg70
F10
sg277
F10
sg72
F9
sg133
F7
sg126
F10
sg79
F10
sg167
F8
sg129
F10
sg169
F10
sg132
F9
sg71
F9
sg214
F10
sg134
F5
sg521
F9
sg100
F10
sg41
F9
sg15
F10
sg120
F9
sg143
F1
sg148
F9
sg149
F8
sg150
F10
sg215
F9
sg73
F7
sg82
F10
sg158
F4
sg159
F10
sg152
F9
sg160
F9
sg161
F10
sg69
F9
sg289
F6
sg76
F9
sg170
F9
sg78
F8
sg463
F6
sg281
F9
ssg16
VSalon.com
p3513
sg18
NsbsVNew York Post/Sara Stewart
p3514
g3
(g4
g5
NtRp3515
(dp3516
g8
g3514
sg9
VSara Stewart
p3517
sg11
S'http://www.metacritic.com/critic/sara-stewart?filter=movies'
p3518
sg13
(dp3519
g97
F7.5
sg260
F10
sg101
F7.5
ssg16
VNew York Post
p3520
sg18
NsbsVTheWrap/Dan Callahan
p3521
g3
(g4
g5
NtRp3522
(dp3523
g8
g3521
sg9
VDan Callahan
p3524
sg11
S'http://www.metacritic.com/critic?filter=movies'
p3525
sg13
(dp3526
g69
F5
ssg16
VTheWrap
p3527
sg18
NsbsVSlate/Dana Stevens
p3528
g3
(g4
g5
NtRp3529
(dp3530
g8
g3528
sg9
VDana Stevens
p3531
sg11
S'http://www.metacritic.com/critic?filter=movies'
p3532
sg13
(dp3533
g118
F9
sg119
F5
sg98
F10
sg120
F8
sg72
F8
sg157
F10
sg126
F8
sg167
F8
sg129
F10
sg132
F9
sg134
F4
sg74
F8
sg139
F7
sg137
F10
sg138
F8
sg15
F9
sg42
F10
sg141
F10
sg142
F6
sg143
F6
sg151
F6
sg124
F7
sg145
F10
sg148
F7
sg149
F7
sg150
F4
sg161
F8
sg152
F7
sg153
F5
sg73
F10
sg183
F10
sg82
F9
sg158
F7
sg159
F10
sg160
F9
sg97
F8
sg69
F7
sg279
F8
sg99
F10
sg80
F9
sg169
F9
sg76
F9
sg170
F8
sg171
F9
sg290
F10
sg513
F8
sg81
F10
sg281
F10
ssg16
VSlate
p3534
sg18
NsbsVVariety/Alissa Simon
p3535
g3
(g4
g5
NtRp3536
(dp3537
g8
g3535
sg9
VAlissa Simon
p3538
sg11
S'http://www.metacritic.com/critic/alissa-simon?filter=movies'
p3539
sg13
(dp3540
g79
F8
sg129
F9
sg102
F9
ssg16
VVariety
p3541
sg18
NsbsVFilm.com/David Ehrlich
p3542
g3
(g4
g5
NtRp3543
(dp3544
g8
g3542
sg9
VDavid Ehrlich
p3545
sg11
S'http://www.metacritic.com/critic/david-ehrlich?filter=movies'
p3546
sg13
(dp3547
g132
F8
ssg16
VFilm.com
p3548
sg18
NsbsVThe A.V. Club/A.A. Dowd 
p3549
g3
(g4
g5
NtRp3550
(dp3551
g8
g3549
sg9
VA.A. Dowd 
p3552
sg11
S'http://www.metacritic.com/critic/aa-dowd?filter=movies'
p3553
sg13
(dp3554
g82
F8.3000000000000007
sg98
F10
sg132
F10
sg148
F8.3000000000000007
sg72
F8.3000000000000007
sg73
F9.0999999999999996
sg100
F9.0999999999999996
sg513
F9.0999999999999996
sg74
F8.3000000000000007
sg80
F8.3000000000000007
sg76
F5.7999999999999998
sg15
F9.0999999999999996
sg77
F8.3000000000000007
sg101
F10
sg78
F7.5
sg183
F10
sg79
F9.0999999999999996
sg128
F5.7999999999999998
sg216
F7.5
sg281
F8.3000000000000007
ssg16
VThe A.V. Club
p3555
sg18
NsbsVNew York Daily News/Joe Dziemianowicz
p3556
g3
(g4
g5
NtRp3557
(dp3558
g8
g3556
sg9
VJoe Dziemianowicz
p3559
sg11
S'http://www.metacritic.com/critic/joe-dziemianowicz?filter=movies'
p3560
sg13
(dp3561
g71
F8
ssg16
VNew York Daily News
p3562
sg18
NsbsVChicago Tribune/Mark Caro
p3563
g3
(g4
g5
NtRp3564
(dp3565
g8
g3563
sg9
VMark Caro
p3566
sg11
S'http://www.metacritic.com/critic/mark-caro?filter=movies'
p3567
sg13
(dp3568
g125
F5
sg463
F3.7999999999999998
sg173
F7.5
sg175
F8.8000000000000007
ssg16
VChicago Tribune
p3569
sg18
NsbsVSan Francisco Chronicle/Amy Biancolli
p3570
g3
(g4
g5
NtRp3571
(dp3572
g8
g3570
sg9
VAmy Biancolli
p3573
sg11
S'http://www.metacritic.com/critic?filter=movies'
p3574
sg13
(dp3575
g158
F10
sg143
F5
sg171
F7.5
sg129
F10
ssg16
VSan Francisco Chronicle
p3576
sg18
NsbsVTime/Mary Corliss
p3577
g3
(g4
g5
NtRp3578
(dp3579
g8
g3577
sg9
VMary Corliss
p3580
sg11
S'http://www.metacritic.com/critic?filter=movies'
p3581
sg13
(dp3582
g126
F10
ssg16
VTime
p3583
sg18
NsbsVSan Francisco Chronicle/Walter Addiego
p3584
g3
(g4
g5
NtRp3585
(dp3586
g8
g3584
sg9
VWalter Addiego
p3587
sg11
S'http://www.metacritic.com/critic/walter-addiego?filter=movies'
p3588
sg13
(dp3589
g279
F7.5
sg75
F7.5
sg79
F7.5
sg77
F7.5
sg281
F10
ssg16
VSan Francisco Chronicle
p3590
sg18
NsbsVThe Hollywood Reporter/Duane Byrge
p3591
g3
(g4
g5
NtRp3592
(dp3593
g8
g3591
sg9
VDuane Byrge
p3594
sg11
S'http://www.metacritic.com/critic?filter=movies'
p3595
sg13
(dp3596
g160
F5
ssg16
VThe Hollywood Reporter
p3597
sg18
NsbsVThe Globe and Mail (Toronto)/Christopher Harris
p3598
g3
(g4
g5
NtRp3599
(dp3600
g8
g3598
sg9
VChristopher Harris
p3601
sg11
S'http://www.metacritic.com/critic?filter=movies'
p3602
sg13
(dp3603
g51
F7.5
ssg16
VThe Globe and Mail (Toronto)
p3604
sg18
NsbsVEmpire/William Thomas
p3605
g3
(g4
g5
NtRp3606
(dp3607
g8
g3605
sg9
VWilliam Thomas
p3608
sg11
S'http://www.metacritic.com/critic/william-thomas?filter=movies'
p3609
sg13
(dp3610
g130
F6
ssg16
VEmpire
p3611
sg18
NsbsVTime/Richard Corliss
p3612
g3
(g4
g5
NtRp3613
(dp3614
g8
g3612
sg9
VRichard Corliss
p3615
sg11
S'http://www.metacritic.com/critic/richard-corliss?filter=movies'
p3616
sg13
(dp3617
g118
F10
sg119
F8
sg120
F7
sg72
F10
sg529
F9
sg530
F10
sg129
F10
sg140
F9
sg205
F10
sg132
F10
sg134
F5
sg127
F10
sg135
F9
sg41
F10
sg138
F10
sg139
F5
sg42
F10
sg427
F3
sg124
F10
sg145
F10
sg147
F10
sg173
F9
sg150
F10
sg151
F10
sg154
F4
sg156
F9
sg158
F10
sg291
F5
sg532
F10
sg161
F8
sg69
F7
sg163
F7
sg164
F10
sg99
F10
sg169
F10
sg170
F10
sg171
F9
sg15
F10
sg175
F9
sg82
F7
ssg16
VTime
p3618
sg18
NsbsVSan Francisco Chronicle/Judy Stone
p3619
g3
(g4
g5
NtRp3620
(dp3621
g8
g3619
sg9
VJudy Stone
p3622
sg11
S'http://www.metacritic.com/critic?filter=movies'
p3623
sg13
(dp3624
g530
F7.5
ssg16
VSan Francisco Chronicle
p3625
sg18
NsbsVNewsweek/David Ansen
p3626
g3
(g4
g5
NtRp3627
(dp3628
g8
g3626
sg9
VDavid Ansen
p3629
sg11
S'http://www.metacritic.com/critic/david-ansen?filter=movies'
p3630
sg13
(dp3631
g122
F8
sg140
F6
sg110
F9
sg127
F10
sg41
F10
sg137
F7
sg307
F8
sg138
F10
sg42
F9
sg157
F10
sg145
F7
sg147
F10
sg151
F9
sg153
F5
sg290
F10
sg532
F10
sg164
F10
sg166
F7
sg172
F10
sg141
F10
sg168
F9
sg175
F9
ssg16
VNewsweek
p3632
sg18
NsbsVHitfix/Gregory Ellwood
p3633
g3
(g4
g5
NtRp3634
(dp3635
g8
g3633
sg9
VGregory Ellwood
p3636
sg11
S'http://www.metacritic.com/critic/gregory-ellwood?filter=movies'
p3637
sg13
(dp3638
g165
F10
sg167
F8.3000000000000007
sg100
F10
sg155
F9.0999999999999996
sg159
F8.3000000000000007
sg215
F10
sg80
F10
sg77
F8.3000000000000007
ssg16
VHitfix
p3639
sg18
NsbsVPortland Oregonian/Marc Mohan
p3640
g3
(g4
g5
NtRp3641
(dp3642
g8
g3640
sg9
VMarc Mohan
p3643
sg11
S'http://www.metacritic.com/critic/marc-mohan?filter=movies'
p3644
sg13
(dp3645
g118
F8.3000000000000007
sg119
F9.0999999999999996
sg161
F7.5
sg132
F8.3000000000000007
sg33
F9.0999999999999996
sg70
F9.0999999999999996
sg148
F9.0999999999999996
sg72
F10
sg73
F9.0999999999999996
sg215
F5.7999999999999998
sg74
F10
sg76
F8.3000000000000007
sg15
F8.3000000000000007
sg82
F10
sg261
F8.3000000000000007
sg126
F9.0999999999999996
sg160
F5
sg281
F8.3000000000000007
ssg16
VPortland Oregonian
p3646
sg18
NsbsVUSA Today/Claudia Puig
p3647
g3
(g4
g5
NtRp3648
(dp3649
g8
g3647
sg9
VClaudia Puig
p3650
sg11
S'http://www.metacritic.com/critic/claudia-puig?filter=movies'
p3651
sg13
(dp3652
g118
F6.2999999999999998
sg119
F8.8000000000000007
sg120
F6.2999999999999998
sg122
F8.8000000000000007
sg72
F10
sg157
F8.8000000000000007
sg133
F6.2999999999999998
sg43
F7.5
sg129
F10
sg132
F8.8000000000000007
sg134
F6.2999999999999998
sg127
F8.8000000000000007
sg135
F10
sg74
F8.8000000000000007
sg41
F10
sg137
F7.5
sg138
F10
sg139
F7.5
sg42
F10
sg141
F8.8000000000000007
sg124
F8.8000000000000007
sg145
F10
sg148
F8.8000000000000007
sg149
F7.5
sg150
F7.5
sg151
F7.5
sg152
F8.8000000000000007
sg153
F8.8000000000000007
sg82
F7.5
sg158
F8.8000000000000007
sg291
F8.8000000000000007
sg532
F7.5
sg160
F10
sg161
F8.8000000000000007
sg69
F6.2999999999999998
sg163
F6.2999999999999998
sg164
F8.8000000000000007
sg99
F10
sg169
F8.8000000000000007
sg76
F10
sg170
F10
sg171
F7.5
sg15
F10
sg290
F10
sg173
F8.8000000000000007
ssg16
VUSA Today
p3653
sg18
NsbsVTV Guide Magazine/Maitland McDonagh
p3654
g3
(g4
g5
NtRp3655
(dp3656
g8
g3654
sg9
VMaitland McDonagh
p3657
sg11
S'http://www.metacritic.com/critic/maitland-mcdonagh?filter=movies'
p3658
sg13
(dp3659
g231
F7
sg130
F3.7999999999999998
sg122
F10
sg123
F6
sg125
F4
sg43
F7.5
sg289
F8
sg110
F8
sg127
F6
sg41
F7
sg137
F7.5
sg307
F5
sg162
F4
sg157
F7.5
sg427
F4
sg144
F8
sg145
F10
sg151
F6.2999999999999998
sg152
F7.5
sg291
F6
sg532
F7
sg166
F6
sg131
F4
sg141
F7.5
ssg16
VTV Guide Magazine
p3660
sg18
NsbsVThe Guardian/Lanre Bakare
p3661
g3
(g4
g5
NtRp3662
(dp3663
g8
g3661
sg9
VLanre Bakare
p3664
sg11
S'http://www.metacritic.com/critic/lanre-bakare?filter=movies'
p3665
sg13
(dp3666
g98
F6
ssg16
VThe Guardian
p3667
sg18
NsbsVThe New York Times/Stephen Holden
p3668
g3
(g4
g5
NtRp3669
(dp3670
g8
g3668
sg9
VStephen Holden
p3671
sg11
S'http://www.metacritic.com/critic/stephen-holden?filter=movies'
p3672
sg13
(dp3673
g292
F9
sg60
F7
sg215
F9
sg131
F2
sg307
F10
sg172
F10
sg79
F10
sg43
F6
ssg16
VThe New York Times
p3674
sg18
NsbsVVillage Voice/Michael Nordine
p3675
g3
(g4
g5
NtRp3676
(dp3677
g8
g3675
sg9
VMichael Nordine
p3678
sg11
S'http://www.metacritic.com/critic/michael-nordine?filter=movies'
p3679
sg13
(dp3680
g77
F9
ssg16
VVillage Voice
p3681
sg18
NsbsVLos Angeles Times/Robert Abele
p3682
g3
(g4
g5
NtRp3683
(dp3684
g8
g3682
sg9
VRobert Abele
p3685
sg11
S'http://www.metacritic.com/critic/robert-abele?filter=movies'
p3686
sg13
(dp3687
g277
F7
ssg16
VLos Angeles Times
p3688
sg18
NsbsVCineVue/Tom Graham
p3689
g3
(g4
g5
NtRp3690
(dp3691
g8
g3689
sg9
VTom Graham
p3692
sg11
S'http://www.metacritic.com/critic?filter=movies'
p3693
sg13
(dp3694
g155
F8
ssg16
VCineVue
p3695
sg18
NsbsVScreen International/Mark Adams
p3696
g3
(g4
g5
NtRp3697
(dp3698
g8
g3696
sg9
VMark Adams
p3699
sg11
S'http://www.metacritic.com/critic/mark-adams?filter=movies'
p3700
sg13
(dp3701
g183
F9
ssg16
VScreen International
p3702
sg18
NsbsVThe Globe and Mail (Toronto)/Jay Scott
p3703
g3
(g4
g5
NtRp3704
(dp3705
g8
g3703
sg9
VJay Scott
p3706
sg11
S'http://www.metacritic.com/critic/jay-scott?filter=movies'
p3707
sg13
(dp3708
g530
F10
ssg16
VThe Globe and Mail (Toronto)
p3709
sg18
NsbsVFilm Threat/Eric Campos
p3710
g3
(g4
g5
NtRp3711
(dp3712
g8
g3710
sg9
VEric Campos
p3713
sg11
S'http://www.metacritic.com/critic?filter=movies'
p3714
sg13
(dp3715
g127
F10
ssg16
VFilm Threat
p3716
sg18
NsbsVThe A.V. Club/Noel Murray
p3717
g3
(g4
g5
NtRp3718
(dp3719
g8
g3717
sg9
VNoel Murray
p3720
sg11
S'http://www.metacritic.com/critic/noel-murray?filter=movies'
p3721
sg13
(dp3722
g163
F6.7000000000000002
sg122
F9.0999999999999996
sg155
F9.0999999999999996
sg419
F9.0999999999999996
sg174
F7
sg290
F9.0999999999999996
sg42
F7.5
sg43
F6.7000000000000002
ssg16
VThe A.V. Club
p3723
sg18
NsbsVTotal Film/Jamie Graham
p3724
g3
(g4
g5
NtRp3725
(dp3726
g8
g3724
sg9
VJamie Graham
p3727
sg11
S'http://www.metacritic.com/critic/jamie-graham?filter=movies'
p3728
sg13
(dp3729
g33
F8
sg98
F10
sg74
F10
sg75
F10
sg73
F10
sg216
F8
sg126
F10
sg80
F8
sg81
F8
ssg16
VTotal Film
p3730
sg18
NsbsVL.A. Weekly/Manohla Dargis
p3731
g3
(g4
g5
NtRp3732
(dp3733
g8
g3731
sg9
VManohla Dargis
p3734
sg11
S'http://www.metacritic.com/critic/manohla-dargis?filter=movies'
p3735
sg13
(dp3736
g529
F9
sg144
F6
sg291
F2
sg532
F10
ssg16
VL.A. Weekly
p3737
sg18
NsbsVCineVue/Lucy Popescu
p3738
g3
(g4
g5
NtRp3739
(dp3740
g8
g3738
sg9
VLucy Popescu
p3741
sg11
S'http://www.metacritic.com/critic?filter=movies'
p3742
sg13
(dp3743
g183
F8
ssg16
VCineVue
p3744
sg18
NsbsVScreen International/Jonathan Romney
p3745
g3
(g4
g5
NtRp3746
(dp3747
g8
g3745
sg9
VJonathan Romney
p3748
sg11
S'http://www.metacritic.com/critic?filter=movies'
p3749
sg13
(dp3750
g71
F6
sg100
F9
ssg16
VScreen International
p3751
sg18
NsbsVThe Hollywood Reporter/Kirk Honeycutt
p3752
g3
(g4
g5
NtRp3753
(dp3754
g8
g3752
sg9
VKirk Honeycutt
p3755
sg11
S'http://www.metacritic.com/critic/kirk-honeycutt?filter=movies'
p3756
sg13
(dp3757
g124
F6
sg163
F8
sg173
F10
sg145
F10
sg158
F9
sg147
F10
sg166
F9
sg151
F8
sg135
F10
sg290
F9
sg133
F7
sg170
F10
sg171
F10
sg164
F10
sg157
F8
sg138
F10
sg174
F8
sg175
F9
sg140
F6
ssg16
VThe Hollywood Reporter
p3758
sg18
NsbsVEmpire/Damon Wise
p3759
g3
(g4
g5
NtRp3760
(dp3761
g8
g3759
sg9
VDamon Wise
p3762
sg11
S'http://www.metacritic.com/critic/damon-wise?filter=movies'
p3763
sg13
(dp3764
g148
F8
sg169
F10
sg76
F10
sg170
F8
sg137
F8
sg120
F10
ssg16
VEmpire
p3765
sg18
NsbsVVillage Voice/Alan Scherstuhl
p3766
g3
(g4
g5
NtRp3767
(dp3768
g8
g3766
sg9
VAlan Scherstuhl
p3769
sg11
S'http://www.metacritic.com/critic/alan-scherstuhl?filter=movies'
p3770
sg13
(dp3771
g278
F8
sg70
F10
sg71
F7
sg102
F10
sg25
F8
sg78
F10
sg79
F9
sg513
F6
ssg16
VVillage Voice
p3772
sg18
NsbsVTampa Bay Times/Steve Persall
p3773
g3
(g4
g5
NtRp3774
(dp3775
g8
g3773
sg9
VSteve Persall
p3776
sg11
S'http://www.metacritic.com/critic/steve-persall?filter=movies'
p3777
sg13
(dp3778
g118
F10
sg98
F10
sg120
F10
sg133
F6.7000000000000002
sg126
F10
sg128
F9.0999999999999996
sg129
F10
sg132
F10
sg71
F6.7000000000000002
sg72
F10
sg167
F10
sg74
F10
sg15
F10
sg142
F5.7999999999999998
sg143
F8.3000000000000007
sg148
F10
sg149
F10
sg150
F7.5
sg155
F8.3000000000000007
sg73
F10
sg82
F10
sg158
F8.3000000000000007
sg159
F8.3000000000000007
sg160
F10
sg161
F7.5
sg51
F5.7999999999999998
sg165
F7.5
sg80
F10
sg76
F10
sg170
F10
sg81
F10
sg513
F10
sg77
F10
ssg16
VTampa Bay Times
p3779
sg18
NsbsVRolling Stone/Peter Travers
p3780
g3
(g4
g5
NtRp3781
(dp3782
g8
g3780
sg9
VPeter Travers
p3783
sg11
S'http://www.metacritic.com/critic/peter-travers?filter=movies'
p3784
sg13
(dp3785
g122
F10
sg134
F6.2999999999999998
sg529
F9
sg123
F2.5
sg167
F8.8000000000000007
sg71
F6.2999999999999998
sg127
F7.5
sg135
F8.8000000000000007
sg307
F10
sg138
F10
sg141
F10
sg427
F4
sg124
F7.5
sg148
F8.8000000000000007
sg183
F8.8000000000000007
sg158
F8.8000000000000007
sg161
F8.8000000000000007
sg292
F9
sg163
F6.2999999999999998
sg164
F8.8000000000000007
sg59
F8
sg171
F8.8000000000000007
sg513
F8.8000000000000007
sg77
F8.8000000000000007
sg98
F10
sg531
F10
sg128
F8.8000000000000007
sg129
F8.8000000000000007
sg110
F9
sg100
F8.8000000000000007
sg74
F10
sg157
F10
sg147
F10
sg173
F8.8000000000000007
sg150
F8.8000000000000007
sg151
F7.5
sg82
F8.8000000000000007
sg159
F10
sg216
F8.8000000000000007
sg160
F8.8000000000000007
sg165
F8.8000000000000007
sg75
F8.8000000000000007
sg80
F10
sg175
F8.8000000000000007
sg130
F2.5
sg277
F8.8000000000000007
sg133
F7.5
sg132
F8.8000000000000007
sg214
F8.8000000000000007
sg521
F7.5
sg139
F8.8000000000000007
sg137
F8.8000000000000007
sg101
F8.8000000000000007
sg15
F10
sg42
F8.8000000000000007
sg162
F0
sg149
F8.8000000000000007
sg153
F8.8000000000000007
sg532
F10
sg97
F8.8000000000000007
sg69
F7.5
sg99
F10
sg289
F10
sg76
F8.8000000000000007
sg168
F8.8000000000000007
sg81
F10
sg118
F10
sg119
F8.8000000000000007
sg120
F10
sg126
F8.8000000000000007
sg140
F8.8000000000000007
sg72
F10
sg41
F8.8000000000000007
sg142
F8.8000000000000007
sg143
F5
sg145
F8.8000000000000007
sg152
F10
sg155
F8.8000000000000007
sg73
F10
sg156
F8.8000000000000007
sg279
F7.5
sg166
F7.5
sg169
F10
sg170
F10
sg172
F10
sg281
F10
ssg16
VRolling Stone
p3786
sg18
NsbsVNew York Daily News/Amy Rowe
p3787
g3
(g4
g5
NtRp3788
(dp3789
g8
g3787
sg9
VAmy Rowe
p3790
sg11
S'http://www.metacritic.com/critic?filter=movies'
p3791
sg13
(dp3792
g101
F7
ssg16
VNew York Daily News
p3793
sg18
NsbsVBoston Globe/Jay Carr
p3794
g3
(g4
g5
NtRp3795
(dp3796
g8
g3794
sg9
VJay Carr
p3797
sg11
S'http://www.metacritic.com/critic/jay-carr?filter=movies'
p3798
sg13
(dp3799
g427
F2.5
sg292
F10
sg110
F7.5
sg289
F10
sg307
F10
sg463
F6.2999999999999998
sg291
F8.8000000000000007
sg532
F10
ssg16
VBoston Globe
p3800
sg18
NsbsVNew York Daily News/Jami Bernard
p3801
g3
(g4
g5
NtRp3802
(dp3803
g8
g3801
sg9
VJami Bernard
p3804
sg11
S'http://www.metacritic.com/critic/jami-bernard?filter=movies'
p3805
sg13
(dp3806
g231
F8.8000000000000007
sg292
F8.8000000000000007
sg110
F5
sg289
F10
sg125
F3.7999999999999998
sg307
F8.8000000000000007
sg172
F10
sg168
F8.8000000000000007
ssg16
VNew York Daily News
p3807
sg18
NsbsVRogerEbert.com/Matt Zoller Seitz
p3808
g3
(g4
g5
NtRp3809
(dp3810
g8
g3808
sg9
VMatt Zoller Seitz
p3811
sg11
S'http://www.metacritic.com/critic/matt-zoller-seitz?filter=movies'
p3812
sg13
(dp3813
g69
F10
sg98
F10
sg72
F10
sg102
F7.5
sg73
F10
sg261
F10
sg513
F7.5
sg81
F8.8000000000000007
ssg16
VRogerEbert.com
p3814
sg18
NsbsVFilm Threat/Ron Wells
p3815
g3
(g4
g5
NtRp3816
(dp3817
g8
g3815
sg9
VRon Wells
p3818
sg11
S'http://www.metacritic.com/critic/ron-wells?filter=movies'
p3819
sg13
(dp3820
g532
F8
ssg16
VFilm Threat
p3821
sg18
NsbsVThe Hollywood Reporter/Frank Scheck
p3822
g3
(g4
g5
NtRp3823
(dp3824
g8
g3822
sg9
VFrank Scheck
p3825
sg11
S'http://www.metacritic.com/critic/frank-scheck?filter=movies'
p3826
sg13
(dp3827
g130
F3
ssg16
VThe Hollywood Reporter
p3828
sg18
NsbsVNPR/Ian Buckwalter
p3829
g3
(g4
g5
NtRp3830
(dp3831
g8
g3829
sg9
VIan Buckwalter
p3832
sg11
S'http://www.metacritic.com/critic/ian-buckwalter?filter=movies'
p3833
sg13
(dp3834
g143
F4.5
sg161
F8
sg82
F9.5
ssg16
VNPR
p3835
sg18
NsbsVSlate/David Edelstein
p3836
g3
(g4
g5
NtRp3837
(dp3838
g8
g3836
sg9
VDavid Edelstein
p3839
sg11
S'http://www.metacritic.com/critic/david-edelstein?filter=movies'
p3840
sg13
(dp3841
g131
F7
sg144
F3
sg173
F10
sg147
F9
sg110
F9
sg166
F7
sg127
F7
sg135
F9
sg292
F9
sg41
F10
sg156
F8
sg307
F10
sg172
F6
sg463
F5
sg162
F6
sg168
F10
sg532
F10
sg175
F9
ssg16
VSlate
p3842
sg18
NsbsVTotal Film/Emma Morgan
p3843
g3
(g4
g5
NtRp3844
(dp3845
g8
g3843
sg9
VEmma Morgan
p3846
sg11
S'http://www.metacritic.com/critic?filter=movies'
p3847
sg13
(dp3848
g148
F8
ssg16
VTotal Film
p3849
sg18
NsbsVTotal Film/Matthew Leyland
p3850
g3
(g4
g5
NtRp3851
(dp3852
g8
g3850
sg9
VMatthew Leyland
p3853
sg11
S'http://www.metacritic.com/critic/matthew-leyland?filter=movies'
p3854
sg13
(dp3855
g150
F10
sg134
F10
ssg16
VTotal Film
p3856
sg18
NsbsVVillage Voice/Dennis Lim
p3857
g3
(g4
g5
NtRp3858
(dp3859
g8
g3857
sg9
VDennis Lim
p3860
sg11
S'http://www.metacritic.com/critic/dennis-lim?filter=movies'
p3861
sg13
(dp3862
g427
F3
sg307
F8
ssg16
VVillage Voice
p3863
sg18
NsbsVAustin Chronicle/Kimberley Jones
p3864
g3
(g4
g5
NtRp3865
(dp3866
g8
g3864
sg9
VKimberley Jones
p3867
sg11
S'http://www.metacritic.com/critic/kimberley-jones?filter=movies'
p3868
sg13
(dp3869
g118
F8.9000000000000004
sg82
F8.9000000000000004
sg132
F8.9000000000000004
sg71
F6.7000000000000002
sg135
F7.7999999999999998
sg74
F10
sg139
F7.7999999999999998
sg307
F7.7999999999999998
sg148
F10
sg149
F7.7999999999999998
sg161
F6.7000000000000002
sg73
F8.9000000000000004
sg183
F10
sg156
F5
sg158
F7.7999999999999998
sg291
F8.9000000000000004
sg160
F6.7000000000000002
sg97
F8.9000000000000004
sg292
F7.7999999999999998
sg165
F7.7999999999999998
sg170
F8.9000000000000004
sg463
F2
sg81
F6.7000000000000002
sg175
F8.9000000000000004
ssg16
VAustin Chronicle
p3870
sg18
NsbsVArizona Republic/Bill Goodykoontz
p3871
g3
(g4
g5
NtRp3872
(dp3873
g8
g3871
sg9
VBill Goodykoontz
p3874
sg11
S'http://www.metacritic.com/critic/bill-goodykoontz?filter=movies'
p3875
sg13
(dp3876
g118
F10
sg119
F8
sg33
F8
sg98
F10
sg277
F8
sg72
F10
sg133
F7
sg126
F9
sg128
F8
sg129
F10
sg132
F10
sg71
F8
sg214
F9
sg134
F5
sg521
F9
sg100
F9
sg74
F10
sg419
F8
sg15
F10
sg101
F8
sg260
F8
sg120
F9
sg142
F8
sg148
F9
sg150
F8
sg161
F9
sg215
F8
sg75
F9
sg73
F10
sg183
F9
sg82
F9
sg158
F10
sg159
F9
sg216
F8
sg160
F9
sg97
F9
sg69
F8
sg279
F9
sg165
F9
sg167
F8
sg155
F9
sg80
F10
sg76
F8
sg170
F10
sg77
F8
sg513
F9
sg81
F9
sg281
F9
ssg16
VArizona Republic
p3877
sg18
NsbsVEntertainment Weekly/Chris Nashawaty
p3878
g3
(g4
g5
NtRp3879
(dp3880
g8
g3878
sg9
VChris Nashawaty
p3881
sg11
S'http://www.metacritic.com/critic/chris-nashawaty?filter=movies'
p3882
sg13
(dp3883
g142
F7.5
sg69
F5
sg98
F10
sg132
F7.5
sg277
F10
sg71
F7.5
sg167
F10
sg73
F10
sg100
F10
sg77
F10
sg74
F9.0999999999999996
sg155
F8.3000000000000007
sg76
F8.3000000000000007
sg81
F9.0999999999999996
sg101
F9.0999999999999996
sg80
F10
sg159
F9.0999999999999996
sg260
F9.0999999999999996
sg513
F9.0999999999999996
sg216
F7.5
sg281
F7.5
ssg16
VEntertainment Weekly
p3884
sg18
NsbsVChicago Tribune/Marc Caro
p3885
g3
(g4
g5
NtRp3886
(dp3887
g8
g3885
sg9
VMarc Caro
p3888
sg11
S'http://www.metacritic.com/critic?filter=movies'
p3889
sg13
(dp3890
g131
F8.8000000000000007
ssg16
VChicago Tribune
p3891
sg18
NsbsVPhiladelphia Inquirer/Carrie Rickey
p3892
g3
(g4
g5
NtRp3893
(dp3894
g8
g3892
sg9
VCarrie Rickey
p3895
sg11
S'http://www.metacritic.com/critic/carrie-rickey?filter=movies'
p3896
sg13
(dp3897
g122
F10
sg123
F5
sg133
F7.5
sg125
F5
sg131
F8.8000000000000007
sg127
F7.5
sg135
F8.8000000000000007
sg307
F7.5
sg42
F10
sg427
F2.5
sg143
F5
sg145
F7.5
sg147
F10
sg149
F8.8000000000000007
sg153
F8.8000000000000007
sg290
F10
sg174
F8.8000000000000007
sg51
F7.5
sg166
F6.2999999999999998
sg99
F10
sg289
F7.5
sg170
F10
sg172
F8.8000000000000007
sg463
F6.2999999999999998
sg168
F8.8000000000000007
sg175
F10
ssg16
VPhiladelphia Inquirer
p3898
sg18
NsbsVBoxoffice Magazine/Amy Nicholson
p3899
g3
(g4
g5
NtRp3900
(dp3901
g8
g3899
sg9
VAmy Nicholson
p3902
sg11
S'http://www.metacritic.com/critic?filter=movies'
p3903
sg13
(dp3904
g150
F7
ssg16
VBoxoffice Magazine
p3905
sg18
NsbsVChicago Sun-Times/Steven Boone
p3906
g3
(g4
g5
NtRp3907
(dp3908
g8
g3906
sg9
VSteven Boone
p3909
sg11
S'http://www.metacritic.com/critic?filter=movies'
p3910
sg13
(dp3911
g279
F8.8000000000000007
ssg16
VChicago Sun-Times
p3912
sg18
NsbsVRogerEbert.com/Brian Tallerico
p3913
g3
(g4
g5
NtRp3914
(dp3915
g8
g3913
sg9
VBrian Tallerico
p3916
sg11
S'http://www.metacritic.com/critic/brian-tallerico?filter=movies'
p3917
sg13
(dp3918
g71
F7.5
sg419
F8.8000000000000007
sg167
F7.5
sg215
F7.5
ssg16
VRogerEbert.com
p3919
sg18
NsbsVChicago Reader/Jonathan Rosenbaum
p3920
g3
(g4
g5
NtRp3921
(dp3922
g8
g3920
sg9
VJonathan Rosenbaum
p3923
sg11
S'http://www.metacritic.com/critic/jonathan-rosenbaum?filter=movies'
p3924
sg13
(dp3925
g231
F9
sg121
F8
sg122
F10
sg60
F4
sg530
F10
sg43
F5
sg140
F5
sg110
F9
sg135
F7
sg136
F10
sg532
F6
sg137
F7
sg307
F9
sg154
F8
sg42
F7
sg162
F6
sg141
F7
sg427
F6
sg144
F8
sg147
F7
sg173
F10
sg152
F3
sg156
F6
sg531
F2
sg292
F9
sg59
F8
sg289
F9
sg172
F7
sg463
F4
sg168
F9
sg175
F7
ssg16
VChicago Reader
p3926
sg18
NsbsVChicago Reader/Ben Sachs
p3927
g3
(g4
g5
NtRp3928
(dp3929
g8
g3927
sg9
VBen Sachs
p3930
sg11
S'http://www.metacritic.com/critic?filter=movies'
p3931
sg13
(dp3932
g133
F5
ssg16
VChicago Reader
p3933
sg18
NsbsVThe A.V. Club/David Ehrlich
p3934
g3
(g4
g5
NtRp3935
(dp3936
g8
g3934
sg9
VDavid Ehrlich
p3937
sg11
S'http://www.metacritic.com/critic/david-ehrlich?filter=movies'
p3938
sg13
(dp3939
g33
F10
ssg16
VThe A.V. Club
p3940
sg18
NsbsVFilm.com/Ernest Hardy
p3941
g3
(g4
g5
NtRp3942
(dp3943
g8
g3941
sg9
VErnest Hardy
p3944
sg11
S'http://www.metacritic.com/critic/ernest-hardy?filter=movies'
p3945
sg13
(dp3946
g110
F9
ssg16
VFilm.com
p3947
sg18
NsbsVThe Film Stage/Giovanni Marchini Camia
p3948
g3
(g4
g5
NtRp3949
(dp3950
g8
g3948
sg9
VGiovanni Marchini Camia
p3951
sg11
S'http://www.metacritic.com/critic/giovanni-marchini-camia?filter=movies'
p3952
sg13
(dp3953
g97
F6.7000000000000002
sg280
F7.5
sg75
F10
sg101
F10
sg167
F7.5
sg77
F8.3000000000000007
ssg16
VThe Film Stage
p3954
sg18
NsbsVUSA Today/Brian Truitt
p3955
g3
(g4
g5
NtRp3956
(dp3957
g8
g3955
sg9
VBrian Truitt
p3958
sg11
S'http://www.metacritic.com/critic/brian-truitt?filter=movies'
p3959
sg13
(dp3960
g142
F6.2999999999999998
sg98
F10
sg165
F8.8000000000000007
sg71
F7.5
sg73
F8.8000000000000007
sg80
F10
sg81
F7.5
ssg16
VUSA Today
p3961
sg18
NsbsVBoxoffice Magazine/John P. McCarthy
p3962
g3
(g4
g5
NtRp3963
(dp3964
g8
g3962
sg9
VJohn P. McCarthy
p3965
sg11
S'http://www.metacritic.com/critic/john-p-mccarthy?filter=movies'
p3966
sg13
(dp3967
g143
F5
ssg16
VBoxoffice Magazine
p3968
sg18
NsbsVFilm Threat/Clint Morris
p3969
g3
(g4
g5
NtRp3970
(dp3971
g8
g3969
sg9
VClint Morris
p3972
sg11
S'http://www.metacritic.com/critic?filter=movies'
p3973
sg13
(dp3974
g125
F4
ssg16
VFilm Threat
p3975
sg18
NsbsVVillage Voice/Alex Pappademas
p3976
g3
(g4
g5
NtRp3977
(dp3978
g8
g3976
sg9
VAlex Pappademas
p3979
sg11
S'http://www.metacritic.com/critic?filter=movies'
p3980
sg13
(dp3981
g125
F3
ssg16
VVillage Voice
p3982
sg18
NsbsVTime Out London/Wendy Ide
p3983
g3
(g4
g5
NtRp3984
(dp3985
g8
g3983
sg9
VWendy Ide
p3986
sg11
S'http://www.metacritic.com/critic?filter=movies'
p3987
sg13
(dp3988
g102
F8
ssg16
VTime Out London
p3989
sg18
NsbsVSlant Magazine/Nick Schager
p3990
g3
(g4
g5
NtRp3991
(dp3992
g8
g3990
sg9
VNick Schager
p3993
sg11
S'http://www.metacritic.com/critic/nick-schager?filter=movies'
p3994
sg13
(dp3995
g143
F2.5
sg150
F7.5
sg129
F8.8000000000000007
ssg16
VSlant Magazine
p3996
sg18
NsbsVPortland Oregonian/Kim Morgan
p3997
g3
(g4
g5
NtRp3998
(dp3999
g8
g3997
sg9
VKim Morgan
p4000
sg11
S'http://www.metacritic.com/critic/kim-morgan?filter=movies'
p4001
sg13
(dp4002
g427
F5
sg125
F4.2000000000000002
sg463
F4.2000000000000002
ssg16
VPortland Oregonian
p4003
sg18
NsbsVOrlando Sentinel/Roger Moore
p4004
g3
(g4
g5
NtRp4005
(dp4006
g8
g4004
sg9
VRoger Moore
p4007
sg11
S'http://www.metacritic.com/critic/roger-moore?filter=movies'
p4008
sg13
(dp4009
g143
F5
sg149
F7.5
sg133
F7.5
sg170
F10
sg158
F7.5
sg160
F7.5
ssg16
VOrlando Sentinel
p4010
sg18
NsbsVThe New York Times/A.O. Scott
p4011
g3
(g4
g5
NtRp4012
(dp4013
g8
g4011
sg9
VA.O. Scott
p4014
sg11
S'http://www.metacritic.com/critic/ao-scott?filter=movies'
p4015
sg13
(dp4016
g119
F10
sg98
F9
sg277
F7
sg122
F10
sg72
F9
sg529
F10
sg123
F1
sg133
F7
sg80
F10
sg127
F9
sg167
F6
sg129
F8
sg71
F6
sg134
F5
sg100
F7
sg322
F9
sg138
F10
sg41
F10
sg42
F10
sg260
F6
sg120
F10
sg427
F5
sg148
F10
sg149
F9
sg161
F10
sg152
F10
sg153
F8
sg75
F10
sg73
F10
sg183
F9
sg82
F10
sg139
F7
sg158
F6
sg159
F10
sg291
F9
sg160
F5
sg97
F10
sg164
F10
sg279
F10
sg165
F7
sg155
F9
sg102
F10
sg76
F9
sg78
F8
sg290
F9
sg175
F10
sg513
F10
sg77
F10
sg281
F10
ssg16
VThe New York Times
p4017
sg18
NsbsVFilm Threat/Ross Williams
p4018
g3
(g4
g5
NtRp4019
(dp4020
g8
g4018
sg9
VRoss Williams
p4021
sg11
S'http://www.metacritic.com/critic/ross-williams?filter=movies'
p4022
sg13
(dp4023
g291
F10
ssg16
VFilm Threat
p4024
sg18
NsbsVFilm Threat/Phil Hall
p4025
g3
(g4
g5
NtRp4026
(dp4027
g8
g4025
sg9
VPhil Hall
p4028
sg11
S'http://www.metacritic.com/critic/phil-hall?filter=movies'
p4029
sg13
(dp4030
g172
F4
sg168
F5
ssg16
VFilm Threat
p4031
sg18
NsbsVNew York Daily News/Jordan Hoffman
p4032
g3
(g4
g5
NtRp4033
(dp4034
g8
g4032
sg9
VJordan Hoffman
p4035
sg11
S'http://www.metacritic.com/critic?filter=movies'
p4036
sg13
(dp4037
g79
F8
sg216
F8
ssg16
VNew York Daily News
p4038
sg18
NsbsVLos Angeles Times/Carina Chocano
p4039
g3
(g4
g5
NtRp4040
(dp4041
g8
g4039
sg9
VCarina Chocano
p4042
sg11
S'http://www.metacritic.com/critic/carina-chocano?filter=movies'
p4043
sg13
(dp4044
g290
F8
sg135
F9
sg43
F7
sg156
F8
ssg16
VLos Angeles Times
p4045
sg18
NsbsVL.A. Weekly/John Patterson
p4046
g3
(g4
g5
NtRp4047
(dp4048
g8
g4046
sg9
VJohn Patterson
p4049
sg11
S'http://www.metacritic.com/critic/john-patterson?filter=movies'
p4050
sg13
(dp4051
g131
F8
ssg16
VL.A. Weekly
p4052
sg18
NsbsVEmpire/Colin Kennedy
p4053
g3
(g4
g5
NtRp4054
(dp4055
g8
g4053
sg9
VColin Kennedy
p4056
sg11
S'http://www.metacritic.com/critic?filter=movies'
p4057
sg13
(dp4058
g173
F8
ssg16
VEmpire
p4059
sg18
NsbsVSalon.com/Max Cea
p4060
g3
(g4
g5
NtRp4061
(dp4062
g8
g4060
sg9
VMax Cea
p4063
sg11
S'http://www.metacritic.com/critic?filter=movies'
p4064
sg13
(dp4065
g101
F9
ssg16
VSalon.com
p4066
sg18
NsbsVVillage Voice/Chris Packham
p4067
g3
(g4
g5
NtRp4068
(dp4069
g8
g4067
sg9
VChris Packham
p4070
sg11
S'http://www.metacritic.com/critic?filter=movies'
p4071
sg13
(dp4072
g161
F9
ssg16
VVillage Voice
p4073
sg18
NsbsVCharlotte Observer/Lawrence Toppman
p4074
g3
(g4
g5
NtRp4075
(dp4076
g8
g4074
sg9
VLawrence Toppman
p4077
sg11
S'http://www.metacritic.com/critic/lawrence-toppman?filter=movies'
p4078
sg13
(dp4079
g118
F8.8000000000000007
sg120
F8.8000000000000007
sg174
F10
sg122
F10
sg72
F10
sg123
F6.2999999999999998
sg125
F3.7999999999999998
sg126
F8.8000000000000007
sg127
F7.5
sg128
F8.8000000000000007
sg129
F8.8000000000000007
sg140
F8.8000000000000007
sg289
F8.8000000000000007
sg132
F10
sg110
F2.5
sg71
F7.5
sg134
F7.5
sg100
F8.8000000000000007
sg135
F7.5
sg74
F8.3000000000000007
sg41
F10
sg137
F8.8000000000000007
sg307
F7.5
sg138
F8.8000000000000007
sg15
F10
sg162
F3.7999999999999998
sg260
F9.0999999999999996
sg141
F7.5
sg427
F3.7999999999999998
sg143
F6.2999999999999998
sg173
F7.5
sg145
F10
sg147
F10
sg148
F8.3000000000000007
sg149
F6.2999999999999998
sg150
F7.5
sg151
F7.5
sg152
F7.5
sg153
F8.8000000000000007
sg73
F10
sg183
F7.5
sg157
F7.5
sg158
F8.8000000000000007
sg532
F10
sg160
F8.8000000000000007
sg161
F10
sg163
F5
sg164
F10
sg165
F9.0999999999999996
sg166
F10
sg167
F6.2999999999999998
sg168
F8.8000000000000007
sg169
F6.2999999999999998
sg170
F10
sg77
F8.8000000000000007
sg172
F10
sg463
F3.7999999999999998
sg80
F10
sg81
F5
sg175
F6.2999999999999998
ssg16
VCharlotte Observer
p4080
sg18
NsbsVFilm.com/Stephanie Zacharek
p4081
g3
(g4
g5
NtRp4082
(dp4083
g8
g4081
sg9
VStephanie Zacharek
p4084
sg11
S'http://www.metacritic.com/critic/stephanie-zacharek?filter=movies'
p4085
sg13
(dp4086
g118
F10
ssg16
VFilm.com
p4087
sg18
NsbsVThe New York Times/Dana Stevens
p4088
g3
(g4
g5
NtRp4089
(dp4090
g8
g4088
sg9
VDana Stevens
p4091
sg11
S'http://www.metacritic.com/critic/dana-stevens?filter=movies'
p4092
sg13
(dp4093
g135
F9
sg174
F9
sg125
F2
sg463
F3
sg162
F4
sg168
F9
sg140
F7
ssg16
VThe New York Times
p4094
sg18
NsbsVTNT RoughCut/Matt Kelsey
p4095
g3
(g4
g5
NtRp4096
(dp4097
g8
g4095
sg9
VMatt Kelsey
p4098
sg11
S'http://www.metacritic.com/critic?filter=movies'
p4099
sg13
(dp4100
g131
F8.5
ssg16
VTNT RoughCut
p4101
sg18
NsbsVThe Dissolve/Keith Phipps
p4102
g3
(g4
g5
NtRp4103
(dp4104
g8
g4102
sg9
VKeith Phipps
p4105
sg11
S'http://www.metacritic.com/critic/keith-phipps?filter=movies'
p4106
sg13
(dp4107
g69
F9
sg82
F9
sg72
F9
ssg16
VThe Dissolve
p4108
sg18
NsbsVMovieline/Stephanie Zacharek
p4109
g3
(g4
g5
NtRp4110
(dp4111
g8
g4109
sg9
VStephanie Zacharek
p4112
sg11
S'http://www.metacritic.com/critic/stephanie-zacharek?filter=movies'
p4113
sg13
(dp4114
g143
F4
sg149
F9
sg133
F7.5
sg170
F9.5
sg158
F3
sg129
F8.5
sg160
F8.5
ssg16
VMovieline
p4115
sg18
NsbsVIndiewire/Eric Kohn
p4116
g3
(g4
g5
NtRp4117
(dp4118
g8
g4116
sg9
VEric Kohn
p4119
sg11
S'http://www.metacritic.com/critic/eric-kohn?filter=movies'
p4120
sg13
(dp4121
g118
F10
sg119
F7.5
sg98
F8.3000000000000007
sg276
F9.0999999999999996
sg70
F9.0999999999999996
sg277
F8.3000000000000007
sg72
F9.0999999999999996
sg206
F10
sg133
F6.7000000000000002
sg126
F9.0999999999999996
sg128
F8.3000000000000007
sg129
F10
sg132
F9.0999999999999996
sg71
F7.5
sg214
F10
sg134
F7.5
sg100
F9.0999999999999996
sg25
F7.5
sg74
F9.0999999999999996
sg15
F10
sg101
F10
sg142
F6.7000000000000002
sg148
F9.0999999999999996
sg150
F7.5
sg75
F8.3000000000000007
sg73
F9.0999999999999996
sg183
F9.0999999999999996
sg82
F9.0999999999999996
sg159
F10
sg216
F10
sg161
F7.5
sg69
F8.3000000000000007
sg279
F7.5
sg167
F6.7000000000000002
sg76
F6.7000000000000002
sg77
F9.0999999999999996
sg78
F10
sg80
F7.5
sg81
F9.0999999999999996
ssg16
VIndiewire
p4122
sg18
NsbsVTime Out New York/Tomris Laffly
p4123
g3
(g4
g5
NtRp4124
(dp4125
g8
g4123
sg9
VTomris Laffly
p4126
sg11
S'http://www.metacritic.com/critic?filter=movies'
p4127
sg13
(dp4128
g71
F10
ssg16
VTime Out New York
p4129
sg18
NsbsVThe Guardian/Brian Moylan
p4130
g3
(g4
g5
NtRp4131
(dp4132
g8
g4130
sg9
VBrian Moylan
p4133
sg11
S'http://www.metacritic.com/critic?filter=movies'
p4134
sg13
(dp4135
g128
F8
ssg16
VThe Guardian
p4136
sg18
NsbsVPortland Oregonian/Diana Abu-Jaber
p4137
g3
(g4
g5
NtRp4138
(dp4139
g8
g4137
sg9
VDiana Abu-Jaber
p4140
sg11
S'http://www.metacritic.com/critic/diana-abu-jaber?filter=movies'
p4141
sg13
(dp4142
g131
F7.5
ssg16
VPortland Oregonian
p4143
sg18
NsbsVVariety/Rob Nelson
p4144
g3
(g4
g5
NtRp4145
(dp4146
g8
g4144
sg9
VRob Nelson
p4147
sg11
S'http://www.metacritic.com/critic/rob-nelson?filter=movies'
p4148
sg13
(dp4149
g521
F4
ssg16
VVariety
p4150
sg18
NsbsVChicago Tribune/Gene Siskel
p4151
g3
(g4
g5
NtRp4152
(dp4153
g8
g4151
sg9
VGene Siskel
p4154
sg11
S'http://www.metacritic.com/critic/gene-siskel?filter=movies'
p4155
sg13
(dp4156
g146
F10
sg59
F10
sg154
F10
ssg16
VChicago Tribune
p4157
sg18
NsbsVL.A. Weekly/Scott Foundas
p4158
g3
(g4
g5
NtRp4159
(dp4160
g8
g4158
sg9
VScott Foundas
p4161
sg11
S'http://www.metacritic.com/critic/scott-foundas?filter=movies'
p4162
sg13
(dp4163
g130
F5
sg166
F8
sg99
F9
sg151
F10
sg157
F8
sg123
F8
sg41
F10
sg137
F9
sg174
F9
sg42
F5
sg141
F10
sg43
F5
sg171
F10
ssg16
VL.A. Weekly
p4164
sg18
NsbsVNew York Post/Jonathan Foreman
p4165
g3
(g4
g5
NtRp4166
(dp4167
g8
g4165
sg9
VJonathan Foreman
p4168
sg11
S'http://www.metacritic.com/critic/jonathan-foreman?filter=movies'
p4169
sg13
(dp4170
g529
F10
sg127
F7.5
sg463
F5
sg144
F5
sg307
F10
ssg16
VNew York Post
p4171
sg18
NsbsVWashington Post/Michael O'Sullivan
p4172
g3
(g4
g5
NtRp4173
(dp4174
g8
g4172
sg9
VMichael O'Sullivan
p4175
sg11
S'http://www.metacritic.com/critic/michael-osullivan?filter=movies'
p4176
sg13
(dp4177
g173
F9
sg33
F8.8000000000000007
sg261
F8.8000000000000007
sg216
F8.8000000000000007
sg521
F7.5
ssg16
VWashington Post
p4178
sg18
NsbsVThe New York Times/Vincent Canby
p4179
g3
(g4
g5
NtRp4180
(dp4181
g8
g4179
sg9
VVincent Canby
p4182
sg11
S'http://www.metacritic.com/critic/vincent-canby?filter=movies'
p4183
sg13
(dp4184
g146
F9
sg530
F10
sg531
F10
ssg16
VThe New York Times
p4185
sg18
NsbsVFilm Threat/Harry Hartoonian
p4186
g3
(g4
g5
NtRp4187
(dp4188
g8
g4186
sg9
VHarry Hartoonian
p4189
sg11
S'http://www.metacritic.com/critic?filter=movies'
p4190
sg13
(dp4191
g60
F2
ssg16
VFilm Threat
p4192
sg18
NsbsVBoxoffice Magazine/Sara Maria Vizcarrondo
p4193
g3
(g4
g5
NtRp4194
(dp4195
g8
g4193
sg9
VSara Maria Vizcarrondo
p4196
sg11
S'http://www.metacritic.com/critic/sara-maria-vizcarrondo?filter=movies'
p4197
sg13
(dp4198
g120
F7
ssg16
VBoxoffice Magazine
p4199
sg18
NsbsVScreenCrush/Matt Singer
p4200
g3
(g4
g5
NtRp4201
(dp4202
g8
g4200
sg9
VMatt Singer
p4203
sg11
S'http://www.metacritic.com/critic/matt-singer?filter=movies'
p4204
sg13
(dp4205
g142
F7
sg71
F8
sg167
F8
ssg16
VScreenCrush
p4206
sg18
NsbsVFilm Threat/Mariko McDonald
p4207
g3
(g4
g5
NtRp4208
(dp4209
g8
g4207
sg9
VMariko McDonald
p4210
sg11
S'http://www.metacritic.com/critic?filter=movies'
p4211
sg13
(dp4212
g173
F10
ssg16
VFilm Threat
p4213
sg18
NsbsVThe Guardian/Ed Gibbs
p4214
g3
(g4
g5
NtRp4215
(dp4216
g8
g4214
sg9
VEd Gibbs
p4217
sg11
S'http://www.metacritic.com/critic?filter=movies'
p4218
sg13
(dp4219
g165
F8
ssg16
VThe Guardian
p4220
sg18
NsbsVVariety/Guy Lodge
p4221
g3
(g4
g5
NtRp4222
(dp4223
g8
g4221
sg9
VGuy Lodge
p4224
sg11
S'http://www.metacritic.com/critic/guy-lodge?filter=movies'
p4225
sg13
(dp4226
g75
F10
sg278
F6
sg77
F10
sg215
F8
ssg16
VVariety
p4227
sg18
NsbsVWall Street Journal/Joanne Kaufman
p4228
g3
(g4
g5
NtRp4229
(dp4230
g8
g4228
sg9
VJoanne Kaufman
p4231
sg11
S'http://www.metacritic.com/critic?filter=movies'
p4232
sg13
(dp4233
g124
F5
ssg16
VWall Street Journal
p4234
sg18
NsbsVMcClatchy-Tribune News Service/Roger Moore
p4235
g3
(g4
g5
NtRp4236
(dp4237
g8
g4235
sg9
VRoger Moore
p4238
sg11
S'http://www.metacritic.com/critic/roger-moore?filter=movies'
p4239
sg13
(dp4240
g33
F7.5
sg69
F6.2999999999999998
sg132
F8.8000000000000007
sg148
F8.8000000000000007
sg72
F8.8000000000000007
sg74
F10
sg76
F10
sg15
F10
sg82
F6.2999999999999998
ssg16
VMcClatchy-Tribune News Service
p4241
sg18
NsbsVSan Francisco Chronicle/David Lewis
p4242
g3
(g4
g5
NtRp4243
(dp4244
g8
g4242
sg9
VDavid Lewis
p4245
sg11
S'http://www.metacritic.com/critic?filter=movies'
p4246
sg13
(dp4247
g261
F7.5
ssg16
VSan Francisco Chronicle
p4248
sg18
NsbsVScreen International/Dan Fainaru
p4249
g3
(g4
g5
NtRp4250
(dp4251
g8
g4249
sg9
VDan Fainaru
p4252
sg11
S'http://www.metacritic.com/critic/dan-fainaru?filter=movies'
p4253
sg13
(dp4254
g278
F5
ssg16
VScreen International
p4255
sg18
NsbsVSlant Magazine/Matt Brennan
p4256
g3
(g4
g5
NtRp4257
(dp4258
g8
g4256
sg9
VMatt Brennan
p4259
sg11
S'http://www.metacritic.com/critic/matt-brennan?filter=movies'
p4260
sg13
(dp4261
g183
F10
ssg16
VSlant Magazine
p4262
sg18
NsbsVNew York Post/V.A. Musetto
p4263
g3
(g4
g5
NtRp4264
(dp4265
g8
g4263
sg9
VV.A. Musetto
p4266
sg11
S'http://www.metacritic.com/critic/va-musetto?filter=movies'
p4267
sg13
(dp4268
g231
F8.8000000000000007
sg276
F7.5
sg169
F8.8000000000000007
sg174
F7.5
sg290
F7.5
sg43
F5
sg168
F7.5
ssg16
VNew York Post
p4269
sg18
NsbsVSlant Magazine/Jake Cole
p4270
g3
(g4
g5
NtRp4271
(dp4272
g8
g4270
sg9
VJake Cole
p4273
sg11
S'http://www.metacritic.com/critic/jake-cole?filter=movies'
p4274
sg13
(dp4275
g71
F7.5
sg101
F10
ssg16
VSlant Magazine
p4276
sg18
NsbsVWall Street Journal/Julie Salamon
p4277
g3
(g4
g5
NtRp4278
(dp4279
g8
g4277
sg9
VJulie Salamon
p4280
sg11
S'http://www.metacritic.com/critic/julie-salamon?filter=movies'
p4281
sg13
(dp4282
g59
F10
sg530
F3
ssg16
VWall Street Journal
p4283
sg18
Nsbs.