(dp1
VThe Film Stage/Christopher Schobert
p2
ccopy_reg
_reconstructor
p3
(ccritic
Critic
p4
c__builtin__
object
p5
NtRp6
(dp7
S'ident'
p8
g2
sS'name'
p9
VChristopher Schobert
p10
sS'url'
p11
S'http://www.metacritic.com/critic/christopher-schobert?filter=movies'
p12
sS'reviews'
p13
(dp14
S'12-years-a-slave'
p15
F10
ssS'source'
p16
VThe Film Stage
p17
sS'correlation'
p18
NsbsVThe Playlist/Nick Schager
p19
g3
(g4
g5
NtRp20
(dp21
g8
g19
sg9
VNick Schager
p22
sg11
S'http://www.metacritic.com/critic/nick-schager?filter=movies'
p23
sg13
(dp24
S'sand-storm'
p25
F7.5
ssg16
VThe Playlist
p26
sg18
NsbsVThe New York Times/Nicolas Rapold
p27
g3
(g4
g5
NtRp28
(dp29
g8
g27
sg9
VNicolas Rapold
p30
sg11
S'http://www.metacritic.com/critic/nicolas-rapold?filter=movies'
p31
sg13
(dp32
S'the-tale-of-the-princess-kaguya'
p33
F8
ssg16
VThe New York Times
p34
sg18
NsbsVEmpire/Alan Morrison
p35
g3
(g4
g5
NtRp36
(dp37
g8
g35
sg9
VAlan Morrison
p38
sg11
S'http://www.metacritic.com/critic/alan-morrison?filter=movies'
p39
sg13
(dp40
S'the-lord-of-the-rings-the-return-of-the-king'
p41
F10
sS'the-lives-of-others'
p42
F10
sS'paris-je-taime'
p43
F8
ssg16
VEmpire
p44
sg18
NsbsVSan Francisco Examiner/Walter Addiego
p45
g3
(g4
g5
NtRp46
(dp47
g8
g45
sg9
VWalter Addiego
p48
sg11
S'http://www.metacritic.com/critic/walter-addiego?filter=movies'
p49
sg13
(dp50
S'chungking-express'
p51
F8.8000000000000007
ssg16
VSan Francisco Examiner
p52
sg18
NsbsVThe New Yorker/Terrence Rafferty
p53
g3
(g4
g5
NtRp54
(dp55
g8
g53
sg9
VTerrence Rafferty
p56
sg11
S'http://www.metacritic.com/critic?filter=movies'
p57
sg13
(dp58
S'schindlers-list'
p59
F10
sS'anaconda'
p60
F3
ssg16
VThe New Yorker
p61
sg18
NsbsVThe Telegraph/Robbie Collin
p62
g3
(g4
g5
NtRp63
(dp64
g8
g62
sg9
VRobbie Collin
p65
sg11
S'http://www.metacritic.com/critic/robbie-collin?filter=movies'
p66
sg13
(dp67
S'anomalisa'
p68
F10
sg33
F10
sS'inherent-vice'
p69
F10
sS'after-the-storm-2016'
p70
F8
sS'winter-sleep'
p71
F8
sS'the-nice-guys'
p72
F8
sS'gravity'
p73
F10
sS'inside-out-2015'
p74
F10
sS'birdman-or-the-unexpected-virtue-of-ignorance'
p75
F10
sS'nebraska'
p76
F8
sS'inside-llewyn-davis'
p77
F10
sS'a-pigeon-sat-on-a-branch-reflecting-on-existence'
p78
F10
sS'about-elly-2009'
p79
F8
sS'spotlight'
p80
F8
sS'the-lobster'
p81
F8
ssg16
VThe Telegraph
p82
sg18
NsbsVEmpire/James White
p83
g3
(g4
g5
NtRp84
(dp85
g8
g83
sg9
VJames White
p86
sg11
S'http://www.metacritic.com/critic/james-white?filter=movies'
p87
sg13
(dp88
g72
F8
ssg16
VEmpire
p89
sg18
NsbsVThe Globe and Mail (Toronto)/Kate Taylor
p90
g3
(g4
g5
NtRp91
(dp92
g8
g90
sg9
VKate Taylor
p93
sg11
S'http://www.metacritic.com/critic/kate-taylor?filter=movies'
p94
sg13
(dp95
S'the-salesman'
p96
F10
sS'manchester-by-the-sea'
p97
F10
sS'up'
p98
F7.5
sS'son-of-saul'
p99
F10
sS'paterson'
p100
F7.5
sS'rams'
p101
F7.5
sg81
F7.5
ssg16
VThe Globe and Mail (Toronto)
p102
sg18
NsbsVThe Guardian/Jordan Hoffman
p103
g3
(g4
g5
NtRp104
(dp105
g8
g103
sg9
VJordan Hoffman
p106
sg11
S'http://www.metacritic.com/critic/jordan-hoffman?filter=movies'
p107
sg13
(dp108
S'the-end-of-the-tour'
p109
F8
ssg16
VThe Guardian
p110
sg18
NsbsVReelViews/James Berardinelli
p111
g3
(g4
g5
NtRp112
(dp113
g8
g111
sg9
VJames Berardinelli
p114
sg11
S'http://www.metacritic.com/critic/james-berardinelli?filter=movies'
p115
sg13
(dp116
S'zero-dark-thirty'
p117
F8.8000000000000007
sS'django-unchained'
p118
F8.8000000000000007
sg77
F7.5
sS'her'
p119
F8.8000000000000007
sS'ghost-rider'
p120
F5
sS'the-master'
p121
F7.5
sS'spring-summer-fall-winter-and-spring'
p122
F8.8000000000000007
sS'pans-labyrinth'
p123
F8.8000000000000007
sg73
F10
sS'american-wedding'
p124
F6.2999999999999998
sS'crazy-stupid-love'
p125
F7.5
sg60
F5
sS'2-fast-2-furious'
p126
F1.2
sS'amour'
p127
F8.8000000000000007
sg99
F8.8000000000000007
sS'sicario'
p128
F8.8000000000000007
sS'a-separation'
p129
F8.8000000000000007
sS'ray'
p130
F5
sS'4-months-3-weeks-and-2-days'
p131
F8.8000000000000007
sS'eternal-sunshine-of-the-spotless-mind'
p132
F8.8000000000000007
sg75
F7.5
sg72
F7.5
sg97
F8.8000000000000007
sS'the-hobbit-an-unexpected-journey'
p133
F7.5
sS'dr-strangelove-or-how-i-learned-to-stop-worrying-and-love-the-bomb'
p134
F10
sS'the-lord-of-the-rings-the-two-towers'
p135
F10
sS'capote'
p136
F8.8000000000000007
sS'2001-a-space-odyssey'
p137
F10
sg15
F8.8000000000000007
sS'borat-cultural-learnings-of-america-for-make-benefit-glorious-nation-of-kazakhstan'
p138
F7.5
sS'wall-e'
p139
F8.8000000000000007
sg41
F10
sg42
F8.8000000000000007
sS'the-dukes-of-hazzard'
p140
F1.2
sS'children-of-men'
p141
F7.5
sS'sully'
p142
F7.5
sS'the-hangover-part-ii'
p143
F7.5
sS'eyes-wide-shut'
p144
F8.8000000000000007
sS'the-dark-knight'
p145
F10
sS'a-clockwork-orange'
p146
F10
sS'sideways'
p147
F8.8000000000000007
sS'the-grand-budapest-hotel'
p148
F7.5
sS'midnight-in-paris'
p149
F7.5
sS'the-dark-knight-rises'
p150
F8.8000000000000007
sS'superman-returns'
p151
F8.8000000000000007
sS'no-country-for-old-men'
p152
F8.8000000000000007
sS'into-the-wild'
p153
F8.8000000000000007
sS'fargo'
p154
F7.5
sS'brooklyn'
p155
F8.8000000000000007
sg74
F8.8000000000000007
sS'a-very-long-engagement'
p156
F7.5
sS'the-hangover'
p157
F7.5
sS'inception'
p158
F8.8000000000000007
sg51
F8.8000000000000007
sS'carol'
p159
F8.8000000000000007
sS'the-sixth-sense'
p160
F3.7999999999999998
sS'inglourious-basterds'
p161
F10
sS'blue-valentine'
p162
F8.8000000000000007
sS'lincoln'
p163
F8.8000000000000007
sg69
F7.5
sS'rocknrolla'
p164
F5
sS'ratatouille'
p165
F7.5
sg59
F10
sS'me-and-earl-and-the-dying-girl'
p166
F8.8000000000000007
sS'batman-begins'
p167
F8.8000000000000007
sg98
F7.5
sg80
F8.8000000000000007
sS'captain-fantastic'
p168
F7.5
sg76
F8.8000000000000007
sS'the-social-network'
p169
F8.8000000000000007
sS'avatar'
p170
F10
sS'brokeback-mountain'
p171
F7.5
sS'there-will-be-blood'
p172
F7.5
sS'the-pianist'
p173
F8.8000000000000007
sg68
F7.5
sS'lost-in-translation'
p174
F10
ssg16
VReelViews
p175
sg18
NsbsVRogerEbert.com/Susan Wloszczyna
p176
g3
(g4
g5
NtRp177
(dp178
g8
g176
sg9
VSusan Wloszczyna
p179
sg11
S'http://www.metacritic.com/critic/susan-wloszczyna?filter=movies'
p180
sg13
(dp181
g142
F7.5
sS'45-years'
p182
F10
sg15
F8.8000000000000007
ssg16
VRogerEbert.com
p183
sg18
NsbsVAustin Chronicle/Josh Rosenblatt
p184
g3
(g4
g5
NtRp185
(dp186
g8
g184
sg9
VJosh Rosenblatt
p187
sg11
S'http://www.metacritic.com/critic?filter=movies'
p188
sg13
(dp189
g153
F6.7000000000000002
sg131
F7.7999999999999998
sg42
F8.9000000000000004
sg164
F6.7000000000000002
ssg16
VAustin Chronicle
p190
sg18
NsbsVNew York Daily News/Dave Kehr
p191
g3
(g4
g5
NtRp192
(dp193
g8
g191
sg9
VDave Kehr
p194
sg11
S'http://www.metacritic.com/critic/dave-kehr?filter=movies'
p195
sg13
(dp196
g51
F9
ssg16
VNew York Daily News
p197
sg18
NsbsVThe Playlist/Todd Gilchrist
p198
g3
(g4
g5
NtRp199
(dp200
g8
g198
sg9
VTodd Gilchrist
p201
sg11
S'http://www.metacritic.com/critic/todd-gilchrist?filter=movies'
p202
sg13
(dp203
g150
F10
ssg16
VThe Playlist
p204
sg18
NsbsVVillage Voice/Michael Atkinson
p205
g3
(g4
g5
NtRp206
(dp207
g8
g205
sg9
VMichael Atkinson
p208
sg11
S'http://www.metacritic.com/critic/michael-atkinson?filter=movies'
p209
sg13
(dp210
S'brazil'
p211
F10
sg160
F5
sg134
F10
sg146
F8
sg167
F6
sS'the-academy-of-muses'
p212
F9
sg122
F8
sg130
F5
ssg16
VVillage Voice
p213
sg18
NsbsVSlant Magazine/Chuck Bowen
p214
g3
(g4
g5
NtRp215
(dp216
g8
g214
sg9
VChuck Bowen
p217
sg11
S'http://www.metacritic.com/critic/chuck-bowen?filter=movies'
p218
sg13
(dp219
g96
F10
sS'leviathan-2014'
p220
F8.8000000000000007
sS'victoria'
p221
F5
sg101
F7.5
sS'wild-tales'
p222
F7.5
sg79
F8.8000000000000007
sg68
F7.5
ssg16
VSlant Magazine
p223
sg18
NsbsVThe Dissolve/Tasha Robinson
p224
g3
(g4
g5
NtRp225
(dp226
g8
g224
sg9
VTasha Robinson
p227
sg11
S'http://www.metacritic.com/critic/tasha-robinson?filter=movies'
p228
sg13
(dp229
g74
F10
sg222
F7
ssg16
VThe Dissolve
p230
sg18
NsbsVMiami Herald/Marta Barber
p231
g3
(g4
g5
NtRp232
(dp233
g8
g231
sg9
VMarta Barber
p234
sg11
S'http://www.metacritic.com/critic/marta-barber?filter=movies'
p235
sg13
(dp236
S'the-return-2004'
p237
F8.8000000000000007
ssg16
VMiami Herald
p238
sg18
NsbsVWe Got This Covered/ Darren Ruecker
p239
g3
(g4
g5
NtRp240
(dp241
g8
g239
sg9
V Darren Ruecker
p242
sg11
S'http://www.metacritic.com/critic/darren-ruecker?filter=movies'
p243
sg13
(dp244
g97
F10
ssg16
VWe Got This Covered
p245
sg18
NsbsVNew York Post/Megan Lehmann
p246
g3
(g4
g5
NtRp247
(dp248
g8
g246
sg9
VMegan Lehmann
p249
sg11
S'http://www.metacritic.com/critic/megan-lehmann?filter=movies'
p250
sg13
(dp251
g147
F10
ssg16
VNew York Post
p252
sg18
NsbsVVillage Voice/Nathan Lee
p253
g3
(g4
g5
NtRp254
(dp255
g8
g253
sg9
VNathan Lee
p256
sg11
S'http://www.metacritic.com/critic?filter=movies'
p257
sg13
(dp258
g120
F4
ssg16
VVillage Voice
p259
sg18
NsbsVDallas Observer/Gregory Weinkauf
p260
g3
(g4
g5
NtRp261
(dp262
g8
g260
sg9
VGregory Weinkauf
p263
sg11
S'http://www.metacritic.com/critic/gregory-weinkauf?filter=movies'
p264
sg13
(dp265
g134
F10
sg174
F4
sg41
F10
sg135
F9
ssg16
VDallas Observer
p266
sg18
NsbsVVariety/Charles Gant
p267
g3
(g4
g5
NtRp268
(dp269
g8
g267
sg9
VCharles Gant
p270
sg11
S'http://www.metacritic.com/critic/charles-gant?filter=movies'
p271
sg13
(dp272
g182
F8
ssg16
VVariety
p273
sg18
NsbsVThe Guardian/Peter Bradshaw
p274
g3
(g4
g5
NtRp275
(dp276
g8
g274
sg9
VPeter Bradshaw
p277
sg11
S'http://www.metacritic.com/critic/peter-bradshaw?filter=movies'
p278
sg13
(dp279
g118
F10
sS'once-upon-a-time-in-anatolia'
p280
F10
sS'mommy'
p281
F8
sg127
F10
sg79
F8
sg128
F8
sg119
F6
sg72
F8
sg220
F10
sg133
F6
sg99
F10
sg100
F8
sS'sweet-bean'
p282
F4
sg155
F8
sg74
F8
sg182
F10
sg77
F10
sg159
F10
sg96
F6
sS'beyond-the-hills'
p283
F8
sS'graduation'
p284
F10
sg76
F8
sg80
F6
sg81
F6
sS'ida'
p285
F8
ssg16
VThe Guardian
p286
sg18
NsbsVPortland Oregonian/Shawn Levy
p287
g3
(g4
g5
NtRp288
(dp289
g8
g287
sg9
VShawn Levy
p290
sg11
S'http://www.metacritic.com/critic/shawn-levy?filter=movies'
p291
sg13
(dp292
g161
F7.5
sg280
F8.3000000000000007
sg121
F8.3000000000000007
sg123
F10
sg125
F5.7999999999999998
sg129
F9.0999999999999996
sg130
F8.3000000000000007
sS'american-beauty'
p293
F8.3000000000000007
sS'magnolia'
p294
F8.3000000000000007
sg135
F9.0999999999999996
sg136
F10
sg41
F10
sg141
F7.5
sg139
F8.3000000000000007
sg157
F7.5
sg42
F10
sg140
F5
sg138
F8.3000000000000007
sg143
F6.7000000000000002
sg132
F9.0999999999999996
sg145
F8.3000000000000007
sg147
F9.0999999999999996
sg149
F8.3000000000000007
sg150
F7.5
sg151
F5.7999999999999998
sg152
F9.0999999999999996
sg153
F8.3000000000000007
sS'persepolis'
p295
F8.3000000000000007
sg156
F9.0999999999999996
sg158
F10
sS'amelie'
p296
F8.3000000000000007
sS'waking-life'
p297
F10
sg165
F9.0999999999999996
sg167
F9.0999999999999996
sg98
F8.3000000000000007
sg131
F8.3000000000000007
sg169
F10
sg170
F8.3000000000000007
sg171
F9.0999999999999996
sg172
F9.0999999999999996
sg173
F9.0999999999999996
sg174
F10
ssg16
VPortland Oregonian
p298
sg18
NsbsVChicago Tribune/Allison Benedikt
p299
g3
(g4
g5
NtRp300
(dp301
g8
g299
sg9
VAllison Benedikt
p302
sg11
S'http://www.metacritic.com/critic/allison-benedikt?filter=movies'
p303
sg13
(dp304
g140
F1.2
ssg16
VChicago Tribune
p305
sg18
NsbsVVillage Voice/David Ng
p306
g3
(g4
g5
NtRp307
(dp308
g8
g306
sg9
VDavid Ng
p309
sg11
S'http://www.metacritic.com/critic?filter=movies'
p310
sg13
(dp311
g124
F5
ssg16
VVillage Voice
p312
sg18
NsbsVVariety/Emanuel Levy
p313
g3
(g4
g5
NtRp314
(dp315
g8
g313
sg9
VEmanuel Levy
p316
sg11
S'http://www.metacritic.com/critic/emanuel-levy?filter=movies'
p317
sg13
(dp318
g294
F7
ssg16
VVariety
p319
sg18
NsbsVThe Telegraph/Tim Robey
p320
g3
(g4
g5
NtRp321
(dp322
g8
g320
sg9
VTim Robey
p323
sg11
S'http://www.metacritic.com/critic/tim-robey?filter=movies'
p324
sg13
(dp325
g96
F6
sS'dheepan'
p326
F8
sg97
F8
sg148
F10
sg220
F8
sg284
F8
sg128
F6
sg155
F8
sg15
F10
sg100
F10
sg182
F10
sg159
F10
sg99
F8
sg281
F6
ssg16
VThe Telegraph
p327
sg18
NsbsVSalon.com/Laura Miller
p328
g3
(g4
g5
NtRp329
(dp330
g8
g328
sg9
VLaura Miller
p331
sg11
S'http://www.metacritic.com/critic?filter=movies'
p332
sg13
(dp333
g154
F5
ssg16
VSalon.com
p334
sg18
NsbsVPremiere/Stephen Saito
p335
g3
(g4
g5
NtRp336
(dp337
g8
g335
sg9
VStephen Saito
p338
sg11
S'http://www.metacritic.com/critic?filter=movies'
p339
sg13
(dp340
g141
F8.8000000000000007
ssg16
VPremiere
p341
sg18
NsbsVSlant Magazine/Clayton Dillard
p342
g3
(g4
g5
NtRp343
(dp344
g8
g342
sg9
VClayton Dillard
p345
sg11
S'http://www.metacritic.com/critic/clayton-dillard?filter=movies'
p346
sg13
(dp347
g25
F6.2999999999999998
sS'the-salt-of-the-earth'
p348
F7.5
ssg16
VSlant Magazine
p349
sg18
NsbsVL.A. Weekly/John Powers
p350
g3
(g4
g5
NtRp351
(dp352
g8
g350
sg9
VJohn Powers
p353
sg11
S'http://www.metacritic.com/critic/john-powers?filter=movies'
p354
sg13
(dp355
g132
F7
ssg16
VL.A. Weekly
p356
sg18
NsbsVNPR/Stephanie Zacharek
p357
g3
(g4
g5
NtRp358
(dp359
g8
g357
sg9
VStephanie Zacharek
p360
sg11
S'http://www.metacritic.com/critic?filter=movies'
p361
sg13
(dp362
g118
F9
ssg16
VNPR
p363
sg18
NsbsVNew York Magazine (Vulture)/Bilge Ebiri
p364
g3
(g4
g5
NtRp365
(dp366
g8
g364
sg9
VBilge Ebiri
p367
sg11
S'http://www.metacritic.com/critic/bilge-ebiri?filter=movies'
p368
sg13
(dp369
g33
F10
sg97
F10
sg71
F7
sg220
F8
sg25
F9
sg348
F8
ssg16
VNew York Magazine (Vulture)
p370
sg18
NsbsVScreen International/Wendy Ide
p371
g3
(g4
g5
NtRp372
(dp373
g8
g371
sg9
VWendy Ide
p374
sg11
S'http://www.metacritic.com/critic/wendy-ide?filter=movies'
p375
sg13
(dp376
g70
F8
ssg16
VScreen International
p377
sg18
NsbsVVillage Voice/Peter L'Official
p378
g3
(g4
g5
NtRp379
(dp380
g8
g378
sg9
VPeter L'Official
p381
sg11
S'http://www.metacritic.com/critic?filter=movies'
p382
sg13
(dp383
g140
F3
ssg16
VVillage Voice
p384
sg18
NsbsVConsequence of Sound/None
p385
g3
(g4
g5
NtRp386
(dp387
g8
g385
sg9
Nsg11
Nsg13
(dp388
g97
F10
ssg16
VConsequence of Sound
p389
sg18
NsbsVFilm Threat/Pete Vonder Haar
p390
g3
(g4
g5
NtRp391
(dp392
g8
g390
sg9
VPete Vonder Haar
p393
sg11
S'http://www.metacritic.com/critic/pete-vonder-haar?filter=movies'
p394
sg13
(dp395
g145
F9
sg167
F8
sg151
F5
sg153
F9
sg138
F10
sg165
F8
sg139
F9
sg140
F3
ssg16
VFilm Threat
p396
sg18
NsbsVSlant Magazine/Keith Watson
p397
g3
(g4
g5
NtRp398
(dp399
g8
g397
sg9
VKeith Watson
p400
sg11
S'http://www.metacritic.com/critic/keith-watson?filter=movies'
p401
sg13
(dp402
g168
F2.5
ssg16
VSlant Magazine
p403
sg18
NsbsVThe Guardian/Katey Rich
p404
g3
(g4
g5
NtRp405
(dp406
g8
g404
sg9
VKatey Rich
p407
sg11
S'http://www.metacritic.com/critic?filter=movies'
p408
sg13
(dp409
g117
F10
sg163
F8
ssg16
VThe Guardian
p410
sg18
NsbsVSlate/Michael Agger
p411
g3
(g4
g5
NtRp412
(dp413
g8
g411
sg9
VMichael Agger
p414
sg11
S'http://www.metacritic.com/critic?filter=movies'
p415
sg13
(dp416
g126
F3
ssg16
VSlate
p417
sg18
NsbsVThe New York Times/Glenn Kenny
p418
g3
(g4
g5
NtRp419
(dp420
g8
g418
sg9
VGlenn Kenny
p421
sg11
S'http://www.metacritic.com/critic/glenn-kenny?filter=movies'
p422
sg13
(dp423
S'april-and-the-extraordinary-world'
p424
F10
sg282
F9
ssg16
VThe New York Times
p425
sg18
NsbsVMiami Herald/Charles Savage
p426
g3
(g4
g5
NtRp427
(dp428
g8
g426
sg9
VCharles Savage
p429
sg11
S'http://www.metacritic.com/critic/charles-savage?filter=movies'
p430
sg13
(dp431
S'gone-in-sixty-seconds'
p432
F5
ssg16
VMiami Herald
p433
sg18
NsbsVEmpire/Mark Dinning
p434
g3
(g4
g5
NtRp435
(dp436
g8
g434
sg9
VMark Dinning
p437
sg11
S'http://www.metacritic.com/critic?filter=movies'
p438
sg13
(dp439
g145
F10
ssg16
VEmpire
p440
sg18
NsbsVL.A. Weekly/David Chute
p441
g3
(g4
g5
NtRp442
(dp443
g8
g441
sg9
VDavid Chute
p444
sg11
S'http://www.metacritic.com/critic/david-chute?filter=movies'
p445
sg13
(dp446
g126
F6
ssg16
VL.A. Weekly
p447
sg18
NsbsVVariety/Andrew Barker
p448
g3
(g4
g5
NtRp449
(dp450
g8
g448
sg9
VAndrew Barker
p451
sg11
S'http://www.metacritic.com/critic?filter=movies'
p452
sg13
(dp453
g143
F5
ssg16
VVariety
p454
sg18
NsbsVChicago Reader/J.R. Jones
p455
g3
(g4
g5
NtRp456
(dp457
g8
g455
sg9
VJ.R. Jones
p458
sg11
S'http://www.metacritic.com/critic/jr-jones?filter=movies'
p459
sg13
(dp460
g143
F7
sg167
F5
sg124
F5
sg120
F5
sg145
F8
sg158
F5
sg149
F8
sg150
F3
sg151
F6
sg135
F9
sg131
F10
sg295
F10
sg161
F7
sg169
F10
sg138
F10
sg122
F8
sg126
F4
sg157
F9
sg162
F8
sg129
F10
sg170
F10
ssg16
VChicago Reader
p461
sg18
NsbsVDallas Observer/Luke Y. Thompson
p462
g3
(g4
g5
NtRp463
(dp464
g8
g462
sg9
VLuke Y. Thompson
p465
sg11
S'http://www.metacritic.com/critic/luke-y-thompson?filter=movies'
p466
sg13
(dp467
g124
F5
sS'the-wedding-planner'
p468
F2
ssg16
VDallas Observer
p469
sg18
NsbsVArizona Republic/Barbara VanDenburgh
p470
g3
(g4
g5
NtRp471
(dp472
g8
g470
sg9
VBarbara VanDenburgh
p473
sg11
S'http://www.metacritic.com/critic/barbara-vandenburgh?filter=movies'
p474
sg13
(dp475
g326
F7
ssg16
VArizona Republic
p476
sg18
NsbsVTheWrap/Ben Croll
p477
g3
(g4
g5
NtRp478
(dp479
g8
g477
sg9
VBen Croll
p480
sg11
S'http://www.metacritic.com/critic/ben-croll?filter=movies'
p481
sg13
(dp482
g96
F8
sg100
F8.5
ssg16
VTheWrap
p483
sg18
NsbsVThe New York Times/Janet Maslin
p484
g3
(g4
g5
NtRp485
(dp486
g8
g484
sg9
VJanet Maslin
p487
sg11
S'http://www.metacritic.com/critic/janet-maslin?filter=movies'
p488
sg13
(dp489
g211
F10
sg293
F9
sg294
F8
sg51
F6
ssg16
VThe New York Times
p490
sg18
NsbsVScreen International/Allan Hunter
p491
g3
(g4
g5
NtRp492
(dp493
g8
g491
sg9
VAllan Hunter
p494
sg11
S'http://www.metacritic.com/critic/allan-hunter?filter=movies'
p495
sg13
(dp496
g96
F8
sg326
F9
sg101
F8
ssg16
VScreen International
p497
sg18
NsbsVL.A. Weekly/F. X. Feeney
p498
g3
(g4
g5
NtRp499
(dp500
g8
g498
sg9
VF. X. Feeney
p501
sg11
S'http://www.metacritic.com/critic/f-x-feeney?filter=movies'
p502
sg13
(dp503
g294
F10
ssg16
VL.A. Weekly
p504
sg18
NsbsVRogerEbert.com/Christy Lemire
p505
g3
(g4
g5
NtRp506
(dp507
g8
g505
sg9
VChristy Lemire
p508
sg11
S'http://www.metacritic.com/critic/christy-lemire?filter=movies'
p509
sg13
(dp510
g75
F10
sg76
F8.8000000000000007
sg99
F8.8000000000000007
ssg16
VRogerEbert.com
p511
sg18
NsbsVWashington Post/Phillip Kennicott
p512
g3
(g4
g5
NtRp513
(dp514
g8
g512
sg9
VPhillip Kennicott
p515
sg11
S'http://www.metacritic.com/critic?filter=movies'
p516
sg13
(dp517
g122
F6
ssg16
VWashington Post
p518
sg18
NsbsVThe Globe and Mail (Toronto)/John Semley
p519
g3
(g4
g5
NtRp520
(dp521
g8
g519
sg9
VJohn Semley
p522
sg11
S'http://www.metacritic.com/critic/john-semley?filter=movies'
p523
sg13
(dp524
g109
F2.5
ssg16
VThe Globe and Mail (Toronto)
p525
sg18
NsbsVTotal Film/Rosie Fletcher
p526
g3
(g4
g5
NtRp527
(dp528
g8
g526
sg9
VRosie Fletcher
p529
sg11
S'http://www.metacritic.com/critic?filter=movies'
p530
sg13
(dp531
S'what-we-do-in-the-shadows'
p532
F8
ssg16
VTotal Film
p533
sg18
NsbsVChicago Sun-Times/Roger Ebert
p534
g3
(g4
g5
NtRp535
(dp536
g8
g534
sg9
VRoger Ebert
p537
sg11
S'http://www.metacritic.com/critic/roger-ebert?filter=movies'
p538
sg13
(dp539
g237
F7.5
sg117
F7.5
sg161
F10
sg118
F10
sg280
F8.8000000000000007
sg211
F5
sg121
F6.2999999999999998
sg134
F10
sg123
F10
sS'in-the-mood-for-love'
p540
F7.5
sg124
F7.5
sg125
F7.5
sg60
F8.8000000000000007
sg126
F7.5
sS'full-metal-jacket'
p541
F6.2999999999999998
sg129
F10
sg130
F10
sg127
F10
sg293
F10
sg154
F10
sg132
F8.8000000000000007
sg294
F10
sg135
F7.5
sg136
F10
sg137
F10
sg41
F8.8000000000000007
sg138
F10
sS'gosford-park'
p542
F10
sg139
F8.8000000000000007
sg157
F8.8000000000000007
sg42
F10
sg140
F2.5
sg141
F10
sg432
F5
sg143
F5
sg144
F8.8000000000000007
sg145
F10
sg146
F5
sg147
F10
sg149
F8.8000000000000007
sg150
F7.5
sg151
F5
sg152
F10
sg153
F10
sg171
F10
sg160
F7.5
sg156
F8.8000000000000007
sg158
F10
sg296
F8.8000000000000007
sS'crimes-and-misdemeanors'
p543
F10
sg162
F8.8000000000000007
sg163
F10
sg297
F10
sg51
F7.5
sg164
F7.5
sg165
F10
sg59
F10
sg167
F10
sg98
F10
sg131
F10
sg169
F10
sg170
F10
sg295
F10
sg468
F5
sg172
F8.8000000000000007
sg173
F8.8000000000000007
sS'the-lord-of-the-rings-the-fellowship-of-the-ring'
p544
F7.5
sg174
F10
ssg16
VChicago Sun-Times
p545
sg18
NsbsVSan Francisco Chronicle/C.W. Nevius
p546
g3
(g4
g5
NtRp547
(dp548
g8
g546
sg9
VC.W. Nevius
p549
sg11
S'http://www.metacritic.com/critic/cw-nevius?filter=movies'
p550
sg13
(dp551
g126
F7.5
ssg16
VSan Francisco Chronicle
p552
sg18
NsbsVFilm.com/Kate Erbland
p553
g3
(g4
g5
NtRp554
(dp555
g8
g553
sg9
VKate Erbland
p556
sg11
S'http://www.metacritic.com/critic?filter=movies'
p557
sg13
(dp558
g148
F8.1999999999999993
ssg16
VFilm.com
p559
sg18
NsbsVEmpire/Kim Newman
p560
g3
(g4
g5
NtRp561
(dp562
g8
g560
sg9
VKim Newman
p563
sg11
S'http://www.metacritic.com/critic/kim-newman?filter=movies'
p564
sg13
(dp565
g117
F10
sg146
F10
sg59
F10
sg167
F8
sg123
F10
sg136
F10
ssg16
VEmpire
p566
sg18
NsbsVNew York Post/Farran Smith Nehme
p567
g3
(g4
g5
NtRp568
(dp569
g8
g567
sg9
VFarran Smith Nehme
p570
sg11
S'http://www.metacritic.com/critic/farran-smith-nehme?filter=movies'
p571
sg13
(dp572
g79
F10
sg283
F8.8000000000000007
sg71
F7.5
sg281
F6.2999999999999998
sg220
F10
sg99
F6.2999999999999998
sg101
F8.8000000000000007
sg182
F8.8000000000000007
sS'gett-the-trial-of-viviane-amsalem'
p573
F8.8000000000000007
sg78
F7.5
sg127
F10
sg221
F6.2999999999999998
sg326
F7.5
sg222
F7.5
sg285
F8.8000000000000007
ssg16
VNew York Post
p574
sg18
NsbsVTotal Film/James Mottram
p575
g3
(g4
g5
NtRp576
(dp577
g8
g575
sg9
VJames Mottram
p578
sg11
S'http://www.metacritic.com/critic/james-mottram?filter=movies'
p579
sg13
(dp580
g71
F8
sg72
F8
sg69
F8
sg73
F10
sg78
F6
ssg16
VTotal Film
p581
sg18
NsbsVBoxoffice Magazine/James Rocchi
p582
g3
(g4
g5
NtRp583
(dp584
g8
g582
sg9
VJames Rocchi
p585
sg11
S'http://www.metacritic.com/critic?filter=movies'
p586
sg13
(dp587
g117
F9
sg118
F10
sg133
F4
sg127
F8
ssg16
VBoxoffice Magazine
p588
sg18
NsbsVEmpire/Rob Fraser
p589
g3
(g4
g5
NtRp590
(dp591
g8
g589
sg9
VRob Fraser
p592
sg11
S'http://www.metacritic.com/critic?filter=movies'
p593
sg13
(dp594
g174
F10
ssg16
VEmpire
p595
sg18
NsbsVMr. Showbiz/Larry Terenzi
p596
g3
(g4
g5
NtRp597
(dp598
g8
g596
sg9
VLarry Terenzi
p599
sg11
S'http://www.metacritic.com/critic/larry-terenzi?filter=movies'
p600
sg13
(dp601
g432
F6
ssg16
VMr. Showbiz
p602
sg18
NsbsVVariety/Joe Leydon
p603
g3
(g4
g5
NtRp604
(dp605
g8
g603
sg9
VJoe Leydon
p606
sg11
S'http://www.metacritic.com/critic/joe-leydon?filter=movies'
p607
sg13
(dp608
g157
F9
sg164
F8
sg60
F5
ssg16
VVariety
p609
sg18
NsbsVThe Playlist/Chris Willman
p610
g3
(g4
g5
NtRp611
(dp612
g8
g610
sg9
VChris Willman
p613
sg11
S'http://www.metacritic.com/critic?filter=movies'
p614
sg13
(dp615
g15
F9.0999999999999996
ssg16
VThe Playlist
p616
sg18
NsbsVVariety/Robert Koehler
p617
g3
(g4
g5
NtRp618
(dp619
g8
g617
sg9
VRobert Koehler
p620
sg11
S'http://www.metacritic.com/critic/robert-koehler?filter=movies'
p621
sg13
(dp622
g124
F8
sg468
F3
sg120
F2
ssg16
VVariety
p623
sg18
NsbsVNew York Daily News/Elizabeth Weitzman
p624
g3
(g4
g5
NtRp625
(dp626
g8
g624
sg9
VElizabeth Weitzman
p627
sg11
S'http://www.metacritic.com/critic/elizabeth-weitzman?filter=movies'
p628
sg13
(dp629
g143
F4
sg161
F8
sg69
F8
sg164
F5
sg119
F10
sg133
F6
sg98
F8
sg75
F8
sg125
F6
sg77
F10
sg122
F7.5
sg158
F10
ssg16
VNew York Daily News
p630
sg18
NsbsVThe New Yorker/Anthony Lane
p631
g3
(g4
g5
NtRp632
(dp633
g8
g631
sg9
VAnthony Lane
p634
sg11
S'http://www.metacritic.com/critic/anthony-lane?filter=movies'
p635
sg13
(dp636
g237
F9
sg118
F5
sg97
F9
sg121
F9
sg123
F9
sg127
F9
sg79
F8
sg128
F8
sg129
F9
sg119
F9
sg72
F7
sg220
F8
sg133
F6
sg532
F7
sg135
F9
sg75
F9
sg41
F8
sg138
F8
sg100
F7
sg42
F10
sg141
F8
sg132
F8
sg150
F7
sg151
F5
sg152
F7
sg295
F7
sg74
F9
sg77
F8
sg163
F7
sg159
F9
sg296
F4
sg162
F8
sg96
F8
sg69
F8
sg164
F5
sg283
F8
sg99
F9
sg109
F7
sg131
F8
sg68
F8
sg171
F9
sg80
F9
sg81
F7
ssg16
VThe New Yorker
p637
sg18
NsbsVNPR/Ella Taylor
p638
g3
(g4
g5
NtRp639
(dp640
g8
g638
sg9
VElla Taylor
p641
sg11
S'http://www.metacritic.com/critic/ella-taylor?filter=movies'
p642
sg13
(dp643
g127
F9
sg121
F9.5
sg149
F7.5
ssg16
VNPR
p644
sg18
NsbsVFilm.com/William Goss
p645
g3
(g4
g5
NtRp646
(dp647
g8
g645
sg9
VWilliam Goss
p648
sg11
S'http://www.metacritic.com/critic/william-goss?filter=movies'
p649
sg13
(dp650
g15
F8.5999999999999996
sg73
F9.4000000000000004
ssg16
VFilm.com
p651
sg18
NsbsVAustin Chronicle/Josh Kupecki
p652
g3
(g4
g5
NtRp653
(dp654
g8
g652
sg9
VJosh Kupecki
p655
sg11
S'http://www.metacritic.com/critic?filter=movies'
p656
sg13
(dp657
g69
F7.7999999999999998
sg348
F7.7999999999999998
sg81
F7.7999999999999998
ssg16
VAustin Chronicle
p658
sg18
NsbsVFilm Threat/Kevin Carr
p659
g3
(g4
g5
NtRp660
(dp661
g8
g659
sg9
VKevin Carr
p662
sg11
S'http://www.metacritic.com/critic?filter=movies'
p663
sg13
(dp664
g41
F7
ssg16
VFilm Threat
p665
sg18
NsbsVThe Playlist/Noel Murray
p666
g3
(g4
g5
NtRp667
(dp668
g8
g666
sg9
VNoel Murray
p669
sg11
S'http://www.metacritic.com/critic/noel-murray?filter=movies'
p670
sg13
(dp671
g97
F9.0999999999999996
ssg16
VThe Playlist
p672
sg18
NsbsVThe A.V. Club/Keith Phipps
p673
g3
(g4
g5
NtRp674
(dp675
g8
g673
sg9
VKeith Phipps
p676
sg11
S'http://www.metacritic.com/critic/keith-phipps?filter=movies'
p677
sg13
(dp678
g163
F7.5
sg167
F10
sg120
F3.2999999999999998
sg145
F10
sg140
F5
sg149
F6.7000000000000002
sg135
F10
sg160
F8
sg161
F6.7000000000000002
sg169
F9.0999999999999996
sg141
F10
sg157
F5.7999999999999998
sg171
F8
sg41
F9
sg152
F10
ssg16
VThe A.V. Club
p679
sg18
NsbsVCineVue/John Bleasdale
p680
g3
(g4
g5
NtRp681
(dp682
g8
g680
sg9
VJohn Bleasdale
p683
sg11
S'http://www.metacritic.com/critic/john-bleasdale?filter=movies'
p684
sg13
(dp685
g68
F10
sg96
F8
sg282
F6
sS'the-postmans-white-nights'
p686
F8
sg71
F8
sg281
F10
sg220
F10
sg101
F8
sg168
F6
sg75
F10
sg326
F6
sg222
F6
sg100
F10
sg78
F8
sg99
F10
sg128
F8
sg81
F8
ssg16
VCineVue
p687
sg18
NsbsVSeattle Post-Intelligencer/Sean Axmaker
p688
g3
(g4
g5
NtRp689
(dp690
g8
g688
sg9
VSean Axmaker
p691
sg11
S'http://www.metacritic.com/critic/sean-axmaker?filter=movies'
p692
sg13
(dp693
g131
F10
sg297
F6.7000000000000002
sg165
F9.0999999999999996
sg145
F10
sg123
F10
sg152
F10
sg540
F10
sg124
F6.7000000000000002
sg139
F9.0999999999999996
sg542
F10
sg295
F10
sg42
F8.3000000000000007
sg43
F9.0999999999999996
sg174
F10
ssg16
VSeattle Post-Intelligencer
p694
sg18
NsbsVThe Film Stage/Raphael Deutsch
p695
g3
(g4
g5
NtRp696
(dp697
g8
g695
sg9
VRaphael Deutsch
p698
sg11
S'http://www.metacritic.com/critic?filter=movies'
p699
sg13
(dp700
g101
F7.5
ssg16
VThe Film Stage
p701
sg18
NsbsVMovieline/Alison Willmore
p702
g3
(g4
g5
NtRp703
(dp704
g8
g702
sg9
VAlison Willmore
p705
sg11
S'http://www.metacritic.com/critic?filter=movies'
p706
sg13
(dp707
g117
F9
sg118
F6
sg121
F9
sg163
F9
sg127
F7
ssg16
VMovieline
p708
sg18
NsbsVWashington Post/Rita Kempley
p709
g3
(g4
g5
NtRp710
(dp711
g8
g709
sg9
VRita Kempley
p712
sg11
S'http://www.metacritic.com/critic/rita-kempley?filter=movies'
p713
sg13
(dp714
g59
F6
sg294
F8
sg544
F10
sg60
F3
sg154
F9
sg541
F9
sg296
F9
sg543
F7
ssg16
VWashington Post
p715
sg18
NsbsVMovie Nation/Roger Moore
p716
g3
(g4
g5
NtRp717
(dp718
g8
g716
sg9
VRoger Moore
p719
sg11
S'http://www.metacritic.com/critic/roger-moore?filter=movies'
p720
sg13
(dp721
g142
F7.5
sg96
F7.5
sg100
F5
sg97
F8.8000000000000007
sg166
F8.8000000000000007
sg72
F6.2999999999999998
sg220
F7.5
sg74
F8.8000000000000007
sg532
F6.2999999999999998
sg128
F8.8000000000000007
sg281
F7.5
sg155
F7.5
sg168
F6.2999999999999998
sg68
F5
sg573
F7.5
sg78
F5
sg109
F8.8000000000000007
sg159
F7.5
sg221
F7.5
sg80
F10
sg81
F5
ssg16
VMovie Nation
p722
sg18
NsbsVFilm.com/Jordan Hoffman
p723
g3
(g4
g5
NtRp724
(dp725
g8
g723
sg9
VJordan Hoffman
p726
sg11
S'http://www.metacritic.com/critic/jordan-hoffman?filter=movies'
p727
sg13
(dp728
g76
F6.9000000000000004
sg77
F9.5
ssg16
VFilm.com
p729
sg18
NsbsVSan Francisco Chronicle/Bob Graham
p730
g3
(g4
g5
NtRp731
(dp732
g8
g730
sg9
VBob Graham
p733
sg11
S'http://www.metacritic.com/critic/bob-graham?filter=movies'
p734
sg13
(dp735
g468
F5
sg144
F7.5
sg294
F7.5
ssg16
VSan Francisco Chronicle
p736
sg18
NsbsVTheWrap/Inkoo Kang
p737
g3
(g4
g5
NtRp738
(dp739
g8
g737
sg9
VInkoo Kang
p740
sg11
S'http://www.metacritic.com/critic/inkoo-kang?filter=movies'
p741
sg13
(dp742
g166
F5.5
sg99
F10
sg33
F9
sg221
F7.5
ssg16
VTheWrap
p743
sg18
NsbsVFilm Threat/Michael Dequina
p744
g3
(g4
g5
NtRp745
(dp746
g8
g744
sg9
VMichael Dequina
p747
sg11
S'http://www.metacritic.com/critic/michael-dequina?filter=movies'
p748
sg13
(dp749
g126
F7
ssg16
VFilm Threat
p750
sg18
NsbsVLos Angeles Times/Kevin Thomas
p751
g3
(g4
g5
NtRp752
(dp753
g8
g751
sg9
VKevin Thomas
p754
sg11
S'http://www.metacritic.com/critic/kevin-thomas?filter=movies'
p755
sg13
(dp756
g468
F6
sg297
F8
sg51
F10
ssg16
VLos Angeles Times
p757
sg18
NsbsVSalon.com/Scott Rosenberg
p758
g3
(g4
g5
NtRp759
(dp760
g8
g758
sg9
VScott Rosenberg
p761
sg11
S'http://www.metacritic.com/critic?filter=movies'
p762
sg13
(dp763
g137
F10
ssg16
VSalon.com
p764
sg18
NsbsVSan Francisco Chronicle/Amy Biancolli
p765
g3
(g4
g5
NtRp766
(dp767
g8
g765
sg9
VAmy Biancolli
p768
sg11
S'http://www.metacritic.com/critic/amy-biancolli?filter=movies'
p769
sg13
(dp770
g158
F10
sg143
F5
sg170
F7.5
sg129
F10
ssg16
VSan Francisco Chronicle
p771
sg18
NsbsVVillage Voice/Eric Hynes
p772
g3
(g4
g5
NtRp773
(dp774
g8
g772
sg9
VEric Hynes
p775
sg11
S'http://www.metacritic.com/critic?filter=movies'
p776
sg13
(dp777
g143
F2
ssg16
VVillage Voice
p778
sg18
NsbsVPhiladelphia Inquirer/Steven Rea
p779
g3
(g4
g5
NtRp780
(dp781
g8
g779
sg9
VSteven Rea
p782
sg11
S'http://www.metacritic.com/critic/steven-rea?filter=movies'
p783
sg13
(dp784
g117
F10
sg118
F6.2999999999999998
sg77
F10
sg326
F8.8000000000000007
sg121
F7.5
sg73
F10
sg540
F10
sg68
F8.8000000000000007
sg127
F10
sg99
F8.8000000000000007
sg43
F6.2999999999999998
sg128
F7.5
sg129
F8.8000000000000007
sg130
F6.2999999999999998
sg119
F10
sg294
F7.5
sg72
F7.5
sg220
F8.8000000000000007
sg133
F5
sg532
F7.5
sg109
F8.8000000000000007
sg75
F10
sg15
F10
sg138
F8.8000000000000007
sg573
F8.8000000000000007
sg139
F7.5
sg41
F7.5
sg140
F5
sg281
F7.5
sg544
F6.2999999999999998
sg141
F8.8000000000000007
sg142
F8.8000000000000007
sg161
F5
sg148
F10
sg132
F10
sg150
F7.5
sg151
F8.8000000000000007
sg152
F8.8000000000000007
sg155
F10
sg74
F10
sg182
F10
sg156
F7.5
sg157
F7.5
sg158
F6.2999999999999998
sg159
F10
sg296
F10
sg222
F8.8000000000000007
sg162
F6.2999999999999998
sg163
F8.8000000000000007
sg297
F8.8000000000000007
sg69
F6.2999999999999998
sg164
F5
sg165
F8.8000000000000007
sg283
F7.5
sg101
F8.8000000000000007
sg76
F10
sg170
F8.8000000000000007
sg172
F8.8000000000000007
sg80
F10
sg81
F10
sg285
F10
ssg16
VPhiladelphia Inquirer
p785
sg18
NsbsVTime/John Anderson
p786
g3
(g4
g5
NtRp787
(dp788
g8
g786
sg9
VJohn Anderson
p789
sg11
S'http://www.metacritic.com/critic?filter=movies'
p790
sg13
(dp791
g80
F9
ssg16
VTime
p792
sg18
NsbsVCineVue/Lucy Popescu
p793
g3
(g4
g5
NtRp794
(dp795
g8
g793
sg9
VLucy Popescu
p796
sg11
S'http://www.metacritic.com/critic?filter=movies'
p797
sg13
(dp798
g182
F8
ssg16
VCineVue
p799
sg18
NsbsVVariety/Scott Foundas
p800
g3
(g4
g5
NtRp801
(dp802
g8
g800
sg9
VScott Foundas
p803
sg11
S'http://www.metacritic.com/critic/scott-foundas?filter=movies'
p804
sg13
(dp805
g69
F10
sg119
F10
sg76
F10
sg326
F7
sg77
F10
sg128
F10
ssg16
VVariety
p806
sg18
NsbsVEntertainment Weekly/Bruce Fretts
p807
g3
(g4
g5
NtRp808
(dp809
g8
g807
sg9
VBruce Fretts
p810
sg11
S'http://www.metacritic.com/critic/bruce-fretts?filter=movies'
p811
sg13
(dp812
g124
F1.6000000000000001
ssg16
VEntertainment Weekly
p813
sg18
NsbsVTime Out London/Guy Lodge
p814
g3
(g4
g5
NtRp815
(dp816
g8
g814
sg9
VGuy Lodge
p817
sg11
S'http://www.metacritic.com/critic/guy-lodge?filter=movies'
p818
sg13
(dp819
g128
F6
ssg16
VTime Out London
p820
sg18
NsbsVEmpire/David Hughes
p821
g3
(g4
g5
NtRp822
(dp823
g8
g821
sg9
VDavid Hughes
p824
sg11
S'http://www.metacritic.com/critic/david-hughes?filter=movies'
p825
sg13
(dp826
g237
F8
sg127
F10
sg285
F8
sg348
F10
sg78
F8
ssg16
VEmpire
p827
sg18
NsbsVChicago Reader/Ben Sachs
p828
g3
(g4
g5
NtRp829
(dp830
g8
g828
sg9
VBen Sachs
p831
sg11
S'http://www.metacritic.com/critic?filter=movies'
p832
sg13
(dp833
g125
F5
ssg16
VChicago Reader
p834
sg18
NsbsVNew York Daily News/Stephen Whitty 
p835
g3
(g4
g5
NtRp836
(dp837
g8
g835
sg9
VStephen Whitty 
p838
sg11
S'http://www.metacritic.com/critic/stephen-whitty?filter=movies'
p839
sg13
(dp840
g142
F6
sg97
F10
sg155
F8
sg159
F10
sg168
F8
sg81
F7
ssg16
VNew York Daily News
p841
sg18
NsbsVUSA Today/Scott Bowles
p842
g3
(g4
g5
NtRp843
(dp844
g8
g842
sg9
VScott Bowles
p845
sg11
S'http://www.metacritic.com/critic/scott-bowles?filter=movies'
p846
sg13
(dp847
g143
F5
ssg16
VUSA Today
p848
sg18
NsbsVMr. Showbiz/Kevin Maynard
p849
g3
(g4
g5
NtRp850
(dp851
g8
g849
sg9
VKevin Maynard
p852
sg11
S'http://www.metacritic.com/critic/kevin-maynard?filter=movies'
p853
sg13
(dp854
g160
F3
sg468
F3.5
sg294
F8.5
ssg16
VMr. Showbiz
p855
sg18
NsbsVVariety/David Rooney
p856
g3
(g4
g5
NtRp857
(dp858
g8
g856
sg9
VDavid Rooney
p859
sg11
S'http://www.metacritic.com/critic/david-rooney?filter=movies'
p860
sg13
(dp861
g136
F10
sg174
F8
ssg16
VVariety
p862
sg18
NsbsVIndiewire/Anisha Jhaveri
p863
g3
(g4
g5
NtRp864
(dp865
g8
g863
sg9
VAnisha Jhaveri
p866
sg11
S'http://www.metacritic.com/critic?filter=movies'
p867
sg13
(dp868
g166
F10
ssg16
VIndiewire
p869
sg18
NsbsVChristian Science Monitor/David Sterritt
p870
g3
(g4
g5
NtRp871
(dp872
g8
g870
sg9
VDavid Sterritt
p873
sg11
S'http://www.metacritic.com/critic/david-sterritt?filter=movies'
p874
sg13
(dp875
g237
F10
sg540
F7.5
sg124
F2.5
sg60
F7.5
sg126
F2.5
sg541
F10
sg130
F7.5
sg160
F5
sg294
F5
sg135
F7.5
sg41
F5
sg542
F10
sg432
F2.5
sg144
F7.5
sg147
F10
sg132
F10
sg156
F7.5
sg122
F10
sg296
F7.5
sg544
F6.2999999999999998
sg297
F7.5
sg59
F8.8000000000000007
sg167
F5
sg293
F7.5
sg468
F0
sg173
F7.5
sg174
F10
ssg16
VChristian Science Monitor
p876
sg18
NsbsVCineVue/Rory O'Connor
p877
g3
(g4
g5
NtRp878
(dp879
g8
g877
sg9
VRory O'Connor
p880
sg11
S'http://www.metacritic.com/critic?filter=movies'
p881
sg13
(dp882
g159
F8
ssg16
VCineVue
p883
sg18
NsbsVThe Seattle Times/Soren Andersen
p884
g3
(g4
g5
NtRp885
(dp886
g8
g884
sg9
VSoren Andersen
p887
sg11
S'http://www.metacritic.com/critic/soren-andersen?filter=movies'
p888
sg13
(dp889
g68
F8.8000000000000007
ssg16
VThe Seattle Times
p890
sg18
NsbsVVillage Voice/Amy Nicholson
p891
g3
(g4
g5
NtRp892
(dp893
g8
g891
sg9
VAmy Nicholson
p894
sg11
S'http://www.metacritic.com/critic/amy-nicholson?filter=movies'
p895
sg13
(dp896
g148
F9
sg76
F9
sg221
F10
sg74
F8
sg128
F6
sg68
F10
ssg16
VVillage Voice
p897
sg18
NsbsVScreen International/Charles Gant
p898
g3
(g4
g5
NtRp899
(dp900
g8
g898
sg9
VCharles Gant
p901
sg11
S'http://www.metacritic.com/critic?filter=movies'
p902
sg13
(dp903
g74
F8
ssg16
VScreen International
p904
sg18
NsbsVVillage Voice/Simon Abrams
p905
g3
(g4
g5
NtRp906
(dp907
g8
g905
sg9
VSimon Abrams
p908
sg11
S'http://www.metacritic.com/critic/simon-abrams?filter=movies'
p909
sg13
(dp910
g573
F9
ssg16
VVillage Voice
p911
sg18
NsbsVPortland Oregonian/Roger Moore
p912
g3
(g4
g5
NtRp913
(dp914
g8
g912
sg9
VRoger Moore
p915
sg11
S'http://www.metacritic.com/critic?filter=movies'
p916
sg13
(dp917
g124
F5
ssg16
VPortland Oregonian
p918
sg18
NsbsVThe Globe and Mail (Toronto)/Simon Houpt
p919
g3
(g4
g5
NtRp920
(dp921
g8
g919
sg9
VSimon Houpt
p922
sg11
S'http://www.metacritic.com/critic?filter=movies'
p923
sg13
(dp924
g142
F6.2999999999999998
ssg16
VThe Globe and Mail (Toronto)
p925
sg18
NsbsVPremiere/Peter Debruge
p926
g3
(g4
g5
NtRp927
(dp928
g8
g926
sg9
VPeter Debruge
p929
sg11
S'http://www.metacritic.com/critic/peter-debruge?filter=movies'
p930
sg13
(dp931
g140
F5
sg130
F7.5
ssg16
VPremiere
p932
sg18
NsbsVL.A. Weekly/Ernest Hardy
p933
g3
(g4
g5
NtRp934
(dp935
g8
g933
sg9
VErnest Hardy
p936
sg11
S'http://www.metacritic.com/critic/ernest-hardy?filter=movies'
p937
sg13
(dp938
g60
F3
ssg16
VL.A. Weekly
p939
sg18
NsbsVVillage Voice/Nick Schager
p940
g3
(g4
g5
NtRp941
(dp942
g8
g940
sg9
VNick Schager
p943
sg11
S'http://www.metacritic.com/critic/nick-schager?filter=movies'
p944
sg13
(dp945
g155
F10
ssg16
VVillage Voice
p946
sg18
NsbsVSlant Magazine/Ed Gonzalez
p947
g3
(g4
g5
NtRp948
(dp949
g8
g947
sg9
VEd Gonzalez
p950
sg11
S'http://www.metacritic.com/critic/ed-gonzalez?filter=movies'
p951
sg13
(dp952
g119
F10
sg133
F7.5
sg99
F5
sg540
F10
sg15
F5
sg128
F7.5
ssg16
VSlant Magazine
p953
sg18
NsbsVNew York Daily News/Allen Salkin
p954
g3
(g4
g5
NtRp955
(dp956
g8
g954
sg9
VAllen Salkin
p957
sg11
S'http://www.metacritic.com/critic?filter=movies'
p958
sg13
(dp959
g68
F10
ssg16
VNew York Daily News
p960
sg18
NsbsVLos Angeles Times/Betsy Sharkey
p961
g3
(g4
g5
NtRp962
(dp963
g8
g961
sg9
VBetsy Sharkey
p964
sg11
S'http://www.metacritic.com/critic/betsy-sharkey?filter=movies'
p965
sg13
(dp966
g143
F5
sg69
F10
sg118
F10
sg71
F9
sg75
F10
sg125
F8
sg157
F8
sg573
F9
sg162
F8
ssg16
VLos Angeles Times
p967
sg18
NsbsVThe Playlist/Kevin Jagernauth
p968
g3
(g4
g5
NtRp969
(dp970
g8
g968
sg9
VKevin Jagernauth
p971
sg11
S'http://www.metacritic.com/critic/kevin-jagernauth?filter=movies'
p972
sg13
(dp973
g283
F8.3000000000000007
sg127
F8.3000000000000007
sg77
F10
ssg16
VThe Playlist
p974
sg18
NsbsVChicago Tribune/Michael Wilmington
p975
g3
(g4
g5
NtRp976
(dp977
g8
g975
sg9
VMichael Wilmington
p978
sg11
S'http://www.metacritic.com/critic/michael-wilmington?filter=movies'
p979
sg13
(dp980
g237
F10
sg134
F10
sg123
F10
sg540
F7.5
sg124
F3.7999999999999998
sg43
F8.8000000000000007
sg130
F10
sg294
F10
sg135
F10
sg137
F10
sg41
F10
sg542
F10
sg42
F8.8000000000000007
sg432
F8.8000000000000007
sg144
F10
sg147
F10
sg156
F10
sg122
F8.8000000000000007
sg296
F10
sg544
F10
sg297
F10
sg51
F8.8000000000000007
sg167
F7.5
sg293
F8.8000000000000007
sg173
F10
ssg16
VChicago Tribune
p981
sg18
NsbsVTV Guide Magazine/Frank Lovece
p982
g3
(g4
g5
NtRp983
(dp984
g8
g982
sg9
VFrank Lovece
p985
sg11
S'http://www.metacritic.com/critic/frank-lovece?filter=movies'
p986
sg13
(dp987
g154
F6
sg468
F2
sg297
F4
ssg16
VTV Guide Magazine
p988
sg18
NsbsVUSA Today/Mike Clark
p989
g3
(g4
g5
NtRp990
(dp991
g8
g989
sg9
VMike Clark
p992
sg11
S'http://www.metacritic.com/critic/mike-clark?filter=movies'
p993
sg13
(dp994
g160
F8.8000000000000007
sg293
F10
sg154
F7.5
sg144
F10
sg294
F8.8000000000000007
sg124
F6.2999999999999998
sg59
F10
sg147
F10
sg167
F6.2999999999999998
sg540
F5
sg171
F10
sg140
F6.2999999999999998
sg156
F8.8000000000000007
sg542
F10
sg126
F5
sg541
F10
sg468
F3.7999999999999998
sg174
F8.8000000000000007
sg60
F7.5
sg173
F8.8000000000000007
sg130
F8.8000000000000007
ssg16
VUSA Today
p995
sg18
NsbsVRogerEbert.com/Godfrey Cheshire
p996
g3
(g4
g5
NtRp997
(dp998
g8
g996
sg9
VGodfrey Cheshire
p999
sg11
S'http://www.metacritic.com/critic?filter=movies'
p1000
sg13
(dp1001
g96
F8.8000000000000007
sg220
F8.8000000000000007
sg25
F6.2999999999999998
sg79
F10
sg222
F10
sg285
F10
ssg16
VRogerEbert.com
p1002
sg18
NsbsVSlant Magazine/Jesse Cataldo
p1003
g3
(g4
g5
NtRp1004
(dp1005
g8
g1003
sg9
VJesse Cataldo
p1006
sg11
S'http://www.metacritic.com/critic/jesse-cataldo?filter=movies'
p1007
sg13
(dp1008
g71
F8.8000000000000007
sg148
F8.8000000000000007
sg80
F6.2999999999999998
sg326
F6.2999999999999998
sg78
F7.5
sg109
F6.2999999999999998
ssg16
VSlant Magazine
p1009
sg18
NsbsVSlant Magazine/Oleg Ivanov
p1010
g3
(g4
g5
NtRp1011
(dp1012
g8
g1010
sg9
VOleg Ivanov
p1013
sg11
S'http://www.metacritic.com/critic/oleg-ivanov?filter=movies'
p1014
sg13
(dp1015
g424
F7.5
sg532
F8.8000000000000007
ssg16
VSlant Magazine
p1016
sg18
NsbsVThe A.V. Club/Tasha Robinson
p1017
g3
(g4
g5
NtRp1018
(dp1019
g8
g1017
sg9
VTasha Robinson
p1020
sg11
S'http://www.metacritic.com/critic/tasha-robinson?filter=movies'
p1021
sg13
(dp1022
g139
F10
sg98
F8.3000000000000007
sg133
F6.7000000000000002
sg165
F9.0999999999999996
ssg16
VThe A.V. Club
p1023
sg18
NsbsVMiami Herald/Connie Ogle
p1024
g3
(g4
g5
NtRp1025
(dp1026
g8
g1024
sg9
VConnie Ogle
p1027
sg11
S'http://www.metacritic.com/critic/connie-ogle?filter=movies'
p1028
sg13
(dp1029
g166
F6.2999999999999998
sg140
F2.5
sg155
F10
sg542
F8.8000000000000007
ssg16
VMiami Herald
p1030
sg18
NsbsVEmpire/Liz Beardsworth
p1031
g3
(g4
g5
NtRp1032
(dp1033
g8
g1031
sg9
VLiz Beardsworth
p1034
sg11
S'http://www.metacritic.com/critic?filter=movies'
p1035
sg13
(dp1036
g326
F8
sg221
F10
ssg16
VEmpire
p1037
sg18
NsbsVEmpire/Ian Nathan
p1038
g3
(g4
g5
NtRp1039
(dp1040
g8
g1038
sg9
VIan Nathan
p1041
sg11
S'http://www.metacritic.com/critic?filter=movies'
p1042
sg13
(dp1043
g163
F10
sg69
F8
sg119
F8
sg165
F10
sg73
F10
sg151
F10
sg152
F10
sg156
F8
ssg16
VEmpire
p1044
sg18
NsbsVEmpire/Ian Freer
p1045
g3
(g4
g5
NtRp1046
(dp1047
g8
g1045
sg9
VIan Freer
p1048
sg11
S'http://www.metacritic.com/critic?filter=movies'
p1049
sg13
(dp1050
g71
F8
sg281
F8
sg98
F8
sg75
F10
sg74
F10
sg15
F8
sg68
F10
ssg16
VEmpire
p1051
sg18
NsbsVDallas Observer/Melissa Levine
p1052
g3
(g4
g5
NtRp1053
(dp1054
g8
g1052
sg9
VMelissa Levine
p1055
sg11
S'http://www.metacritic.com/critic?filter=movies'
p1056
sg13
(dp1057
g147
F9
sg156
F5
ssg16
VDallas Observer
p1058
sg18
NsbsVTime Out London/Dave Calhoun
p1059
g3
(g4
g5
NtRp1060
(dp1061
g8
g1059
sg9
VDave Calhoun
p1062
sg11
S'http://www.metacritic.com/critic/dave-calhoun?filter=movies'
p1063
sg13
(dp1064
g68
F10
sg96
F6
sg71
F8
sg148
F8
sg220
F8
sg74
F8
sg284
F10
sg80
F10
sg76
F8
sg182
F10
sg77
F10
sg326
F8
sg159
F10
sg79
F6
sg281
F8
sg81
F6
ssg16
VTime Out London
p1065
sg18
NsbsVVillage Voice/Bilge Ebiri
p1066
g3
(g4
g5
NtRp1067
(dp1068
g8
g1066
sg9
VBilge Ebiri
p1069
sg11
S'http://www.metacritic.com/critic/bilge-ebiri?filter=movies'
p1070
sg13
(dp1071
g96
F6
sg326
F8
sg100
F10
ssg16
VVillage Voice
p1072
sg18
NsbsVMovieline/Michelle Orange
p1073
g3
(g4
g5
NtRp1074
(dp1075
g8
g1073
sg9
VMichelle Orange
p1076
sg11
S'http://www.metacritic.com/critic/michelle-orange?filter=movies'
p1077
sg13
(dp1078
g280
F8.5
sg150
F7.5
ssg16
VMovieline
p1079
sg18
NsbsVLos Angeles Times/Sheri Linden
p1080
g3
(g4
g5
NtRp1081
(dp1082
g8
g1080
sg9
VSheri Linden
p1083
sg11
S'http://www.metacritic.com/critic/sheri-linden?filter=movies'
p1084
sg13
(dp1085
g283
F8
sg282
F7
sg109
F10
ssg16
VLos Angeles Times
p1086
sg18
NsbsVTime Out London/Alex Dudok de Wit
p1087
g3
(g4
g5
NtRp1088
(dp1089
g8
g1087
sg9
VAlex Dudok de Wit
p1090
sg11
S'http://www.metacritic.com/critic?filter=movies'
p1091
sg13
(dp1092
g33
F8
ssg16
VTime Out London
p1093
sg18
NsbsVFilm.com/Eric D. Snider
p1094
g3
(g4
g5
NtRp1095
(dp1096
g8
g1094
sg9
VEric D. Snider
p1097
sg11
S'http://www.metacritic.com/critic?filter=movies'
p1098
sg13
(dp1099
g283
F2.5
ssg16
VFilm.com
p1100
sg18
NsbsVTNT RoughCut/J. Rentilly
p1101
g3
(g4
g5
NtRp1102
(dp1103
g8
g1101
sg9
VJ. Rentilly
p1104
sg11
S'http://www.metacritic.com/critic/j-rentilly?filter=movies'
p1105
sg13
(dp1106
g432
F3
ssg16
VTNT RoughCut
p1107
sg18
NsbsVDallas Observer/Arnold Wayne Jones
p1108
g3
(g4
g5
NtRp1109
(dp1110
g8
g1108
sg9
VArnold Wayne Jones
p1111
sg11
S'http://www.metacritic.com/critic?filter=movies'
p1112
sg13
(dp1113
g154
F10
ssg16
VDallas Observer
p1114
sg18
NsbsVVillage Voice/Jessica Winter
p1115
g3
(g4
g5
NtRp1116
(dp1117
g8
g1115
sg9
VJessica Winter
p1118
sg11
S'http://www.metacritic.com/critic/jessica-winter?filter=movies'
p1119
sg13
(dp1120
g468
F4
sg156
F6
ssg16
VVillage Voice
p1121
sg18
NsbsVVariety/Derek Elley
p1122
g3
(g4
g5
NtRp1123
(dp1124
g8
g1122
sg9
VDerek Elley
p1125
sg11
S'http://www.metacritic.com/critic/derek-elley?filter=movies'
p1126
sg13
(dp1127
g42
F8
sg51
F7
sg141
F8
sg122
F8
ssg16
VVariety
p1128
sg18
NsbsVVillage Voice/Sherilyn Connelly
p1129
g3
(g4
g5
NtRp1130
(dp1131
g8
g1129
sg9
VSherilyn Connelly
p1132
sg11
S'http://www.metacritic.com/critic/sherilyn-connelly?filter=movies'
p1133
sg13
(dp1134
g33
F7
sg424
F8
ssg16
VVillage Voice
p1135
sg18
NsbsVEmpire/Dan Jolin
p1136
g3
(g4
g5
NtRp1137
(dp1138
g8
g1136
sg9
VDan Jolin
p1139
sg11
S'http://www.metacritic.com/critic/dan-jolin?filter=movies'
p1140
sg13
(dp1141
g118
F8
sg33
F8
sg147
F10
sg133
F8
sg532
F8
sg153
F8
sg138
F10
sg128
F10
sg77
F10
ssg16
VEmpire
p1142
sg18
NsbsVEmpire/Nick de Semlyen
p1143
g3
(g4
g5
NtRp1144
(dp1145
g8
g1143
sg9
VNick de Semlyen
p1146
sg11
S'http://www.metacritic.com/critic?filter=movies'
p1147
sg13
(dp1148
g143
F4
ssg16
VEmpire
p1149
sg18
NsbsVNewsweek/Ann-Rebecca Laschever
p1150
g3
(g4
g5
NtRp1151
(dp1152
g8
g1150
sg9
VAnn-Rebecca Laschever
p1153
sg11
S'http://www.metacritic.com/critic?filter=movies'
p1154
sg13
(dp1155
g293
F4
ssg16
VNewsweek
p1156
sg18
NsbsVPremiere/Glenn Kenny
p1157
g3
(g4
g5
NtRp1158
(dp1159
g8
g1157
sg9
VGlenn Kenny
p1160
sg11
S'http://www.metacritic.com/critic/glenn-kenny?filter=movies'
p1161
sg13
(dp1162
g237
F6.2999999999999998
sg153
F7.5
sg131
F10
sg171
F10
sg165
F10
sg147
F10
sg132
F10
sg123
F10
sg152
F10
sg136
F8.8000000000000007
sg295
F10
sg41
F10
sg156
F8.8000000000000007
sg122
F8.8000000000000007
sg126
F6.2999999999999998
sg42
F8.8000000000000007
sg172
F10
sg174
F10
ssg16
VPremiere
p1163
sg18
NsbsVLos Angeles Times/Manohla Dargis
p1164
g3
(g4
g5
NtRp1165
(dp1166
g8
g1164
sg9
VManohla Dargis
p1167
sg11
S'http://www.metacritic.com/critic/manohla-dargis?filter=movies'
p1168
sg13
(dp1169
g126
F3
sg124
F3
sg132
F9
sg173
F9
sg135
F7
ssg16
VLos Angeles Times
p1170
sg18
NsbsVThe Hollywood Reporter/David Hunter
p1171
g3
(g4
g5
NtRp1172
(dp1173
g8
g1171
sg9
VDavid Hunter
p1174
sg11
S'http://www.metacritic.com/critic?filter=movies'
p1175
sg13
(dp1176
g51
F9
sg41
F10
ssg16
VThe Hollywood Reporter
p1177
sg18
NsbsVDallas Observer/Andy Klein
p1178
g3
(g4
g5
NtRp1179
(dp1180
g8
g1178
sg9
VAndy Klein
p1181
sg11
S'http://www.metacritic.com/critic/andy-klein?filter=movies'
p1182
sg13
(dp1183
g540
F8
sg173
F9
ssg16
VDallas Observer
p1184
sg18
NsbsVTV Guide Magazine/Ethan Alter
p1185
g3
(g4
g5
NtRp1186
(dp1187
g8
g1185
sg9
VEthan Alter
p1188
sg11
S'http://www.metacritic.com/critic?filter=movies'
p1189
sg13
(dp1190
g147
F8
sg130
F6
ssg16
VTV Guide Magazine
p1191
sg18
NsbsVPremiere/Jessica Letkemann
p1192
g3
(g4
g5
NtRp1193
(dp1194
g8
g1192
sg9
VJessica Letkemann
p1195
sg11
S'http://www.metacritic.com/critic/jessica-letkemann?filter=movies'
p1196
sg13
(dp1197
g138
F7.5
ssg16
VPremiere
p1198
sg18
NsbsVFilm.com/Elizabeth Weitzman
p1199
g3
(g4
g5
NtRp1200
(dp1201
g8
g1199
sg9
VElizabeth Weitzman
p1202
sg11
S'http://www.metacritic.com/critic/elizabeth-weitzman?filter=movies'
p1203
sg13
(dp1204
g154
F8
ssg16
VFilm.com
p1205
sg18
NsbsVPremiere/Rob Calvert
p1206
g3
(g4
g5
NtRp1207
(dp1208
g8
g1206
sg9
VRob Calvert
p1209
sg11
S'http://www.metacritic.com/critic?filter=movies'
p1210
sg13
(dp1211
g157
F10
ssg16
VPremiere
p1212
sg18
NsbsVThe New York Times/Jeannette Catsoulis
p1213
g3
(g4
g5
NtRp1214
(dp1215
g8
g1213
sg9
VJeannette Catsoulis
p1216
sg11
S'http://www.metacritic.com/critic/jeannette-catsoulis?filter=movies'
p1217
sg13
(dp1218
g120
F3
sg532
F8
ssg16
VThe New York Times
p1219
sg18
NsbsVTime Out London/Tom Huddleston
p1220
g3
(g4
g5
NtRp1221
(dp1222
g8
g1220
sg9
VTom Huddleston
p1223
sg11
S'http://www.metacritic.com/critic/tom-huddleston?filter=movies'
p1224
sg13
(dp1225
g15
F10
sg73
F8
sg285
F8
ssg16
VTime Out London
p1226
sg18
NsbsVTotal Film/Phillip Kemp
p1227
g3
(g4
g5
NtRp1228
(dp1229
g8
g1227
sg9
VPhillip Kemp
p1230
sg11
S'http://www.metacritic.com/critic?filter=movies'
p1231
sg13
(dp1232
g155
F10
ssg16
VTotal Film
p1233
sg18
NsbsVEmpire/Chris Hewitt (1)
p1234
g3
(g4
g5
NtRp1235
(dp1236
g8
g1234
sg9
VChris Hewitt (1)
p1237
sg11
S'http://www.metacritic.com/critic/chris-hewitt-1?filter=movies'
p1238
sg13
(dp1239
g161
F8
sg170
F10
ssg16
VEmpire
p1240
sg18
NsbsVTotal Film/Neil Smith
p1241
g3
(g4
g5
NtRp1242
(dp1243
g8
g1241
sg9
VNeil Smith
p1244
sg11
S'http://www.metacritic.com/critic/neil-smith?filter=movies'
p1245
sg13
(dp1246
g117
F8
sg168
F8
ssg16
VTotal Film
p1247
sg18
NsbsVVillage Voice/Scott Tobias
p1248
g3
(g4
g5
NtRp1249
(dp1250
g8
g1248
sg9
VScott Tobias
p1251
sg11
S'http://www.metacritic.com/critic/scott-tobias?filter=movies'
p1252
sg13
(dp1253
g99
F8
ssg16
VVillage Voice
p1254
sg18
NsbsVNew York Post/Kyle Smith
p1255
g3
(g4
g5
NtRp1256
(dp1257
g8
g1255
sg9
VKyle Smith
p1258
sg11
S'http://www.metacritic.com/critic/kyle-smith?filter=movies'
p1259
sg13
(dp1260
g118
F7.5
sg97
F10
sg125
F7.5
sg128
F8.8000000000000007
sg129
F7.5
sg120
F2.5
sg532
F5
sg157
F7.5
sg141
F6.2999999999999998
sg140
F7.5
sg145
F8.8000000000000007
sg148
F5
sg155
F7.5
sg77
F7.5
sg162
F8.8000000000000007
sg69
F3.7999999999999998
sg164
F7.5
sg167
F10
sg81
F6.2999999999999998
sg171
F7.5
sg109
F10
sg68
F8.8000000000000007
ssg16
VNew York Post
p1261
sg18
NsbsVTNT RoughCut/Gabriel J.P. Goldberg
p1262
g3
(g4
g5
NtRp1263
(dp1264
g8
g1262
sg9
VGabriel J.P. Goldberg
p1265
sg11
S'http://www.metacritic.com/critic?filter=movies'
p1266
sg13
(dp1267
g154
F10
ssg16
VTNT RoughCut
p1268
sg18
NsbsVNPR/Bob Mondello
p1269
g3
(g4
g5
NtRp1270
(dp1271
g8
g1269
sg9
VBob Mondello
p1272
sg11
S'http://www.metacritic.com/critic/bob-mondello?filter=movies'
p1273
sg13
(dp1274
g117
F9.5
sg73
F9
sg69
F7.5
sg145
F9.5
sg220
F9
sg166
F8
sg76
F9.5
sg150
F8.5
sg133
F7.5
sg99
F10
sg75
F9
sg125
F7
sg169
F10
sg129
F10
sg139
F9
sg15
F10
sg79
F9
sg348
F9
sg81
F9
ssg16
VNPR
p1275
sg18
NsbsVThe New York Times/Renata Adler
p1276
g3
(g4
g5
NtRp1277
(dp1278
g8
g1276
sg9
VRenata Adler
p1279
sg11
S'http://www.metacritic.com/critic?filter=movies'
p1280
sg13
(dp1281
g137
F6
ssg16
VThe New York Times
p1282
sg18
NsbsVEntertainment Weekly/Owen Gleiberman
p1283
g3
(g4
g5
NtRp1284
(dp1285
g8
g1283
sg9
VOwen Gleiberman
p1286
sg11
S'http://www.metacritic.com/critic/owen-gleiberman?filter=movies'
p1287
sg13
(dp1288
g117
F10
sg118
F6.7000000000000002
sg120
F4.2000000000000002
sg125
F10
sg127
F10
sg43
F9.0999999999999996
sg129
F10
sg130
F9.0999999999999996
sg73
F10
sg135
F7.5
sg136
F9.0999999999999996
sg137
F10
sg157
F7.5
sg138
F9.0999999999999996
sg542
F9.0999999999999996
sg139
F10
sg15
F10
sg140
F8.3000000000000007
sg143
F8.3000000000000007
sg144
F5
sg145
F9.0999999999999996
sg148
F9.0999999999999996
sg132
F10
sg151
F7.5
sg153
F9.0999999999999996
sg77
F9.0999999999999996
sg122
F9.0999999999999996
sg162
F10
sg163
F10
sg164
F8.3000000000000007
sg165
F7.5
sg59
F10
sg293
F8.3000000000000007
sg169
F10
sg170
F7.5
sg171
F10
ssg16
VEntertainment Weekly
p1289
sg18
NsbsVThe Playlist/Charlie Schmidilin
p1290
g3
(g4
g5
NtRp1291
(dp1292
g8
g1290
sg9
VCharlie Schmidilin
p1293
sg11
S'http://www.metacritic.com/critic?filter=movies'
p1294
sg13
(dp1295
g121
F8.3000000000000007
ssg16
VThe Playlist
p1296
sg18
NsbsVWashington Post/Teresa Wiltz
p1297
g3
(g4
g5
NtRp1298
(dp1299
g8
g1297
sg9
VTeresa Wiltz
p1300
sg11
S'http://www.metacritic.com/critic?filter=movies'
p1301
sg13
(dp1302
g147
F10
sg130
F7
ssg16
VWashington Post
p1303
sg18
NsbsVAustin Chronicle/Marrit Ingman
p1304
g3
(g4
g5
NtRp1305
(dp1306
g8
g1304
sg9
VMarrit Ingman
p1307
sg11
S'http://www.metacritic.com/critic/marrit-ingman?filter=movies'
p1308
sg13
(dp1309
g140
F3
sg43
F7.7999999999999998
sg122
F8.9000000000000004
ssg16
VAustin Chronicle
p1310
sg18
NsbsVCineVue/Ben Nicholson
p1311
g3
(g4
g5
NtRp1312
(dp1313
g8
g1311
sg9
VBen Nicholson
p1314
sg11
S'http://www.metacritic.com/critic/ben-nicholson?filter=movies'
p1315
sg13
(dp1316
g148
F8
sg33
F6
sg97
F8
ssg16
VCineVue
p1317
sg18
NsbsVVillage Voice/Nick Pinkerton
p1318
g3
(g4
g5
NtRp1319
(dp1320
g8
g1318
sg9
VNick Pinkerton
p1321
sg11
S'http://www.metacritic.com/critic?filter=movies'
p1322
sg13
(dp1323
g295
F9
sg158
F3
sg150
F4
sg164
F1
sg127
F5
ssg16
VVillage Voice
p1324
sg18
NsbsVWall Street Journal/Joe Morgenstern
p1325
g3
(g4
g5
NtRp1326
(dp1327
g8
g1325
sg9
VJoe Morgenstern
p1328
sg11
S'http://www.metacritic.com/critic/joe-morgenstern?filter=movies'
p1329
sg13
(dp1330
g237
F9
sg117
F10
sg77
F9
sg326
F10
sg97
F10
sg118
F10
sg121
F9
sg123
F10
sg73
F10
sg540
F10
sg124
F1
sg125
F8
sg126
F1
sg127
F10
sg99
F10
sg168
F9
sg129
F10
sg130
F9
sg119
F10
sg72
F7
sg133
F7
sg532
F8
sg135
F10
sg136
F10
sg75
F10
sg15
F10
sg138
F9
sg542
F9
sg139
F10
sg41
F10
sg42
F10
sg140
F3
sg348
F10
sg281
F7
sg544
F10
sg141
F5
sg142
F9
sg143
F2
sg132
F10
sg282
F6
sg145
F6
sg147
F10
sg148
F9
sg149
F9
sg150
F8
sg151
F8
sg221
F9
sg153
F8
sg171
F10
sg155
F9
sg74
F10
sg182
F9
sg156
F10
sg122
F9
sg163
F10
sg159
F9
sg152
F10
sg296
F8
sg222
F5
sg162
F9
sg96
F10
sg69
F7
sg165
F10
sg283
F8
sg166
F9
sg167
F7
sg98
F5
sg80
F10
sg131
F10
sg172
F10
sg76
F10
sg169
F10
sg170
F9
sg295
F9
sg468
F2
sg174
F10
sg173
F6
sg68
F8
sg285
F10
ssg16
VWall Street Journal
p1331
sg18
NsbsVWashington Post/John Anderson
p1332
g3
(g4
g5
NtRp1333
(dp1334
g8
g1332
sg9
VJohn Anderson
p1335
sg11
S'http://www.metacritic.com/critic?filter=movies'
p1336
sg13
(dp1337
g139
F10
ssg16
VWashington Post
p1338
sg18
NsbsVWe Got This Covered/Matt Donato
p1339
g3
(g4
g5
NtRp1340
(dp1341
g8
g1339
sg9
VMatt Donato
p1342
sg11
S'http://www.metacritic.com/critic/matt-donato?filter=movies'
p1343
sg13
(dp1344
g15
F9
ssg16
VWe Got This Covered
p1345
sg18
NsbsVFilm Threat/Michael Ferraro
p1346
g3
(g4
g5
NtRp1347
(dp1348
g8
g1346
sg9
VMichael Ferraro
p1349
sg11
S'http://www.metacritic.com/critic?filter=movies'
p1350
sg13
(dp1351
g147
F9
sg156
F9
ssg16
VFilm Threat
p1352
sg18
NsbsVChicago Tribune/Michael Phillips
p1353
g3
(g4
g5
NtRp1354
(dp1355
g8
g1353
sg9
VMichael Phillips
p1356
sg11
S'http://www.metacritic.com/critic/michael-phillips?filter=movies'
p1357
sg13
(dp1358
g117
F10
sg118
F5
sg33
F8.8000000000000007
sg97
F10
sg280
F10
sg71
F10
sg121
F10
sg73
F8.8000000000000007
sg125
F5
sg68
F10
sg127
F10
sg79
F7.5
sg128
F7.5
sg129
F10
sg119
F10
sg72
F6.2999999999999998
sg220
F8.8000000000000007
sg133
F6.2999999999999998
sg99
F10
sg136
F10
sg75
F7.5
sg15
F10
sg138
F10
sg139
F10
sg348
F7.5
sg281
F7.5
sg141
F8.8000000000000007
sg143
F3.7999999999999998
sg161
F6.2999999999999998
sg145
F10
sg148
F8.8000000000000007
sg149
F8.8000000000000007
sg150
F6.2999999999999998
sg151
F6.2999999999999998
sg152
F8.8000000000000007
sg153
F7.5
sg155
F8.8000000000000007
sg74
F8.8000000000000007
sg182
F10
sg77
F8.8000000000000007
sg158
F7.5
sg163
F10
sg159
F10
sg162
F7.5
sg96
F8.8000000000000007
sg69
F8.8000000000000007
sg164
F3.7999999999999998
sg165
F10
sg283
F8.8000000000000007
sg166
F7.5
sg98
F10
sg109
F7.5
sg131
F10
sg76
F7.5
sg169
F8.8000000000000007
sg170
F7.5
sg171
F8.8000000000000007
sg172
F10
sg80
F10
sg81
F8.8000000000000007
sg285
F10
ssg16
VChicago Tribune
p1359
sg18
NsbsVThe Verge/Tasha Robinson
p1360
g3
(g4
g5
NtRp1361
(dp1362
g8
g1360
sg9
VTasha Robinson
p1363
sg11
S'http://www.metacritic.com/critic/tasha-robinson?filter=movies'
p1364
sg13
(dp1365
g142
F7.2999999999999998
sg72
F7.7000000000000002
sg424
F8.8000000000000007
sg81
F8.4000000000000004
sg99
F10
ssg16
VThe Verge
p1366
sg18
NsbsVNewsweek/Walaika Haskins
p1367
g3
(g4
g5
NtRp1368
(dp1369
g8
g1367
sg9
VWalaika Haskins
p1370
sg11
S'http://www.metacritic.com/critic?filter=movies'
p1371
sg13
(dp1372
g160
F7
ssg16
VNewsweek
p1373
sg18
NsbsVTime Out London/Geoff Andrew
p1374
g3
(g4
g5
NtRp1375
(dp1376
g8
g1374
sg9
VGeoff Andrew
p1377
sg11
S'http://www.metacritic.com/critic/geoff-andrew?filter=movies'
p1378
sg13
(dp1379
g100
F8
ssg16
VTime Out London
p1380
sg18
NsbsVVillage Voice/Jim Ridley
p1381
g3
(g4
g5
NtRp1382
(dp1383
g8
g1381
sg9
VJim Ridley
p1384
sg11
S'http://www.metacritic.com/critic?filter=movies'
p1385
sg13
(dp1386
g157
F7
ssg16
VVillage Voice
p1387
sg18
NsbsVEmpire/Olly Richards
p1388
g3
(g4
g5
NtRp1389
(dp1390
g8
g1388
sg9
VOlly Richards
p1391
sg11
S'http://www.metacritic.com/critic/olly-richards?filter=movies'
p1392
sg13
(dp1393
g142
F6
sg139
F10
sg125
F8
ssg16
VEmpire
p1394
sg18
NsbsVChicago Sun-Times/Richard Roeper
p1395
g3
(g4
g5
NtRp1396
(dp1397
g8
g1395
sg9
VRichard Roeper
p1398
sg11
S'http://www.metacritic.com/critic/richard-roeper?filter=movies'
p1399
sg13
(dp1400
g142
F10
sg100
F8.8000000000000007
sg97
F10
sg119
F8.8000000000000007
sg166
F10
sg72
F7.5
sg73
F8.8000000000000007
sg74
F10
sg128
F10
sg109
F10
sg75
F10
sg76
F10
sg15
F10
sg77
F8.8000000000000007
sg68
F10
sg159
F8.8000000000000007
sg99
F10
sg80
F8.8000000000000007
sg81
F7.5
ssg16
VChicago Sun-Times
p1401
sg18
NsbsVThe Hollywood Reporter/Jordan Mintzer
p1402
g3
(g4
g5
NtRp1403
(dp1404
g8
g1402
sg9
VJordan Mintzer
p1405
sg11
S'http://www.metacritic.com/critic/jordan-mintzer?filter=movies'
p1406
sg13
(dp1407
g424
F7
ssg16
VThe Hollywood Reporter
p1408
sg18
NsbsVL.A. Weekly/Hazel-Dawn Dumpert
p1409
g3
(g4
g5
NtRp1410
(dp1411
g8
g1409
sg9
VHazel-Dawn Dumpert
p1412
sg11
S'http://www.metacritic.com/critic/hazel-dawn-dumpert?filter=movies'
p1413
sg13
(dp1414
g432
F3
ssg16
VL.A. Weekly
p1415
sg18
NsbsVNPR/Scott Tobias
p1416
g3
(g4
g5
NtRp1417
(dp1418
g8
g1416
sg9
VScott Tobias
p1419
sg11
S'http://www.metacritic.com/critic/scott-tobias?filter=movies'
p1420
sg13
(dp1421
g161
F6.7000000000000002
sg162
F9
ssg16
VNPR
p1422
sg18
NsbsVTime Out New York/Joshua Rothkopf
p1423
g3
(g4
g5
NtRp1424
(dp1425
g8
g1423
sg9
VJoshua Rothkopf
p1426
sg11
S'http://www.metacritic.com/critic/joshua-rothkopf?filter=movies'
p1427
sg13
(dp1428
g142
F6
sg117
F10
sg143
F8
sg69
F8
sg97
F10
sg118
F8
sg73
F8
sg121
F6
sg163
F10
sg109
F8
sg168
F6
sg155
F10
sg169
F10
sg77
F10
sg573
F10
sg158
F8
sg127
F8
sg148
F10
sg129
F10
sg162
F10
ssg16
VTime Out New York
p1429
sg18
NsbsVNew York Daily News/Graham Fuller
p1430
g3
(g4
g5
NtRp1431
(dp1432
g8
g1430
sg9
VGraham Fuller
p1433
sg11
S'http://www.metacritic.com/critic?filter=movies'
p1434
sg13
(dp1435
g71
F10
sg281
F8
sg220
F10
sg33
F8
ssg16
VNew York Daily News
p1436
sg18
NsbsVSalon.com/Andrew O'Hehir
p1437
g3
(g4
g5
NtRp1438
(dp1439
g8
g1437
sg9
VAndrew O'Hehir
p1440
sg11
S'http://www.metacritic.com/critic/andrew-ohehir?filter=movies'
p1441
sg13
(dp1442
g117
F10
sg280
F9
sg71
F10
sg121
F9
sg73
F9
sg125
F7
sg127
F10
sg79
F10
sg128
F8
sg129
F10
sg293
F6
sg119
F9
sg72
F9
sg220
F10
sg133
F5
sg532
F9
sg99
F10
sg41
F9
sg15
F10
sg281
F10
sg143
F1
sg148
F9
sg149
F8
sg150
F10
sg152
F9
sg74
F7
sg77
F10
sg158
F4
sg159
F10
sg221
F9
sg162
F9
sg163
F10
sg69
F9
sg131
F10
sg76
F9
sg169
F9
sg78
F8
sg468
F6
sg285
F9
ssg16
VSalon.com
p1443
sg18
NsbsVUSA Today/Susan Wloszczyna
p1444
g3
(g4
g5
NtRp1445
(dp1446
g8
g1444
sg9
VSusan Wloszczyna
p1447
sg11
S'http://www.metacritic.com/critic/susan-wloszczyna?filter=movies'
p1448
sg13
(dp1449
g432
F6.2999999999999998
ssg16
VUSA Today
p1450
sg18
NsbsVEntertainment Weekly/Lisa Schwarzbaum
p1451
g3
(g4
g5
NtRp1452
(dp1453
g8
g1451
sg9
VLisa Schwarzbaum
p1454
sg11
S'http://www.metacritic.com/critic/lisa-schwarzbaum?filter=movies'
p1455
sg13
(dp1456
g237
F10
sg121
F10
sg123
F10
sg540
F8.3000000000000007
sg60
F6.7000000000000002
sg126
F5.7999999999999998
sg160
F8.3000000000000007
sg294
F8.3000000000000007
sg133
F8.3000000000000007
sg41
F10
sg141
F10
sg154
F10
sg42
F9.0999999999999996
sg172
F10
sg432
F2.5
sg161
F7.5
sg147
F10
sg149
F7.5
sg150
F7.5
sg152
F9.0999999999999996
sg156
F9.0999999999999996
sg158
F8.3000000000000007
sg296
F9.0999999999999996
sg544
F10
sg297
F10
sg167
F10
sg98
F10
sg131
F10
sg295
F10
sg468
F5
sg173
F9.0999999999999996
sg174
F10
ssg16
VEntertainment Weekly
p1457
sg18
NsbsVFilm Threat/Darrin Keene
p1458
g3
(g4
g5
NtRp1459
(dp1460
g8
g1458
sg9
VDarrin Keene
p1461
sg11
S'http://www.metacritic.com/critic?filter=movies'
p1462
sg13
(dp1463
g173
F8
ssg16
VFilm Threat
p1464
sg18
NsbsVL.A. Weekly/Russel Swensen
p1465
g3
(g4
g5
NtRp1466
(dp1467
g8
g1465
sg9
VRussel Swensen
p1468
sg11
S'http://www.metacritic.com/critic?filter=movies'
p1469
sg13
(dp1470
g135
F7
ssg16
VL.A. Weekly
p1471
sg18
NsbsVNew York Observer/Rex Reed
p1472
g3
(g4
g5
NtRp1473
(dp1474
g8
g1472
sg9
VRex Reed
p1475
sg11
S'http://www.metacritic.com/critic/rex-reed?filter=movies'
p1476
sg13
(dp1477
g117
F5
sg118
F10
sg97
F10
sg121
F2.5
sg125
F2.5
sg127
F10
sg168
F8.8000000000000007
sg72
F0
sg73
F7.5
sg532
F7.5
sg75
F2.5
sg15
F10
sg142
F7.5
sg148
F7.5
sg149
F10
sg150
F2.5
sg155
F10
sg158
F2.5
sg159
F10
sg162
F10
sg163
F5
sg166
F7.5
sg76
F8.8000000000000007
sg169
F7.5
sg80
F10
ssg16
VNew York Observer
p1478
sg18
NsbsVPremiere/Aaron Hillis
p1479
g3
(g4
g5
NtRp1480
(dp1481
g8
g1479
sg9
VAaron Hillis
p1482
sg11
S'http://www.metacritic.com/critic/aaron-hillis?filter=movies'
p1483
sg13
(dp1484
g167
F6.2999999999999998
ssg16
VPremiere
p1485
sg18
NsbsVThe Guardian/Nigel M Smith
p1486
g3
(g4
g5
NtRp1487
(dp1488
g8
g1486
sg9
VNigel M Smith
p1489
sg11
S'http://www.metacritic.com/critic/nigel-m-smith?filter=movies'
p1490
sg13
(dp1491
g142
F6
sg221
F10
ssg16
VThe Guardian
p1492
sg18
NsbsVTheWrap/Robert Abele
p1493
g3
(g4
g5
NtRp1494
(dp1495
g8
g1493
sg9
VRobert Abele
p1496
sg11
S'http://www.metacritic.com/critic/robert-abele?filter=movies'
p1497
sg13
(dp1498
g142
F8.5
sg326
F9
sg97
F7
ssg16
VTheWrap
p1499
sg18
NsbsVVariety/Peter Debruge
p1500
g3
(g4
g5
NtRp1501
(dp1502
g8
g1500
sg9
VPeter Debruge
p1503
sg11
S'http://www.metacritic.com/critic/peter-debruge?filter=movies'
p1504
sg13
(dp1505
g142
F7
sg117
F9
sg163
F7
sg118
F10
sg125
F8
sg166
F9
sg149
F8
sg220
F10
sg133
F6
sg74
F10
sg168
F8
sg75
F10
sg155
F7
sg424
F10
sg15
F10
sg78
F10
sg127
F9
sg281
F9
sg68
F10
sg285
F6
ssg16
VVariety
p1506
sg18
NsbsVFilm Threat/Matthew Sorrento
p1507
g3
(g4
g5
NtRp1508
(dp1509
g8
g1507
sg9
VMatthew Sorrento
p1510
sg11
S'http://www.metacritic.com/critic?filter=movies'
p1511
sg13
(dp1512
g42
F10
sg98
F5
ssg16
VFilm Threat
p1513
sg18
NsbsVTotal Film/Philip Kemp
p1514
g3
(g4
g5
NtRp1515
(dp1516
g8
g1514
sg9
VPhilip Kemp
p1517
sg11
S'http://www.metacritic.com/critic/philip-kemp?filter=movies'
p1518
sg13
(dp1519
g142
F6
sg76
F8
sg79
F8
sg77
F10
ssg16
VTotal Film
p1520
sg18
NsbsVSlant Magazine/Andrew Schenker
p1521
g3
(g4
g5
NtRp1522
(dp1523
g8
g1521
sg9
VAndrew Schenker
p1524
sg11
S'http://www.metacritic.com/critic/andrew-schenker?filter=movies'
p1525
sg13
(dp1526
g280
F3.7999999999999998
sg125
F5
ssg16
VSlant Magazine
p1527
sg18
NsbsVNew York Magazine (Vulture)/Ken Tucker
p1528
g3
(g4
g5
NtRp1529
(dp1530
g8
g1528
sg9
VKen Tucker
p1531
sg11
S'http://www.metacritic.com/critic?filter=movies'
p1532
sg13
(dp1533
g171
F9
sg136
F6
sg167
F5
sg156
F9
sg130
F6
ssg16
VNew York Magazine (Vulture)
p1534
sg18
NsbsVFilm.com/Robert Horton
p1535
g3
(g4
g5
NtRp1536
(dp1537
g8
g1535
sg9
VRobert Horton
p1538
sg11
S'http://www.metacritic.com/critic/robert-horton?filter=movies'
p1539
sg13
(dp1540
g432
F4
sg293
F7
sg468
F4
sg144
F9
ssg16
VFilm.com
p1541
sg18
NsbsVThe Seattle Times/Tom Keogh
p1542
g3
(g4
g5
NtRp1543
(dp1544
g8
g1542
sg9
VTom Keogh
p1545
sg11
S'http://www.metacritic.com/critic/tom-keogh?filter=movies'
p1546
sg13
(dp1547
g100
F7.5
ssg16
VThe Seattle Times
p1548
sg18
NsbsVThe New York Times/Dave Kehr
p1549
g3
(g4
g5
NtRp1550
(dp1551
g8
g1549
sg9
VDave Kehr
p1552
sg11
S'http://www.metacritic.com/critic/dave-kehr?filter=movies'
p1553
sg13
(dp1554
g237
F9
ssg16
VThe New York Times
p1555
sg18
NsbsVThe Telegraph/Mike McCahill
p1556
g3
(g4
g5
NtRp1557
(dp1558
g8
g1556
sg9
VMike McCahill
p1559
sg11
S'http://www.metacritic.com/critic/mike-mccahill?filter=movies'
p1560
sg13
(dp1561
g222
F6
ssg16
VThe Telegraph
p1562
sg18
NsbsVTime/Staff (Not Credited)
p1563
g3
(g4
g5
NtRp1564
(dp1565
g8
g1563
sg9
VStaff (Not Credited)
p1566
sg11
S'http://www.metacritic.com/critic?filter=movies'
p1567
sg13
(dp1568
g59
F10
ssg16
VTime
p1569
sg18
NsbsVEmpire/David Parkinson
p1570
g3
(g4
g5
NtRp1571
(dp1572
g8
g1570
sg9
VDavid Parkinson
p1573
sg11
S'http://www.metacritic.com/critic/david-parkinson?filter=movies'
p1574
sg13
(dp1575
g282
F6
sg283
F8
sg101
F8
sg280
F8
sg79
F6
sg129
F8
ssg16
VEmpire
p1576
sg18
NsbsVEntertainment Weekly/Leah Greenblatt
p1577
g3
(g4
g5
NtRp1578
(dp1579
g8
g1577
sg9
VLeah Greenblatt
p1580
sg11
S'http://www.metacritic.com/critic/leah-greenblatt?filter=movies'
p1581
sg13
(dp1582
g166
F8.3000000000000007
sg182
F9.0999999999999996
sg168
F8.3000000000000007
ssg16
VEntertainment Weekly
p1583
sg18
NsbsVThe Dissolve/Mike D'Angelo
p1584
g3
(g4
g5
NtRp1585
(dp1586
g8
g1584
sg9
VMike D'Angelo
p1587
sg11
S'http://www.metacritic.com/critic/mike-dangelo?filter=movies'
p1588
sg13
(dp1589
g78
F6
ssg16
VThe Dissolve
p1590
sg18
NsbsVBaltimore Sun/Michael Sragow
p1591
g3
(g4
g5
NtRp1592
(dp1593
g8
g1591
sg9
VMichael Sragow
p1594
sg11
S'http://www.metacritic.com/critic/michael-sragow?filter=movies'
p1595
sg13
(dp1596
g237
F5
sg123
F10
sg135
F10
sg136
F10
sg41
F10
sg138
F10
sg542
F8.8000000000000007
sg139
F10
sg157
F3.7999999999999998
sg42
F10
sg172
F4.2000000000000002
sg161
F3.7999999999999998
sg145
F5
sg132
F5
sg151
F5.7999999999999998
sg152
F10
sg153
F10
sg156
F10
sg544
F10
sg297
F10
sg164
F6.2999999999999998
sg165
F10
sg167
F5
sg98
F10
sg131
F10
sg171
F5
sg173
F10
sg174
F6.2999999999999998
ssg16
VBaltimore Sun
p1597
sg18
NsbsVVariety/Deborah Young
p1598
g3
(g4
g5
NtRp1599
(dp1600
g8
g1598
sg9
VDeborah Young
p1601
sg11
S'http://www.metacritic.com/critic/deborah-young?filter=movies'
p1602
sg13
(dp1603
g237
F8
ssg16
VVariety
p1604
sg18
NsbsVPremiere/Sara Brady
p1605
g3
(g4
g5
NtRp1606
(dp1607
g8
g1605
sg9
VSara Brady
p1608
sg11
S'http://www.metacritic.com/critic?filter=movies'
p1609
sg13
(dp1610
g151
F7.5
ssg16
VPremiere
p1611
sg18
NsbsVThe New York Times/Elvis Mitchell
p1612
g3
(g4
g5
NtRp1613
(dp1614
g8
g1612
sg9
VElvis Mitchell
p1615
sg11
S'http://www.metacritic.com/critic/elvis-mitchell?filter=movies'
p1616
sg13
(dp1617
g154
F9
sg59
F10
sg144
F9
sg544
F9
sg132
F7
ssg16
VThe New York Times
p1618
sg18
NsbsVSan Francisco Chronicle/David Wiegand
p1619
g3
(g4
g5
NtRp1620
(dp1621
g8
g1619
sg9
VDavid Wiegand
p1622
sg11
S'http://www.metacritic.com/critic/david-wiegand?filter=movies'
p1623
sg13
(dp1624
g100
F10
ssg16
VSan Francisco Chronicle
p1625
sg18
NsbsVVariety/Staff (Not Credited)
p1626
g3
(g4
g5
NtRp1627
(dp1628
g8
g1626
sg9
VStaff (Not Credited)
p1629
sg11
S'http://www.metacritic.com/critic?filter=movies'
p1630
sg13
(dp1631
g211
F9
sg146
F8
sg59
F10
sg134
F9
sg137
F4
sg541
F9
sg543
F7
ssg16
VVariety
p1632
sg18
NsbsVTime/Richard Schickel
p1633
g3
(g4
g5
NtRp1634
(dp1635
g8
g1633
sg9
VRichard Schickel
p1636
sg11
S'http://www.metacritic.com/critic/richard-schickel?filter=movies'
p1637
sg13
(dp1638
g293
F8
sg294
F6
sg167
F5
sg152
F10
sg153
F5
sg160
F7
sg542
F3
sg171
F7
sg43
F6
sg173
F8
sg543
F8
sg172
F10
ssg16
VTime
p1639
sg18
NsbsVSan Francisco Chronicle/Carla Meyer
p1640
g3
(g4
g5
NtRp1641
(dp1642
g8
g1640
sg9
VCarla Meyer
p1643
sg11
S'http://www.metacritic.com/critic?filter=movies'
p1644
sg13
(dp1645
g237
F5
sg147
F10
sg122
F10
sg542
F7.5
ssg16
VSan Francisco Chronicle
p1646
sg18
NsbsVVariety/Jay Weissberg
p1647
g3
(g4
g5
NtRp1648
(dp1649
g8
g1647
sg9
VJay Weissberg
p1650
sg11
S'http://www.metacritic.com/critic/jay-weissberg?filter=movies'
p1651
sg13
(dp1652
g686
F6
sg284
F7
sg131
F10
sg573
F9
sg348
F9
sg222
F8
ssg16
VVariety
p1653
sg18
NsbsVVariety/Dennis Harvey
p1654
g3
(g4
g5
NtRp1655
(dp1656
g8
g1654
sg9
VDennis Harvey
p1657
sg11
S'http://www.metacritic.com/critic/dennis-harvey?filter=movies'
p1658
sg13
(dp1659
g153
F7
sg109
F5
ssg16
VVariety
p1660
sg18
NsbsVVillage Voice/Scott Foundas
p1661
g3
(g4
g5
NtRp1662
(dp1663
g8
g1661
sg9
VScott Foundas
p1664
sg11
S'http://www.metacritic.com/critic?filter=movies'
p1665
sg13
(dp1666
g117
F10
sg118
F9
sg145
F10
sg283
F9
sg165
F9
sg133
F5
sg152
F10
sg153
F9
ssg16
VVillage Voice
p1667
sg18
NsbsVNew York Magazine (Vulture)/David Edelstein
p1668
g3
(g4
g5
NtRp1669
(dp1670
g8
g1668
sg9
VDavid Edelstein
p1671
sg11
S'http://www.metacritic.com/critic/david-edelstein?filter=movies'
p1672
sg13
(dp1673
g117
F10
sg118
F8
sg121
F8
sg123
F8
sg73
F10
sg125
F7
sg127
F10
sg79
F10
sg128
F9
sg129
F9
sg131
F9
sg119
F9
sg72
F7
sg133
F5
sg532
F8
sg99
F4
sg75
F6
sg15
F7
sg138
F5
sg573
F9
sg139
F10
sg42
F9
sg141
F8
sg142
F6
sg161
F8
sg100
F9
sg145
F5
sg148
F9
sg149
F9
sg151
F4
sg152
F9
sg153
F5
sg155
F8
sg74
F10
sg182
F9
sg77
F9
sg158
F4
sg163
F9
sg159
F8
sg222
F7
sg162
F8
sg96
F9
sg69
F7
sg165
F10
sg166
F4
sg98
F9
sg109
F10
sg168
F8
sg76
F9
sg169
F6
sg170
F10
sg295
F9
sg172
F10
sg80
F10
sg68
F6
sg285
F8
ssg16
VNew York Magazine (Vulture)
p1674
sg18
NsbsVBaltimore Sun/Ann Hornaday
p1675
g3
(g4
g5
NtRp1676
(dp1677
g8
g1675
sg9
VAnn Hornaday
p1678
sg11
S'http://www.metacritic.com/critic/ann-hornaday?filter=movies'
p1679
sg13
(dp1680
g432
F3.7999999999999998
sg293
F10
sg294
F7.5
sg154
F10
ssg16
VBaltimore Sun
p1681
sg18
NsbsVHitfix/Daniel Fienberg
p1682
g3
(g4
g5
NtRp1683
(dp1684
g8
g1682
sg9
VDaniel Fienberg
p1685
sg11
S'http://www.metacritic.com/critic?filter=movies'
p1686
sg13
(dp1687
g109
F8.3000000000000007
ssg16
VHitfix
p1688
sg18
NsbsVPremiere/Jenni Miller
p1689
g3
(g4
g5
NtRp1690
(dp1691
g8
g1689
sg9
VJenni Miller
p1692
sg11
S'http://www.metacritic.com/critic?filter=movies'
p1693
sg13
(dp1694
g139
F7.5
sg164
F7.5
ssg16
VPremiere
p1695
sg18
NsbsVEntertainment Weekly/Kevin P. Sullivan
p1696
g3
(g4
g5
NtRp1697
(dp1698
g8
g1696
sg9
VKevin P. Sullivan
p1699
sg11
S'http://www.metacritic.com/critic?filter=movies'
p1700
sg13
(dp1701
g532
F8.3000000000000007
ssg16
VEntertainment Weekly
p1702
sg18
NsbsVSlant Magazine/R. Kurt Osenlund
p1703
g3
(g4
g5
NtRp1704
(dp1705
g8
g1703
sg9
VR. Kurt Osenlund
p1706
sg11
S'http://www.metacritic.com/critic/r-kurt-osenlund?filter=movies'
p1707
sg13
(dp1708
g75
F5
sg163
F8.8000000000000007
sg76
F7.5
ssg16
VSlant Magazine
p1709
sg18
NsbsVThe Playlist/Gregory Ellwood
p1710
g3
(g4
g5
NtRp1711
(dp1712
g8
g1710
sg9
VGregory Ellwood
p1713
sg11
S'http://www.metacritic.com/critic/gregory-ellwood?filter=movies'
p1714
sg13
(dp1715
g142
F7.5
ssg16
VThe Playlist
p1716
sg18
NsbsVThe Film Stage/Jared Mobarak
p1717
g3
(g4
g5
NtRp1718
(dp1719
g8
g1717
sg9
VJared Mobarak
p1720
sg11
S'http://www.metacritic.com/critic/jared-mobarak?filter=movies'
p1721
sg13
(dp1722
g424
F8.3000000000000007
ssg16
VThe Film Stage
p1723
sg18
NsbsVSan Francisco Chronicle/G. Allen Johnson
p1724
g3
(g4
g5
NtRp1725
(dp1726
g8
g1724
sg9
VG. Allen Johnson
p1727
sg11
S'http://www.metacritic.com/critic?filter=movies'
p1728
sg13
(dp1729
g424
F5
sg282
F7.5
sg101
F5
ssg16
VSan Francisco Chronicle
p1730
sg18
NsbsVVillage Voice/Melissa Anderson
p1731
g3
(g4
g5
NtRp1732
(dp1733
g8
g1731
sg9
VMelissa Anderson
p1734
sg11
S'http://www.metacritic.com/critic/melissa-anderson?filter=movies'
p1735
sg13
(dp1736
g182
F10
ssg16
VVillage Voice
p1737
sg18
NsbsVSan Francisco Chronicle/Ruthe Stein
p1738
g3
(g4
g5
NtRp1739
(dp1740
g8
g1738
sg9
VRuthe Stein
p1741
sg11
S'http://www.metacritic.com/critic/ruthe-stein?filter=movies'
p1742
sg13
(dp1743
g123
F10
sg156
F10
ssg16
VSan Francisco Chronicle
p1744
sg18
NsbsVThe Globe and Mail (Toronto)/James Adams
p1745
g3
(g4
g5
NtRp1746
(dp1747
g8
g1745
sg9
VJames Adams
p1748
sg11
S'http://www.metacritic.com/critic/james-adams?filter=movies'
p1749
sg13
(dp1750
g77
F7.5
ssg16
VThe Globe and Mail (Toronto)
p1751
sg18
NsbsVVillage Voice/Robert Wilonsky
p1752
g3
(g4
g5
NtRp1753
(dp1754
g8
g1752
sg9
VRobert Wilonsky
p1755
sg11
S'http://www.metacritic.com/critic?filter=movies'
p1756
sg13
(dp1757
g139
F10
sg98
F10
ssg16
VVillage Voice
p1758
sg18
NsbsVScreen International/Lee Marshall
p1759
g3
(g4
g5
NtRp1760
(dp1761
g8
g1759
sg9
VLee Marshall
p1762
sg11
S'http://www.metacritic.com/critic?filter=movies'
p1763
sg13
(dp1764
g68
F8
sg81
F8
sg221
F6
ssg16
VScreen International
p1765
sg18
NsbsVMr. Showbiz/Michael Atkinson
p1766
g3
(g4
g5
NtRp1767
(dp1768
g8
g1766
sg9
VMichael Atkinson
p1769
sg11
S'http://www.metacritic.com/critic/michael-atkinson?filter=movies'
p1770
sg13
(dp1771
g540
F9
sg144
F3
sg297
F8
ssg16
VMr. Showbiz
p1772
sg18
NsbsVFilm Threat/Nick Antosca
p1773
g3
(g4
g5
NtRp1774
(dp1775
g8
g1773
sg9
VNick Antosca
p1776
sg11
S'http://www.metacritic.com/critic?filter=movies'
p1777
sg13
(dp1778
g161
F7
ssg16
VFilm Threat
p1779
sg18
NsbsVIndiewire/Greg Cwick
p1780
g3
(g4
g5
NtRp1781
(dp1782
g8
g1780
sg9
VGreg Cwick
p1783
sg11
S'http://www.metacritic.com/critic?filter=movies'
p1784
sg13
(dp1785
g285
F10
ssg16
VIndiewire
p1786
sg18
NsbsVPremiere/Staff (Not Credited)
p1787
g3
(g4
g5
NtRp1788
(dp1789
g8
g1787
sg9
VStaff (Not Credited)
p1790
sg11
S'http://www.metacritic.com/critic?filter=movies'
p1791
sg13
(dp1792
g137
F10
ssg16
VPremiere
p1793
sg18
NsbsVScreen International/Fionnuala Halligan
p1794
g3
(g4
g5
NtRp1795
(dp1796
g8
g1794
sg9
VFionnuala Halligan
p1797
sg11
S'http://www.metacritic.com/critic/fionnuala-halligan?filter=movies'
p1798
sg13
(dp1799
g128
F9
sg97
F10
ssg16
VScreen International
p1800
sg18
NsbsVAustin Chronicle/Marjorie Baumgarten
p1801
g3
(g4
g5
NtRp1802
(dp1803
g8
g1801
sg9
VMarjorie Baumgarten
p1804
sg11
S'http://www.metacritic.com/critic/marjorie-baumgarten?filter=movies'
p1805
sg13
(dp1806
g118
F7.7999999999999998
sg33
F8.9000000000000004
sg97
F10
sg281
F5
sg134
F10
sg123
F10
sg540
F7.7999999999999998
sg125
F6.7000000000000002
sg127
F8.9000000000000004
sg128
F7.7999999999999998
sg129
F10
sg130
F6.7000000000000002
sg211
F10
sg133
F5
sg137
F10
sg326
F7.7999999999999998
sg141
F7.7999999999999998
sg573
F8.9000000000000004
sg172
F10
sg100
F10
sg146
F10
sg147
F7.7999999999999998
sg132
F10
sg151
F6.7000000000000002
sg221
F8.9000000000000004
sg295
F8.9000000000000004
sg159
F10
sg152
F8.9000000000000004
sg59
F8.9000000000000004
sg98
F8.9000000000000004
sg109
F7.7999999999999998
sg171
F8.9000000000000004
sg80
F8.9000000000000004
sg285
F8.9000000000000004
ssg16
VAustin Chronicle
p1807
sg18
NsbsVVillage Voice/Aaron Cutler
p1808
g3
(g4
g5
NtRp1809
(dp1810
g8
g1808
sg9
VAaron Cutler
p1811
sg11
S'http://www.metacritic.com/critic/aaron-cutler?filter=movies'
p1812
sg13
(dp1813
g285
F9
ssg16
VVillage Voice
p1814
sg18
NsbsVScreenCrush/Britt Hayes
p1815
g3
(g4
g5
NtRp1816
(dp1817
g8
g1815
sg9
VBritt Hayes
p1818
sg11
S'http://www.metacritic.com/critic?filter=movies'
p1819
sg13
(dp1820
g81
F9
ssg16
VScreenCrush
p1821
sg18
NsbsVSan Francisco Chronicle/Peter Hartlaub
p1822
g3
(g4
g5
NtRp1823
(dp1824
g8
g1822
sg9
VPeter Hartlaub
p1825
sg11
S'http://www.metacritic.com/critic/peter-hartlaub?filter=movies'
p1826
sg13
(dp1827
g142
F7.5
sg120
F2.5
sg141
F10
sg165
F10
ssg16
VSan Francisco Chronicle
p1828
sg18
NsbsVScreen International/Anthony Kaufman
p1829
g3
(g4
g5
NtRp1830
(dp1831
g8
g1829
sg9
VAnthony Kaufman
p1832
sg11
S'http://www.metacritic.com/critic?filter=movies'
p1833
sg13
(dp1834
g155
F7
sg168
F5
ssg16
VScreen International
p1835
sg18
NsbsVThe Globe and Mail (Toronto)/Brad Wheeler
p1836
g3
(g4
g5
NtRp1837
(dp1838
g8
g1836
sg9
VBrad Wheeler
p1839
sg11
S'http://www.metacritic.com/critic?filter=movies'
p1840
sg13
(dp1841
g150
F8.8000000000000007
sg221
F8.8000000000000007
ssg16
VThe Globe and Mail (Toronto)
p1842
sg18
NsbsVTV Guide Magazine/Perry Seibert
p1843
g3
(g4
g5
NtRp1844
(dp1845
g8
g1843
sg9
VPerry Seibert
p1846
sg11
S'http://www.metacritic.com/critic?filter=movies'
p1847
sg13
(dp1848
g98
F10
ssg16
VTV Guide Magazine
p1849
sg18
NsbsVThe Film Stage/Zhuo-Ning Su
p1850
g3
(g4
g5
NtRp1851
(dp1852
g8
g1850
sg9
VZhuo-Ning Su
p1853
sg11
S'http://www.metacritic.com/critic/zhuo-ning-su?filter=movies'
p1854
sg13
(dp1855
g326
F9.0999999999999996
sg282
F8.3000000000000007
ssg16
VThe Film Stage
p1856
sg18
NsbsVChristian Science Monitor/Peter Rainer
p1857
g3
(g4
g5
NtRp1858
(dp1859
g8
g1857
sg9
VPeter Rainer
p1860
sg11
S'http://www.metacritic.com/critic/peter-rainer?filter=movies'
p1861
sg13
(dp1862
g117
F5.7999999999999998
sg118
F7.5
sg33
F10
sg97
F10
sg71
F10
sg121
F10
sg123
F10
sg98
F8.3000000000000007
sg68
F9.0999999999999996
sg127
F6.7000000000000002
sg79
F7.5
sg43
F8.3000000000000007
sg129
F10
sg119
F10
sg73
F8.3000000000000007
sg72
F5
sg220
F10
sg133
F5.7999999999999998
sg109
F8.3000000000000007
sg136
F10
sg75
F5.7999999999999998
sg15
F7.5
sg138
F10
sg100
F6.7000000000000002
sg139
F9.0999999999999996
sg326
F8.3000000000000007
sg42
F8.3000000000000007
sg348
F9.0999999999999996
sg281
F5.7999999999999998
sg141
F10
sg142
F7.5
sg143
F3.2999999999999998
sg161
F6.7000000000000002
sg282
F9.0999999999999996
sg145
F9.0999999999999996
sg148
F8.3000000000000007
sg149
F7.5
sg150
F5.7999999999999998
sg151
F7.5
sg152
F10
sg153
F7.5
sg155
F10
sg74
F8.3000000000000007
sg182
F9.0999999999999996
sg77
F9.0999999999999996
sg158
F7.5
sg163
F7.5
sg222
F7.5
sg162
F5
sg96
F8.3000000000000007
sg69
F7.5
sg165
F8.3000000000000007
sg283
F7.5
sg166
F8.3000000000000007
sg99
F7.5
sg101
F9.0999999999999996
sg131
F10
sg76
F7.5
sg169
F8.3000000000000007
sg170
F8.3000000000000007
sg171
F10
sg172
F9.0999999999999996
sg80
F7.5
sg81
F5.7999999999999998
sg285
F9.0999999999999996
ssg16
VChristian Science Monitor
p1863
sg18
NsbsVBoston Globe/Peter Keough
p1864
g3
(g4
g5
NtRp1865
(dp1866
g8
g1864
sg9
VPeter Keough
p1867
sg11
S'http://www.metacritic.com/critic/peter-keough?filter=movies'
p1868
sg13
(dp1869
g96
F10
sg71
F10
sg532
F7.5
sg68
F10
sg573
F8.8000000000000007
sg79
F8.8000000000000007
sg81
F8.8000000000000007
ssg16
VBoston Globe
p1870
sg18
NsbsVNew York Magazine (Vulture)/Peter Rainer
p1871
g3
(g4
g5
NtRp1872
(dp1873
g8
g1871
sg9
VPeter Rainer
p1874
sg11
S'http://www.metacritic.com/critic/peter-rainer?filter=movies'
p1875
sg13
(dp1876
g237
F8
sg297
F10
sg147
F10
sg132
F8
sg296
F7
sg540
F5
sg41
F10
sg542
F10
sg122
F9
sg135
F10
sg173
F9
sg544
F8
sg174
F9
ssg16
VNew York Magazine (Vulture)
p1877
sg18
NsbsVFilm Threat/David Grove
p1878
g3
(g4
g5
NtRp1879
(dp1880
g8
g1878
sg9
VDavid Grove
p1881
sg11
S'http://www.metacritic.com/critic/david-grove?filter=movies'
p1882
sg13
(dp1883
g124
F6
ssg16
VFilm Threat
p1884
sg18
NsbsVFilm Threat/Don R. Lewis
p1885
g3
(g4
g5
NtRp1886
(dp1887
g8
g1885
sg9
VDon R. Lewis
p1888
sg11
S'http://www.metacritic.com/critic?filter=movies'
p1889
sg13
(dp1890
g123
F9
sg152
F10
ssg16
VFilm Threat
p1891
sg18
NsbsVSt. Louis Post-Dispatch/Gail Pennington
p1892
g3
(g4
g5
NtRp1893
(dp1894
g8
g1892
sg9
VGail Pennington
p1895
sg11
S'http://www.metacritic.com/critic/gail-pennington?filter=movies'
p1896
sg13
(dp1897
g74
F7.5
ssg16
VSt. Louis Post-Dispatch
p1898
sg18
NsbsVDallas Observer/Staff (Not credited)
p1899
g3
(g4
g5
NtRp1900
(dp1901
g8
g1899
sg9
VStaff (Not credited)
p1902
sg11
S'http://www.metacritic.com/critic?filter=movies'
p1903
sg13
(dp1904
g122
F8
ssg16
VDallas Observer
p1905
sg18
NsbsVThe New Yorker/Pauline Kael
p1906
g3
(g4
g5
NtRp1907
(dp1908
g8
g1906
sg9
VPauline Kael
p1909
sg11
S'http://www.metacritic.com/critic/pauline-kael?filter=movies'
p1910
sg13
(dp1911
g541
F3
ssg16
VThe New Yorker
p1912
sg18
NsbsVThe Globe and Mail (Toronto)/Gayle MacDonald
p1913
g3
(g4
g5
NtRp1914
(dp1915
g8
g1913
sg9
VGayle MacDonald
p1916
sg11
S'http://www.metacritic.com/critic?filter=movies'
p1917
sg13
(dp1918
g143
F5
ssg16
VThe Globe and Mail (Toronto)
p1919
sg18
NsbsVChicago Reader/Staff (not credited)
p1920
g3
(g4
g5
NtRp1921
(dp1922
g8
g1920
sg9
VStaff (not credited)
p1923
sg11
S'http://www.metacritic.com/critic?filter=movies'
p1924
sg13
(dp1925
g165
F10
ssg16
VChicago Reader
p1926
sg18
NsbsVThe Globe and Mail (Toronto)/Staff (Not Credited)
p1927
g3
(g4
g5
NtRp1928
(dp1929
g8
g1927
sg9
VStaff (Not Credited)
p1930
sg11
S'http://www.metacritic.com/critic?filter=movies'
p1931
sg13
(dp1932
g543
F8.8000000000000007
ssg16
VThe Globe and Mail (Toronto)
p1933
sg18
NsbsVFilm.com/Ernest Hardy
p1934
g3
(g4
g5
NtRp1935
(dp1936
g8
g1934
sg9
VErnest Hardy
p1937
sg11
S'http://www.metacritic.com/critic/ernest-hardy?filter=movies'
p1938
sg13
(dp1939
g294
F9
ssg16
VFilm.com
p1940
sg18
NsbsVChicago Reader/Ronnie Scheib
p1941
g3
(g4
g5
NtRp1942
(dp1943
g8
g1941
sg9
VRonnie Scheib
p1944
sg11
S'http://www.metacritic.com/critic/ronnie-scheib?filter=movies'
p1945
sg13
(dp1946
g296
F5
ssg16
VChicago Reader
p1947
sg18
NsbsVTime Out New York/Keith Uhlich
p1948
g3
(g4
g5
NtRp1949
(dp1950
g8
g1948
sg9
VKeith Uhlich
p1951
sg11
S'http://www.metacritic.com/critic/keith-uhlich?filter=movies'
p1952
sg13
(dp1953
g161
F8
sg283
F8
sg149
F8
sg133
F8
sg125
F6
sg170
F6
ssg16
VTime Out New York
p1954
sg18
NsbsVVillage Voice/Ed Gonzalez
p1955
g3
(g4
g5
NtRp1956
(dp1957
g8
g1955
sg9
VEd Gonzalez
p1958
sg11
S'http://www.metacritic.com/critic?filter=movies'
p1959
sg13
(dp1960
g43
F5
ssg16
VVillage Voice
p1961
sg18
NsbsVAustin Chronicle/Steve Davis
p1962
g3
(g4
g5
NtRp1963
(dp1964
g8
g1962
sg9
VSteve Davis
p1965
sg11
S'http://www.metacritic.com/critic/steve-davis?filter=movies'
p1966
sg13
(dp1967
g155
F8.9000000000000004
sg15
F10
sg168
F6.7000000000000002
sg222
F8.9000000000000004
ssg16
VAustin Chronicle
p1968
sg18
NsbsVLos Angeles Times/Kenneth Turan
p1969
g3
(g4
g5
NtRp1970
(dp1971
g8
g1969
sg9
VKenneth Turan
p1972
sg11
S'http://www.metacritic.com/critic/kenneth-turan?filter=movies'
p1973
sg13
(dp1974
g237
F10
sg117
F10
sg33
F10
sg97
F10
sg121
F10
sg123
F9
sg73
F10
sg540
F9
sg161
F5
sg60
F3
sg127
F10
sg79
F9
sg129
F10
sg130
F7
sg293
F9
sg119
F10
sg432
F3
sg294
F8
sg133
F5
sg99
F10
sg25
F10
sg424
F9
sg15
F10
sg138
F8
sg542
F9
sg139
F10
sg41
F10
sg42
F9
sg140
F2
sg348
F9
sg141
F10
sg142
F8
sg144
F8
sg145
F10
sg147
F10
sg148
F10
sg149
F8
sg150
F10
sg151
F6
sg221
F6
sg153
F8
sg154
F8
sg155
F10
sg74
F10
sg182
F10
sg77
F10
sg122
F9
sg158
F10
sg172
F9
sg159
F10
sg152
F10
sg296
F4
sg544
F10
sg163
F9
sg165
F10
sg59
F9
sg167
F9
sg98
F10
sg101
F8
sg131
F10
sg76
F10
sg169
F10
sg170
F10
sg171
F10
sg174
F10
sg80
F10
sg285
F10
ssg16
VLos Angeles Times
p1975
sg18
NsbsVLos Angeles Times/John Anderson
p1976
g3
(g4
g5
NtRp1977
(dp1978
g8
g1976
sg9
VJohn Anderson
p1979
sg11
S'http://www.metacritic.com/critic?filter=movies'
p1980
sg13
(dp1981
g160
F8
ssg16
VLos Angeles Times
p1982
sg18
NsbsVThe Globe and Mail (Toronto)/Barry Hertz
p1983
g3
(g4
g5
NtRp1984
(dp1985
g8
g1983
sg9
VBarry Hertz
p1986
sg11
S'http://www.metacritic.com/critic/barry-hertz?filter=movies'
p1987
sg13
(dp1988
g72
F8.8000000000000007
sg326
F6.2999999999999998
sg80
F8.8000000000000007
sg68
F5
sg128
F8.8000000000000007
ssg16
VThe Globe and Mail (Toronto)
p1989
sg18
NsbsVFilm.com/James Rocchi
p1990
g3
(g4
g5
NtRp1991
(dp1992
g8
g1990
sg9
VJames Rocchi
p1993
sg11
S'http://www.metacritic.com/critic/james-rocchi?filter=movies'
p1994
sg13
(dp1995
g75
F6.2999999999999998
ssg16
VFilm.com
p1996
sg18
NsbsVFilm.com/Tom Keogh
p1997
g3
(g4
g5
NtRp1998
(dp1999
g8
g1997
sg9
VTom Keogh
p2000
sg11
S'http://www.metacritic.com/critic/tom-keogh?filter=movies'
p2001
sg13
(dp2002
g432
F4
sg160
F8
ssg16
VFilm.com
p2003
sg18
NsbsVChicago Sun-Times/Patrick Z. McGavin
p2004
g3
(g4
g5
NtRp2005
(dp2006
g8
g2004
sg9
VPatrick Z. McGavin
p2007
sg11
S'http://www.metacritic.com/critic?filter=movies'
p2008
sg13
(dp2009
g532
F7.5
ssg16
VChicago Sun-Times
p2010
sg18
NsbsVPremiere/Nick Starkey
p2011
g3
(g4
g5
NtRp2012
(dp2013
g8
g2011
sg9
VNick Starkey
p2014
sg11
S'http://www.metacritic.com/critic?filter=movies'
p2015
sg13
(dp2016
g170
F10
ssg16
VPremiere
p2017
sg18
NsbsVVillage Voice/Danny King
p2018
g3
(g4
g5
NtRp2019
(dp2020
g8
g2018
sg9
VDanny King
p2021
sg11
S'http://www.metacritic.com/critic/danny-king?filter=movies'
p2022
sg13
(dp2023
g142
F8
ssg16
VVillage Voice
p2024
sg18
NsbsVChicago Reader/Lisa Alspector
p2025
g3
(g4
g5
NtRp2026
(dp2027
g8
g2025
sg9
VLisa Alspector
p2028
sg11
S'http://www.metacritic.com/critic/lisa-alspector?filter=movies'
p2029
sg13
(dp2030
g160
F8
ssg16
VChicago Reader
p2031
sg18
NsbsVChicago Sun-Times/Bruce Ingram
p2032
g3
(g4
g5
NtRp2033
(dp2034
g8
g2032
sg9
VBruce Ingram
p2035
sg11
S'http://www.metacritic.com/critic/bruce-ingram?filter=movies'
p2036
sg13
(dp2037
g148
F10
sg222
F7.5
ssg16
VChicago Sun-Times
p2038
sg18
NsbsVThe Dissolve/Nathan Rabin
p2039
g3
(g4
g5
NtRp2040
(dp2041
g8
g2039
sg9
VNathan Rabin
p2042
sg11
S'http://www.metacritic.com/critic/nathan-rabin?filter=movies'
p2043
sg13
(dp2044
g532
F8
ssg16
VThe Dissolve
p2045
sg18
NsbsVThe Guardian/Andrew Pulver
p2046
g3
(g4
g5
NtRp2047
(dp2048
g8
g2046
sg9
VAndrew Pulver
p2049
sg11
S'http://www.metacritic.com/critic/andrew-pulver?filter=movies'
p2050
sg13
(dp2051
g326
F8
sg148
F8
sg348
F8
ssg16
VThe Guardian
p2052
sg18
NsbsVThe Verge/Chris Plante
p2053
g3
(g4
g5
NtRp2054
(dp2055
g8
g2053
sg9
VChris Plante
p2056
sg11
S'http://www.metacritic.com/critic?filter=movies'
p2057
sg13
(dp2058
g97
F9.5
ssg16
VThe Verge
p2059
sg18
NsbsVThe Hollywood Reporter/Sura Wood
p2060
g3
(g4
g5
NtRp2061
(dp2062
g8
g2060
sg9
VSura Wood
p2063
sg11
S'http://www.metacritic.com/critic?filter=movies'
p2064
sg13
(dp2065
g153
F6
ssg16
VThe Hollywood Reporter
p2066
sg18
NsbsVHitfix/Catherine Bray
p2067
g3
(g4
g5
NtRp2068
(dp2069
g8
g2067
sg9
VCatherine Bray
p2070
sg11
S'http://www.metacritic.com/critic?filter=movies'
p2071
sg13
(dp2072
g75
F9.0999999999999996
ssg16
VHitfix
p2073
sg18
NsbsVTotal Film/Kevin Harley
p2074
g3
(g4
g5
NtRp2075
(dp2076
g8
g2074
sg9
VKevin Harley
p2077
sg11
S'http://www.metacritic.com/critic/kevin-harley?filter=movies'
p2078
sg13
(dp2079
g159
F10
sg166
F8
ssg16
VTotal Film
p2080
sg18
NsbsVThe Guardian/Xan Brooks
p2081
g3
(g4
g5
NtRp2082
(dp2083
g8
g2081
sg9
VXan Brooks
p2084
sg11
S'http://www.metacritic.com/critic/xan-brooks?filter=movies'
p2085
sg13
(dp2086
g69
F8
sg71
F8
sg121
F10
sg150
F8
sg73
F8
sg75
F6
sg78
F10
ssg16
VThe Guardian
p2087
sg18
NsbsVWashington Post/Ann Hornaday
p2088
g3
(g4
g5
NtRp2089
(dp2090
g8
g2088
sg9
VAnn Hornaday
p2091
sg11
S'http://www.metacritic.com/critic/ann-hornaday?filter=movies'
p2092
sg13
(dp2093
g117
F10
sg118
F6.2999999999999998
sg161
F5
sg97
F10
sg71
F10
sg121
F6.2999999999999998
sg123
F10
sg73
F10
sg125
F5
sg127
F10
sg79
F7.5
sg43
F7
sg168
F10
sg119
F10
sg72
F6.2999999999999998
sg220
F10
sg133
F3.7999999999999998
sg99
F10
sg75
F10
sg15
F10
sg138
F10
sg100
F10
sg326
F8.8000000000000007
sg348
F6.2999999999999998
sg281
F7.5
sg141
F10
sg142
F8.8000000000000007
sg143
F2.5
sg132
F9
sg148
F7.5
sg149
F7.5
sg150
F8.8000000000000007
sg163
F10
sg153
F9
sg155
F10
sg74
F10
sg182
F10
sg77
F10
sg158
F8.8000000000000007
sg159
F10
sg162
F7.5
sg96
F8.8000000000000007
sg69
F10
sg283
F7.5
sg166
F6.2999999999999998
sg167
F5
sg98
F10
sg109
F10
sg131
F9
sg76
F10
sg169
F10
sg170
F7.5
sg171
F7
sg172
F10
sg80
F10
sg68
F7.5
sg285
F7.5
ssg16
VWashington Post
p2094
sg18
NsbsVNPR/Mark Jenkins
p2095
g3
(g4
g5
NtRp2096
(dp2097
g8
g2095
sg9
VMark Jenkins
p2098
sg11
S'http://www.metacritic.com/critic/mark-jenkins?filter=movies'
p2099
sg13
(dp2100
g283
F7
ssg16
VNPR
p2101
sg18
NsbsVIndiewire/Adam Cook
p2102
g3
(g4
g5
NtRp2103
(dp2104
g8
g2102
sg9
VAdam Cook
p2105
sg11
S'http://www.metacritic.com/critic?filter=movies'
p2106
sg13
(dp2107
g282
F4.2000000000000002
ssg16
VIndiewire
p2108
sg18
NsbsVTNT RoughCut/Graham Verdon
p2109
g3
(g4
g5
NtRp2110
(dp2111
g8
g2109
sg9
VGraham Verdon
p2112
sg11
S'http://www.metacritic.com/critic?filter=movies'
p2113
sg13
(dp2114
g294
F4
ssg16
VTNT RoughCut
p2115
sg18
NsbsVTime Out New York/Cath Clarke
p2116
g3
(g4
g5
NtRp2117
(dp2118
g8
g2116
sg9
VCath Clarke
p2119
sg11
S'http://www.metacritic.com/critic?filter=movies'
p2120
sg13
(dp2121
g78
F8
ssg16
VTime Out New York
p2122
sg18
NsbsVConsequence of Sound/Dominick Suzanne-Mayer
p2123
g3
(g4
g5
NtRp2124
(dp2125
g8
g2123
sg9
VDominick Suzanne-Mayer
p2126
sg11
S'http://www.metacritic.com/critic/dominick-suzanne-mayer?filter=movies'
p2127
sg13
(dp2128
g142
F5.7999999999999998
sg15
F10
sg168
F4.2000000000000002
sg99
F9.0999999999999996
ssg16
VConsequence of Sound
p2129
sg18
NsbsVNew Times (L.A.)/Gregory Weinkauf
p2130
g3
(g4
g5
NtRp2131
(dp2132
g8
g2130
sg9
VGregory Weinkauf
p2133
sg11
S'http://www.metacritic.com/critic/gregory-weinkauf?filter=movies'
p2134
sg13
(dp2135
g297
F7
sg544
F9
ssg16
VNew Times (L.A.)
p2136
sg18
NsbsVEmpire/Phil de Semlyen
p2137
g3
(g4
g5
NtRp2138
(dp2139
g8
g2137
sg9
VPhil de Semlyen
p2140
sg11
S'http://www.metacritic.com/critic/phil-de-semlyen?filter=movies'
p2141
sg13
(dp2142
g220
F10
sg97
F10
ssg16
VEmpire
p2143
sg18
NsbsVChicago Tribune/Dave Kehr
p2144
g3
(g4
g5
NtRp2145
(dp2146
g8
g2144
sg9
VDave Kehr
p2147
sg11
S'http://www.metacritic.com/critic/dave-kehr?filter=movies'
p2148
sg13
(dp2149
g541
F8.8000000000000007
ssg16
VChicago Tribune
p2150
sg18
NsbsVSlant Magazine/Steve Macfarlane
p2151
g3
(g4
g5
NtRp2152
(dp2153
g8
g2151
sg9
VSteve Macfarlane
p2154
sg11
S'http://www.metacritic.com/critic/steve-macfarlane?filter=movies'
p2155
sg13
(dp2156
g159
F7.5
ssg16
VSlant Magazine
p2157
sg18
NsbsVL.A. Weekly/Kim Morgan
p2158
g3
(g4
g5
NtRp2159
(dp2160
g8
g2158
sg9
VKim Morgan
p2161
sg11
S'http://www.metacritic.com/critic?filter=movies'
p2162
sg13
(dp2163
g147
F9
sg130
F4
ssg16
VL.A. Weekly
p2164
sg18
NsbsVWashington Post/Desson Thomson
p2165
g3
(g4
g5
NtRp2166
(dp2167
g8
g2165
sg9
VDesson Thomson
p2168
sg11
S'http://www.metacritic.com/critic/desson-thomson?filter=movies'
p2169
sg13
(dp2170
g540
F9
sg124
F8
sg60
F4
sg126
F6
sg541
F10
sg130
F8
sg160
F9
sg135
F10
sg137
F10
sg157
F7
sg542
F9
sg154
F9
sg41
F10
sg42
F10
sg140
F8
sg432
F3
sg144
F8
sg147
F10
sg156
F6
sg122
F9
sg296
F10
sg544
F10
sg297
F9
sg51
F8
sg165
F9
sg59
F7
sg167
F9
sg293
F9
sg468
F4
sg173
F10
sg174
F8
ssg16
VWashington Post
p2171
sg18
NsbsVPortland Oregonian/Jeff Baker
p2172
g3
(g4
g5
NtRp2173
(dp2174
g8
g2172
sg9
VJeff Baker
p2175
sg11
S'http://www.metacritic.com/critic/jeff-baker?filter=movies'
p2176
sg13
(dp2177
g69
F8.3000000000000007
sg166
F6.7000000000000002
sg532
F9.0999999999999996
sg128
F9.0999999999999996
sg109
F9.0999999999999996
sg155
F8.3000000000000007
sg159
F10
sg348
F9.0999999999999996
sg80
F10
ssg16
VPortland Oregonian
p2178
sg18
NsbsVSlant Magazine/John Semley
p2179
g3
(g4
g5
NtRp2180
(dp2181
g8
g2179
sg9
VJohn Semley
p2182
sg11
S'http://www.metacritic.com/critic?filter=movies'
p2183
sg13
(dp2184
g117
F7.5
sg118
F6.2999999999999998
ssg16
VSlant Magazine
p2185
sg18
NsbsVVariety/Lisa Nesselson
p2186
g3
(g4
g5
NtRp2187
(dp2188
g8
g2186
sg9
VLisa Nesselson
p2189
sg11
S'http://www.metacritic.com/critic/lisa-nesselson?filter=movies'
p2190
sg13
(dp2191
g295
F9
sg156
F9
sg296
F8
ssg16
VVariety
p2192
sg18
NsbsVCineVue/Craig Williams
p2193
g3
(g4
g5
NtRp2194
(dp2195
g8
g2193
sg9
VCraig Williams
p2196
sg11
S'http://www.metacritic.com/critic?filter=movies'
p2197
sg13
(dp2198
g69
F10
ssg16
VCineVue
p2199
sg18
NsbsVThe Globe and Mail (Toronto)/Rick Groen
p2200
g3
(g4
g5
NtRp2201
(dp2202
g8
g2200
sg9
VRick Groen
p2203
sg11
S'http://www.metacritic.com/critic/rick-groen?filter=movies'
p2204
sg13
(dp2205
g237
F6.2999999999999998
sg161
F5
sg125
F7.5
sg60
F3.7999999999999998
sg127
F10
sg43
F6.2999999999999998
sg129
F8.8000000000000007
sg136
F8.8000000000000007
sg141
F10
sg42
F8.8000000000000007
sg140
F3.7999999999999998
sg138
F7.5
sg149
F7.5
sg147
F7.5
sg132
F7.5
sg151
F7.5
sg152
F10
sg153
F6.2999999999999998
sg295
F8.8000000000000007
sg156
F7.5
sg158
F7.5
sg162
F8.8000000000000007
sg163
F8.8000000000000007
sg283
F7.5
sg59
F8.8000000000000007
sg169
F8.8000000000000007
sg170
F7.5
sg171
F7.5
ssg16
VThe Globe and Mail (Toronto)
p2206
sg18
NsbsVRogerEbert.com/Sheila O'Malley
p2207
g3
(g4
g5
NtRp2208
(dp2209
g8
g2207
sg9
VSheila O'Malley
p2210
sg11
S'http://www.metacritic.com/critic/sheila-omalley?filter=movies'
p2211
sg13
(dp2212
g166
F3.7999999999999998
sg168
F3.7999999999999998
sg326
F7.5
sg159
F8.8000000000000007
sg80
F8.8000000000000007
sg81
F8.8000000000000007
ssg16
VRogerEbert.com
p2213
sg18
NsbsVThe A.V. Club/Nathan Rabin
p2214
g3
(g4
g5
NtRp2215
(dp2216
g8
g2214
sg9
VNathan Rabin
p2217
sg11
S'http://www.metacritic.com/critic/nathan-rabin?filter=movies'
p2218
sg13
(dp2219
g118
F9.0999999999999996
sg144
F10
sg143
F7.5
sg136
F8
sg124
F7
sg138
F8.3000000000000007
sg172
F10
sg130
F5
sg162
F10
sg174
F9
ssg16
VThe A.V. Club
p2220
sg18
NsbsVThe A.V. Club/Mike D'Angelo
p2221
g3
(g4
g5
NtRp2222
(dp2223
g8
g2221
sg9
VMike D'Angelo
p2224
sg11
S'http://www.metacritic.com/critic/mike-dangelo?filter=movies'
p2225
sg13
(dp2226
g96
F8.3000000000000007
sg282
F5
sg71
F7.5
sg281
F6.7000000000000002
sg220
F8.3000000000000007
sg532
F7.5
sg101
F8.3000000000000007
sg159
F9.0999999999999996
sg221
F5
sg128
F10
sg68
F9.0999999999999996
ssg16
VThe A.V. Club
p2227
sg18
NsbsVFilm Threat/Staff (Not credited)
p2228
g3
(g4
g5
NtRp2229
(dp2230
g8
g2228
sg9
VStaff (Not credited)
p2231
sg11
S'http://www.metacritic.com/critic?filter=movies'
p2232
sg13
(dp2233
g237
F6
ssg16
VFilm Threat
p2234
sg18
NsbsVSeattle Post-Intelligencer/William Arnold
p2235
g3
(g4
g5
NtRp2236
(dp2237
g8
g2235
sg9
VWilliam Arnold
p2238
sg11
S'http://www.metacritic.com/critic/william-arnold?filter=movies'
p2239
sg13
(dp2240
g126
F2.5
sg130
F10
sg160
F10
sg294
F8.3000000000000007
sg135
F10
sg136
F8.3000000000000007
sg41
F10
sg138
F5
sg140
F5.7999999999999998
sg141
F6.7000000000000002
sg432
F4.2000000000000002
sg144
F7.5
sg147
F8.3000000000000007
sg132
F7.5
sg151
F9.0999999999999996
sg153
F10
sg156
F7.5
sg296
F10
sg544
F9.0999999999999996
sg164
F5.7999999999999998
sg167
F9.0999999999999996
sg293
F10
sg171
F9.0999999999999996
sg468
F4.2000000000000002
sg172
F10
sg173
F6.7000000000000002
ssg16
VSeattle Post-Intelligencer
p2241
sg18
NsbsVCineVue/Joe Walsh
p2242
g3
(g4
g5
NtRp2243
(dp2244
g8
g2242
sg9
VJoe Walsh
p2245
sg11
S'http://www.metacritic.com/critic/joe-walsh?filter=movies'
p2246
sg13
(dp2247
g74
F8
sg15
F10
ssg16
VCineVue
p2248
sg18
NsbsVVillage Voice/J. Hoberman
p2249
g3
(g4
g5
NtRp2250
(dp2251
g8
g2249
sg9
VJ. Hoberman
p2252
sg11
S'http://www.metacritic.com/critic/j-hoberman?filter=movies'
p2253
sg13
(dp2254
g237
F7
sg280
F8
sg123
F10
sg540
F9
sg161
F9
sg129
F8
sg293
F4
sg294
F8
sg135
F7
sg136
F7
sg41
F8
sg141
F9
sg42
F7
sg138
F9
sg144
F4
sg147
F9
sg132
F9
sg151
F8
sg296
F7
sg544
F8
sg297
F4
sg131
F10
sg169
F7
sg170
F7
sg171
F7
sg172
F10
sg173
F7
sg174
F9
ssg16
VVillage Voice
p2255
sg18
NsbsVScreen International/David D'Arcy
p2256
g3
(g4
g5
NtRp2257
(dp2258
g8
g2256
sg9
VDavid D'Arcy
p2259
sg11
S'http://www.metacritic.com/critic/david-darcy?filter=movies'
p2260
sg13
(dp2261
g25
F7
ssg16
VScreen International
p2262
sg18
NsbsVThe Film Stage/Rory O'Connor
p2263
g3
(g4
g5
NtRp2264
(dp2265
g8
g2263
sg9
VRory O'Connor
p2266
sg11
S'http://www.metacritic.com/critic/rory-oconnor?filter=movies'
p2267
sg13
(dp2268
g70
F10
ssg16
VThe Film Stage
p2269
sg18
NsbsVFilm Threat/Zach Haddad
p2270
g3
(g4
g5
NtRp2271
(dp2272
g8
g2270
sg9
VZach Haddad
p2273
sg11
S'http://www.metacritic.com/critic?filter=movies'
p2274
sg13
(dp2275
g120
F6
ssg16
VFilm Threat
p2276
sg18
NsbsVConsequence of Sound/Collin Brennan
p2277
g3
(g4
g5
NtRp2278
(dp2279
g8
g2277
sg9
VCollin Brennan
p2280
sg11
S'http://www.metacritic.com/critic/collin-brennan?filter=movies'
p2281
sg13
(dp2282
g326
F5
ssg16
VConsequence of Sound
p2283
sg18
NsbsVThe Globe and Mail (Toronto)/Geoff Pevere
p2284
g3
(g4
g5
NtRp2285
(dp2286
g8
g2284
sg9
VGeoff Pevere
p2287
sg11
S'http://www.metacritic.com/critic?filter=movies'
p2288
sg13
(dp2289
g348
F7.5
ssg16
VThe Globe and Mail (Toronto)
p2290
sg18
NsbsVBoxoffice Magazine/Pete Hammond
p2291
g3
(g4
g5
NtRp2292
(dp2293
g8
g2291
sg9
VPete Hammond
p2294
sg11
S'http://www.metacritic.com/critic/pete-hammond?filter=movies'
p2295
sg13
(dp2296
g125
F9
sg158
F10
sg163
F8
sg149
F9
sg169
F10
ssg16
VBoxoffice Magazine
p2297
sg18
NsbsVThe Hollywood Reporter/John DeFore
p2298
g3
(g4
g5
NtRp2299
(dp2300
g8
g2298
sg9
VJohn DeFore
p2301
sg11
S'http://www.metacritic.com/critic/john-defore?filter=movies'
p2302
sg13
(dp2303
g166
F10
sg532
F8
sg172
F10
ssg16
VThe Hollywood Reporter
p2304
sg18
NsbsVEntertainment Weekly/Joe McGovern
p2305
g3
(g4
g5
NtRp2306
(dp2307
g8
g2305
sg9
VJoe McGovern
p2308
sg11
S'http://www.metacritic.com/critic/joe-mcgovern?filter=movies'
p2309
sg13
(dp2310
g96
F10
sg220
F8.3000000000000007
sg33
F9.0999999999999996
sg101
F9.0999999999999996
ssg16
VEntertainment Weekly
p2311
sg18
NsbsVScreenCrush/Jordan Hoffman
p2312
g3
(g4
g5
NtRp2313
(dp2314
g8
g2312
sg9
VJordan Hoffman
p2315
sg11
S'http://www.metacritic.com/critic?filter=movies'
p2316
sg13
(dp2317
g15
F10
ssg16
VScreenCrush
p2318
sg18
NsbsVThe Hollywood Reporter/Todd McCarthy
p2319
g3
(g4
g5
NtRp2320
(dp2321
g8
g2319
sg9
VTodd McCarthy
p2322
sg11
S'http://www.metacritic.com/critic/todd-mccarthy?filter=movies'
p2323
sg13
(dp2324
g117
F10
sg118
F8
sg97
F9
sg121
F10
sg73
F10
sg128
F10
sg119
F9
sg72
F5
sg133
F6
sg25
F6
sg75
F10
sg15
F9
sg100
F7
sg142
F9
sg148
F9
sg149
F9
sg150
F10
sg155
F10
sg74
F9
sg77
F10
sg159
F9
sg163
F8
sg69
F7
sg101
F8
sg76
F8
sg80
F6
sg285
F10
ssg16
VThe Hollywood Reporter
p2325
sg18
NsbsVWall Street Journal/John Anderson
p2326
g3
(g4
g5
NtRp2327
(dp2328
g8
g2326
sg9
VJohn Anderson
p2329
sg11
S'http://www.metacritic.com/critic/john-anderson?filter=movies'
p2330
sg13
(dp2331
g158
F5
sg101
F8
ssg16
VWall Street Journal
p2332
sg18
NsbsVFilm Threat/Stina Chyn
p2333
g3
(g4
g5
NtRp2334
(dp2335
g8
g2333
sg9
VStina Chyn
p2336
sg11
S'http://www.metacritic.com/critic/stina-chyn?filter=movies'
p2337
sg13
(dp2338
g43
F8
sg174
F8
ssg16
VFilm Threat
p2339
sg18
NsbsVThe A.V. Club/Keith Uhlich
p2340
g3
(g4
g5
NtRp2341
(dp2342
g8
g2340
sg9
VKeith Uhlich
p2343
sg11
S'http://www.metacritic.com/critic?filter=movies'
p2344
sg13
(dp2345
g348
F7.5
sg573
F9.0999999999999996
ssg16
VThe A.V. Club
p2346
sg18
NsbsVVariety/Owen Gleiberman
p2347
g3
(g4
g5
NtRp2348
(dp2349
g8
g2347
sg9
VOwen Gleiberman
p2350
sg11
S'http://www.metacritic.com/critic/owen-gleiberman?filter=movies'
p2351
sg13
(dp2352
g96
F10
sg72
F9
sg100
F6
ssg16
VVariety
p2353
sg18
NsbsVLos Angeles Times/Mark Olsen
p2354
g3
(g4
g5
NtRp2355
(dp2356
g8
g2354
sg9
VMark Olsen
p2357
sg11
S'http://www.metacritic.com/critic/mark-olsen?filter=movies'
p2358
sg13
(dp2359
g128
F9
ssg16
VLos Angeles Times
p2360
sg18
NsbsVEmpire/Simon Braund
p2361
g3
(g4
g5
NtRp2362
(dp2363
g8
g2361
sg9
VSimon Braund
p2364
sg11
S'http://www.metacritic.com/critic?filter=movies'
p2365
sg13
(dp2366
g140
F4
sg157
F8
ssg16
VEmpire
p2367
sg18
NsbsVSan Francisco Chronicle/Michael Ordoa
p2368
g3
(g4
g5
NtRp2369
(dp2370
g8
g2368
sg9
VMichael Ordoa
p2371
sg11
S'http://www.metacritic.com/critic?filter=movies'
p2372
sg13
(dp2373
g326
F7.5
ssg16
VSan Francisco Chronicle
p2374
sg18
NsbsVThe Playlist/Russ Fischer
p2375
g3
(g4
g5
NtRp2376
(dp2377
g8
g2375
sg9
VRuss Fischer
p2378
sg11
S'http://www.metacritic.com/critic/russ-fischer?filter=movies'
p2379
sg13
(dp2380
g72
F9.0999999999999996
sg168
F5
ssg16
VThe Playlist
p2381
sg18
NsbsVTheWrap/Alonso Duralde
p2382
g3
(g4
g5
NtRp2383
(dp2384
g8
g2382
sg9
VAlonso Duralde
p2385
sg11
S'http://www.metacritic.com/critic/alonso-duralde?filter=movies'
p2386
sg13
(dp2387
g281
F6.5999999999999996
sg72
F7.2000000000000002
sg532
F9
sg128
F8.5
sg109
F8
sg75
F9
sg155
F8.5
sg74
F8.9000000000000004
sg182
F8.5
sg168
F9
sg159
F9.5
sg80
F9.5
sg222
F9.1999999999999993
ssg16
VTheWrap
p2388
sg18
NsbsVNewsweek/Jack Kroll
p2389
g3
(g4
g5
NtRp2390
(dp2391
g8
g2389
sg9
VJack Kroll
p2392
sg11
S'http://www.metacritic.com/critic?filter=movies'
p2393
sg13
(dp2394
g541
F10
sg144
F8
ssg16
VNewsweek
p2395
sg18
NsbsVPremiere/Staff (Not credited)
p2396
g3
(g4
g5
NtRp2397
(dp2398
g8
g2396
sg9
VStaff (Not credited)
p2399
sg11
S'http://www.metacritic.com/critic?filter=movies'
p2400
sg13
(dp2401
g158
F8.8000000000000007
sg98
F8.8000000000000007
ssg16
VPremiere
p2402
sg18
NsbsVVillage Voice/April Wolfe
p2403
g3
(g4
g5
NtRp2404
(dp2405
g8
g2403
sg9
VApril Wolfe
p2406
sg11
S'http://www.metacritic.com/critic/april-wolfe?filter=movies'
p2407
sg13
(dp2408
g97
F10
ssg16
VVillage Voice
p2409
sg18
NsbsVThe Hollywood Reporter/Deborah Young
p2410
g3
(g4
g5
NtRp2411
(dp2412
g8
g2410
sg9
VDeborah Young
p2413
sg11
S'http://www.metacritic.com/critic?filter=movies'
p2414
sg13
(dp2415
g96
F8
sg282
F5
sg280
F7
sg71
F8
sg70
F9
sg78
F8
sg127
F10
sg79
F9
sg129
F9
ssg16
VThe Hollywood Reporter
p2416
sg18
NsbsVTime/Stephanie Zacharek
p2417
g3
(g4
g5
NtRp2418
(dp2419
g8
g2417
sg9
VStephanie Zacharek
p2420
sg11
S'http://www.metacritic.com/critic/stephanie-zacharek?filter=movies'
p2421
sg13
(dp2422
g97
F9
sg72
F7
sg99
F10
sg182
F9
sg81
F8
sg100
F10
sg168
F7
sg68
F6
ssg16
VTime
p2423
sg18
NsbsVSan Francisco Chronicle/Edward Guthmann
p2424
g3
(g4
g5
NtRp2425
(dp2426
g8
g2424
sg9
VEdward Guthmann
p2427
sg11
S'http://www.metacritic.com/critic/edward-guthmann?filter=movies'
p2428
sg13
(dp2429
g540
F7.5
sg293
F10
sg174
F10
ssg16
VSan Francisco Chronicle
p2430
sg18
NsbsVWashington Post/Mark Jenkins
p2431
g3
(g4
g5
NtRp2432
(dp2433
g8
g2431
sg9
VMark Jenkins
p2434
sg11
S'http://www.metacritic.com/critic?filter=movies'
p2435
sg13
(dp2436
g237
F9
ssg16
VWashington Post
p2437
sg18
NsbsVThe Playlist/Drew Taylor
p2438
g3
(g4
g5
NtRp2439
(dp2440
g8
g2438
sg9
VDrew Taylor
p2441
sg11
S'http://www.metacritic.com/critic/drew-taylor?filter=movies'
p2442
sg13
(dp2443
g163
F5
sg532
F7.5
ssg16
VThe Playlist
p2444
sg18
NsbsVChicago Reader/Dave Kehr
p2445
g3
(g4
g5
NtRp2446
(dp2447
g8
g2445
sg9
VDave Kehr
p2448
sg11
S'http://www.metacritic.com/critic/dave-kehr?filter=movies'
p2449
sg13
(dp2450
g146
F2
sg211
F10
ssg16
VChicago Reader
p2451
sg18
NsbsVSlant Magazine/Chris Cabin
p2452
g3
(g4
g5
NtRp2453
(dp2454
g8
g2452
sg9
VChris Cabin
p2455
sg11
S'http://www.metacritic.com/critic/chris-cabin?filter=movies'
p2456
sg13
(dp2457
g281
F6.2999999999999998
sg69
F10
sg77
F8.8000000000000007
sg285
F7.5
ssg16
VSlant Magazine
p2458
sg18
NsbsVThe Globe and Mail (Toronto)/Ray Conlogue
p2459
g3
(g4
g5
NtRp2460
(dp2461
g8
g2459
sg9
VRay Conlogue
p2462
sg11
S'http://www.metacritic.com/critic/ray-conlogue?filter=movies'
p2463
sg13
(dp2464
g124
F7.5
ssg16
VThe Globe and Mail (Toronto)
p2465
sg18
NsbsVRogerEbert.com/Glenn Kenny
p2466
g3
(g4
g5
NtRp2467
(dp2468
g8
g2466
sg9
VGlenn Kenny
p2469
sg11
S'http://www.metacritic.com/critic?filter=movies'
p2470
sg13
(dp2471
g33
F10
sg119
F8.8000000000000007
sg71
F10
sg148
F10
sg155
F10
sg77
F10
sg100
F10
sg281
F2.5
ssg16
VRogerEbert.com
p2472
sg18
NsbsVChicago Tribune/Tasha Robinson
p2473
g3
(g4
g5
NtRp2474
(dp2475
g8
g2473
sg9
VTasha Robinson
p2476
sg11
S'http://www.metacritic.com/critic?filter=movies'
p2477
sg13
(dp2478
g295
F8.8000000000000007
ssg16
VChicago Tribune
p2479
sg18
NsbsVThe Playlist/Rodrigo Perez
p2480
g3
(g4
g5
NtRp2481
(dp2482
g8
g2480
sg9
VRodrigo Perez
p2483
sg11
S'http://www.metacritic.com/critic/rodrigo-perez?filter=movies'
p2484
sg13
(dp2485
g117
F8.3000000000000007
sg118
F4.2000000000000002
sg69
F8.3000000000000007
sg119
F9.0999999999999996
sg166
F9.0999999999999996
sg133
F8.3000000000000007
sg155
F10
sg79
F8.3000000000000007
sg348
F9.0999999999999996
sg109
F8.3000000000000007
sg68
F8.3000000000000007
ssg16
VThe Playlist
p2486
sg18
NsbsVTNT RoughCut/Christopher Brandon
p2487
g3
(g4
g5
NtRp2488
(dp2489
g8
g2487
sg9
VChristopher Brandon
p2490
sg11
S'http://www.metacritic.com/critic/christopher-brandon?filter=movies'
p2491
sg13
(dp2492
g293
F10
sg144
F7
ssg16
VTNT RoughCut
p2493
sg18
NsbsVSan Francisco Examiner/G. Allen Johnson
p2494
g3
(g4
g5
NtRp2495
(dp2496
g8
g2494
sg9
VG. Allen Johnson
p2497
sg11
S'http://www.metacritic.com/critic/g-allen-johnson?filter=movies'
p2498
sg13
(dp2499
g154
F8.8000000000000007
sg60
F0
ssg16
VSan Francisco Examiner
p2500
sg18
NsbsVThe Seattle Times/Michael Upchurch
p2501
g3
(g4
g5
NtRp2502
(dp2503
g8
g2501
sg9
VMichael Upchurch
p2504
sg11
S'http://www.metacritic.com/critic?filter=movies'
p2505
sg13
(dp2506
g101
F7.5
ssg16
VThe Seattle Times
p2507
sg18
NsbsVVillage Voice/Stephanie Zacharek
p2508
g3
(g4
g5
NtRp2509
(dp2510
g8
g2508
sg9
VStephanie Zacharek
p2511
sg11
S'http://www.metacritic.com/critic/stephanie-zacharek?filter=movies'
p2512
sg13
(dp2513
g69
F9
sg119
F4
sg281
F9
sg220
F9
sg73
F10
sg532
F8
sg80
F10
sg75
F7
sg15
F8
sg77
F10
sg159
F8
sg348
F9
sg166
F7
sg222
F9
ssg16
VVillage Voice
p2514
sg18
NsbsVThe Globe and Mail (Toronto)/Nathalie Atkinson 
p2515
g3
(g4
g5
NtRp2516
(dp2517
g8
g2515
sg9
VNathalie Atkinson 
p2518
sg11
S'http://www.metacritic.com/critic?filter=movies'
p2519
sg13
(dp2520
g532
F7.5
ssg16
VThe Globe and Mail (Toronto)
p2521
sg18
NsbsVPremiere/Eric Kohn
p2522
g3
(g4
g5
NtRp2523
(dp2524
g8
g2522
sg9
VEric Kohn
p2525
sg11
S'http://www.metacritic.com/critic?filter=movies'
p2526
sg13
(dp2527
g145
F7.5
ssg16
VPremiere
p2528
sg18
NsbsVEmpire/Staff (Not credited)
p2529
g3
(g4
g5
NtRp2530
(dp2531
g8
g2529
sg9
VStaff (Not credited)
p2532
sg11
S'http://www.metacritic.com/critic?filter=movies'
p2533
sg13
(dp2534
g171
F10
sg182
F8
ssg16
VEmpire
p2535
sg18
NsbsVLos Angeles Times/Michael Ordona
p2536
g3
(g4
g5
NtRp2537
(dp2538
g8
g2536
sg9
VMichael Ordona
p2539
sg11
S'http://www.metacritic.com/critic?filter=movies'
p2540
sg13
(dp2541
g120
F5
ssg16
VLos Angeles Times
p2542
sg18
NsbsVTotal Film/Matt Glasby
p2543
g3
(g4
g5
NtRp2544
(dp2545
g8
g2543
sg9
VMatt Glasby
p2546
sg11
S'http://www.metacritic.com/critic/matt-glasby?filter=movies'
p2547
sg13
(dp2548
g118
F8
sg281
F8
sg128
F10
ssg16
VTotal Film
p2549
sg18
NsbsVThe A.V. Club/Scott Tobias
p2550
g3
(g4
g5
NtRp2551
(dp2552
g8
g2550
sg9
VScott Tobias
p2553
sg11
S'http://www.metacritic.com/critic/scott-tobias?filter=movies'
p2554
sg13
(dp2555
g237
F8
sg117
F10
sg131
F10
sg283
F9.0999999999999996
sg147
F9
sg121
F10
sg132
F9
sg150
F9.0999999999999996
sg151
F7.5
sg280
F9.0999999999999996
sg153
F9.0999999999999996
sg158
F9.0999999999999996
sg125
F7.5
sg170
F5
sg126
F5
sg127
F10
sg173
F7
sg129
F10
sg156
F6
ssg16
VThe A.V. Club
p2556
sg18
NsbsVFilm Threat/Zack Haddad
p2557
g3
(g4
g5
NtRp2558
(dp2559
g8
g2557
sg9
VZack Haddad
p2560
sg11
S'http://www.metacritic.com/critic?filter=movies'
p2561
sg13
(dp2562
g172
F10
ssg16
VFilm Threat
p2563
sg18
NsbsVChicago Sun-Times/Mary Houlihan
p2564
g3
(g4
g5
NtRp2565
(dp2566
g8
g2564
sg9
VMary Houlihan
p2567
sg11
S'http://www.metacritic.com/critic/mary-houlihan?filter=movies'
p2568
sg13
(dp2569
g33
F7.5
ssg16
VChicago Sun-Times
p2570
sg18
NsbsVSlant Magazine/Eric Henderson
p2571
g3
(g4
g5
NtRp2572
(dp2573
g8
g2571
sg9
VEric Henderson
p2574
sg11
S'http://www.metacritic.com/critic/eric-henderson?filter=movies'
p2575
sg13
(dp2576
g142
F6.2999999999999998
sg73
F8.8000000000000007
ssg16
VSlant Magazine
p2577
sg18
NsbsVMTV News/Amy Nicholson
p2578
g3
(g4
g5
NtRp2579
(dp2580
g8
g2578
sg9
VAmy Nicholson
p2581
sg11
S'http://www.metacritic.com/critic/amy-nicholson?filter=movies'
p2582
sg13
(dp2583
g142
F5
sg97
F6.7000000000000002
sg168
F6.7000000000000002
ssg16
VMTV News
p2584
sg18
NsbsVVariety/Editor
p2585
g3
(g4
g5
NtRp2586
(dp2587
g8
g2585
sg9
VEditor
p2588
sg11
S'http://www.metacritic.com/critic?filter=movies'
p2589
sg13
(dp2590
g432
F2
ssg16
VVariety
p2591
sg18
NsbsVTotal Film/Kate Stables
p2592
g3
(g4
g5
NtRp2593
(dp2594
g8
g2592
sg9
VKate Stables
p2595
sg11
S'http://www.metacritic.com/critic?filter=movies'
p2596
sg13
(dp2597
g163
F8
ssg16
VTotal Film
p2598
sg18
NsbsVThe New York Times/Ken Jaworowski
p2599
g3
(g4
g5
NtRp2600
(dp2601
g8
g2599
sg9
VKen Jaworowski
p2602
sg11
S'http://www.metacritic.com/critic/ken-jaworowski?filter=movies'
p2603
sg13
(dp2604
g212
F7
ssg16
VThe New York Times
p2605
sg18
NsbsVTV Guide Magazine/Cammila Albertson
p2606
g3
(g4
g5
NtRp2607
(dp2608
g8
g2606
sg9
VCammila Albertson
p2609
sg11
S'http://www.metacritic.com/critic?filter=movies'
p2610
sg13
(dp2611
g157
F8.8000000000000007
ssg16
VTV Guide Magazine
p2612
sg18
NsbsVSlant Magazine/Christopher Gray
p2613
g3
(g4
g5
NtRp2614
(dp2615
g8
g2613
sg9
VChristopher Gray
p2616
sg11
S'http://www.metacritic.com/critic?filter=movies'
p2617
sg13
(dp2618
g166
F3.7999999999999998
sg74
F7.5
sg97
F8.8000000000000007
ssg16
VSlant Magazine
p2619
sg18
NsbsVFilm.com/Keith Simanton
p2620
g3
(g4
g5
NtRp2621
(dp2622
g8
g2620
sg9
VKeith Simanton
p2623
sg11
S'http://www.metacritic.com/critic?filter=movies'
p2624
sg13
(dp2625
g154
F7
ssg16
VFilm.com
p2626
sg18
NsbsVDallas Observer/Bill Gallo
p2627
g3
(g4
g5
NtRp2628
(dp2629
g8
g2627
sg9
VBill Gallo
p2630
sg11
S'http://www.metacritic.com/critic/bill-gallo?filter=movies'
p2631
sg13
(dp2632
g126
F7
sg171
F9
sg293
F10
sg160
F5
ssg16
VDallas Observer
p2633
sg18
NsbsVL.A. Weekly/Paul Malcolm
p2634
g3
(g4
g5
NtRp2635
(dp2636
g8
g2634
sg9
VPaul Malcolm
p2637
sg11
S'http://www.metacritic.com/critic/paul-malcolm?filter=movies'
p2638
sg13
(dp2639
g140
F3
ssg16
VL.A. Weekly
p2640
sg18
NsbsVThe A.V. Club/Ignatiy Vishnevetsky
p2641
g3
(g4
g5
NtRp2642
(dp2643
g8
g2641
sg9
VIgnatiy Vishnevetsky
p2644
sg11
S'http://www.metacritic.com/critic/ignatiy-vishnevetsky?filter=movies'
p2645
sg13
(dp2646
g142
F9.0999999999999996
sg166
F5.7999999999999998
sg72
F7.5
sg326
F5
ssg16
VThe A.V. Club
p2647
sg18
NsbsVRogerEbert.com/Simon Abrams
p2648
g3
(g4
g5
NtRp2649
(dp2650
g8
g2648
sg9
VSimon Abrams
p2651
sg11
S'http://www.metacritic.com/critic/simon-abrams?filter=movies'
p2652
sg13
(dp2653
g532
F8.8000000000000007
sg78
F7.5
ssg16
VRogerEbert.com
p2654
sg18
NsbsVWe Got This Covered/Sam Woolf
p2655
g3
(g4
g5
NtRp2656
(dp2657
g8
g2655
sg9
VSam Woolf
p2658
sg11
S'http://www.metacritic.com/critic?filter=movies'
p2659
sg13
(dp2660
g128
F8
ssg16
VWe Got This Covered
p2661
sg18
NsbsVIndiewire/Sterlin Johnson
p2662
g3
(g4
g5
NtRp2663
(dp2664
g8
g2662
sg9
VSterlin Johnson
p2665
sg11
S'http://www.metacritic.com/critic?filter=movies'
p2666
sg13
(dp2667
g155
F6.7000000000000002
ssg16
VIndiewire
p2668
sg18
NsbsVNew Times (L.A.)/Bill Gallo
p2669
g3
(g4
g5
NtRp2670
(dp2671
g8
g2669
sg9
VBill Gallo
p2672
sg11
S'http://www.metacritic.com/critic/bill-gallo?filter=movies'
p2673
sg13
(dp2674
g296
F6
ssg16
VNew Times (L.A.)
p2675
sg18
NsbsVSalon.com/Charles Taylor
p2676
g3
(g4
g5
NtRp2677
(dp2678
g8
g2676
sg9
VCharles Taylor
p2679
sg11
S'http://www.metacritic.com/critic/charles-taylor?filter=movies'
p2680
sg13
(dp2681
g432
F4
sg144
F2
sg147
F6
sg294
F6
sg296
F4
sg160
F3
sg156
F9
sg126
F1
sg135
F9
sg173
F10
sg130
F10
ssg16
VSalon.com
p2682
sg18
NsbsVChicago Tribune/Katie Walsh
p2683
g3
(g4
g5
NtRp2684
(dp2685
g8
g2683
sg9
VKatie Walsh
p2686
sg11
S'http://www.metacritic.com/critic/katie-walsh?filter=movies'
p2687
sg13
(dp2688
g142
F8.8000000000000007
ssg16
VChicago Tribune
p2689
sg18
NsbsVScreen International/Tim Grierson
p2690
g3
(g4
g5
NtRp2691
(dp2692
g8
g2690
sg9
VTim Grierson
p2693
sg11
S'http://www.metacritic.com/critic/tim-grierson?filter=movies'
p2694
sg13
(dp2695
g142
F7
sg166
F7
sg15
F8
sg100
F10
sg159
F9
sg80
F7
ssg16
VScreen International
p2696
sg18
NsbsVThe Guardian/Paul MacInnes
p2697
g3
(g4
g5
NtRp2698
(dp2699
g8
g2697
sg9
VPaul MacInnes
p2700
sg11
S'http://www.metacritic.com/critic?filter=movies'
p2701
sg13
(dp2702
g15
F10
ssg16
VThe Guardian
p2703
sg18
NsbsVDallas Observer/Hal Hinson
p2704
g3
(g4
g5
NtRp2705
(dp2706
g8
g2704
sg9
VHal Hinson
p2707
sg11
S'http://www.metacritic.com/critic?filter=movies'
p2708
sg13
(dp2709
g144
F5
ssg16
VDallas Observer
p2710
sg18
NsbsVTime Out New York/Geoff Andrew
p2711
g3
(g4
g5
NtRp2712
(dp2713
g8
g2711
sg9
VGeoff Andrew
p2714
sg11
S'http://www.metacritic.com/critic?filter=movies'
p2715
sg13
(dp2716
g222
F8
ssg16
VTime Out New York
p2717
sg18
NsbsVThe Dissolve/Keith Phipps
p2718
g3
(g4
g5
NtRp2719
(dp2720
g8
g2718
sg9
VKeith Phipps
p2721
sg11
S'http://www.metacritic.com/critic/keith-phipps?filter=movies'
p2722
sg13
(dp2723
g69
F9
sg77
F9
sg73
F9
ssg16
VThe Dissolve
p2724
sg18
NsbsVIndiewire/David Ehrlich
p2725
g3
(g4
g5
NtRp2726
(dp2727
g8
g2725
sg9
VDavid Ehrlich
p2728
sg11
S'http://www.metacritic.com/critic/david-ehrlich?filter=movies'
p2729
sg13
(dp2730
g326
F7.5
ssg16
VIndiewire
p2731
sg18
NsbsVTV Guide Magazine/Ken Fox
p2732
g3
(g4
g5
NtRp2733
(dp2734
g8
g2732
sg9
VKen Fox
p2735
sg11
S'http://www.metacritic.com/critic/ken-fox?filter=movies'
p2736
sg13
(dp2737
g136
F10
sg131
F10
sg165
F8.8000000000000007
sg122
F7
sg132
F8
sg540
F8
sg171
F8.8000000000000007
sg156
F7
sg139
F10
sg153
F8.8000000000000007
sg295
F8.8000000000000007
sg42
F10
sg173
F8
sg174
F6
ssg16
VTV Guide Magazine
p2738
sg18
NsbsVNew York Post/Rod Dreher
p2739
g3
(g4
g5
NtRp2740
(dp2741
g8
g2739
sg9
VRod Dreher
p2742
sg11
S'http://www.metacritic.com/critic?filter=movies'
p2743
sg13
(dp2744
g293
F10
sg160
F8.8000000000000007
sg144
F6.2999999999999998
ssg16
VNew York Post
p2745
sg18
NsbsVThe Film Stage/Dan Mecca
p2746
g3
(g4
g5
NtRp2747
(dp2748
g8
g2746
sg9
VDan Mecca
p2749
sg11
S'http://www.metacritic.com/critic?filter=movies'
p2750
sg13
(dp2751
g168
F8.3000000000000007
ssg16
VThe Film Stage
p2752
sg18
NsbsVThe Film Stage/Jordan Raup
p2753
g3
(g4
g5
NtRp2754
(dp2755
g8
g2753
sg9
VJordan Raup
p2756
sg11
S'http://www.metacritic.com/critic/jordan-raup?filter=movies'
p2757
sg13
(dp2758
g97
F9.0999999999999996
ssg16
VThe Film Stage
p2759
sg18
NsbsVTime Out New York/David Ehrlich
p2760
g3
(g4
g5
NtRp2761
(dp2762
g8
g2760
sg9
VDavid Ehrlich
p2763
sg11
S'http://www.metacritic.com/critic/david-ehrlich?filter=movies'
p2764
sg13
(dp2765
g166
F8
sg348
F6
sg532
F6
ssg16
VTime Out New York
p2766
sg18
NsbsVNew Orleans Times-Picayune/Mike Scott
p2767
g3
(g4
g5
NtRp2768
(dp2769
g8
g2767
sg9
VMike Scott
p2770
sg11
S'http://www.metacritic.com/critic/mike-scott?filter=movies'
p2771
sg13
(dp2772
g117
F10
sg118
F8
sg97
F10
sg121
F6
sg73
F10
sg125
F7.5
sg127
F8
sg129
F8
sg119
F6
sg133
F6
sg75
F10
sg157
F7.5
sg15
F10
sg148
F10
sg149
F8.8000000000000007
sg150
F6
sg155
F8
sg74
F10
sg77
F8
sg158
F8.8000000000000007
sg162
F10
sg163
F10
sg69
F4
sg98
F10
sg109
F4
sg169
F10
sg68
F8
sg80
F10
sg81
F8
sg285
F8
ssg16
VNew Orleans Times-Picayune
p2773
sg18
NsbsVFilm Threat/Ellen Marshall
p2774
g3
(g4
g5
NtRp2775
(dp2776
g8
g2774
sg9
VEllen Marshall
p2777
sg11
S'http://www.metacritic.com/critic?filter=movies'
p2778
sg13
(dp2779
g136
F10
ssg16
VFilm Threat
p2780
sg18
NsbsVPhiladelphia Inquirer/Tirdad Derakhshani
p2781
g3
(g4
g5
NtRp2782
(dp2783
g8
g2781
sg9
VTirdad Derakhshani
p2784
sg11
S'http://www.metacritic.com/critic/tirdad-derakhshani?filter=movies'
p2785
sg13
(dp2786
g79
F8.8000000000000007
sg424
F8.8000000000000007
sg348
F10
sg97
F8.8000000000000007
sg100
F10
ssg16
VPhiladelphia Inquirer
p2787
sg18
NsbsVSalon.com/Stephanie Zacharek
p2788
g3
(g4
g5
NtRp2789
(dp2790
g8
g2788
sg9
VStephanie Zacharek
p2791
sg11
S'http://www.metacritic.com/critic/stephanie-zacharek?filter=movies'
p2792
sg13
(dp2793
g123
F9
sg540
F9
sg124
F1
sg136
F6
sg157
F9
sg138
F9
sg542
F9
sg139
F7
sg42
F8
sg140
F4
sg141
F8
sg161
F6
sg145
F5
sg132
F7
sg151
F9
sg153
F6
sg544
F10
sg297
F9
sg164
F4
sg165
F10
sg167
F4
sg98
F5
sg170
F5
sg171
F5
sg172
F5
sg174
F10
ssg16
VSalon.com
p2794
sg18
NsbsVArizona Republic/Randy Cordova
p2795
g3
(g4
g5
NtRp2796
(dp2797
g8
g2795
sg9
VRandy Cordova
p2798
sg11
S'http://www.metacritic.com/critic?filter=movies'
p2799
sg13
(dp2800
g143
F5
ssg16
VArizona Republic
p2801
sg18
NsbsVFilm.com/Sean Means
p2802
g3
(g4
g5
NtRp2803
(dp2804
g8
g2802
sg9
VSean Means
p2805
sg11
S'http://www.metacritic.com/critic/sean-means?filter=movies'
p2806
sg13
(dp2807
g144
F9
ssg16
VFilm.com
p2808
sg18
NsbsVTime Out New York/David Fear
p2809
g3
(g4
g5
NtRp2810
(dp2811
g8
g2809
sg9
VDavid Fear
p2812
sg11
S'http://www.metacritic.com/critic/david-fear?filter=movies'
p2813
sg13
(dp2814
g280
F6
sg15
F10
sg76
F6
sg150
F6
sg119
F8
ssg16
VTime Out New York
p2815
sg18
NsbsVSt. Louis Post-Dispatch/Joe Williams
p2816
g3
(g4
g5
NtRp2817
(dp2818
g8
g2816
sg9
VJoe Williams
p2819
sg11
S'http://www.metacritic.com/critic/joe-williams?filter=movies'
p2820
sg13
(dp2821
g118
F10
sg163
F5
sg161
F8.8000000000000007
sg76
F8.8000000000000007
sg119
F10
sg143
F5
sg283
F7.5
sg121
F10
sg149
F7.5
sg150
F10
sg133
F7.5
sg73
F8.8000000000000007
sg125
F6.2999999999999998
sg170
F7.5
sg573
F8.8000000000000007
sg158
F6.2999999999999998
sg69
F8.8000000000000007
sg148
F10
sg129
F8.8000000000000007
sg162
F8.8000000000000007
ssg16
VSt. Louis Post-Dispatch
p2822
sg18
NsbsVBoxoffice Magazine/Ray Greene
p2823
g3
(g4
g5
NtRp2824
(dp2825
g8
g2823
sg9
VRay Greene
p2826
sg11
S'http://www.metacritic.com/critic/ray-greene?filter=movies'
p2827
sg13
(dp2828
g162
F6
ssg16
VBoxoffice Magazine
p2829
sg18
NsbsVTotal Film/Tom Dawson
p2830
g3
(g4
g5
NtRp2831
(dp2832
g8
g2830
sg9
VTom Dawson
p2833
sg11
S'http://www.metacritic.com/critic/tom-dawson?filter=movies'
p2834
sg13
(dp2835
g283
F8
sg280
F8
ssg16
VTotal Film
p2836
sg18
NsbsVSlant Magazine/Kenji Fujishima
p2837
g3
(g4
g5
NtRp2838
(dp2839
g8
g2837
sg9
VKenji Fujishima
p2840
sg11
S'http://www.metacritic.com/critic/kenji-fujishima?filter=movies'
p2841
sg13
(dp2842
g284
F7.5
sg81
F6.2999999999999998
ssg16
VSlant Magazine
p2843
sg18
NsbsVThe Globe and Mail (Toronto)/Kiva Reardon
p2844
g3
(g4
g5
NtRp2845
(dp2846
g8
g2844
sg9
VKiva Reardon
p2847
sg11
S'http://www.metacritic.com/critic?filter=movies'
p2848
sg13
(dp2849
g285
F10
ssg16
VThe Globe and Mail (Toronto)
p2850
sg18
NsbsVThe Dissolve/Scott Tobias
p2851
g3
(g4
g5
NtRp2852
(dp2853
g8
g2851
sg9
VScott Tobias
p2854
sg11
S'http://www.metacritic.com/critic/scott-tobias?filter=movies'
p2855
sg13
(dp2856
g119
F10
sg71
F9
sg281
F6
sg220
F8
sg75
F3
sg76
F9
sg15
F9
sg166
F3
sg79
F9
sg348
F8
sg148
F9
sg285
F8
ssg16
VThe Dissolve
p2857
sg18
NsbsVNew York Daily News/Joe Neumaier
p2858
g3
(g4
g5
NtRp2859
(dp2860
g8
g2858
sg9
VJoe Neumaier
p2861
sg11
S'http://www.metacritic.com/critic/joe-neumaier?filter=movies'
p2862
sg13
(dp2863
g117
F8
sg118
F8
sg280
F6
sg121
F8
sg127
F10
sg128
F8
sg129
F8
sg73
F10
sg157
F5
sg139
F8
sg15
F10
sg145
F10
sg148
F6
sg149
F8
sg150
F8
sg74
F10
sg162
F10
sg163
F8
sg283
F8
sg166
F8
sg76
F8
sg169
F10
sg170
F6
sg109
F10
sg285
F8
ssg16
VNew York Daily News
p2864
sg18
NsbsVThe Film Stage/Daniel Schindel
p2865
g3
(g4
g5
NtRp2866
(dp2867
g8
g2865
sg9
VDaniel Schindel
p2868
sg11
S'http://www.metacritic.com/critic/daniel-schindel?filter=movies'
p2869
sg13
(dp2870
g25
F6.7000000000000002
sg72
F9.0999999999999996
ssg16
VThe Film Stage
p2871
sg18
NsbsVThe New Republic/Stanley Kauffmann
p2872
g3
(g4
g5
NtRp2873
(dp2874
g8
g2872
sg9
VStanley Kauffmann
p2875
sg11
S'http://www.metacritic.com/critic/stanley-kauffmann?filter=movies'
p2876
sg13
(dp2877
g237
F5
sg211
F4
sg59
F10
sg132
F10
sg136
F7
sg154
F8
sg156
F7
sg147
F8
sg171
F10
sg541
F3
sg42
F9
sg43
F6
sg173
F8
sg543
F8
sg174
F9
ssg16
VThe New Republic
p2878
sg18
NsbsVPortland Oregonian/Stan Hall
p2879
g3
(g4
g5
NtRp2880
(dp2881
g8
g2879
sg9
VStan Hall
p2882
sg11
S'http://www.metacritic.com/critic/stan-hall?filter=movies'
p2883
sg13
(dp2884
g283
F8.3000000000000007
ssg16
VPortland Oregonian
p2885
sg18
NsbsVAustin Chronicle/Joey O'Bryan
p2886
g3
(g4
g5
NtRp2887
(dp2888
g8
g2886
sg9
VJoey O'Bryan
p2889
sg11
S'http://www.metacritic.com/critic?filter=movies'
p2890
sg13
(dp2891
g51
F8.9000000000000004
ssg16
VAustin Chronicle
p2892
sg18
NsbsVDallas Observer/Robert Wilonsky
p2893
g3
(g4
g5
NtRp2894
(dp2895
g8
g2893
sg9
VRobert Wilonsky
p2896
sg11
S'http://www.metacritic.com/critic/robert-wilonsky?filter=movies'
p2897
sg13
(dp2898
g432
F3
sg132
F10
sg294
F4
sg167
F4
sg151
F7
sg136
F10
sg140
F1
sg130
F5
ssg16
VDallas Observer
p2899
sg18
NsbsVFilm.com/Peter Brunette
p2900
g3
(g4
g5
NtRp2901
(dp2902
g8
g2900
sg9
VPeter Brunette
p2903
sg11
S'http://www.metacritic.com/critic/peter-brunette?filter=movies'
p2904
sg13
(dp2905
g540
F9
sg293
F9
sg144
F10
sg160
F8
ssg16
VFilm.com
p2906
sg18
NsbsVMr. Showbiz/Richard T. Jameson
p2907
g3
(g4
g5
NtRp2908
(dp2909
g8
g2907
sg9
VRichard T. Jameson
p2910
sg11
S'http://www.metacritic.com/critic?filter=movies'
p2911
sg13
(dp2912
g154
F9
ssg16
VMr. Showbiz
p2913
sg18
NsbsVFilm Threat/Chris Barsanti
p2914
g3
(g4
g5
NtRp2915
(dp2916
g8
g2914
sg9
VChris Barsanti
p2917
sg11
S'http://www.metacritic.com/critic?filter=movies'
p2918
sg13
(dp2919
g297
F10
ssg16
VFilm Threat
p2920
sg18
NsbsVTheWrap/Dave White
p2921
g3
(g4
g5
NtRp2922
(dp2923
g8
g2921
sg9
VDave White
p2924
sg11
S'http://www.metacritic.com/critic/dave-white?filter=movies'
p2925
sg13
(dp2926
g81
F9
ssg16
VTheWrap
p2927
sg18
NsbsVConsequence of Sound/Sarah Kurchak
p2928
g3
(g4
g5
NtRp2929
(dp2930
g8
g2928
sg9
VSarah Kurchak
p2931
sg11
S'http://www.metacritic.com/critic/sarah-kurchak?filter=movies'
p2932
sg13
(dp2933
g96
F6.7000000000000002
sg182
F9.0999999999999996
sg68
F10
ssg16
VConsequence of Sound
p2934
sg18
NsbsVNew York Daily News/Jack Mathews
p2935
g3
(g4
g5
NtRp2936
(dp2937
g8
g2935
sg9
VJack Mathews
p2938
sg11
S'http://www.metacritic.com/critic/jack-mathews?filter=movies'
p2939
sg13
(dp2940
g120
F5
sg123
F10
sg540
F8.8000000000000007
sg124
F5
sg43
F7.5
sg130
F8.8000000000000007
sg160
F6.2999999999999998
sg135
F10
sg136
F7.5
sg41
F10
sg138
F10
sg42
F8.8000000000000007
sg140
F3.7999999999999998
sg141
F7.5
sg432
F2.5
sg144
F7.5
sg147
F10
sg132
F10
sg151
F10
sg152
F8.8000000000000007
sg153
F6.2999999999999998
sg156
F7.5
sg296
F6.2999999999999998
sg544
F8.8000000000000007
sg165
F10
sg167
F7.5
sg131
F10
sg295
F8.8000000000000007
sg468
F3.7999999999999998
sg172
F8.8000000000000007
sg174
F8.8000000000000007
ssg16
VNew York Daily News
p2941
sg18
NsbsVSt. Louis Post-Dispatch/Calvin Wilson
p2942
g3
(g4
g5
NtRp2943
(dp2944
g8
g2942
sg9
VCalvin Wilson
p2945
sg11
S'http://www.metacritic.com/critic/calvin-wilson?filter=movies'
p2946
sg13
(dp2947
g142
F8.8000000000000007
sg117
F10
sg96
F10
sg100
F10
sg182
F8.8000000000000007
sg166
F10
sg72
F8.8000000000000007
sg128
F8.8000000000000007
sg109
F8.8000000000000007
sg75
F10
sg155
F10
sg168
F8.8000000000000007
sg169
F10
sg77
F10
sg68
F8.8000000000000007
sg127
F10
sg15
F10
sg159
F10
sg80
F8.8000000000000007
sg81
F8.8000000000000007
sg97
F10
ssg16
VSt. Louis Post-Dispatch
p2948
sg18
NsbsVEmpire/Nev Pierce
p2949
g3
(g4
g5
NtRp2950
(dp2951
g8
g2949
sg9
VNev Pierce
p2952
sg11
S'http://www.metacritic.com/critic?filter=movies'
p2953
sg13
(dp2954
g158
F10
sg159
F8
sg150
F10
sg162
F8
ssg16
VEmpire
p2955
sg18
NsbsVSlant Magazine/Calum Marsh
p2956
g3
(g4
g5
NtRp2957
(dp2958
g8
g2956
sg9
VCalum Marsh
p2959
sg11
S'http://www.metacritic.com/critic?filter=movies'
p2960
sg13
(dp2961
g127
F5
sg121
F5
ssg16
VSlant Magazine
p2962
sg18
NsbsVVariety/Leonard Klady
p2963
g3
(g4
g5
NtRp2964
(dp2965
g8
g2963
sg9
VLeonard Klady
p2966
sg11
S'http://www.metacritic.com/critic?filter=movies'
p2967
sg13
(dp2968
g154
F9
ssg16
VVariety
p2969
sg18
NsbsVThe Guardian/Caspar Llewellyn Smith
p2970
g3
(g4
g5
NtRp2971
(dp2972
g8
g2970
sg9
VCaspar Llewellyn Smith
p2973
sg11
S'http://www.metacritic.com/critic?filter=movies'
p2974
sg13
(dp2975
g101
F6
ssg16
VThe Guardian
p2976
sg18
NsbsVWashington Post/Stephen Hunter
p2977
g3
(g4
g5
NtRp2978
(dp2979
g8
g2977
sg9
VStephen Hunter
p2980
sg11
S'http://www.metacritic.com/critic/stephen-hunter?filter=movies'
p2981
sg13
(dp2982
g237
F9
sg432
F3
sg297
F6
sg145
F7
sg140
F2
sg137
F1
sg151
F7
sg160
F7
sg135
F10
sg136
F10
sg295
F8
sg144
F2
sg41
F9
sg156
F9
sg542
F8
sg126
F2
sg152
F5
sg173
F10
sg174
F9
ssg16
VWashington Post
p2983
sg18
NsbsVLos Angeles Times/Justin Chang
p2984
g3
(g4
g5
NtRp2985
(dp2986
g8
g2984
sg9
VJustin Chang
p2987
sg11
S'http://www.metacritic.com/critic/justin-chang?filter=movies'
p2988
sg13
(dp2989
g96
F9
sg72
F6
sg326
F6
sg100
F10
sg168
F5
sg81
F8
ssg16
VLos Angeles Times
p2990
sg18
NsbsVArizona Republic/Kerry Lengel
p2991
g3
(g4
g5
NtRp2992
(dp2993
g8
g2991
sg9
VKerry Lengel
p2994
sg11
S'http://www.metacritic.com/critic/kerry-lengel?filter=movies'
p2995
sg13
(dp2996
g149
F8
ssg16
VArizona Republic
p2997
sg18
NsbsVThe Globe and Mail (Toronto)/Johanna Schneller
p2998
g3
(g4
g5
NtRp2999
(dp3000
g8
g2998
sg9
VJohanna Schneller
p3001
sg11
S'http://www.metacritic.com/critic?filter=movies'
p3002
sg13
(dp3003
g168
F6.2999999999999998
ssg16
VThe Globe and Mail (Toronto)
p3004
sg18
NsbsVRogerEbert.com/Peter Sobczynski
p3005
g3
(g4
g5
NtRp3006
(dp3007
g8
g3005
sg9
VPeter Sobczynski
p3008
sg11
S'http://www.metacritic.com/critic/peter-sobczynski?filter=movies'
p3009
sg13
(dp3010
g348
F8.8000000000000007
ssg16
VRogerEbert.com
p3011
sg18
NsbsVVariety/Brian Lowry
p3012
g3
(g4
g5
NtRp3013
(dp3014
g8
g3012
sg9
VBrian Lowry
p3015
sg11
S'http://www.metacritic.com/critic/brian-lowry?filter=movies'
p3016
sg13
(dp3017
g140
F6
ssg16
VVariety
p3018
sg18
NsbsVThe Hollywood Reporter/Michael Rechtshaffen
p3019
g3
(g4
g5
NtRp3020
(dp3021
g8
g3019
sg9
VMichael Rechtshaffen
p3022
sg11
S'http://www.metacritic.com/critic/michael-rechtshaffen?filter=movies'
p3023
sg13
(dp3024
g143
F8
sg140
F4
sg157
F9
sg98
F10
sg124
F6
ssg16
VThe Hollywood Reporter
p3025
sg18
NsbsVLos Angeles Times/Sam Adams
p3026
g3
(g4
g5
NtRp3027
(dp3028
g8
g3026
sg9
VSam Adams
p3029
sg11
S'http://www.metacritic.com/critic?filter=movies'
p3030
sg13
(dp3031
g164
F6
ssg16
VLos Angeles Times
p3032
sg18
NsbsVBoston Globe/Ty Burr
p3033
g3
(g4
g5
NtRp3034
(dp3035
g8
g3033
sg9
VTy Burr
p3036
sg11
S'http://www.metacritic.com/critic/ty-burr?filter=movies'
p3037
sg13
(dp3038
g237
F8.8000000000000007
sg117
F10
sg33
F8.8000000000000007
sg326
F7.5
sg120
F3.7999999999999998
sg77
F8.8000000000000007
sg220
F10
sg122
F8.8000000000000007
sg73
F8.8000000000000007
sg161
F6.2999999999999998
sg173
F10
sg127
F10
sg99
F8.8000000000000007
sg128
F6.2999999999999998
sg130
F6.2999999999999998
sg131
F10
sg119
F10
sg72
F6.2999999999999998
sg97
F10
sg133
F6.2999999999999998
sg134
F10
sg135
F10
sg136
F8.8000000000000007
sg75
F10
sg424
F8.8000000000000007
sg15
F10
sg138
F10
sg100
F10
sg139
F10
sg41
F8.8000000000000007
sg42
F8.8000000000000007
sg142
F7.5
sg143
F3.7999999999999998
sg132
F7.5
sg145
F7.5
sg147
F10
sg148
F8.8000000000000007
sg149
F7.5
sg150
F8.8000000000000007
sg151
F7.5
sg221
F7.5
sg153
F7.5
sg171
F8.8000000000000007
sg155
F8.8000000000000007
sg74
F8.8000000000000007
sg182
F10
sg156
F8.8000000000000007
sg157
F7.5
sg159
F10
sg152
F10
sg222
F8.8000000000000007
sg163
F8.8000000000000007
sg69
F8.8000000000000007
sg283
F8.8000000000000007
sg166
F6.2999999999999998
sg167
F7.5
sg98
F10
sg101
F7.5
sg109
F8.8000000000000007
sg76
F8.8000000000000007
sg169
F10
sg170
F8.8000000000000007
sg78
F8.8000000000000007
sg295
F8.8000000000000007
sg174
F10
sg80
F10
sg285
F8.8000000000000007
ssg16
VBoston Globe
p3039
sg18
NsbsVThe Hollywood Reporter/Leslie Felperin
p3040
g3
(g4
g5
NtRp3041
(dp3042
g8
g3040
sg9
VLeslie Felperin
p3043
sg11
S'http://www.metacritic.com/critic/leslie-felperin?filter=movies'
p3044
sg13
(dp3045
g33
F10
sg220
F10
sg284
F8
sg573
F9
sg168
F5
sg81
F9
ssg16
VThe Hollywood Reporter
p3046
sg18
NsbsVLos Angeles Times/Michael Rechtshaffen
p3047
g3
(g4
g5
NtRp3048
(dp3049
g8
g3047
sg9
VMichael Rechtshaffen
p3050
sg11
S'http://www.metacritic.com/critic/michael-rechtshaffen?filter=movies'
p3051
sg13
(dp3052
g532
F8
ssg16
VLos Angeles Times
p3053
sg18
NsbsVSan Francisco Chronicle/Steve Rubenstein
p3054
g3
(g4
g5
NtRp3055
(dp3056
g8
g3054
sg9
VSteve Rubenstein
p3057
sg11
S'http://www.metacritic.com/critic?filter=movies'
p3058
sg13
(dp3059
g78
F5
ssg16
VSan Francisco Chronicle
p3060
sg18
NsbsVSan Francisco Chronicle/Peter Stack
p3061
g3
(g4
g5
NtRp3062
(dp3063
g8
g3061
sg9
VPeter Stack
p3064
sg11
S'http://www.metacritic.com/critic/peter-stack?filter=movies'
p3065
sg13
(dp3066
g154
F10
sg59
F10
ssg16
VSan Francisco Chronicle
p3067
sg18
NsbsVFilm Threat/Tim Merrill
p3068
g3
(g4
g5
NtRp3069
(dp3070
g8
g3068
sg9
VTim Merrill
p3071
sg11
S'http://www.metacritic.com/critic/tim-merrill?filter=movies'
p3072
sg13
(dp3073
g542
F8
ssg16
VFilm Threat
p3074
sg18
NsbsVThe Globe and Mail (Toronto)/Jeff Gray
p3075
g3
(g4
g5
NtRp3076
(dp3077
g8
g3075
sg9
VJeff Gray
p3078
sg11
S'http://www.metacritic.com/critic?filter=movies'
p3079
sg13
(dp3080
g160
F5
ssg16
VThe Globe and Mail (Toronto)
p3081
sg18
NsbsVNew York Post/Lou Lumenick
p3082
g3
(g4
g5
NtRp3083
(dp3084
g8
g3082
sg9
VLou Lumenick
p3085
sg11
S'http://www.metacritic.com/critic/lou-lumenick?filter=movies'
p3086
sg13
(dp3087
g117
F10
sg432
F6.2999999999999998
sg121
F8.8000000000000007
sg123
F10
sg73
F10
sg124
F5
sg161
F8.8000000000000007
sg126
F6.2999999999999998
sg168
F8.8000000000000007
sg130
F8.8000000000000007
sg119
F6.2999999999999998
sg294
F10
sg72
F7.5
sg133
F7.5
sg136
F8.8000000000000007
sg75
F8.8000000000000007
sg15
F10
sg138
F10
sg139
F10
sg41
F10
sg42
F8.8000000000000007
sg172
F8.8000000000000007
sg142
F8.8000000000000007
sg143
F5
sg132
F10
sg149
F7.5
sg150
F10
sg151
F8.8000000000000007
sg152
F10
sg153
F7.5
sg74
F10
sg156
F7.5
sg158
F10
sg159
F8.8000000000000007
sg296
F7.5
sg544
F10
sg163
F7.5
sg297
F7.5
sg165
F10
sg166
F8.8000000000000007
sg98
F10
sg76
F7.5
sg169
F10
sg170
F8.8000000000000007
sg80
F10
sg174
F10
ssg16
VNew York Post
p3088
sg18
NsbsVVariety/l
p3089
g3
(g4
g5
NtRp3090
(dp3091
g8
g3089
sg9
Vl
sg11
S'http://www.metacritic.com/critic?filter=movies'
p3092
sg13
(dp3093
g43
F5
ssg16
VVariety
p3094
sg18
NsbsVBoston Globe/Wesley Morris
p3095
g3
(g4
g5
NtRp3096
(dp3097
g8
g3095
sg9
VWesley Morris
p3098
sg11
S'http://www.metacritic.com/critic/wesley-morris?filter=movies'
p3099
sg13
(dp3100
g118
F8.8000000000000007
sg164
F6.2999999999999998
sg165
F8.8000000000000007
sg158
F7.5
sg121
F10
sg123
F10
sg280
F8.8000000000000007
sg124
F5
sg125
F7.5
sg141
F10
sg126
F6.2999999999999998
sg172
F10
sg140
F5
sg43
F6.2999999999999998
sg129
F10
sg162
F5
ssg16
VBoston Globe
p3101
sg18
NsbsVFilm.com/John Hartl
p3102
g3
(g4
g5
NtRp3103
(dp3104
g8
g3102
sg9
VJohn Hartl
p3105
sg11
S'http://www.metacritic.com/critic/john-hartl?filter=movies'
p3106
sg13
(dp3107
g211
F10
sg59
F10
sg160
F8
ssg16
VFilm.com
p3108
sg18
NsbsVSan Francisco Examiner/Wesley Morris
p3109
g3
(g4
g5
NtRp3110
(dp3111
g8
g3109
sg9
VWesley Morris
p3112
sg11
S'http://www.metacritic.com/critic/wesley-morris?filter=movies'
p3113
sg13
(dp3114
g432
F7.5
sg211
F10
sg144
F6.2999999999999998
sg294
F10
sg160
F7.5
sg293
F6.2999999999999998
ssg16
VSan Francisco Examiner
p3115
sg18
NsbsVCineVue/Patrick Gamble
p3116
g3
(g4
g5
NtRp3117
(dp3118
g8
g3116
sg9
VPatrick Gamble
p3119
sg11
S'http://www.metacritic.com/critic/patrick-gamble?filter=movies'
p3120
sg13
(dp3121
g221
F6
ssg16
VCineVue
p3122
sg18
NsbsVThe Hollywood Reporter/Stephen Dalton
p3123
g3
(g4
g5
NtRp3124
(dp3125
g8
g3123
sg9
VStephen Dalton
p3126
sg11
S'http://www.metacritic.com/critic/stephen-dalton?filter=movies'
p3127
sg13
(dp3128
g283
F7
sg281
F8
sg182
F7
sg221
F8
ssg16
VThe Hollywood Reporter
p3129
sg18
NsbsVConsequence of Sound/Michael Roffman
p3130
g3
(g4
g5
NtRp3131
(dp3132
g8
g3130
sg9
VMichael Roffman
p3133
sg11
S'http://www.metacritic.com/critic/michael-roffman?filter=movies'
p3134
sg13
(dp3135
g72
F8.3000000000000007
sg128
F10
sg81
F8.3000000000000007
ssg16
VConsequence of Sound
p3136
sg18
NsbsVVariety/Ella Taylor
p3137
g3
(g4
g5
NtRp3138
(dp3139
g8
g3137
sg9
VElla Taylor
p3140
sg11
S'http://www.metacritic.com/critic/ella-taylor?filter=movies'
p3141
sg13
(dp3142
g25
F8
ssg16
VVariety
p3143
sg18
NsbsVMiami Herald/Rene Rodriguez
p3144
g3
(g4
g5
NtRp3145
(dp3146
g8
g3144
sg9
VRene Rodriguez
p3147
sg11
S'http://www.metacritic.com/critic/rene-rodriguez?filter=movies'
p3148
sg13
(dp3149
g117
F8.8000000000000007
sg118
F7.5
sg77
F10
sg97
F10
sg121
F5
sg122
F8.8000000000000007
sg123
F10
sg73
F8.8000000000000007
sg540
F6.2999999999999998
sg124
F5
sg161
F10
sg68
F7.5
sg126
F5
sg127
F10
sg79
F8.8000000000000007
sg43
F7.5
sg128
F8.8000000000000007
sg129
F10
sg130
F7.5
sg293
F8.8000000000000007
sg119
F10
sg294
F7.5
sg72
F6.2999999999999998
sg220
F10
sg133
F7.5
sg135
F8.8000000000000007
sg136
F8.8000000000000007
sg75
F8.8000000000000007
sg15
F10
sg138
F8.8000000000000007
sg100
F10
sg139
F10
sg41
F10
sg42
F8.8000000000000007
sg348
F8.8000000000000007
sg281
F8.8000000000000007
sg544
F7.5
sg141
F8.8000000000000007
sg143
F5
sg132
F10
sg145
F8.8000000000000007
sg147
F10
sg149
F7.5
sg150
F10
sg151
F7.5
sg221
F7.5
sg153
F6.2999999999999998
sg74
F7.5
sg182
F8.8000000000000007
sg156
F6.2999999999999998
sg157
F7.5
sg158
F8.8000000000000007
sg159
F10
sg152
F10
sg296
F8.8000000000000007
sg222
F7.5
sg162
F8.8000000000000007
sg96
F7.5
sg297
F7.5
sg51
F7.5
sg164
F7.5
sg165
F7.5
sg167
F7.5
sg98
F10
sg80
F10
sg131
F10
sg76
F8.8000000000000007
sg169
F10
sg170
F6.2999999999999998
sg78
F8.8000000000000007
sg171
F10
sg468
F5
sg172
F10
sg173
F8.8000000000000007
sg81
F8.8000000000000007
sg174
F8.8000000000000007
ssg16
VMiami Herald
p3150
sg18
NsbsVSlant Magazine/None
p3151
g3
(g4
g5
NtRp3152
(dp3153
g8
g3151
sg9
Nsg11
Nsg13
(dp3154
g283
F8.8000000000000007
ssg16
VSlant Magazine
p3155
sg18
NsbsVVariety/Leslie Felperin
p3156
g3
(g4
g5
NtRp3157
(dp3158
g8
g3156
sg9
VLeslie Felperin
p3159
sg11
S'http://www.metacritic.com/critic?filter=movies'
p3160
sg13
(dp3161
g138
F9
ssg16
VVariety
p3162
sg18
NsbsVVillage Voice/Karina Longworth
p3163
g3
(g4
g5
NtRp3164
(dp3165
g8
g3163
sg9
VKarina Longworth
p3166
sg11
S'http://www.metacritic.com/critic?filter=movies'
p3167
sg13
(dp3168
g125
F7
sg121
F9
sg149
F8
sg162
F5
ssg16
VVillage Voice
p3169
sg18
NsbsVPremiere/Kelly Borgeson
p3170
g3
(g4
g5
NtRp3171
(dp3172
g8
g3170
sg9
VKelly Borgeson
p3173
sg11
S'http://www.metacritic.com/critic/kelly-borgeson?filter=movies'
p3174
sg13
(dp3175
g124
F7.5
ssg16
VPremiere
p3176
sg18
NsbsVEntertainment Weekly/Staff (Not Credited)
p3177
g3
(g4
g5
NtRp3178
(dp3179
g8
g3177
sg9
VStaff (Not Credited)
p3180
sg11
S'http://www.metacritic.com/critic?filter=movies'
p3181
sg13
(dp3182
g211
F10
ssg16
VEntertainment Weekly
p3183
sg18
NsbsVEmpire/Angie Errigo
p3184
g3
(g4
g5
NtRp3185
(dp3186
g8
g3184
sg9
VAngie Errigo
p3187
sg11
S'http://www.metacritic.com/critic/angie-errigo?filter=movies'
p3188
sg13
(dp3189
g137
F10
sg155
F8
sg130
F8
ssg16
VEmpire
p3190
sg18
NsbsVThe New Yorker/Richard Brody
p3191
g3
(g4
g5
NtRp3192
(dp3193
g8
g3191
sg9
VRichard Brody
p3194
sg11
S'http://www.metacritic.com/critic/richard-brody?filter=movies'
p3195
sg13
(dp3196
g155
F3
ssg16
VThe New Yorker
p3197
sg18
NsbsVHitfix/Guy Lodge
p3198
g3
(g4
g5
NtRp3199
(dp3200
g8
g3198
sg9
VGuy Lodge
p3201
sg11
S'http://www.metacritic.com/critic?filter=movies'
p3202
sg13
(dp3203
g281
F6.7000000000000002
ssg16
VHitfix
p3204
sg18
NsbsVEmpire/Helen O'Hara
p3205
g3
(g4
g5
NtRp3206
(dp3207
g8
g3205
sg9
VHelen O'Hara
p3208
sg11
S'http://www.metacritic.com/critic?filter=movies'
p3209
sg13
(dp3210
g295
F8
sg168
F8
sg100
F8
sg172
F10
ssg16
VEmpire
p3211
sg18
NsbsVThe Guardian/Catherine Shoard
p3212
g3
(g4
g5
NtRp3213
(dp3214
g8
g3212
sg9
VCatherine Shoard
p3215
sg11
S'http://www.metacritic.com/critic/catherine-shoard?filter=movies'
p3216
sg13
(dp3217
g68
F10
ssg16
VThe Guardian
p3218
sg18
NsbsVLos Angeles Times/Charles Solomon
p3219
g3
(g4
g5
NtRp3220
(dp3221
g8
g3219
sg9
VCharles Solomon
p3222
sg11
S'http://www.metacritic.com/critic/charles-solomon?filter=movies'
p3223
sg13
(dp3224
g222
F4
ssg16
VLos Angeles Times
p3225
sg18
NsbsVVariety/Justin Chang
p3226
g3
(g4
g5
NtRp3227
(dp3228
g8
g3226
sg9
VJustin Chang
p3229
sg11
S'http://www.metacritic.com/critic/justin-chang?filter=movies'
p3230
sg13
(dp3231
g97
F10
sg165
F10
sg283
F6
sg150
F9
sg121
F9
sg145
F10
sg123
F8
sg73
F10
sg80
F9
sg280
F8
sg169
F10
sg71
F10
sg158
F10
sg159
F10
sg99
F9
sg148
F10
ssg16
VVariety
p3232
sg18
NsbsVThe Globe and Mail (Toronto)/Liam Lacey
p3233
g3
(g4
g5
NtRp3234
(dp3235
g8
g3233
sg9
VLiam Lacey
p3236
sg11
S'http://www.metacritic.com/critic/liam-lacey?filter=movies'
p3237
sg13
(dp3238
g117
F7.5
sg118
F6.2999999999999998
sg120
F6.2999999999999998
sg280
F10
sg71
F10
sg121
F10
sg123
F10
sg73
F10
sg126
F5
sg41
F7.5
sg130
F6.2999999999999998
sg119
F8.8000000000000007
sg220
F8.8000000000000007
sg133
F6.2999999999999998
sg135
F7.5
sg75
F7.5
sg15
F10
sg139
F10
sg157
F5
sg172
F8.8000000000000007
sg144
F10
sg145
F7.5
sg148
F8.8000000000000007
sg122
F6.2999999999999998
sg222
F7.5
sg165
F8.8000000000000007
sg167
F6.2999999999999998
sg131
F8.8000000000000007
sg76
F10
sg173
F8.8000000000000007
sg174
F7.5
ssg16
VThe Globe and Mail (Toronto)
p3239
sg18
NsbsVTime Out London/Cath Clarke
p3240
g3
(g4
g5
NtRp3241
(dp3242
g8
g3240
sg9
VCath Clarke
p3243
sg11
S'http://www.metacritic.com/critic/cath-clarke?filter=movies'
p3244
sg13
(dp3245
g75
F10
sg119
F8
sg532
F8
sg78
F8
ssg16
VTime Out London
p3246
sg18
NsbsVLos Angeles Times/Sheila Benson
p3247
g3
(g4
g5
NtRp3248
(dp3249
g8
g3247
sg9
VSheila Benson
p3250
sg11
S'http://www.metacritic.com/critic/sheila-benson?filter=movies'
p3251
sg13
(dp3252
g541
F9
ssg16
VLos Angeles Times
p3253
sg18
NsbsVThe A.V. Club/Ben Kenigsberg
p3254
g3
(g4
g5
NtRp3255
(dp3256
g8
g3254
sg9
VBen Kenigsberg
p3257
sg11
S'http://www.metacritic.com/critic/ben-kenigsberg?filter=movies'
p3258
sg13
(dp3259
g69
F10
ssg16
VThe A.V. Club
p3260
sg18
NsbsVNew Times (L.A.)/Andy Klein
p3261
g3
(g4
g5
NtRp3262
(dp3263
g8
g3261
sg9
VAndy Klein
p3264
sg11
S'http://www.metacritic.com/critic/andy-klein?filter=movies'
p3265
sg13
(dp3266
g542
F9
ssg16
VNew Times (L.A.)
p3267
sg18
NsbsVHitfix/Drew McWeeny
p3268
g3
(g4
g5
NtRp3269
(dp3270
g8
g3268
sg9
VDrew McWeeny
p3271
sg11
S'http://www.metacritic.com/critic/drew-mcweeny?filter=movies'
p3272
sg13
(dp3273
g142
F5
sg69
F10
sg97
F10
sg148
F10
sg72
F8.3000000000000007
sg74
F10
sg68
F10
sg222
F10
ssg16
VHitfix
p3274
sg18
NsbsVBaltimore Sun/Chris Kaltenbach
p3275
g3
(g4
g5
NtRp3276
(dp3277
g8
g3275
sg9
VChris Kaltenbach
p3278
sg11
S'http://www.metacritic.com/critic/chris-kaltenbach?filter=movies'
p3279
sg13
(dp3280
g124
F5
sg147
F10
sg540
F8.8000000000000007
sg295
F9.0999999999999996
sg141
F6.7000000000000002
sg122
F8.8000000000000007
sg126
F3.7999999999999998
sg140
F2.5
sg296
F6.2999999999999998
sg130
F6.2999999999999998
ssg16
VBaltimore Sun
p3281
sg18
NsbsVEmpire/David Eimer
p3282
g3
(g4
g5
NtRp3283
(dp3284
g8
g3282
sg9
VDavid Eimer
p3285
sg11
S'http://www.metacritic.com/critic?filter=movies'
p3286
sg13
(dp3287
g60
F4
ssg16
VEmpire
p3288
sg18
NsbsVTotal Film/Emma Dibdin
p3289
g3
(g4
g5
NtRp3290
(dp3291
g8
g3289
sg9
VEmma Dibdin
p3292
sg11
S'http://www.metacritic.com/critic/emma-dibdin?filter=movies'
p3293
sg13
(dp3294
g121
F10
sg15
F8
sg119
F8
ssg16
VTotal Film
p3295
sg18
NsbsVChicago Sun-Times/Bill Stamets
p3296
g3
(g4
g5
NtRp3297
(dp3298
g8
g3296
sg9
VBill Stamets
p3299
sg11
S'http://www.metacritic.com/critic/bill-stamets?filter=movies'
p3300
sg13
(dp3301
g220
F8.8000000000000007
sg348
F8.8000000000000007
sg285
F10
ssg16
VChicago Sun-Times
p3302
sg18
NsbsVThe Dissolve/Noel Murray
p3303
g3
(g4
g5
NtRp3304
(dp3305
g8
g3303
sg9
VNoel Murray
p3306
sg11
S'http://www.metacritic.com/critic/noel-murray?filter=movies'
p3307
sg13
(dp3308
g33
F8
sg573
F8
ssg16
VThe Dissolve
p3309
sg18
NsbsVConsequence of Sound/Nico Lang
p3310
g3
(g4
g5
NtRp3311
(dp3312
g8
g3310
sg9
VNico Lang
p3313
sg11
S'http://www.metacritic.com/critic/nico-lang?filter=movies'
p3314
sg13
(dp3315
g100
F9.0999999999999996
ssg16
VConsequence of Sound
p3316
sg18
NsbsVAustin Chronicle/Marc Savlov
p3317
g3
(g4
g5
NtRp3318
(dp3319
g8
g3317
sg9
VMarc Savlov
p3320
sg11
S'http://www.metacritic.com/critic/marc-savlov?filter=movies'
p3321
sg13
(dp3322
g237
F8.9000000000000004
sg432
F3
sg120
F3
sg124
F4
sg161
F6.7000000000000002
sg60
F2
sg126
F2
sg99
F8.9000000000000004
sg160
F7.7999999999999998
sg294
F6.7000000000000002
sg220
F8.9000000000000004
sg73
F8.9000000000000004
sg532
F7.7999999999999998
sg135
F8.9000000000000004
sg424
F8.9000000000000004
sg41
F7.7999999999999998
sg138
F8.9000000000000004
sg139
F8.9000000000000004
sg142
F7.7999999999999998
sg143
F4
sg144
F7.7999999999999998
sg145
F5
sg150
F7.7999999999999998
sg154
F8.9000000000000004
sg544
F8.9000000000000004
sg165
F8.9000000000000004
sg167
F7.7999999999999998
sg293
F8.9000000000000004
sg170
F8.9000000000000004
sg173
F8.9000000000000004
ssg16
VAustin Chronicle
p3323
sg18
NsbsVThe Hollywood Reporter/Boyd van Hoeij
p3324
g3
(g4
g5
NtRp3325
(dp3326
g8
g3324
sg9
VBoyd van Hoeij
p3327
sg11
S'http://www.metacritic.com/critic/boyd-van-hoeij?filter=movies'
p3328
sg13
(dp3329
g212
F8
sg348
F8
sg99
F8
ssg16
VThe Hollywood Reporter
p3330
sg18
NsbsVSlant Magazine/Carson Lund
p3331
g3
(g4
g5
NtRp3332
(dp3333
g8
g3331
sg9
VCarson Lund
p3334
sg11
S'http://www.metacritic.com/critic/carson-lund?filter=movies'
p3335
sg13
(dp3336
g212
F6.2999999999999998
ssg16
VSlant Magazine
p3337
sg18
NsbsVThe Hollywood Reporter/David Rooney
p3338
g3
(g4
g5
NtRp3339
(dp3340
g8
g3338
sg9
VDavid Rooney
p3341
sg11
S'http://www.metacritic.com/critic/david-rooney?filter=movies'
p3342
sg13
(dp3343
g68
F10
sg686
F10
sg326
F8
sg109
F9
sg222
F7
ssg16
VThe Hollywood Reporter
p3344
sg18
NsbsVChicago Reader/Andrea Gronvall
p3345
g3
(g4
g5
NtRp3346
(dp3347
g8
g3345
sg9
VAndrea Gronvall
p3348
sg11
S'http://www.metacritic.com/critic?filter=movies'
p3349
sg13
(dp3350
g139
F8
sg153
F5
sg41
F10
sg164
F0
sg98
F9
ssg16
VChicago Reader
p3351
sg18
NsbsVThe New Yorker/David Denby
p3352
g3
(g4
g5
NtRp3353
(dp3354
g8
g3352
sg9
VDavid Denby
p3355
sg11
S'http://www.metacritic.com/critic/david-denby?filter=movies'
p3356
sg13
(dp3357
g117
F9
sg125
F7
sg130
F8
sg73
F9
sg136
F10
sg15
F10
sg542
F10
sg139
F9
sg172
F10
sg143
F5
sg161
F5
sg145
F5
sg147
F9
sg148
F6
sg149
F7
sg153
F5
sg158
F5
sg544
F9
sg297
F8
sg165
F10
sg167
F5
sg98
F8
sg76
F7
sg169
F10
sg170
F9
sg285
F10
sg173
F7
sg174
F8
ssg16
VThe New Yorker
p3358
sg18
NsbsVThe Playlist/Kimber Myers
p3359
g3
(g4
g5
NtRp3360
(dp3361
g8
g3359
sg9
VKimber Myers
p3362
sg11
S'http://www.metacritic.com/critic/kimber-myers?filter=movies'
p3363
sg13
(dp3364
g424
F8.3000000000000007
ssg16
VThe Playlist
p3365
sg18
NsbsVFilm Threat/Rick Kisonak
p3366
g3
(g4
g5
NtRp3367
(dp3368
g8
g3366
sg9
VRick Kisonak
p3369
sg11
S'http://www.metacritic.com/critic/rick-kisonak?filter=movies'
p3370
sg13
(dp3371
g295
F8
sg131
F8
sg174
F8
sg157
F7
sg130
F6
ssg16
VFilm Threat
p3372
sg18
NsbsVBoxoffice Magazine/Wade Major
p3373
g3
(g4
g5
NtRp3374
(dp3375
g8
g3373
sg9
VWade Major
p3376
sg11
S'http://www.metacritic.com/critic/wade-major?filter=movies'
p3377
sg13
(dp3378
g129
F8
ssg16
VBoxoffice Magazine
p3379
sg18
NsbsVL.A. Weekly/Ella Taylor
p3380
g3
(g4
g5
NtRp3381
(dp3382
g8
g3380
sg9
VElla Taylor
p3383
sg11
S'http://www.metacritic.com/critic/ella-taylor?filter=movies'
p3384
sg13
(dp3385
g237
F9
sg131
F10
sg297
F7
sg123
F10
sg136
F9
sg156
F5
sg542
F10
sg171
F9
sg293
F8
sg468
F2
sg173
F8
sg174
F10
ssg16
VL.A. Weekly
p3386
sg18
NsbsVThe Film Stage/Nick Newman
p3387
g3
(g4
g5
NtRp3388
(dp3389
g8
g3387
sg9
VNick Newman
p3390
sg11
S'http://www.metacritic.com/critic/nick-newman?filter=movies'
p3391
sg13
(dp3392
g142
F7.5
ssg16
VThe Film Stage
p3393
sg18
NsbsVSlant Magazine/Elise Nakhnikian
p3394
g3
(g4
g5
NtRp3395
(dp3396
g8
g3394
sg9
VElise Nakhnikian
p3397
sg11
S'http://www.metacritic.com/critic/elise-nakhnikian?filter=movies'
p3398
sg13
(dp3399
g155
F6.2999999999999998
sg33
F8.8000000000000007
sg573
F8.8000000000000007
ssg16
VSlant Magazine
p3400
sg18
NsbsVSlant Magazine/Matt Noller
p3401
g3
(g4
g5
NtRp3402
(dp3403
g8
g3401
sg9
VMatt Noller
p3404
sg11
S'http://www.metacritic.com/critic?filter=movies'
p3405
sg13
(dp3406
g51
F8.8000000000000007
ssg16
VSlant Magazine
p3407
sg18
NsbsVSan Francisco Chronicle/Mick LaSalle
p3408
g3
(g4
g5
NtRp3409
(dp3410
g8
g3408
sg9
VMick LaSalle
p3411
sg11
S'http://www.metacritic.com/critic/mick-lasalle?filter=movies'
p3412
sg13
(dp3413
g117
F10
sg118
F10
sg161
F10
sg97
F7.5
sg280
F5
sg121
F5
sg74
F7.5
sg73
F10
sg124
F2.5
sg125
F7.5
sg60
F2.5
sg127
F7.5
sg99
F10
sg43
F7.5
sg128
F7.5
sg130
F7.5
sg131
F10
sg119
F5
sg72
F7.5
sg133
F2.5
sg532
F7.5
sg135
F7.5
sg136
F10
sg75
F10
sg15
F10
sg138
F10
sg139
F7.5
sg41
F7.5
sg42
F10
sg140
F0
sg281
F7.5
sg544
F10
sg172
F5
sg432
F5
sg132
F7.5
sg145
F7.5
sg148
F10
sg149
F10
sg150
F5
sg151
F5
sg221
F7.5
sg153
F7.5
sg295
F7.5
sg155
F10
sg160
F7.5
sg182
F10
sg77
F7.5
sg157
F7.5
sg159
F10
sg152
F10
sg296
F7.5
sg222
F10
sg162
F10
sg163
F10
sg297
F5
sg51
F5
sg164
F2.5
sg166
F7.5
sg167
F7.5
sg98
F7.5
sg173
F10
sg109
F7.5
sg76
F7.5
sg169
F10
sg171
F10
sg80
F10
sg68
F10
ssg16
VSan Francisco Chronicle
p3414
sg18
NsbsVThe Playlist/Oliver Lyttelton
p3415
g3
(g4
g5
NtRp3416
(dp3417
g8
g3415
sg9
VOliver Lyttelton
p3418
sg11
S'http://www.metacritic.com/critic/oliver-lyttelton?filter=movies'
p3419
sg13
(dp3420
g33
F9.0999999999999996
sg282
F4.2000000000000002
sg220
F10
sg73
F10
sg99
F8.3000000000000007
sg326
F9.0999999999999996
sg81
F10
sg222
F7.5
ssg16
VThe Playlist
p3421
sg18
NsbsVWashington Post/Stephanie Merry
p3422
g3
(g4
g5
NtRp3423
(dp3424
g8
g3422
sg9
VStephanie Merry
p3425
sg11
S'http://www.metacritic.com/critic/stephanie-merry?filter=movies'
p3426
sg13
(dp3427
g424
F7.5
sg128
F7.5
sg81
F6.2999999999999998
sg221
F7.5
ssg16
VWashington Post
p3428
sg18
NsbsVThe Hollywood Reporter/Sheri Linden
p3429
g3
(g4
g5
NtRp3430
(dp3431
g8
g3429
sg9
VSheri Linden
p3432
sg11
S'http://www.metacritic.com/critic/sheri-linden?filter=movies'
p3433
sg13
(dp3434
g237
F9
ssg16
VThe Hollywood Reporter
p3435
sg18
NsbsVVariety/Todd McCarthy
p3436
g3
(g4
g5
NtRp3437
(dp3438
g8
g3436
sg9
VTodd McCarthy
p3439
sg11
S'http://www.metacritic.com/critic/todd-mccarthy?filter=movies'
p3440
sg13
(dp3441
g144
F9
sg126
F6
sg130
F8
sg293
F9
sg135
F9
sg41
F10
sg542
F9
sg139
F8
sg172
F10
sg161
F8
sg147
F9
sg132
F9
sg151
F9
sg152
F10
sg544
F9
sg162
F8
sg297
F7
sg167
F7
sg98
F10
sg160
F6
sg170
F9
sg171
F8
sg173
F5
ssg16
VVariety
p3442
sg18
NsbsVThe New York Times/Manohla Dargis
p3443
g3
(g4
g5
NtRp3444
(dp3445
g8
g3443
sg9
VManohla Dargis
p3446
sg11
S'http://www.metacritic.com/critic/manohla-dargis?filter=movies'
p3447
sg13
(dp3448
g117
F10
sg280
F9
sg71
F6
sg127
F10
sg168
F8
sg119
F10
sg220
F8
sg25
F7
sg75
F10
sg15
F10
sg141
F10
sg573
F10
sg138
F9
sg142
F9
sg143
F4
sg161
F5
sg100
F9
sg145
F9
sg147
F9
sg150
F8
sg151
F5
sg156
F6
sg222
F7
sg69
F10
sg164
F5
sg167
F9
sg98
F7
sg131
F10
sg169
F9
sg170
F10
sg172
F10
sg68
F10
ssg16
VThe New York Times
p3449
sg18
NsbsVThe Hollywood Reporter/Bernard Besserglik
p3450
g3
(g4
g5
NtRp3451
(dp3452
g8
g3450
sg9
VBernard Besserglik
p3453
sg11
S'http://www.metacritic.com/critic?filter=movies'
p3454
sg13
(dp3455
g156
F8
ssg16
VThe Hollywood Reporter
p3456
sg18
NsbsVCineVue/Matthew Anderson
p3457
g3
(g4
g5
NtRp3458
(dp3459
g8
g3457
sg9
VMatthew Anderson
p3460
sg11
S'http://www.metacritic.com/critic/matthew-anderson?filter=movies'
p3461
sg13
(dp3462
g72
F8
ssg16
VCineVue
p3463
sg18
NsbsVNew York Observer/Thelma Adams
p3464
g3
(g4
g5
NtRp3465
(dp3466
g8
g3464
sg9
VThelma Adams
p3467
sg11
S'http://www.metacritic.com/critic?filter=movies'
p3468
sg13
(dp3469
g96
F7.5
ssg16
VNew York Observer
p3470
sg18
NsbsVFilm Threat/Mark Bell
p3471
g3
(g4
g5
NtRp3472
(dp3473
g8
g3471
sg9
VMark Bell
p3474
sg11
S'http://www.metacritic.com/critic?filter=movies'
p3475
sg13
(dp3476
g141
F7
sg164
F7
ssg16
VFilm Threat
p3477
sg18
NsbsVThe Seattle Times/Moira Macdonald
p3478
g3
(g4
g5
NtRp3479
(dp3480
g8
g3478
sg9
VMoira Macdonald
p3481
sg11
S'http://www.metacritic.com/critic/moira-macdonald?filter=movies'
p3482
sg13
(dp3483
g142
F8.8000000000000007
sg97
F10
sg72
F6.2999999999999998
sg15
F10
sg159
F10
sg128
F8.8000000000000007
ssg16
VThe Seattle Times
p3484
sg18
NsbsVThe Playlist/Jessica Kiang
p3485
g3
(g4
g5
NtRp3486
(dp3487
g8
g3485
sg9
VJessica Kiang
p3488
sg11
S'http://www.metacritic.com/critic/jessica-kiang?filter=movies'
p3489
sg13
(dp3490
g96
F8.3000000000000007
sg221
F8.3000000000000007
sg70
F8.3000000000000007
sg71
F5
sg148
F8.3000000000000007
sg74
F8.3000000000000007
sg284
F9.0999999999999996
sg128
F7.5
sg281
F10
sg75
F10
sg76
F6.7000000000000002
sg182
F10
sg100
F9.0999999999999996
sg78
F9.0999999999999996
sg686
F10
sg159
F10
sg101
F7.5
sg80
F9.0999999999999996
sg285
F8.3000000000000007
ssg16
VThe Playlist
p3491
sg18
NsbsVThe Hollywood Reporter/Ray Bennett
p3492
g3
(g4
g5
NtRp3493
(dp3494
g8
g3492
sg9
VRay Bennett
p3495
sg11
S'http://www.metacritic.com/critic/ray-bennett?filter=movies'
p3496
sg13
(dp3497
g123
F8
sg152
F8
sg131
F8
sg141
F8
sg171
F10
sg43
F6
ssg16
VThe Hollywood Reporter
p3498
sg18
NsbsVNew York Post/Sara Stewart
p3499
g3
(g4
g5
NtRp3500
(dp3501
g8
g3499
sg9
VSara Stewart
p3502
sg11
S'http://www.metacritic.com/critic/sara-stewart?filter=movies'
p3503
sg13
(dp3504
g96
F7.5
sg348
F10
sg100
F7.5
ssg16
VNew York Post
p3505
sg18
NsbsVTheWrap/Dan Callahan
p3506
g3
(g4
g5
NtRp3507
(dp3508
g8
g3506
sg9
VDan Callahan
p3509
sg11
S'http://www.metacritic.com/critic?filter=movies'
p3510
sg13
(dp3511
g69
F5
ssg16
VTheWrap
p3512
sg18
NsbsVSlate/Dana Stevens
p3513
g3
(g4
g5
NtRp3514
(dp3515
g8
g3513
sg9
VDana Stevens
p3516
sg11
S'http://www.metacritic.com/critic/dana-stevens?filter=movies'
p3517
sg13
(dp3518
g117
F9
sg118
F5
sg97
F10
sg121
F8
sg73
F8
sg127
F8
sg128
F8
sg129
F10
sg119
F9
sg133
F4
sg75
F8
sg157
F7
sg141
F10
sg139
F8
sg15
F9
sg42
F10
sg138
F10
sg142
F6
sg143
F6
sg161
F7
sg145
F10
sg148
F7
sg149
F7
sg150
F4
sg151
F6
sg152
F7
sg153
F5
sg74
F10
sg182
F10
sg77
F9
sg158
F7
sg163
F8
sg159
F10
sg162
F9
sg96
F8
sg69
F7
sg283
F8
sg98
F10
sg109
F8
sg131
F9
sg76
F9
sg169
F8
sg170
F9
sg295
F10
sg172
F10
sg80
F9
sg68
F10
sg285
F10
ssg16
VSlate
p3519
sg18
NsbsVVariety/Alissa Simon
p3520
g3
(g4
g5
NtRp3521
(dp3522
g8
g3520
sg9
VAlissa Simon
p3523
sg11
S'http://www.metacritic.com/critic?filter=movies'
p3524
sg13
(dp3525
g79
F8
sg129
F9
sg101
F9
ssg16
VVariety
p3526
sg18
NsbsVFilm.com/David Ehrlich
p3527
g3
(g4
g5
NtRp3528
(dp3529
g8
g3527
sg9
VDavid Ehrlich
p3530
sg11
S'http://www.metacritic.com/critic/david-ehrlich?filter=movies'
p3531
sg13
(dp3532
g119
F8
ssg16
VFilm.com
p3533
sg18
NsbsVThe A.V. Club/A.A. Dowd 
p3534
g3
(g4
g5
NtRp3535
(dp3536
g8
g3534
sg9
VA.A. Dowd 
p3537
sg11
S'http://www.metacritic.com/critic/aa-dowd?filter=movies'
p3538
sg13
(dp3539
g97
F10
sg119
F10
sg168
F5.7999999999999998
sg73
F8.3000000000000007
sg148
F8.3000000000000007
sg99
F9.0999999999999996
sg74
F9.0999999999999996
sg109
F9.0999999999999996
sg222
F7.5
sg75
F8.3000000000000007
sg76
F5.7999999999999998
sg15
F9.0999999999999996
sg77
F8.3000000000000007
sg100
F10
sg78
F7.5
sg182
F10
sg79
F9.0999999999999996
sg80
F8.3000000000000007
sg81
F8.3000000000000007
sg285
F8.3000000000000007
ssg16
VThe A.V. Club
p3540
sg18
NsbsVNew York Daily News/Joe Dziemianowicz
p3541
g3
(g4
g5
NtRp3542
(dp3543
g8
g3541
sg9
VJoe Dziemianowicz
p3544
sg11
S'http://www.metacritic.com/critic/joe-dziemianowicz?filter=movies'
p3545
sg13
(dp3546
g72
F8
ssg16
VNew York Daily News
p3547
sg18
NsbsVChicago Tribune/Mark Caro
p3548
g3
(g4
g5
NtRp3549
(dp3550
g8
g3548
sg9
VMark Caro
p3551
sg11
S'http://www.metacritic.com/critic/mark-caro?filter=movies'
p3552
sg13
(dp3553
g126
F5
sg468
F3.7999999999999998
sg132
F7.5
sg174
F8.8000000000000007
ssg16
VChicago Tribune
p3554
sg18
NsbsVTV Guide Magazine/Staff (Not Credited)
p3555
g3
(g4
g5
NtRp3556
(dp3557
g8
g3555
sg9
VStaff (Not Credited)
p3558
sg11
S'http://www.metacritic.com/critic?filter=movies'
p3559
sg13
(dp3560
g211
F7
sg146
F10
sg59
F10
sg134
F10
sg137
F9
sg60
F5
sg541
F8
sg543
F7
ssg16
VTV Guide Magazine
p3561
sg18
NsbsVTime/Mary Corliss
p3562
g3
(g4
g5
NtRp3563
(dp3564
g8
g3562
sg9
VMary Corliss
p3565
sg11
S'http://www.metacritic.com/critic?filter=movies'
p3566
sg13
(dp3567
g127
F10
ssg16
VTime
p3568
sg18
NsbsVSan Francisco Chronicle/Walter Addiego
p3569
g3
(g4
g5
NtRp3570
(dp3571
g8
g3569
sg9
VWalter Addiego
p3572
sg11
S'http://www.metacritic.com/critic/walter-addiego?filter=movies'
p3573
sg13
(dp3574
g283
F7.5
sg79
F7.5
sg81
F7.5
sg285
F10
ssg16
VSan Francisco Chronicle
p3575
sg18
NsbsVThe Hollywood Reporter/Duane Byrge
p3576
g3
(g4
g5
NtRp3577
(dp3578
g8
g3576
sg9
VDuane Byrge
p3579
sg11
S'http://www.metacritic.com/critic?filter=movies'
p3580
sg13
(dp3581
g162
F5
ssg16
VThe Hollywood Reporter
p3582
sg18
NsbsVThe Globe and Mail (Toronto)/Christopher Harris
p3583
g3
(g4
g5
NtRp3584
(dp3585
g8
g3583
sg9
VChristopher Harris
p3586
sg11
S'http://www.metacritic.com/critic?filter=movies'
p3587
sg13
(dp3588
g51
F7.5
ssg16
VThe Globe and Mail (Toronto)
p3589
sg18
NsbsVEmpire/William Thomas
p3590
g3
(g4
g5
NtRp3591
(dp3592
g8
g3590
sg9
VWilliam Thomas
p3593
sg11
S'http://www.metacritic.com/critic/william-thomas?filter=movies'
p3594
sg13
(dp3595
g120
F6
ssg16
VEmpire
p3596
sg18
NsbsVTime/Richard Corliss
p3597
g3
(g4
g5
NtRp3598
(dp3599
g8
g3597
sg9
VRichard Corliss
p3600
sg11
S'http://www.metacritic.com/critic/richard-corliss?filter=movies'
p3601
sg13
(dp3602
g117
F10
sg118
F8
sg77
F7
sg121
F7
sg73
F10
sg540
F9
sg541
F10
sg41
F10
sg129
F10
sg130
F9
sg211
F10
sg119
F10
sg133
F5
sg135
F10
sg136
F9
sg157
F5
sg139
F10
sg15
F10
sg42
F10
sg432
F3
sg161
F10
sg145
F10
sg147
F10
sg132
F9
sg150
F10
sg151
F10
sg154
F4
sg156
F9
sg158
F10
sg296
F5
sg544
F10
sg163
F8
sg69
F7
sg164
F7
sg165
F10
sg98
F10
sg131
F10
sg169
F10
sg170
F9
sg174
F9
ssg16
VTime
p3603
sg18
NsbsVSan Francisco Chronicle/Judy Stone
p3604
g3
(g4
g5
NtRp3605
(dp3606
g8
g3604
sg9
VJudy Stone
p3607
sg11
S'http://www.metacritic.com/critic?filter=movies'
p3608
sg13
(dp3609
g541
F7.5
ssg16
VSan Francisco Chronicle
p3610
sg18
NsbsVNewsweek/David Ansen
p3611
g3
(g4
g5
NtRp3612
(dp3613
g8
g3611
sg9
VDavid Ansen
p3614
sg11
S'http://www.metacritic.com/critic/david-ansen?filter=movies'
p3615
sg13
(dp3616
g123
F8
sg130
F6
sg294
F9
sg135
F10
sg41
F10
sg138
F10
sg542
F8
sg139
F10
sg42
F9
sg172
F10
sg145
F7
sg147
F10
sg151
F9
sg153
F5
sg295
F10
sg141
F7
sg544
F10
sg165
F10
sg167
F7
sg171
F10
sg173
F9
sg174
F9
ssg16
VNewsweek
p3617
sg18
NsbsVHitfix/Gregory Ellwood
p3618
g3
(g4
g5
NtRp3619
(dp3620
g8
g3618
sg9
VGregory Ellwood
p3621
sg11
S'http://www.metacritic.com/critic/gregory-ellwood?filter=movies'
p3622
sg13
(dp3623
g166
F10
sg128
F8.3000000000000007
sg221
F10
sg155
F9.0999999999999996
sg159
F8.3000000000000007
sg99
F10
sg80
F10
sg81
F8.3000000000000007
ssg16
VHitfix
p3624
sg18
NsbsVPortland Oregonian/Marc Mohan
p3625
g3
(g4
g5
NtRp3626
(dp3627
g8
g3625
sg9
VMarc Mohan
p3628
sg11
S'http://www.metacritic.com/critic/marc-mohan?filter=movies'
p3629
sg13
(dp3630
g117
F8.3000000000000007
sg118
F9.0999999999999996
sg33
F9.0999999999999996
sg73
F10
sg119
F8.3000000000000007
sg71
F9.0999999999999996
sg148
F9.0999999999999996
sg163
F7.5
sg74
F9.0999999999999996
sg221
F5.7999999999999998
sg75
F10
sg76
F8.3000000000000007
sg15
F8.3000000000000007
sg77
F10
sg573
F8.3000000000000007
sg127
F9.0999999999999996
sg162
F5
sg285
F8.3000000000000007
ssg16
VPortland Oregonian
p3631
sg18
NsbsVUSA Today/Claudia Puig
p3632
g3
(g4
g5
NtRp3633
(dp3634
g8
g3632
sg9
VClaudia Puig
p3635
sg11
S'http://www.metacritic.com/critic/claudia-puig?filter=movies'
p3636
sg13
(dp3637
g117
F6.2999999999999998
sg118
F8.8000000000000007
sg161
F8.8000000000000007
sg121
F6.2999999999999998
sg123
F8.8000000000000007
sg73
F10
sg125
F6.2999999999999998
sg41
F10
sg43
F7.5
sg129
F10
sg119
F8.8000000000000007
sg133
F6.2999999999999998
sg135
F8.8000000000000007
sg136
F10
sg75
F8.8000000000000007
sg157
F7.5
sg141
F7.5
sg139
F10
sg15
F10
sg42
F10
sg138
F8.8000000000000007
sg132
F8.8000000000000007
sg145
F10
sg148
F8.8000000000000007
sg149
F7.5
sg150
F7.5
sg151
F7.5
sg152
F8.8000000000000007
sg153
F8.8000000000000007
sg77
F7.5
sg158
F8.8000000000000007
sg296
F8.8000000000000007
sg544
F7.5
sg162
F10
sg163
F8.8000000000000007
sg69
F6.2999999999999998
sg164
F6.2999999999999998
sg165
F8.8000000000000007
sg98
F10
sg131
F8.8000000000000007
sg76
F10
sg169
F10
sg170
F7.5
sg295
F10
sg172
F8.8000000000000007
ssg16
VUSA Today
p3638
sg18
NsbsVTV Guide Magazine/Maitland McDonagh
p3639
g3
(g4
g5
NtRp3640
(dp3641
g8
g3639
sg9
VMaitland McDonagh
p3642
sg11
S'http://www.metacritic.com/critic/maitland-mcdonagh?filter=movies'
p3643
sg13
(dp3644
g237
F7
sg120
F3.7999999999999998
sg123
F10
sg124
F6
sg126
F4
sg43
F7.5
sg160
F4
sg294
F8
sg135
F6
sg41
F7
sg138
F7.5
sg542
F5
sg140
F4
sg141
F7.5
sg432
F4
sg144
F8
sg145
F10
sg151
F6.2999999999999998
sg152
F7.5
sg296
F6
sg544
F7
sg167
F6
sg293
F8
sg172
F7.5
ssg16
VTV Guide Magazine
p3645
sg18
NsbsVThe Guardian/Lanre Bakare
p3646
g3
(g4
g5
NtRp3647
(dp3648
g8
g3646
sg9
VLanre Bakare
p3649
sg11
S'http://www.metacritic.com/critic/lanre-bakare?filter=movies'
p3650
sg13
(dp3651
g97
F6
ssg16
VThe Guardian
p3652
sg18
NsbsVThe New York Times/Stephen Holden
p3653
g3
(g4
g5
NtRp3654
(dp3655
g8
g3653
sg9
VStephen Holden
p3656
sg11
S'http://www.metacritic.com/critic/stephen-holden?filter=movies'
p3657
sg13
(dp3658
g297
F9
sg542
F10
sg221
F9
sg160
F2
sg60
F7
sg171
F10
sg79
F10
sg43
F6
ssg16
VThe New York Times
p3659
sg18
NsbsVVillage Voice/Michael Nordine
p3660
g3
(g4
g5
NtRp3661
(dp3662
g8
g3660
sg9
VMichael Nordine
p3663
sg11
S'http://www.metacritic.com/critic/michael-nordine?filter=movies'
p3664
sg13
(dp3665
g81
F9
ssg16
VVillage Voice
p3666
sg18
NsbsVLos Angeles Times/Robert Abele
p3667
g3
(g4
g5
NtRp3668
(dp3669
g8
g3667
sg9
VRobert Abele
p3670
sg11
S'http://www.metacritic.com/critic/robert-abele?filter=movies'
p3671
sg13
(dp3672
g281
F7
ssg16
VLos Angeles Times
p3673
sg18
NsbsVCineVue/Tom Graham
p3674
g3
(g4
g5
NtRp3675
(dp3676
g8
g3674
sg9
VTom Graham
p3677
sg11
S'http://www.metacritic.com/critic?filter=movies'
p3678
sg13
(dp3679
g155
F8
ssg16
VCineVue
p3680
sg18
NsbsVScreen International/Mark Adams
p3681
g3
(g4
g5
NtRp3682
(dp3683
g8
g3681
sg9
VMark Adams
p3684
sg11
S'http://www.metacritic.com/critic/mark-adams?filter=movies'
p3685
sg13
(dp3686
g182
F9
ssg16
VScreen International
p3687
sg18
NsbsVThe Globe and Mail (Toronto)/Jay Scott
p3688
g3
(g4
g5
NtRp3689
(dp3690
g8
g3688
sg9
VJay Scott
p3691
sg11
S'http://www.metacritic.com/critic/jay-scott?filter=movies'
p3692
sg13
(dp3693
g541
F10
ssg16
VThe Globe and Mail (Toronto)
p3694
sg18
NsbsVFilm Threat/Eric Campos
p3695
g3
(g4
g5
NtRp3696
(dp3697
g8
g3695
sg9
VEric Campos
p3698
sg11
S'http://www.metacritic.com/critic?filter=movies'
p3699
sg13
(dp3700
g135
F10
ssg16
VFilm Threat
p3701
sg18
NsbsVThe A.V. Club/Noel Murray
p3702
g3
(g4
g5
NtRp3703
(dp3704
g8
g3702
sg9
VNoel Murray
p3705
sg11
S'http://www.metacritic.com/critic/noel-murray?filter=movies'
p3706
sg13
(dp3707
g164
F6.7000000000000002
sg123
F9.0999999999999996
sg155
F9.0999999999999996
sg424
F9.0999999999999996
sg122
F7
sg295
F9.0999999999999996
sg42
F7.5
sg43
F6.7000000000000002
ssg16
VThe A.V. Club
p3708
sg18
NsbsVTotal Film/Jamie Graham
p3709
g3
(g4
g5
NtRp3710
(dp3711
g8
g3709
sg9
VJamie Graham
p3712
sg11
S'http://www.metacritic.com/critic/jamie-graham?filter=movies'
p3713
sg13
(dp3714
g33
F8
sg97
F10
sg75
F10
sg74
F10
sg68
F8
sg127
F10
sg80
F8
sg222
F8
ssg16
VTotal Film
p3715
sg18
NsbsVL.A. Weekly/Manohla Dargis
p3716
g3
(g4
g5
NtRp3717
(dp3718
g8
g3716
sg9
VManohla Dargis
p3719
sg11
S'http://www.metacritic.com/critic/manohla-dargis?filter=movies'
p3720
sg13
(dp3721
g540
F9
sg144
F6
sg296
F2
sg544
F10
ssg16
VL.A. Weekly
p3722
sg18
NsbsVWe Got This Covered/Joseph Falcone
p3723
g3
(g4
g5
NtRp3724
(dp3725
g8
g3723
sg9
VJoseph Falcone
p3726
sg11
S'http://www.metacritic.com/critic/joseph-falcone?filter=movies'
p3727
sg13
(dp3728
g100
F8
ssg16
VWe Got This Covered
p3729
sg18
NsbsVScreen International/Jonathan Romney
p3730
g3
(g4
g5
NtRp3731
(dp3732
g8
g3730
sg9
VJonathan Romney
p3733
sg11
S'http://www.metacritic.com/critic/jonathan-romney?filter=movies'
p3734
sg13
(dp3735
g72
F6
sg99
F9
ssg16
VScreen International
p3736
sg18
NsbsVThe Hollywood Reporter/Kirk Honeycutt
p3737
g3
(g4
g5
NtRp3738
(dp3739
g8
g3737
sg9
VKirk Honeycutt
p3740
sg11
S'http://www.metacritic.com/critic/kirk-honeycutt?filter=movies'
p3741
sg13
(dp3742
g161
F6
sg132
F10
sg164
F8
sg139
F10
sg165
F10
sg147
F10
sg167
F9
sg151
F8
sg174
F9
sg136
F10
sg158
F9
sg125
F7
sg169
F10
sg138
F8
sg145
F10
sg122
F8
sg295
F9
sg130
F6
sg170
F10
ssg16
VThe Hollywood Reporter
p3743
sg18
NsbsVEmpire/Damon Wise
p3744
g3
(g4
g5
NtRp3745
(dp3746
g8
g3744
sg9
VDamon Wise
p3747
sg11
S'http://www.metacritic.com/critic/damon-wise?filter=movies'
p3748
sg13
(dp3749
g121
F10
sg131
F10
sg76
F10
sg169
F8
sg141
F8
sg148
F8
ssg16
VEmpire
p3750
sg18
NsbsVVillage Voice/Alan Scherstuhl
p3751
g3
(g4
g5
NtRp3752
(dp3753
g8
g3751
sg9
VAlan Scherstuhl
p3754
sg11
S'http://www.metacritic.com/critic/alan-scherstuhl?filter=movies'
p3755
sg13
(dp3756
g282
F8
sg71
F10
sg72
F7
sg101
F10
sg25
F8
sg78
F10
sg79
F9
sg109
F6
ssg16
VVillage Voice
p3757
sg18
NsbsVTampa Bay Times/Steve Persall
p3758
g3
(g4
g5
NtRp3759
(dp3760
g8
g3758
sg9
VSteve Persall
p3761
sg11
S'http://www.metacritic.com/critic/steve-persall?filter=movies'
p3762
sg13
(dp3763
g117
F10
sg97
F10
sg121
F10
sg125
F6.7000000000000002
sg127
F10
sg128
F10
sg129
F10
sg119
F10
sg72
F6.7000000000000002
sg73
F10
sg168
F9.0999999999999996
sg75
F10
sg15
F10
sg142
F5.7999999999999998
sg143
F8.3000000000000007
sg148
F10
sg149
F10
sg150
F7.5
sg155
F8.3000000000000007
sg74
F10
sg77
F10
sg158
F8.3000000000000007
sg159
F8.3000000000000007
sg162
F10
sg163
F7.5
sg51
F5.7999999999999998
sg166
F7.5
sg80
F10
sg76
F10
sg169
F10
sg68
F10
sg109
F10
sg81
F10
ssg16
VTampa Bay Times
p3764
sg18
NsbsVRolling Stone/Peter Travers
p3765
g3
(g4
g5
NtRp3766
(dp3767
g8
g3765
sg9
VPeter Travers
p3768
sg11
S'http://www.metacritic.com/critic/peter-travers?filter=movies'
p3769
sg13
(dp3770
g117
F10
sg118
F8.8000000000000007
sg77
F8.8000000000000007
sg120
F2.5
sg220
F8.8000000000000007
sg121
F10
sg123
F10
sg73
F10
sg540
F9
sg124
F2.5
sg125
F7.5
sg222
F8.8000000000000007
sg127
F8.8000000000000007
sg99
F8.8000000000000007
sg128
F8.8000000000000007
sg129
F8.8000000000000007
sg130
F8.8000000000000007
sg131
F10
sg119
F8.8000000000000007
sg432
F4
sg294
F9
sg72
F6.2999999999999998
sg97
F10
sg133
F6.2999999999999998
sg532
F7.5
sg135
F7.5
sg136
F8.8000000000000007
sg75
F10
sg15
F10
sg138
F10
sg100
F8.8000000000000007
sg542
F10
sg139
F10
sg41
F8.8000000000000007
sg42
F8.8000000000000007
sg140
F0
sg281
F8.8000000000000007
sg544
F10
sg141
F8.8000000000000007
sg142
F8.8000000000000007
sg143
F5
sg132
F8.8000000000000007
sg145
F8.8000000000000007
sg147
F10
sg148
F8.8000000000000007
sg149
F8.8000000000000007
sg150
F8.8000000000000007
sg151
F7.5
sg152
F10
sg153
F8.8000000000000007
sg172
F10
sg155
F8.8000000000000007
sg74
F10
sg182
F8.8000000000000007
sg156
F8.8000000000000007
sg68
F10
sg157
F8.8000000000000007
sg158
F8.8000000000000007
sg163
F8.8000000000000007
sg159
F10
sg161
F7.5
sg543
F10
sg162
F8.8000000000000007
sg293
F10
sg96
F8.8000000000000007
sg297
F9
sg69
F7.5
sg164
F6.2999999999999998
sg165
F8.8000000000000007
sg283
F7.5
sg59
F8
sg166
F8.8000000000000007
sg167
F7.5
sg98
F10
sg80
F10
sg109
F8.8000000000000007
sg76
F8.8000000000000007
sg169
F10
sg170
F8.8000000000000007
sg168
F8.8000000000000007
sg171
F10
sg174
F8.8000000000000007
sg173
F8.8000000000000007
sg81
F8.8000000000000007
sg285
F10
ssg16
VRolling Stone
p3771
sg18
NsbsVNew York Daily News/Amy Rowe
p3772
g3
(g4
g5
NtRp3773
(dp3774
g8
g3772
sg9
VAmy Rowe
p3775
sg11
S'http://www.metacritic.com/critic?filter=movies'
p3776
sg13
(dp3777
g100
F7
ssg16
VNew York Daily News
p3778
sg18
NsbsVBoston Globe/Jay Carr
p3779
g3
(g4
g5
NtRp3780
(dp3781
g8
g3779
sg9
VJay Carr
p3782
sg11
S'http://www.metacritic.com/critic/jay-carr?filter=movies'
p3783
sg13
(dp3784
g432
F2.5
sg297
F10
sg294
F7.5
sg293
F10
sg542
F10
sg468
F6.2999999999999998
sg296
F8.8000000000000007
sg544
F10
ssg16
VBoston Globe
p3785
sg18
NsbsVNew York Daily News/Jami Bernard
p3786
g3
(g4
g5
NtRp3787
(dp3788
g8
g3786
sg9
VJami Bernard
p3789
sg11
S'http://www.metacritic.com/critic/jami-bernard?filter=movies'
p3790
sg13
(dp3791
g237
F8.8000000000000007
sg297
F8.8000000000000007
sg294
F5
sg293
F10
sg171
F10
sg542
F8.8000000000000007
sg126
F3.7999999999999998
sg173
F8.8000000000000007
ssg16
VNew York Daily News
p3792
sg18
NsbsVRogerEbert.com/Matt Zoller Seitz
p3793
g3
(g4
g5
NtRp3794
(dp3795
g8
g3793
sg9
VMatt Zoller Seitz
p3796
sg11
S'http://www.metacritic.com/critic/matt-zoller-seitz?filter=movies'
p3797
sg13
(dp3798
g69
F10
sg97
F10
sg73
F10
sg101
F7.5
sg74
F10
sg573
F10
sg109
F7.5
sg68
F8.8000000000000007
ssg16
VRogerEbert.com
p3799
sg18
NsbsVFilm Threat/Ron Wells
p3800
g3
(g4
g5
NtRp3801
(dp3802
g8
g3800
sg9
VRon Wells
p3803
sg11
S'http://www.metacritic.com/critic/ron-wells?filter=movies'
p3804
sg13
(dp3805
g544
F8
ssg16
VFilm Threat
p3806
sg18
NsbsVThe Hollywood Reporter/Frank Scheck
p3807
g3
(g4
g5
NtRp3808
(dp3809
g8
g3807
sg9
VFrank Scheck
p3810
sg11
S'http://www.metacritic.com/critic/frank-scheck?filter=movies'
p3811
sg13
(dp3812
g120
F3
ssg16
VThe Hollywood Reporter
p3813
sg18
NsbsVNPR/Ian Buckwalter
p3814
g3
(g4
g5
NtRp3815
(dp3816
g8
g3814
sg9
VIan Buckwalter
p3817
sg11
S'http://www.metacritic.com/critic/ian-buckwalter?filter=movies'
p3818
sg13
(dp3819
g143
F4.5
sg163
F8
sg77
F9.5
ssg16
VNPR
p3820
sg18
NsbsVSlate/David Edelstein
p3821
g3
(g4
g5
NtRp3822
(dp3823
g8
g3821
sg9
VDavid Edelstein
p3824
sg11
S'http://www.metacritic.com/critic/david-edelstein?filter=movies'
p3825
sg13
(dp3826
g160
F7
sg297
F9
sg132
F10
sg147
F9
sg294
F9
sg167
F7
sg135
F7
sg136
F9
sg144
F3
sg41
F10
sg156
F8
sg542
F10
sg171
F6
sg468
F5
sg140
F6
sg173
F10
sg544
F10
sg174
F9
ssg16
VSlate
p3827
sg18
NsbsVThe New York Times/Vincent Canby
p3828
g3
(g4
g5
NtRp3829
(dp3830
g8
g3828
sg9
VVincent Canby
p3831
sg11
S'http://www.metacritic.com/critic?filter=movies'
p3832
sg13
(dp3833
g146
F9
sg541
F10
sg543
F10
ssg16
VThe New York Times
p3834
sg18
NsbsVVariety/Maggie Lee
p3835
g3
(g4
g5
NtRp3836
(dp3837
g8
g3835
sg9
VMaggie Lee
p3838
sg11
S'http://www.metacritic.com/critic/maggie-lee?filter=movies'
p3839
sg13
(dp3840
g33
F9
sg70
F8
ssg16
VVariety
p3841
sg18
NsbsVTotal Film/Matthew Leyland
p3842
g3
(g4
g5
NtRp3843
(dp3844
g8
g3842
sg9
VMatthew Leyland
p3845
sg11
S'http://www.metacritic.com/critic/matthew-leyland?filter=movies'
p3846
sg13
(dp3847
g150
F10
sg133
F10
ssg16
VTotal Film
p3848
sg18
NsbsVVillage Voice/Dennis Lim
p3849
g3
(g4
g5
NtRp3850
(dp3851
g8
g3849
sg9
VDennis Lim
p3852
sg11
S'http://www.metacritic.com/critic/dennis-lim?filter=movies'
p3853
sg13
(dp3854
g432
F3
sg542
F8
ssg16
VVillage Voice
p3855
sg18
NsbsVAustin Chronicle/Kimberley Jones
p3856
g3
(g4
g5
NtRp3857
(dp3858
g8
g3856
sg9
VKimberley Jones
p3859
sg11
S'http://www.metacritic.com/critic/kimberley-jones?filter=movies'
p3860
sg13
(dp3861
g117
F8.9000000000000004
sg119
F8.9000000000000004
sg72
F6.7000000000000002
sg136
F7.7999999999999998
sg75
F10
sg157
F7.7999999999999998
sg542
F7.7999999999999998
sg148
F10
sg149
F7.7999999999999998
sg163
F6.7000000000000002
sg74
F8.9000000000000004
sg182
F10
sg77
F8.9000000000000004
sg158
F7.7999999999999998
sg296
F8.9000000000000004
sg162
F6.7000000000000002
sg96
F8.9000000000000004
sg297
F7.7999999999999998
sg166
F7.7999999999999998
sg169
F8.9000000000000004
sg468
F2
sg174
F8.9000000000000004
sg68
F6.7000000000000002
sg156
F5
ssg16
VAustin Chronicle
p3862
sg18
NsbsVArizona Republic/Bill Goodykoontz
p3863
g3
(g4
g5
NtRp3864
(dp3865
g8
g3863
sg9
VBill Goodykoontz
p3866
sg11
S'http://www.metacritic.com/critic/bill-goodykoontz?filter=movies'
p3867
sg13
(dp3868
g117
F10
sg118
F8
sg33
F8
sg97
F10
sg121
F9
sg73
F10
sg125
F7
sg127
F9
sg128
F8
sg129
F10
sg119
F10
sg72
F8
sg220
F9
sg133
F5
sg532
F9
sg99
F9
sg75
F10
sg424
F8
sg15
F10
sg100
F8
sg348
F8
sg281
F8
sg142
F8
sg148
F9
sg150
F8
sg163
F9
sg221
F8
sg155
F9
sg74
F10
sg182
F9
sg77
F9
sg158
F10
sg159
F9
sg222
F8
sg162
F9
sg96
F9
sg69
F8
sg283
F9
sg166
F9
sg109
F9
sg168
F8
sg76
F8
sg169
F10
sg68
F9
sg80
F10
sg81
F8
sg285
F9
ssg16
VArizona Republic
p3869
sg18
NsbsVEntertainment Weekly/Chris Nashawaty
p3870
g3
(g4
g5
NtRp3871
(dp3872
g8
g3870
sg9
VChris Nashawaty
p3873
sg11
S'http://www.metacritic.com/critic/chris-nashawaty?filter=movies'
p3874
sg13
(dp3875
g142
F7.5
sg100
F9.0999999999999996
sg69
F5
sg97
F10
sg119
F7.5
sg281
F10
sg72
F7.5
sg74
F10
sg128
F10
sg109
F9.0999999999999996
sg75
F9.0999999999999996
sg155
F8.3000000000000007
sg76
F8.3000000000000007
sg222
F7.5
sg68
F9.0999999999999996
sg159
F9.0999999999999996
sg99
F10
sg348
F9.0999999999999996
sg80
F10
sg81
F10
sg285
F7.5
ssg16
VEntertainment Weekly
p3876
sg18
NsbsVChicago Tribune/Marc Caro
p3877
g3
(g4
g5
NtRp3878
(dp3879
g8
g3877
sg9
VMarc Caro
p3880
sg11
S'http://www.metacritic.com/critic?filter=movies'
p3881
sg13
(dp3882
g160
F8.8000000000000007
ssg16
VChicago Tribune
p3883
sg18
NsbsVPhiladelphia Inquirer/Carrie Rickey
p3884
g3
(g4
g5
NtRp3885
(dp3886
g8
g3884
sg9
VCarrie Rickey
p3887
sg11
S'http://www.metacritic.com/critic/carrie-rickey?filter=movies'
p3888
sg13
(dp3889
g123
F10
sg124
F5
sg125
F7.5
sg126
F5
sg160
F8.8000000000000007
sg135
F7.5
sg136
F8.8000000000000007
sg542
F7.5
sg42
F10
sg432
F2.5
sg143
F5
sg145
F7.5
sg147
F10
sg149
F8.8000000000000007
sg153
F8.8000000000000007
sg295
F10
sg122
F8.8000000000000007
sg51
F7.5
sg167
F6.2999999999999998
sg98
F10
sg293
F7.5
sg169
F10
sg171
F8.8000000000000007
sg468
F6.2999999999999998
sg173
F8.8000000000000007
sg174
F10
ssg16
VPhiladelphia Inquirer
p3890
sg18
NsbsVBoxoffice Magazine/Amy Nicholson
p3891
g3
(g4
g5
NtRp3892
(dp3893
g8
g3891
sg9
VAmy Nicholson
p3894
sg11
S'http://www.metacritic.com/critic?filter=movies'
p3895
sg13
(dp3896
g150
F7
ssg16
VBoxoffice Magazine
p3897
sg18
NsbsVChicago Sun-Times/Steven Boone
p3898
g3
(g4
g5
NtRp3899
(dp3900
g8
g3898
sg9
VSteven Boone
p3901
sg11
S'http://www.metacritic.com/critic?filter=movies'
p3902
sg13
(dp3903
g283
F8.8000000000000007
ssg16
VChicago Sun-Times
p3904
sg18
NsbsVRogerEbert.com/Brian Tallerico
p3905
g3
(g4
g5
NtRp3906
(dp3907
g8
g3905
sg9
VBrian Tallerico
p3908
sg11
S'http://www.metacritic.com/critic/brian-tallerico?filter=movies'
p3909
sg13
(dp3910
g72
F7.5
sg128
F7.5
sg424
F8.8000000000000007
sg221
F7.5
ssg16
VRogerEbert.com
p3911
sg18
NsbsVChicago Reader/Jonathan Rosenbaum
p3912
g3
(g4
g5
NtRp3913
(dp3914
g8
g3912
sg9
VJonathan Rosenbaum
p3915
sg11
S'http://www.metacritic.com/critic/jonathan-rosenbaum?filter=movies'
p3916
sg13
(dp3917
g237
F9
sg134
F8
sg123
F10
sg60
F4
sg541
F10
sg43
F5
sg130
F5
sg294
F9
sg136
F7
sg137
F10
sg544
F6
sg141
F7
sg542
F9
sg154
F8
sg42
F7
sg140
F6
sg172
F7
sg432
F6
sg144
F8
sg147
F7
sg132
F10
sg152
F3
sg156
F6
sg543
F2
sg297
F9
sg59
F8
sg293
F9
sg171
F7
sg468
F4
sg173
F9
sg174
F7
ssg16
VChicago Reader
p3918
sg18
NsbsVThe New York Times/Bosley Crowther
p3919
g3
(g4
g5
NtRp3920
(dp3921
g8
g3919
sg9
VBosley Crowther
p3922
sg11
S'http://www.metacritic.com/critic?filter=movies'
p3923
sg13
(dp3924
g134
F7
ssg16
VThe New York Times
p3925
sg18
NsbsVThe A.V. Club/David Ehrlich
p3926
g3
(g4
g5
NtRp3927
(dp3928
g8
g3926
sg9
VDavid Ehrlich
p3929
sg11
S'http://www.metacritic.com/critic/david-ehrlich?filter=movies'
p3930
sg13
(dp3931
g33
F10
ssg16
VThe A.V. Club
p3932
sg18
NsbsVThe Hollywood Reporter/Eric Hansen
p3933
g3
(g4
g5
NtRp3934
(dp3935
g8
g3933
sg9
VEric Hansen
p3936
sg11
S'http://www.metacritic.com/critic?filter=movies'
p3937
sg13
(dp3938
g42
F8
ssg16
VThe Hollywood Reporter
p3939
sg18
NsbsVThe Film Stage/Giovanni Marchini Camia
p3940
g3
(g4
g5
NtRp3941
(dp3942
g8
g3940
sg9
VGiovanni Marchini Camia
p3943
sg11
S'http://www.metacritic.com/critic/giovanni-marchini-camia?filter=movies'
p3944
sg13
(dp3945
g284
F7.5
sg96
F6.7000000000000002
sg100
F10
sg128
F7.5
sg81
F8.3000000000000007
ssg16
VThe Film Stage
p3946
sg18
NsbsVUSA Today/Brian Truitt
p3947
g3
(g4
g5
NtRp3948
(dp3949
g8
g3947
sg9
VBrian Truitt
p3950
sg11
S'http://www.metacritic.com/critic/brian-truitt?filter=movies'
p3951
sg13
(dp3952
g142
F6.2999999999999998
sg97
F10
sg166
F8.8000000000000007
sg72
F7.5
sg74
F8.8000000000000007
sg80
F10
sg68
F7.5
ssg16
VUSA Today
p3953
sg18
NsbsVBoxoffice Magazine/John P. McCarthy
p3954
g3
(g4
g5
NtRp3955
(dp3956
g8
g3954
sg9
VJohn P. McCarthy
p3957
sg11
S'http://www.metacritic.com/critic/john-p-mccarthy?filter=movies'
p3958
sg13
(dp3959
g143
F5
ssg16
VBoxoffice Magazine
p3960
sg18
NsbsVFilm Threat/Clint Morris
p3961
g3
(g4
g5
NtRp3962
(dp3963
g8
g3961
sg9
VClint Morris
p3964
sg11
S'http://www.metacritic.com/critic?filter=movies'
p3965
sg13
(dp3966
g126
F4
ssg16
VFilm Threat
p3967
sg18
NsbsVVillage Voice/Alex Pappademas
p3968
g3
(g4
g5
NtRp3969
(dp3970
g8
g3968
sg9
VAlex Pappademas
p3971
sg11
S'http://www.metacritic.com/critic?filter=movies'
p3972
sg13
(dp3973
g126
F3
ssg16
VVillage Voice
p3974
sg18
NsbsVTime Out London/Wendy Ide
p3975
g3
(g4
g5
NtRp3976
(dp3977
g8
g3975
sg9
VWendy Ide
p3978
sg11
S'http://www.metacritic.com/critic?filter=movies'
p3979
sg13
(dp3980
g101
F8
ssg16
VTime Out London
p3981
sg18
NsbsVSlant Magazine/Nick Schager
p3982
g3
(g4
g5
NtRp3983
(dp3984
g8
g3982
sg9
VNick Schager
p3985
sg11
S'http://www.metacritic.com/critic/nick-schager?filter=movies'
p3986
sg13
(dp3987
g143
F2.5
sg150
F7.5
sg129
F8.8000000000000007
ssg16
VSlant Magazine
p3988
sg18
NsbsVPortland Oregonian/Kim Morgan
p3989
g3
(g4
g5
NtRp3990
(dp3991
g8
g3989
sg9
VKim Morgan
p3992
sg11
S'http://www.metacritic.com/critic/kim-morgan?filter=movies'
p3993
sg13
(dp3994
g126
F4.2000000000000002
sg432
F5
sg468
F4.2000000000000002
ssg16
VPortland Oregonian
p3995
sg18
NsbsVOrlando Sentinel/Roger Moore
p3996
g3
(g4
g5
NtRp3997
(dp3998
g8
g3996
sg9
VRoger Moore
p3999
sg11
S'http://www.metacritic.com/critic/roger-moore?filter=movies'
p4000
sg13
(dp4001
g143
F5
sg149
F7.5
sg125
F7.5
sg169
F10
sg158
F7.5
sg162
F7.5
ssg16
VOrlando Sentinel
p4002
sg18
NsbsVThe New York Times/A.O. Scott
p4003
g3
(g4
g5
NtRp4004
(dp4005
g8
g4003
sg9
VA.O. Scott
p4006
sg11
S'http://www.metacritic.com/critic/ao-scott?filter=movies'
p4007
sg13
(dp4008
g118
F10
sg326
F9
sg97
F9
sg121
F10
sg123
F10
sg73
F9
sg540
F10
sg124
F1
sg125
F7
sg99
F7
sg128
F6
sg129
F8
sg72
F6
sg133
F5
sg135
F9
sg41
F10
sg139
F10
sg157
F7
sg42
F10
sg348
F6
sg281
F7
sg432
F5
sg148
F10
sg149
F9
sg163
F10
sg152
F10
sg153
F8
sg155
F9
sg74
F10
sg182
F9
sg77
F10
sg158
F6
sg159
F10
sg296
F9
sg162
F5
sg96
F10
sg165
F10
sg283
F10
sg166
F7
sg101
F10
sg109
F10
sg76
F9
sg78
F8
sg295
F9
sg174
F10
sg80
F10
sg81
F10
sg285
F10
ssg16
VThe New York Times
p4009
sg18
NsbsVFilm Threat/Ross Williams
p4010
g3
(g4
g5
NtRp4011
(dp4012
g8
g4010
sg9
VRoss Williams
p4013
sg11
S'http://www.metacritic.com/critic/ross-williams?filter=movies'
p4014
sg13
(dp4015
g296
F10
ssg16
VFilm Threat
p4016
sg18
NsbsVFilm Threat/Phil Hall
p4017
g3
(g4
g5
NtRp4018
(dp4019
g8
g4017
sg9
VPhil Hall
p4020
sg11
S'http://www.metacritic.com/critic/phil-hall?filter=movies'
p4021
sg13
(dp4022
g171
F4
sg173
F5
ssg16
VFilm Threat
p4023
sg18
NsbsVNew York Daily News/Jordan Hoffman
p4024
g3
(g4
g5
NtRp4025
(dp4026
g8
g4024
sg9
VJordan Hoffman
p4027
sg11
S'http://www.metacritic.com/critic?filter=movies'
p4028
sg13
(dp4029
g79
F8
sg222
F8
ssg16
VNew York Daily News
p4030
sg18
NsbsVLos Angeles Times/Carina Chocano
p4031
g3
(g4
g5
NtRp4032
(dp4033
g8
g4031
sg9
VCarina Chocano
p4034
sg11
S'http://www.metacritic.com/critic/carina-chocano?filter=movies'
p4035
sg13
(dp4036
g295
F8
sg136
F9
sg43
F7
sg156
F8
ssg16
VLos Angeles Times
p4037
sg18
NsbsVL.A. Weekly/John Patterson
p4038
g3
(g4
g5
NtRp4039
(dp4040
g8
g4038
sg9
VJohn Patterson
p4041
sg11
S'http://www.metacritic.com/critic/john-patterson?filter=movies'
p4042
sg13
(dp4043
g160
F8
ssg16
VL.A. Weekly
p4044
sg18
NsbsVEmpire/Colin Kennedy
p4045
g3
(g4
g5
NtRp4046
(dp4047
g8
g4045
sg9
VColin Kennedy
p4048
sg11
S'http://www.metacritic.com/critic?filter=movies'
p4049
sg13
(dp4050
g132
F8
ssg16
VEmpire
p4051
sg18
NsbsVSalon.com/Max Cea
p4052
g3
(g4
g5
NtRp4053
(dp4054
g8
g4052
sg9
VMax Cea
p4055
sg11
S'http://www.metacritic.com/critic?filter=movies'
p4056
sg13
(dp4057
g100
F9
ssg16
VSalon.com
p4058
sg18
NsbsVVillage Voice/Chris Packham
p4059
g3
(g4
g5
NtRp4060
(dp4061
g8
g4059
sg9
VChris Packham
p4062
sg11
S'http://www.metacritic.com/critic?filter=movies'
p4063
sg13
(dp4064
g163
F9
ssg16
VVillage Voice
p4065
sg18
NsbsVCharlotte Observer/Lawrence Toppman
p4066
g3
(g4
g5
NtRp4067
(dp4068
g8
g4066
sg9
VLawrence Toppman
p4069
sg11
S'http://www.metacritic.com/critic/lawrence-toppman?filter=movies'
p4070
sg13
(dp4071
g117
F8.8000000000000007
sg121
F8.8000000000000007
sg123
F10
sg73
F10
sg124
F6.2999999999999998
sg126
F3.7999999999999998
sg127
F8.8000000000000007
sg99
F8.8000000000000007
sg128
F6.2999999999999998
sg129
F8.8000000000000007
sg130
F8.8000000000000007
sg131
F6.2999999999999998
sg119
F10
sg294
F2.5
sg72
F7.5
sg133
F7.5
sg135
F7.5
sg136
F7.5
sg75
F8.3000000000000007
sg15
F10
sg138
F7.5
sg542
F7.5
sg139
F8.8000000000000007
sg41
F10
sg140
F3.7999999999999998
sg348
F9.0999999999999996
sg141
F8.8000000000000007
sg432
F3.7999999999999998
sg143
F6.2999999999999998
sg132
F7.5
sg145
F10
sg147
F10
sg148
F8.3000000000000007
sg149
F6.2999999999999998
sg150
F7.5
sg151
F7.5
sg152
F7.5
sg153
F8.8000000000000007
sg74
F10
sg182
F7.5
sg122
F10
sg158
F8.8000000000000007
sg544
F10
sg162
F8.8000000000000007
sg293
F8.8000000000000007
sg163
F10
sg164
F5
sg165
F10
sg166
F9.0999999999999996
sg167
F10
sg80
F10
sg168
F8.8000000000000007
sg169
F10
sg68
F5
sg171
F10
sg468
F3.7999999999999998
sg172
F7.5
sg173
F8.8000000000000007
sg81
F8.8000000000000007
sg174
F6.2999999999999998
ssg16
VCharlotte Observer
p4072
sg18
NsbsVFilm.com/Stephanie Zacharek
p4073
g3
(g4
g5
NtRp4074
(dp4075
g8
g4073
sg9
VStephanie Zacharek
p4076
sg11
S'http://www.metacritic.com/critic/stephanie-zacharek?filter=movies'
p4077
sg13
(dp4078
g117
F10
ssg16
VFilm.com
p4079
sg18
NsbsVThe New York Times/Dana Stevens
p4080
g3
(g4
g5
NtRp4081
(dp4082
g8
g4080
sg9
VDana Stevens
p4083
sg11
S'http://www.metacritic.com/critic/dana-stevens?filter=movies'
p4084
sg13
(dp4085
g136
F9
sg122
F9
sg126
F2
sg468
F3
sg140
F4
sg173
F9
sg130
F7
ssg16
VThe New York Times
p4086
sg18
NsbsVTNT RoughCut/Matt Kelsey
p4087
g3
(g4
g5
NtRp4088
(dp4089
g8
g4087
sg9
VMatt Kelsey
p4090
sg11
S'http://www.metacritic.com/critic?filter=movies'
p4091
sg13
(dp4092
g160
F8.5
ssg16
VTNT RoughCut
p4093
sg18
NsbsVTime/Mary Pols
p4094
g3
(g4
g5
NtRp4095
(dp4096
g8
g4094
sg9
VMary Pols
p4097
sg11
S'http://www.metacritic.com/critic/mary-pols?filter=movies'
p4098
sg13
(dp4099
g283
F8
sg143
F8
sg125
F8
sg74
F10
sg162
F8
ssg16
VTime
p4100
sg18
NsbsVMovieline/Stephanie Zacharek
p4101
g3
(g4
g5
NtRp4102
(dp4103
g8
g4101
sg9
VStephanie Zacharek
p4104
sg11
S'http://www.metacritic.com/critic/stephanie-zacharek?filter=movies'
p4105
sg13
(dp4106
g143
F4
sg149
F9
sg125
F7.5
sg169
F9.5
sg158
F3
sg129
F8.5
sg162
F8.5
ssg16
VMovieline
p4107
sg18
NsbsVIndiewire/Eric Kohn
p4108
g3
(g4
g5
NtRp4109
(dp4110
g8
g4108
sg9
VEric Kohn
p4111
sg11
S'http://www.metacritic.com/critic/eric-kohn?filter=movies'
p4112
sg13
(dp4113
g117
F10
sg118
F7.5
sg97
F8.3000000000000007
sg280
F9.0999999999999996
sg71
F9.0999999999999996
sg281
F8.3000000000000007
sg73
F9.0999999999999996
sg212
F10
sg125
F6.7000000000000002
sg127
F9.0999999999999996
sg128
F6.7000000000000002
sg129
F10
sg119
F9.0999999999999996
sg72
F7.5
sg220
F10
sg133
F7.5
sg99
F9.0999999999999996
sg25
F7.5
sg75
F9.0999999999999996
sg15
F10
sg100
F10
sg142
F6.7000000000000002
sg148
F9.0999999999999996
sg150
F7.5
sg74
F9.0999999999999996
sg182
F9.0999999999999996
sg77
F9.0999999999999996
sg159
F10
sg222
F10
sg163
F7.5
sg69
F8.3000000000000007
sg283
F7.5
sg168
F8.3000000000000007
sg76
F6.7000000000000002
sg68
F9.0999999999999996
sg78
F10
sg80
F7.5
sg81
F9.0999999999999996
ssg16
VIndiewire
p4114
sg18
NsbsVTime Out New York/Tomris Laffly
p4115
g3
(g4
g5
NtRp4116
(dp4117
g8
g4115
sg9
VTomris Laffly
p4118
sg11
S'http://www.metacritic.com/critic?filter=movies'
p4119
sg13
(dp4120
g72
F10
ssg16
VTime Out New York
p4121
sg18
NsbsVThe Guardian/Brian Moylan
p4122
g3
(g4
g5
NtRp4123
(dp4124
g8
g4122
sg9
VBrian Moylan
p4125
sg11
S'http://www.metacritic.com/critic?filter=movies'
p4126
sg13
(dp4127
g168
F8
ssg16
VThe Guardian
p4128
sg18
NsbsVPortland Oregonian/Diana Abu-Jaber
p4129
g3
(g4
g5
NtRp4130
(dp4131
g8
g4129
sg9
VDiana Abu-Jaber
p4132
sg11
S'http://www.metacritic.com/critic/diana-abu-jaber?filter=movies'
p4133
sg13
(dp4134
g160
F7.5
ssg16
VPortland Oregonian
p4135
sg18
NsbsVVariety/Rob Nelson
p4136
g3
(g4
g5
NtRp4137
(dp4138
g8
g4136
sg9
VRob Nelson
p4139
sg11
S'http://www.metacritic.com/critic/rob-nelson?filter=movies'
p4140
sg13
(dp4141
g532
F4
ssg16
VVariety
p4142
sg18
NsbsVChicago Tribune/Gene Siskel
p4143
g3
(g4
g5
NtRp4144
(dp4145
g8
g4143
sg9
VGene Siskel
p4146
sg11
S'http://www.metacritic.com/critic/gene-siskel?filter=movies'
p4147
sg13
(dp4148
g146
F10
sg59
F10
sg154
F10
ssg16
VChicago Tribune
p4149
sg18
NsbsVL.A. Weekly/Scott Foundas
p4150
g3
(g4
g5
NtRp4151
(dp4152
g8
g4150
sg9
VScott Foundas
p4153
sg11
S'http://www.metacritic.com/critic/scott-foundas?filter=movies'
p4154
sg13
(dp4155
g120
F5
sg167
F8
sg151
F10
sg98
F9
sg124
F8
sg41
F10
sg138
F8
sg122
F9
sg42
F5
sg172
F10
sg43
F5
sg141
F9
sg170
F10
ssg16
VL.A. Weekly
p4156
sg18
NsbsVNew York Post/Jonathan Foreman
p4157
g3
(g4
g5
NtRp4158
(dp4159
g8
g4157
sg9
VJonathan Foreman
p4160
sg11
S'http://www.metacritic.com/critic/jonathan-foreman?filter=movies'
p4161
sg13
(dp4162
g540
F10
sg135
F7.5
sg468
F5
sg144
F5
sg542
F10
ssg16
VNew York Post
p4163
sg18
NsbsVWashington Post/Michael O'Sullivan
p4164
g3
(g4
g5
NtRp4165
(dp4166
g8
g4164
sg9
VMichael O'Sullivan
p4167
sg11
S'http://www.metacritic.com/critic/michael-osullivan?filter=movies'
p4168
sg13
(dp4169
g222
F8.8000000000000007
sg33
F8.8000000000000007
sg132
F9
sg573
F8.8000000000000007
sg532
F7.5
ssg16
VWashington Post
p4170
sg18
NsbsVTotal Film/Emma Morgan
p4171
g3
(g4
g5
NtRp4172
(dp4173
g8
g4171
sg9
VEmma Morgan
p4174
sg11
S'http://www.metacritic.com/critic?filter=movies'
p4175
sg13
(dp4176
g148
F8
ssg16
VTotal Film
p4177
sg18
NsbsVFilm Threat/Harry Hartoonian
p4178
g3
(g4
g5
NtRp4179
(dp4180
g8
g4178
sg9
VHarry Hartoonian
p4181
sg11
S'http://www.metacritic.com/critic?filter=movies'
p4182
sg13
(dp4183
g60
F2
ssg16
VFilm Threat
p4184
sg18
NsbsVBoxoffice Magazine/Sara Maria Vizcarrondo
p4185
g3
(g4
g5
NtRp4186
(dp4187
g8
g4185
sg9
VSara Maria Vizcarrondo
p4188
sg11
S'http://www.metacritic.com/critic/sara-maria-vizcarrondo?filter=movies'
p4189
sg13
(dp4190
g121
F7
ssg16
VBoxoffice Magazine
p4191
sg18
NsbsVScreenCrush/Matt Singer
p4192
g3
(g4
g5
NtRp4193
(dp4194
g8
g4192
sg9
VMatt Singer
p4195
sg11
S'http://www.metacritic.com/critic/matt-singer?filter=movies'
p4196
sg13
(dp4197
g142
F7
sg72
F8
sg128
F8
ssg16
VScreenCrush
p4198
sg18
NsbsVFilm Threat/Mariko McDonald
p4199
g3
(g4
g5
NtRp4200
(dp4201
g8
g4199
sg9
VMariko McDonald
p4202
sg11
S'http://www.metacritic.com/critic?filter=movies'
p4203
sg13
(dp4204
g132
F10
ssg16
VFilm Threat
p4205
sg18
NsbsVThe Guardian/Ed Gibbs
p4206
g3
(g4
g5
NtRp4207
(dp4208
g8
g4206
sg9
VEd Gibbs
p4209
sg11
S'http://www.metacritic.com/critic?filter=movies'
p4210
sg13
(dp4211
g166
F8
ssg16
VThe Guardian
p4212
sg18
NsbsVVariety/Guy Lodge
p4213
g3
(g4
g5
NtRp4214
(dp4215
g8
g4213
sg9
VGuy Lodge
p4216
sg11
S'http://www.metacritic.com/critic/guy-lodge?filter=movies'
p4217
sg13
(dp4218
g282
F6
sg81
F10
sg221
F8
ssg16
VVariety
p4219
sg18
NsbsVWall Street Journal/Joanne Kaufman
p4220
g3
(g4
g5
NtRp4221
(dp4222
g8
g4220
sg9
VJoanne Kaufman
p4223
sg11
S'http://www.metacritic.com/critic?filter=movies'
p4224
sg13
(dp4225
g161
F5
ssg16
VWall Street Journal
p4226
sg18
NsbsVMcClatchy-Tribune News Service/Roger Moore
p4227
g3
(g4
g5
NtRp4228
(dp4229
g8
g4227
sg9
VRoger Moore
p4230
sg11
S'http://www.metacritic.com/critic/roger-moore?filter=movies'
p4231
sg13
(dp4232
g33
F7.5
sg69
F6.2999999999999998
sg119
F8.8000000000000007
sg148
F8.8000000000000007
sg73
F8.8000000000000007
sg75
F10
sg76
F10
sg15
F10
sg77
F6.2999999999999998
ssg16
VMcClatchy-Tribune News Service
p4233
sg18
NsbsVSan Francisco Chronicle/David Lewis
p4234
g3
(g4
g5
NtRp4235
(dp4236
g8
g4234
sg9
VDavid Lewis
p4237
sg11
S'http://www.metacritic.com/critic?filter=movies'
p4238
sg13
(dp4239
g573
F7.5
ssg16
VSan Francisco Chronicle
p4240
sg18
NsbsVScreen International/Dan Fainaru
p4241
g3
(g4
g5
NtRp4242
(dp4243
g8
g4241
sg9
VDan Fainaru
p4244
sg11
S'http://www.metacritic.com/critic/dan-fainaru?filter=movies'
p4245
sg13
(dp4246
g282
F5
ssg16
VScreen International
p4247
sg18
NsbsVSlant Magazine/Matt Brennan
p4248
g3
(g4
g5
NtRp4249
(dp4250
g8
g4248
sg9
VMatt Brennan
p4251
sg11
S'http://www.metacritic.com/critic/matt-brennan?filter=movies'
p4252
sg13
(dp4253
g182
F10
ssg16
VSlant Magazine
p4254
sg18
NsbsVNew York Post/V.A. Musetto
p4255
g3
(g4
g5
NtRp4256
(dp4257
g8
g4255
sg9
VV.A. Musetto
p4258
sg11
S'http://www.metacritic.com/critic/va-musetto?filter=movies'
p4259
sg13
(dp4260
g237
F8.8000000000000007
sg280
F7.5
sg131
F8.8000000000000007
sg122
F7.5
sg295
F7.5
sg43
F5
sg173
F7.5
ssg16
VNew York Post
p4261
sg18
NsbsVSlant Magazine/Jake Cole
p4262
g3
(g4
g5
NtRp4263
(dp4264
g8
g4262
sg9
VJake Cole
p4265
sg11
S'http://www.metacritic.com/critic/jake-cole?filter=movies'
p4266
sg13
(dp4267
g72
F7.5
sg100
F10
ssg16
VSlant Magazine
p4268
sg18
NsbsVWall Street Journal/Julie Salamon
p4269
g3
(g4
g5
NtRp4270
(dp4271
g8
g4269
sg9
VJulie Salamon
p4272
sg11
S'http://www.metacritic.com/critic/julie-salamon?filter=movies'
p4273
sg13
(dp4274
g59
F10
sg541
F3
ssg16
VWall Street Journal
p4275
sg18
Nsbs.