(dp1
VThe Playlist/Nick Schager
p2
ccopy_reg
_reconstructor
p3
(ccritic
Critic
p4
c__builtin__
object
p5
NtRp6
(dp7
S'ident'
p8
g2
sS'name'
p9
VNick Schager
p10
sS'url'
p11
S'http://www.metacritic.com/critic/nick-schager?filter=movies'
p12
sS'reviews'
p13
(dp14
S'sand-storm'
p15
F7.5
ssS'source'
p16
VThe Playlist
p17
sS'correlation'
p18
NsbsVThe New York Times/Nicolas Rapold
p19
g3
(g4
g5
NtRp20
(dp21
g8
g19
sg9
VNicolas Rapold
p22
sg11
S'http://www.metacritic.com/critic/nicolas-rapold?filter=movies'
p23
sg13
(dp24
S'the-tale-of-the-princess-kaguya'
p25
F8
ssg16
VThe New York Times
p26
sg18
NsbsVEmpire/Alan Morrison
p27
g3
(g4
g5
NtRp28
(dp29
g8
g27
sg9
VAlan Morrison
p30
sg11
S'http://www.metacritic.com/critic/alan-morrison?filter=movies'
p31
sg13
(dp32
S'the-lord-of-the-rings-the-return-of-the-king'
p33
F10
sS'the-lives-of-others'
p34
F10
sS'paris-je-taime'
p35
F8
ssg16
VEmpire
p36
sg18
NsbsVSan Francisco Examiner/Walter Addiego
p37
g3
(g4
g5
NtRp38
(dp39
g8
g37
sg9
VWalter Addiego
p40
sg11
S'http://www.metacritic.com/critic/walter-addiego?filter=movies'
p41
sg13
(dp42
S'chungking-express'
p43
F8.8000000000000007
ssg16
VSan Francisco Examiner
p44
sg18
NsbsVThe New Yorker/Terrence Rafferty
p45
g3
(g4
g5
NtRp46
(dp47
g8
g45
sg9
VTerrence Rafferty
p48
sg11
S'http://www.metacritic.com/critic?filter=movies'
p49
sg13
(dp50
S'schindlers-list'
p51
F10
sS'anaconda'
p52
F3
ssg16
VThe New Yorker
p53
sg18
NsbsVThe Telegraph/Robbie Collin
p54
g3
(g4
g5
NtRp55
(dp56
g8
g54
sg9
VRobbie Collin
p57
sg11
S'http://www.metacritic.com/critic/robbie-collin?filter=movies'
p58
sg13
(dp59
S'anomalisa'
p60
F10
sS'after-the-storm-2016'
p61
F8
sS'nebraska'
p62
F8
sS'winter-sleep'
p63
F8
sS'the-nice-guys'
p64
F8
sS'gravity'
p65
F10
sS'birdman-or-the-unexpected-virtue-of-ignorance'
p66
F10
sS'toni-erdmann'
p67
F10
sS'inside-out-2015'
p68
F10
sS'inside-llewyn-davis'
p69
F10
sg25
F10
sS'a-pigeon-sat-on-a-branch-reflecting-on-existence'
p70
F10
sS'inherent-vice'
p71
F10
sS'about-elly-2009'
p72
F8
sS'spotlight'
p73
F8
sS'the-lobster'
p74
F8
ssg16
VThe Telegraph
p75
sg18
NsbsVEmpire/James White
p76
g3
(g4
g5
NtRp77
(dp78
g8
g76
sg9
VJames White
p79
sg11
S'http://www.metacritic.com/critic/james-white?filter=movies'
p80
sg13
(dp81
g64
F8
ssg16
VEmpire
p82
sg18
NsbsVThe Globe and Mail (Toronto)/Kate Taylor
p83
g3
(g4
g5
NtRp84
(dp85
g8
g83
sg9
VKate Taylor
p86
sg11
S'http://www.metacritic.com/critic/kate-taylor?filter=movies'
p87
sg13
(dp88
S'the-salesman'
p89
F10
sS'manchester-by-the-sea'
p90
F10
sS'up'
p91
F7.5
sS'rams'
p92
F7.5
sg67
F7.5
sS'paterson'
p93
F7.5
sS'son-of-saul'
p94
F10
sg74
F7.5
ssg16
VThe Globe and Mail (Toronto)
p95
sg18
NsbsVL.A. Weekly/F. X. Feeney
p96
g3
(g4
g5
NtRp97
(dp98
g8
g96
sg9
VF. X. Feeney
p99
sg11
S'http://www.metacritic.com/critic/f-x-feeney?filter=movies'
p100
sg13
(dp101
S'magnolia'
p102
F10
ssg16
VL.A. Weekly
p103
sg18
NsbsVReelViews/James Berardinelli
p104
g3
(g4
g5
NtRp105
(dp106
g8
g104
sg9
VJames Berardinelli
p107
sg11
S'http://www.metacritic.com/critic/james-berardinelli?filter=movies'
p108
sg13
(dp109
S'zero-dark-thirty'
p110
F8.8000000000000007
sS'django-unchained'
p111
F8.8000000000000007
sg69
F7.5
sS'batman-begins'
p112
F8.8000000000000007
sS'american-wedding'
p113
F6.2999999999999998
sg90
F8.8000000000000007
sS'the-master'
p114
F7.5
sS'dr-strangelove-or-how-i-learned-to-stop-worrying-and-love-the-bomb'
p115
F10
sS'pans-labyrinth'
p116
F8.8000000000000007
sg65
F10
sS'borat-cultural-learnings-of-america-for-make-benefit-glorious-nation-of-kazakhstan'
p117
F7.5
sS'eyes-wide-shut'
p118
F8.8000000000000007
sg52
F5
sS'2-fast-2-furious'
p119
F1.2
sS'amour'
p120
F8.8000000000000007
sg94
F8.8000000000000007
sS'sicario'
p121
F8.8000000000000007
sS'a-separation'
p122
F8.8000000000000007
sS'ghost-rider'
p123
F5
sS'the-sixth-sense'
p124
F3.7999999999999998
sS'her'
p125
F8.8000000000000007
sg66
F7.5
sS'crazy-stupid-love'
p126
F7.5
sg64
F7.5
sS'the-hobbit-an-unexpected-journey'
p127
F7.5
sS'the-lord-of-the-rings-the-two-towers'
p128
F10
sS'capote'
p129
F8.8000000000000007
sS'2001-a-space-odyssey'
p130
F10
sg62
F8.8000000000000007
sS'12-years-a-slave'
p131
F8.8000000000000007
sS'children-of-men'
p132
F7.5
sS'wall-e'
p133
F8.8000000000000007
sg33
F10
sg34
F8.8000000000000007
sS'the-dukes-of-hazzard'
p134
F1.2
sS'there-will-be-blood'
p135
F7.5
sS'sully'
p136
F7.5
sS'the-hangover-part-ii'
p137
F7.5
sS'eternal-sunshine-of-the-spotless-mind'
p138
F8.8000000000000007
sS'ray'
p139
F5
sS'the-dark-knight'
p140
F10
sS'a-clockwork-orange'
p141
F10
sS'sideways'
p142
F8.8000000000000007
sS'the-grand-budapest-hotel'
p143
F7.5
sS'midnight-in-paris'
p144
F7.5
sS'the-dark-knight-rises'
p145
F8.8000000000000007
sS'superman-returns'
p146
F8.8000000000000007
sS'no-country-for-old-men'
p147
F8.8000000000000007
sS'into-the-wild'
p148
F8.8000000000000007
sS'fargo'
p149
F7.5
sS'brooklyn'
p150
F8.8000000000000007
sg68
F8.8000000000000007
sS'a-very-long-engagement'
p151
F7.5
sS'the-hangover'
p152
F7.5
sS'inception'
p153
F8.8000000000000007
sg71
F7.5
sS'carol'
p154
F8.8000000000000007
sS'blue-valentine'
p155
F8.8000000000000007
sS'lincoln'
p156
F8.8000000000000007
sg43
F8.8000000000000007
sS'rocknrolla'
p157
F5
sS'ratatouille'
p158
F7.5
sg51
F10
sS'me-and-earl-and-the-dying-girl'
p159
F8.8000000000000007
sS'inglourious-basterds'
p160
F10
sg91
F7.5
sg73
F8.8000000000000007
sS'4-months-3-weeks-and-2-days'
p161
F8.8000000000000007
sS'captain-fantastic'
p162
F7.5
sS'the-social-network'
p163
F8.8000000000000007
sS'avatar'
p164
F10
sS'brokeback-mountain'
p165
F7.5
sS'spring-summer-fall-winter-and-spring'
p166
F8.8000000000000007
sS'the-pianist'
p167
F8.8000000000000007
sg60
F7.5
sS'lost-in-translation'
p168
F10
ssg16
VReelViews
p169
sg18
NsbsVRogerEbert.com/Susan Wloszczyna
p170
g3
(g4
g5
NtRp171
(dp172
g8
g170
sg9
VSusan Wloszczyna
p173
sg11
S'http://www.metacritic.com/critic/susan-wloszczyna?filter=movies'
p174
sg13
(dp175
g136
F7.5
sS'45-years'
p176
F10
sg67
F10
sg131
F8.8000000000000007
ssg16
VRogerEbert.com
p177
sg18
NsbsVAustin Chronicle/Josh Rosenblatt
p178
g3
(g4
g5
NtRp179
(dp180
g8
g178
sg9
VJosh Rosenblatt
p181
sg11
S'http://www.metacritic.com/critic?filter=movies'
p182
sg13
(dp183
g161
F7.7999999999999998
sg148
F6.7000000000000002
sg34
F8.9000000000000004
sg157
F6.7000000000000002
ssg16
VAustin Chronicle
p184
sg18
NsbsVNew York Daily News/Dave Kehr
p185
g3
(g4
g5
NtRp186
(dp187
g8
g185
sg9
VDave Kehr
p188
sg11
S'http://www.metacritic.com/critic/dave-kehr?filter=movies'
p189
sg13
(dp190
g43
F9
ssg16
VNew York Daily News
p191
sg18
NsbsVThe Playlist/Todd Gilchrist
p192
g3
(g4
g5
NtRp193
(dp194
g8
g192
sg9
VTodd Gilchrist
p195
sg11
S'http://www.metacritic.com/critic/todd-gilchrist?filter=movies'
p196
sg13
(dp197
g145
F10
ssg16
VThe Playlist
p198
sg18
NsbsVVillage Voice/Michael Atkinson
p199
g3
(g4
g5
NtRp200
(dp201
g8
g199
sg9
VMichael Atkinson
p202
sg11
S'http://www.metacritic.com/critic/michael-atkinson?filter=movies'
p203
sg13
(dp204
S'brazil'
p205
F10
sg124
F5
sg115
F10
sg141
F8
sg112
F6
sS'the-academy-of-muses'
p206
F9
sg166
F8
sg139
F5
ssg16
VVillage Voice
p207
sg18
NsbsVSlant Magazine/Chuck Bowen
p208
g3
(g4
g5
NtRp209
(dp210
g8
g208
sg9
VChuck Bowen
p211
sg11
S'http://www.metacritic.com/critic/chuck-bowen?filter=movies'
p212
sg13
(dp213
g89
F10
sS'victoria'
p214
F5
sS'leviathan-2014'
p215
F8.8000000000000007
sg92
F7.5
sS'wild-tales'
p216
F7.5
sg72
F8.8000000000000007
sg60
F7.5
ssg16
VSlant Magazine
p217
sg18
NsbsVThe Dissolve/Tasha Robinson
p218
g3
(g4
g5
NtRp219
(dp220
g8
g218
sg9
VTasha Robinson
p221
sg11
S'http://www.metacritic.com/critic/tasha-robinson?filter=movies'
p222
sg13
(dp223
g68
F10
sg216
F7
ssg16
VThe Dissolve
p224
sg18
NsbsVMiami Herald/Marta Barber
p225
g3
(g4
g5
NtRp226
(dp227
g8
g225
sg9
VMarta Barber
p228
sg11
S'http://www.metacritic.com/critic/marta-barber?filter=movies'
p229
sg13
(dp230
S'the-return-2004'
p231
F8.8000000000000007
ssg16
VMiami Herald
p232
sg18
NsbsVWe Got This Covered/ Darren Ruecker
p233
g3
(g4
g5
NtRp234
(dp235
g8
g233
sg9
V Darren Ruecker
p236
sg11
S'http://www.metacritic.com/critic/darren-ruecker?filter=movies'
p237
sg13
(dp238
g90
F10
ssg16
VWe Got This Covered
p239
sg18
NsbsVNew York Post/Megan Lehmann
p240
g3
(g4
g5
NtRp241
(dp242
g8
g240
sg9
VMegan Lehmann
p243
sg11
S'http://www.metacritic.com/critic/megan-lehmann?filter=movies'
p244
sg13
(dp245
g142
F10
ssg16
VNew York Post
p246
sg18
NsbsVVillage Voice/Nathan Lee
p247
g3
(g4
g5
NtRp248
(dp249
g8
g247
sg9
VNathan Lee
p250
sg11
S'http://www.metacritic.com/critic?filter=movies'
p251
sg13
(dp252
g123
F4
ssg16
VVillage Voice
p253
sg18
NsbsVDallas Observer/Gregory Weinkauf
p254
g3
(g4
g5
NtRp255
(dp256
g8
g254
sg9
VGregory Weinkauf
p257
sg11
S'http://www.metacritic.com/critic/gregory-weinkauf?filter=movies'
p258
sg13
(dp259
g115
F10
sg168
F4
sg33
F10
sg128
F9
ssg16
VDallas Observer
p260
sg18
NsbsVVariety/Charles Gant
p261
g3
(g4
g5
NtRp262
(dp263
g8
g261
sg9
VCharles Gant
p264
sg11
S'http://www.metacritic.com/critic/charles-gant?filter=movies'
p265
sg13
(dp266
g176
F8
ssg16
VVariety
p267
sg18
NsbsVThe Guardian/Peter Bradshaw
p268
g3
(g4
g5
NtRp269
(dp270
g8
g268
sg9
VPeter Bradshaw
p271
sg11
S'http://www.metacritic.com/critic/peter-bradshaw?filter=movies'
p272
sg13
(dp273
g111
F10
sS'once-upon-a-time-in-anatolia'
p274
F10
sS'mommy'
p275
F8
sg120
F10
sg72
F8
sg121
F8
sg125
F6
sg64
F8
sg215
F10
sg127
F6
sg94
F10
sg93
F8
sS'sweet-bean'
p276
F4
sg150
F8
sg68
F8
sg176
F10
sg69
F10
sg154
F10
sg89
F6
sS'beyond-the-hills'
p277
F8
sg67
F8
sS'graduation'
p278
F10
sg62
F8
sg73
F6
sg74
F6
sS'ida'
p279
F8
ssg16
VThe Guardian
p280
sg18
NsbsVPortland Oregonian/Shawn Levy
p281
g3
(g4
g5
NtRp282
(dp283
g8
g281
sg9
VShawn Levy
p284
sg11
S'http://www.metacritic.com/critic/shawn-levy?filter=movies'
p285
sg13
(dp286
g274
F8.3000000000000007
sg114
F8.3000000000000007
sg116
F10
sg117
F8.3000000000000007
sg160
F7.5
sg122
F9.0999999999999996
sg139
F8.3000000000000007
sg161
F8.3000000000000007
sg102
F8.3000000000000007
sg128
F9.0999999999999996
sg129
F10
sg33
F10
sg132
F7.5
sg133
F8.3000000000000007
sg152
F7.5
sg34
F10
sg134
F5
sg135
F9.0999999999999996
sg137
F6.7000000000000002
sg144
F8.3000000000000007
sg140
F8.3000000000000007
sg142
F9.0999999999999996
sg138
F9.0999999999999996
sg145
F7.5
sg146
F5.7999999999999998
sg147
F9.0999999999999996
sg148
F8.3000000000000007
sS'persepolis'
p287
F8.3000000000000007
sg151
F9.0999999999999996
sg153
F10
sS'amelie'
p288
F8.3000000000000007
sS'waking-life'
p289
F10
sg158
F9.0999999999999996
sg112
F9.0999999999999996
sg91
F8.3000000000000007
sS'american-beauty'
p290
F8.3000000000000007
sg126
F5.7999999999999998
sg163
F10
sg164
F8.3000000000000007
sg165
F9.0999999999999996
sg167
F9.0999999999999996
sg168
F10
ssg16
VPortland Oregonian
p291
sg18
NsbsVVillage Voice/David Ng
p292
g3
(g4
g5
NtRp293
(dp294
g8
g292
sg9
VDavid Ng
p295
sg11
S'http://www.metacritic.com/critic?filter=movies'
p296
sg13
(dp297
g113
F5
ssg16
VVillage Voice
p298
sg18
NsbsVVariety/Emanuel Levy
p299
g3
(g4
g5
NtRp300
(dp301
g8
g299
sg9
VEmanuel Levy
p302
sg11
S'http://www.metacritic.com/critic/emanuel-levy?filter=movies'
p303
sg13
(dp304
g102
F7
ssg16
VVariety
p305
sg18
NsbsVNPR/Bob Mondello
p306
g3
(g4
g5
NtRp307
(dp308
g8
g306
sg9
VBob Mondello
p309
sg11
S'http://www.metacritic.com/critic/bob-mondello?filter=movies'
p310
sg13
(dp311
g110
F9.5
sg65
F9
sg140
F9.5
sg145
F8.5
sg159
F8
sg62
F9.5
sg215
F9
sg127
F7.5
sg94
F10
sg66
F9
sg126
F7
sg131
F10
sg74
F9
sg133
F9
sg163
F10
sg71
F7.5
sg72
F9
sS'the-salt-of-the-earth'
p312
F9
sg122
F10
ssg16
VNPR
p313
sg18
NsbsVSalon.com/Laura Miller
p314
g3
(g4
g5
NtRp315
(dp316
g8
g314
sg9
VLaura Miller
p317
sg11
S'http://www.metacritic.com/critic?filter=movies'
p318
sg13
(dp319
g149
F5
ssg16
VSalon.com
p320
sg18
NsbsVPremiere/Stephen Saito
p321
g3
(g4
g5
NtRp322
(dp323
g8
g321
sg9
VStephen Saito
p324
sg11
S'http://www.metacritic.com/critic?filter=movies'
p325
sg13
(dp326
g132
F8.8000000000000007
ssg16
VPremiere
p327
sg18
NsbsVSlant Magazine/Clayton Dillard
p328
g3
(g4
g5
NtRp329
(dp330
g8
g328
sg9
VClayton Dillard
p331
sg11
S'http://www.metacritic.com/critic/clayton-dillard?filter=movies'
p332
sg13
(dp333
g15
F6.2999999999999998
sg312
F7.5
ssg16
VSlant Magazine
p334
sg18
NsbsVL.A. Weekly/John Powers
p335
g3
(g4
g5
NtRp336
(dp337
g8
g335
sg9
VJohn Powers
p338
sg11
S'http://www.metacritic.com/critic/john-powers?filter=movies'
p339
sg13
(dp340
g138
F7
ssg16
VL.A. Weekly
p341
sg18
NsbsVNPR/Stephanie Zacharek
p342
g3
(g4
g5
NtRp343
(dp344
g8
g342
sg9
VStephanie Zacharek
p345
sg11
S'http://www.metacritic.com/critic?filter=movies'
p346
sg13
(dp347
g111
F9
ssg16
VNPR
p348
sg18
NsbsVNew York Magazine (Vulture)/Bilge Ebiri
p349
g3
(g4
g5
NtRp350
(dp351
g8
g349
sg9
VBilge Ebiri
p352
sg11
S'http://www.metacritic.com/critic/bilge-ebiri?filter=movies'
p353
sg13
(dp354
g25
F10
sg90
F10
sg63
F7
sg215
F8
sg15
F9
sg312
F8
ssg16
VNew York Magazine (Vulture)
p355
sg18
NsbsVScreen International/Wendy Ide
p356
g3
(g4
g5
NtRp357
(dp358
g8
g356
sg9
VWendy Ide
p359
sg11
S'http://www.metacritic.com/critic/wendy-ide?filter=movies'
p360
sg13
(dp361
g61
F8
ssg16
VScreen International
p362
sg18
NsbsVVillage Voice/Peter L'Official
p363
g3
(g4
g5
NtRp364
(dp365
g8
g363
sg9
VPeter L'Official
p366
sg11
S'http://www.metacritic.com/critic?filter=movies'
p367
sg13
(dp368
g134
F3
ssg16
VVillage Voice
p369
sg18
NsbsVThe Globe and Mail (Toronto)/Simon Houpt
p370
g3
(g4
g5
NtRp371
(dp372
g8
g370
sg9
VSimon Houpt
p373
sg11
S'http://www.metacritic.com/critic?filter=movies'
p374
sg13
(dp375
g136
F6.2999999999999998
ssg16
VThe Globe and Mail (Toronto)
p376
sg18
NsbsVConsequence of Sound/None
p377
g3
(g4
g5
NtRp378
(dp379
g8
g377
sg9
Nsg11
Nsg13
(dp380
g90
F10
ssg16
VConsequence of Sound
p381
sg18
NsbsVFilm Threat/Pete Vonder Haar
p382
g3
(g4
g5
NtRp383
(dp384
g8
g382
sg9
VPete Vonder Haar
p385
sg11
S'http://www.metacritic.com/critic/pete-vonder-haar?filter=movies'
p386
sg13
(dp387
g140
F9
sg112
F8
sg146
F5
sg148
F9
sg117
F10
sg158
F8
sg133
F9
sg134
F3
ssg16
VFilm Threat
p388
sg18
NsbsVSlant Magazine/Keith Watson
p389
g3
(g4
g5
NtRp390
(dp391
g8
g389
sg9
VKeith Watson
p392
sg11
S'http://www.metacritic.com/critic/keith-watson?filter=movies'
p393
sg13
(dp394
g162
F2.5
ssg16
VSlant Magazine
p395
sg18
NsbsVThe Guardian/Katey Rich
p396
g3
(g4
g5
NtRp397
(dp398
g8
g396
sg9
VKatey Rich
p399
sg11
S'http://www.metacritic.com/critic?filter=movies'
p400
sg13
(dp401
g110
F10
sg156
F8
ssg16
VThe Guardian
p402
sg18
NsbsVSlate/Michael Agger
p403
g3
(g4
g5
NtRp404
(dp405
g8
g403
sg9
VMichael Agger
p406
sg11
S'http://www.metacritic.com/critic?filter=movies'
p407
sg13
(dp408
g119
F3
ssg16
VSlate
p409
sg18
NsbsVThe New York Times/Glenn Kenny
p410
g3
(g4
g5
NtRp411
(dp412
g8
g410
sg9
VGlenn Kenny
p413
sg11
S'http://www.metacritic.com/critic/glenn-kenny?filter=movies'
p414
sg13
(dp415
S'april-and-the-extraordinary-world'
p416
F10
sg276
F9
ssg16
VThe New York Times
p417
sg18
NsbsVMiami Herald/Charles Savage
p418
g3
(g4
g5
NtRp419
(dp420
g8
g418
sg9
VCharles Savage
p421
sg11
S'http://www.metacritic.com/critic/charles-savage?filter=movies'
p422
sg13
(dp423
S'gone-in-sixty-seconds'
p424
F5
ssg16
VMiami Herald
p425
sg18
NsbsVEmpire/Mark Dinning
p426
g3
(g4
g5
NtRp427
(dp428
g8
g426
sg9
VMark Dinning
p429
sg11
S'http://www.metacritic.com/critic?filter=movies'
p430
sg13
(dp431
g140
F10
ssg16
VEmpire
p432
sg18
NsbsVL.A. Weekly/David Chute
p433
g3
(g4
g5
NtRp434
(dp435
g8
g433
sg9
VDavid Chute
p436
sg11
S'http://www.metacritic.com/critic/david-chute?filter=movies'
p437
sg13
(dp438
g119
F6
ssg16
VL.A. Weekly
p439
sg18
NsbsVVariety/Andrew Barker
p440
g3
(g4
g5
NtRp441
(dp442
g8
g440
sg9
VAndrew Barker
p443
sg11
S'http://www.metacritic.com/critic?filter=movies'
p444
sg13
(dp445
g137
F5
ssg16
VVariety
p446
sg18
NsbsVChicago Reader/J.R. Jones
p447
g3
(g4
g5
NtRp448
(dp449
g8
g447
sg9
VJ.R. Jones
p450
sg11
S'http://www.metacritic.com/critic/jr-jones?filter=movies'
p451
sg13
(dp452
g137
F7
sg160
F7
sg112
F5
sg123
F5
sg140
F8
sg113
F5
sg144
F8
sg145
F3
sg146
F6
sg128
F9
sg161
F10
sg119
F4
sg163
F10
sg164
F10
sg287
F10
sg117
F10
sg153
F5
sg152
F9
sg166
F8
sg122
F10
sg155
F8
ssg16
VChicago Reader
p453
sg18
NsbsVDallas Observer/Luke Y. Thompson
p454
g3
(g4
g5
NtRp455
(dp456
g8
g454
sg9
VLuke Y. Thompson
p457
sg11
S'http://www.metacritic.com/critic/luke-y-thompson?filter=movies'
p458
sg13
(dp459
g113
F5
sS'the-wedding-planner'
p460
F2
ssg16
VDallas Observer
p461
sg18
NsbsVArizona Republic/Barbara VanDenburgh
p462
g3
(g4
g5
NtRp463
(dp464
g8
g462
sg9
VBarbara VanDenburgh
p465
sg11
S'http://www.metacritic.com/critic/barbara-vandenburgh?filter=movies'
p466
sg13
(dp467
S'dheepan'
p468
F7
ssg16
VArizona Republic
p469
sg18
NsbsVTheWrap/Ben Croll
p470
g3
(g4
g5
NtRp471
(dp472
g8
g470
sg9
VBen Croll
p473
sg11
S'http://www.metacritic.com/critic/ben-croll?filter=movies'
p474
sg13
(dp475
g89
F8
sg93
F8.5
ssg16
VTheWrap
p476
sg18
NsbsVL.A. Weekly/Ernest Hardy
p477
g3
(g4
g5
NtRp478
(dp479
g8
g477
sg9
VErnest Hardy
p480
sg11
S'http://www.metacritic.com/critic/ernest-hardy?filter=movies'
p481
sg13
(dp482
g52
F3
ssg16
VL.A. Weekly
p483
sg18
NsbsVScreen International/Allan Hunter
p484
g3
(g4
g5
NtRp485
(dp486
g8
g484
sg9
VAllan Hunter
p487
sg11
S'http://www.metacritic.com/critic/allan-hunter?filter=movies'
p488
sg13
(dp489
g89
F8
sg468
F9
sg92
F8
ssg16
VScreen International
p490
sg18
NsbsVRogerEbert.com/Christy Lemire
p491
g3
(g4
g5
NtRp492
(dp493
g8
g491
sg9
VChristy Lemire
p494
sg11
S'http://www.metacritic.com/critic/christy-lemire?filter=movies'
p495
sg13
(dp496
g66
F10
sg62
F8.8000000000000007
sg94
F8.8000000000000007
ssg16
VRogerEbert.com
p497
sg18
NsbsVWashington Post/Phillip Kennicott
p498
g3
(g4
g5
NtRp499
(dp500
g8
g498
sg9
VPhillip Kennicott
p501
sg11
S'http://www.metacritic.com/critic?filter=movies'
p502
sg13
(dp503
g166
F6
ssg16
VWashington Post
p504
sg18
NsbsVThe Guardian/Jordan Hoffman
p505
g3
(g4
g5
NtRp506
(dp507
g8
g505
sg9
VJordan Hoffman
p508
sg11
S'http://www.metacritic.com/critic/jordan-hoffman?filter=movies'
p509
sg13
(dp510
S'the-end-of-the-tour'
p511
F8
ssg16
VThe Guardian
p512
sg18
NsbsVTotal Film/Rosie Fletcher
p513
g3
(g4
g5
NtRp514
(dp515
g8
g513
sg9
VRosie Fletcher
p516
sg11
S'http://www.metacritic.com/critic?filter=movies'
p517
sg13
(dp518
S'what-we-do-in-the-shadows'
p519
F8
ssg16
VTotal Film
p520
sg18
NsbsVRogerEbert.com/Glenn Kenny
p521
g3
(g4
g5
NtRp522
(dp523
g8
g521
sg9
VGlenn Kenny
p524
sg11
S'http://www.metacritic.com/critic?filter=movies'
p525
sg13
(dp526
g25
F10
sg125
F8.8000000000000007
sg63
F10
sg275
F2.5
sg150
F10
sg69
F10
sg93
F10
sg143
F10
ssg16
VRogerEbert.com
p527
sg18
NsbsVSan Francisco Chronicle/C.W. Nevius
p528
g3
(g4
g5
NtRp529
(dp530
g8
g528
sg9
VC.W. Nevius
p531
sg11
S'http://www.metacritic.com/critic/cw-nevius?filter=movies'
p532
sg13
(dp533
g119
F7.5
ssg16
VSan Francisco Chronicle
p534
sg18
NsbsVFilm.com/Kate Erbland
p535
g3
(g4
g5
NtRp536
(dp537
g8
g535
sg9
VKate Erbland
p538
sg11
S'http://www.metacritic.com/critic?filter=movies'
p539
sg13
(dp540
g143
F8.1999999999999993
ssg16
VFilm.com
p541
sg18
NsbsVEmpire/Kim Newman
p542
g3
(g4
g5
NtRp543
(dp544
g8
g542
sg9
VKim Newman
p545
sg11
S'http://www.metacritic.com/critic/kim-newman?filter=movies'
p546
sg13
(dp547
g110
F10
sg141
F10
sg51
F10
sg112
F8
sg116
F10
sg129
F10
ssg16
VEmpire
p548
sg18
NsbsVNew York Post/Farran Smith Nehme
p549
g3
(g4
g5
NtRp550
(dp551
g8
g549
sg9
VFarran Smith Nehme
p552
sg11
S'http://www.metacritic.com/critic/farran-smith-nehme?filter=movies'
p553
sg13
(dp554
g176
F8.8000000000000007
sg214
F6.2999999999999998
sg277
F8.8000000000000007
sg63
F7.5
sg275
F6.2999999999999998
sg215
F10
sg94
F6.2999999999999998
sg92
F8.8000000000000007
sg468
F7.5
sS'gett-the-trial-of-viviane-amsalem'
p555
F8.8000000000000007
sg70
F7.5
sg120
F10
sg72
F10
sg216
F7.5
sg279
F8.8000000000000007
ssg16
VNew York Post
p556
sg18
NsbsVTotal Film/James Mottram
p557
g3
(g4
g5
NtRp558
(dp559
g8
g557
sg9
VJames Mottram
p560
sg11
S'http://www.metacritic.com/critic/james-mottram?filter=movies'
p561
sg13
(dp562
g63
F8
sg64
F8
sg71
F8
sg65
F10
sg70
F6
ssg16
VTotal Film
p563
sg18
NsbsVBoxoffice Magazine/James Rocchi
p564
g3
(g4
g5
NtRp565
(dp566
g8
g564
sg9
VJames Rocchi
p567
sg11
S'http://www.metacritic.com/critic?filter=movies'
p568
sg13
(dp569
g110
F9
sg120
F8
sg127
F4
sg111
F10
ssg16
VBoxoffice Magazine
p570
sg18
NsbsVEmpire/Rob Fraser
p571
g3
(g4
g5
NtRp572
(dp573
g8
g571
sg9
VRob Fraser
p574
sg11
S'http://www.metacritic.com/critic?filter=movies'
p575
sg13
(dp576
g168
F10
ssg16
VEmpire
p577
sg18
NsbsVMr. Showbiz/Larry Terenzi
p578
g3
(g4
g5
NtRp579
(dp580
g8
g578
sg9
VLarry Terenzi
p581
sg11
S'http://www.metacritic.com/critic/larry-terenzi?filter=movies'
p582
sg13
(dp583
g424
F6
ssg16
VMr. Showbiz
p584
sg18
NsbsVVariety/Joe Leydon
p585
g3
(g4
g5
NtRp586
(dp587
g8
g585
sg9
VJoe Leydon
p588
sg11
S'http://www.metacritic.com/critic/joe-leydon?filter=movies'
p589
sg13
(dp590
g152
F9
sg157
F8
sg52
F5
ssg16
VVariety
p591
sg18
NsbsVThe A.V. Club/Keith Uhlich
p592
g3
(g4
g5
NtRp593
(dp594
g8
g592
sg9
VKeith Uhlich
p595
sg11
S'http://www.metacritic.com/critic?filter=movies'
p596
sg13
(dp597
g312
F7.5
sg555
F9.0999999999999996
ssg16
VThe A.V. Club
p598
sg18
NsbsVVariety/Robert Koehler
p599
g3
(g4
g5
NtRp600
(dp601
g8
g599
sg9
VRobert Koehler
p602
sg11
S'http://www.metacritic.com/critic/robert-koehler?filter=movies'
p603
sg13
(dp604
g113
F8
sg460
F3
sg123
F2
ssg16
VVariety
p605
sg18
NsbsVNew York Daily News/Elizabeth Weitzman
p606
g3
(g4
g5
NtRp607
(dp608
g8
g606
sg9
VElizabeth Weitzman
p609
sg11
S'http://www.metacritic.com/critic/elizabeth-weitzman?filter=movies'
p610
sg13
(dp611
g137
F4
sg160
F8
sg71
F8
sg157
F5
sg125
F10
sg127
F6
sg91
F8
sg66
F8
sg126
F6
sg69
F10
sg166
F7.5
sg153
F10
ssg16
VNew York Daily News
p612
sg18
NsbsVThe New Yorker/Anthony Lane
p613
g3
(g4
g5
NtRp614
(dp615
g8
g613
sg9
VAnthony Lane
p616
sg11
S'http://www.metacritic.com/critic/anthony-lane?filter=movies'
p617
sg13
(dp618
g231
F9
sg111
F5
sg90
F9
sg114
F9
sg116
F9
sg120
F9
sg128
F9
sg121
F8
sg122
F9
sg72
F8
sg125
F9
sg64
F7
sg215
F8
sg127
F6
sg519
F7
sg94
F9
sg66
F9
sg33
F8
sg132
F8
sg93
F7
sg34
F10
sg117
F8
sg138
F8
sg145
F7
sg156
F7
sg146
F5
sg287
F7
sg68
F9
sg69
F8
sg154
F9
sg147
F7
sg288
F4
sg155
F8
sg89
F8
sg71
F8
sg157
F5
sg277
F8
sg511
F7
sg161
F8
sg60
F8
sg165
F9
sg73
F9
sg74
F7
ssg16
VThe New Yorker
p619
sg18
NsbsVNPR/Ella Taylor
p620
g3
(g4
g5
NtRp621
(dp622
g8
g620
sg9
VElla Taylor
p623
sg11
S'http://www.metacritic.com/critic/ella-taylor?filter=movies'
p624
sg13
(dp625
g120
F9
sg114
F9.5
sg144
F7.5
ssg16
VNPR
p626
sg18
NsbsVFilm.com/William Goss
p627
g3
(g4
g5
NtRp628
(dp629
g8
g627
sg9
VWilliam Goss
p630
sg11
S'http://www.metacritic.com/critic/william-goss?filter=movies'
p631
sg13
(dp632
g131
F8.5999999999999996
sg65
F9.4000000000000004
ssg16
VFilm.com
p633
sg18
NsbsVAustin Chronicle/Josh Kupecki
p634
g3
(g4
g5
NtRp635
(dp636
g8
g634
sg9
VJosh Kupecki
p637
sg11
S'http://www.metacritic.com/critic?filter=movies'
p638
sg13
(dp639
g71
F7.7999999999999998
sg312
F7.7999999999999998
sg74
F7.7999999999999998
ssg16
VAustin Chronicle
p640
sg18
NsbsVFilm Threat/Kevin Carr
p641
g3
(g4
g5
NtRp642
(dp643
g8
g641
sg9
VKevin Carr
p644
sg11
S'http://www.metacritic.com/critic?filter=movies'
p645
sg13
(dp646
g33
F7
ssg16
VFilm Threat
p647
sg18
NsbsVThe Playlist/Noel Murray
p648
g3
(g4
g5
NtRp649
(dp650
g8
g648
sg9
VNoel Murray
p651
sg11
S'http://www.metacritic.com/critic/noel-murray?filter=movies'
p652
sg13
(dp653
g90
F9.0999999999999996
ssg16
VThe Playlist
p654
sg18
NsbsVThe A.V. Club/Keith Phipps
p655
g3
(g4
g5
NtRp656
(dp657
g8
g655
sg9
VKeith Phipps
p658
sg11
S'http://www.metacritic.com/critic/keith-phipps?filter=movies'
p659
sg13
(dp660
g156
F7.5
sg160
F6.7000000000000002
sg123
F3.2999999999999998
sg140
F10
sg144
F6.7000000000000002
sg128
F10
sg124
F8
sg163
F9.0999999999999996
sg132
F10
sg147
F10
sg152
F5.7999999999999998
sg165
F8
sg33
F9
sg134
F5
sg112
F10
ssg16
VThe A.V. Club
p661
sg18
NsbsVCineVue/John Bleasdale
p662
g3
(g4
g5
NtRp663
(dp664
g8
g662
sg9
VJohn Bleasdale
p665
sg11
S'http://www.metacritic.com/critic/john-bleasdale?filter=movies'
p666
sg13
(dp667
g60
F10
sg89
F8
sg276
F6
sS'the-postmans-white-nights'
p668
F8
sg63
F8
sg275
F10
sg215
F10
sg94
F10
sg162
F6
sg66
F10
sg67
F6
sg468
F6
sg74
F8
sg93
F10
sg70
F8
sg92
F8
sg121
F8
sg216
F6
ssg16
VCineVue
p669
sg18
NsbsVSeattle Post-Intelligencer/Sean Axmaker
p670
g3
(g4
g5
NtRp671
(dp672
g8
g670
sg9
VSean Axmaker
p673
sg11
S'http://www.metacritic.com/critic/sean-axmaker?filter=movies'
p674
sg13
(dp675
S'in-the-mood-for-love'
p676
F10
sg289
F6.7000000000000002
sg113
F6.7000000000000002
sg158
F9.0999999999999996
sg140
F10
sg116
F10
sg147
F10
sg161
F10
sg287
F10
sS'gosford-park'
p677
F10
sg133
F9.0999999999999996
sg34
F8.3000000000000007
sg35
F9.0999999999999996
sg168
F10
ssg16
VSeattle Post-Intelligencer
p678
sg18
NsbsVThe Film Stage/Raphael Deutsch
p679
g3
(g4
g5
NtRp680
(dp681
g8
g679
sg9
VRaphael Deutsch
p682
sg11
S'http://www.metacritic.com/critic?filter=movies'
p683
sg13
(dp684
g92
F7.5
ssg16
VThe Film Stage
p685
sg18
NsbsVMovieline/Alison Willmore
p686
g3
(g4
g5
NtRp687
(dp688
g8
g686
sg9
VAlison Willmore
p689
sg11
S'http://www.metacritic.com/critic?filter=movies'
p690
sg13
(dp691
g110
F9
sg120
F7
sg114
F9
sg156
F9
sg111
F6
ssg16
VMovieline
p692
sg18
NsbsVWashington Post/Rita Kempley
p693
g3
(g4
g5
NtRp694
(dp695
g8
g693
sg9
VRita Kempley
p696
sg11
S'http://www.metacritic.com/critic/rita-kempley?filter=movies'
p697
sg13
(dp698
g51
F6
sg102
F8
sS'the-lord-of-the-rings-the-fellowship-of-the-ring'
p699
F10
sg52
F3
sg149
F9
sS'full-metal-jacket'
p700
F9
sg288
F9
sS'crimes-and-misdemeanors'
p701
F7
ssg16
VWashington Post
p702
sg18
NsbsVMovie Nation/Roger Moore
p703
g3
(g4
g5
NtRp704
(dp705
g8
g703
sg9
VRoger Moore
p706
sg11
S'http://www.metacritic.com/critic/roger-moore?filter=movies'
p707
sg13
(dp708
g90
F8.8000000000000007
sg275
F7.5
sg121
F8.8000000000000007
sg64
F6.2999999999999998
sg215
F7.5
sg519
F6.2999999999999998
sg162
F6.2999999999999998
sg93
F5
sg136
F7.5
sg555
F7.5
sg214
F7.5
sg67
F6.2999999999999998
sg68
F8.8000000000000007
sg154
F7.5
sg89
F7.5
sg159
F8.8000000000000007
sg150
F7.5
sg73
F10
sg74
F5
sg70
F5
sg511
F8.8000000000000007
sg60
F5
ssg16
VMovie Nation
p709
sg18
NsbsVFilm.com/Jordan Hoffman
p710
g3
(g4
g5
NtRp711
(dp712
g8
g710
sg9
VJordan Hoffman
p713
sg11
S'http://www.metacritic.com/critic/jordan-hoffman?filter=movies'
p714
sg13
(dp715
g62
F6.9000000000000004
sg69
F9.5
ssg16
VFilm.com
p716
sg18
NsbsVSan Francisco Chronicle/Bob Graham
p717
g3
(g4
g5
NtRp718
(dp719
g8
g717
sg9
VBob Graham
p720
sg11
S'http://www.metacritic.com/critic/bob-graham?filter=movies'
p721
sg13
(dp722
g102
F7.5
sg118
F7.5
sg460
F5
ssg16
VSan Francisco Chronicle
p723
sg18
NsbsVTheWrap/Inkoo Kang
p724
g3
(g4
g5
NtRp725
(dp726
g8
g724
sg9
VInkoo Kang
p727
sg11
S'http://www.metacritic.com/critic/inkoo-kang?filter=movies'
p728
sg13
(dp729
g159
F5.5
sg214
F7.5
sg25
F9
sg94
F10
ssg16
VTheWrap
p730
sg18
NsbsVFilm Threat/Michael Dequina
p731
g3
(g4
g5
NtRp732
(dp733
g8
g731
sg9
VMichael Dequina
p734
sg11
S'http://www.metacritic.com/critic/michael-dequina?filter=movies'
p735
sg13
(dp736
g119
F7
ssg16
VFilm Threat
p737
sg18
NsbsVLos Angeles Times/Kevin Thomas
p738
g3
(g4
g5
NtRp739
(dp740
g8
g738
sg9
VKevin Thomas
p741
sg11
S'http://www.metacritic.com/critic/kevin-thomas?filter=movies'
p742
sg13
(dp743
g460
F6
sg289
F8
sg43
F10
ssg16
VLos Angeles Times
p744
sg18
NsbsVSalon.com/Scott Rosenberg
p745
g3
(g4
g5
NtRp746
(dp747
g8
g745
sg9
VScott Rosenberg
p748
sg11
S'http://www.metacritic.com/critic?filter=movies'
p749
sg13
(dp750
g130
F10
ssg16
VSalon.com
p751
sg18
NsbsVTV Guide Magazine/Staff (Not Credited)
p752
g3
(g4
g5
NtRp753
(dp754
g8
g752
sg9
VStaff (Not Credited)
p755
sg11
S'http://www.metacritic.com/critic?filter=movies'
p756
sg13
(dp757
g205
F7
sg141
F10
sg51
F10
sg115
F10
sg130
F9
sg52
F5
sg700
F8
sg701
F7
ssg16
VTV Guide Magazine
p758
sg18
NsbsVVillage Voice/Eric Hynes
p759
g3
(g4
g5
NtRp760
(dp761
g8
g759
sg9
VEric Hynes
p762
sg11
S'http://www.metacritic.com/critic?filter=movies'
p763
sg13
(dp764
g137
F2
ssg16
VVillage Voice
p765
sg18
NsbsVPhiladelphia Inquirer/Steven Rea
p766
g3
(g4
g5
NtRp767
(dp768
g8
g766
sg9
VSteven Rea
p769
sg11
S'http://www.metacritic.com/critic/steven-rea?filter=movies'
p770
sg13
(dp771
g110
F10
sg111
F6.2999999999999998
sg114
F7.5
sg65
F10
sg216
F8.8000000000000007
sg117
F8.8000000000000007
sg60
F8.8000000000000007
sg120
F10
sg33
F7.5
sg35
F6.2999999999999998
sg121
F7.5
sg122
F8.8000000000000007
sg139
F6.2999999999999998
sg125
F10
sg102
F7.5
sg64
F7.5
sg215
F8.8000000000000007
sg127
F5
sg519
F7.5
sg94
F8.8000000000000007
sg66
F10
sg468
F8.8000000000000007
sg132
F8.8000000000000007
sg555
F8.8000000000000007
sg133
F7.5
sg131
F10
sg134
F5
sg275
F7.5
sg135
F8.8000000000000007
sg136
F8.8000000000000007
sg160
F5
sg143
F10
sg138
F10
sg145
F7.5
sg146
F8.8000000000000007
sg147
F8.8000000000000007
sg150
F10
sg68
F10
sg176
F10
sg151
F7.5
sg152
F7.5
sg153
F6.2999999999999998
sg154
F10
sg288
F10
sg699
F6.2999999999999998
sg155
F6.2999999999999998
sg676
F10
sg156
F8.8000000000000007
sg289
F8.8000000000000007
sg71
F6.2999999999999998
sg157
F5
sg158
F8.8000000000000007
sg277
F7.5
sg92
F8.8000000000000007
sg511
F8.8000000000000007
sg62
F10
sg164
F8.8000000000000007
sg279
F10
sg73
F10
sg74
F10
sg69
F10
ssg16
VPhiladelphia Inquirer
p772
sg18
NsbsVTime/John Anderson
p773
g3
(g4
g5
NtRp774
(dp775
g8
g773
sg9
VJohn Anderson
p776
sg11
S'http://www.metacritic.com/critic?filter=movies'
p777
sg13
(dp778
g73
F9
ssg16
VTime
p779
sg18
NsbsVWe Got This Covered/Joseph Falcone
p780
g3
(g4
g5
NtRp781
(dp782
g8
g780
sg9
VJoseph Falcone
p783
sg11
S'http://www.metacritic.com/critic/joseph-falcone?filter=movies'
p784
sg13
(dp785
g93
F8
ssg16
VWe Got This Covered
p786
sg18
NsbsVThe Hollywood Reporter/Kirk Honeycutt
p787
g3
(g4
g5
NtRp788
(dp789
g8
g787
sg9
VKirk Honeycutt
p790
sg11
S'http://www.metacritic.com/critic/kirk-honeycutt?filter=movies'
p791
sg13
(dp792
g287
F9
sg160
F6
sg112
F9
sg157
F8
sg158
F10
sg142
F10
sg138
F10
sg146
F8
sg129
F10
sg133
F10
sg126
F7
sg163
F10
sg164
F10
sg140
F10
sg117
F8
sg153
F9
sg166
F8
sg168
F9
sg139
F6
ssg16
VThe Hollywood Reporter
p793
sg18
NsbsVEntertainment Weekly/Bruce Fretts
p794
g3
(g4
g5
NtRp795
(dp796
g8
g794
sg9
VBruce Fretts
p797
sg11
S'http://www.metacritic.com/critic/bruce-fretts?filter=movies'
p798
sg13
(dp799
g113
F1.6000000000000001
ssg16
VEntertainment Weekly
p800
sg18
NsbsVTime Out London/Guy Lodge
p801
g3
(g4
g5
NtRp802
(dp803
g8
g801
sg9
VGuy Lodge
p804
sg11
S'http://www.metacritic.com/critic/guy-lodge?filter=movies'
p805
sg13
(dp806
g121
F6
ssg16
VTime Out London
p807
sg18
NsbsVWashington Post/Mark Jenkins
p808
g3
(g4
g5
NtRp809
(dp810
g8
g808
sg9
VMark Jenkins
p811
sg11
S'http://www.metacritic.com/critic?filter=movies'
p812
sg13
(dp813
g231
F9
ssg16
VWashington Post
p814
sg18
NsbsVSlant Magazine/Eric Henderson
p815
g3
(g4
g5
NtRp816
(dp817
g8
g815
sg9
VEric Henderson
p818
sg11
S'http://www.metacritic.com/critic/eric-henderson?filter=movies'
p819
sg13
(dp820
g136
F6.2999999999999998
sg65
F8.8000000000000007
ssg16
VSlant Magazine
p821
sg18
NsbsVNew York Daily News/Stephen Whitty 
p822
g3
(g4
g5
NtRp823
(dp824
g8
g822
sg9
VStephen Whitty 
p825
sg11
S'http://www.metacritic.com/critic/stephen-whitty?filter=movies'
p826
sg13
(dp827
g136
F6
sg90
F10
sg150
F8
sg154
F10
sg162
F8
sg74
F7
ssg16
VNew York Daily News
p828
sg18
NsbsVUSA Today/Scott Bowles
p829
g3
(g4
g5
NtRp830
(dp831
g8
g829
sg9
VScott Bowles
p832
sg11
S'http://www.metacritic.com/critic/scott-bowles?filter=movies'
p833
sg13
(dp834
g137
F5
ssg16
VUSA Today
p835
sg18
NsbsVMr. Showbiz/Kevin Maynard
p836
g3
(g4
g5
NtRp837
(dp838
g8
g836
sg9
VKevin Maynard
p839
sg11
S'http://www.metacritic.com/critic/kevin-maynard?filter=movies'
p840
sg13
(dp841
g124
F3
sg102
F8.5
sg460
F3.5
ssg16
VMr. Showbiz
p842
sg18
NsbsVVariety/David Rooney
p843
g3
(g4
g5
NtRp844
(dp845
g8
g843
sg9
VDavid Rooney
p846
sg11
S'http://www.metacritic.com/critic/david-rooney?filter=movies'
p847
sg13
(dp848
g129
F10
sg168
F8
ssg16
VVariety
p849
sg18
NsbsVIndiewire/Anisha Jhaveri
p850
g3
(g4
g5
NtRp851
(dp852
g8
g850
sg9
VAnisha Jhaveri
p853
sg11
S'http://www.metacritic.com/critic?filter=movies'
p854
sg13
(dp855
g159
F10
ssg16
VIndiewire
p856
sg18
NsbsVChristian Science Monitor/David Sterritt
p857
g3
(g4
g5
NtRp858
(dp859
g8
g857
sg9
VDavid Sterritt
p860
sg11
S'http://www.metacritic.com/critic/david-sterritt?filter=movies'
p861
sg13
(dp862
g231
F10
sg676
F7.5
sg113
F2.5
sg52
F7.5
sg119
F2.5
sg700
F10
sg139
F7.5
sg290
F7.5
sg102
F5
sg128
F7.5
sg33
F5
sg677
F10
sg424
F2.5
sg118
F7.5
sg142
F10
sg138
F10
sg151
F7.5
sg166
F10
sg288
F7.5
sg699
F6.2999999999999998
sg289
F7.5
sg51
F8.8000000000000007
sg112
F5
sg124
F5
sg460
F0
sg167
F7.5
sg168
F10
ssg16
VChristian Science Monitor
p863
sg18
NsbsVCineVue/Rory O'Connor
p864
g3
(g4
g5
NtRp865
(dp866
g8
g864
sg9
VRory O'Connor
p867
sg11
S'http://www.metacritic.com/critic?filter=movies'
p868
sg13
(dp869
g154
F8
ssg16
VCineVue
p870
sg18
NsbsVThe Seattle Times/Soren Andersen
p871
g3
(g4
g5
NtRp872
(dp873
g8
g871
sg9
VSoren Andersen
p874
sg11
S'http://www.metacritic.com/critic/soren-andersen?filter=movies'
p875
sg13
(dp876
g60
F8.8000000000000007
ssg16
VThe Seattle Times
p877
sg18
NsbsVVillage Voice/Amy Nicholson
p878
g3
(g4
g5
NtRp879
(dp880
g8
g878
sg9
VAmy Nicholson
p881
sg11
S'http://www.metacritic.com/critic/amy-nicholson?filter=movies'
p882
sg13
(dp883
g143
F9
sg62
F9
sg214
F10
sg68
F8
sg121
F6
sg60
F10
ssg16
VVillage Voice
p884
sg18
NsbsVScreen International/Charles Gant
p885
g3
(g4
g5
NtRp886
(dp887
g8
g885
sg9
VCharles Gant
p888
sg11
S'http://www.metacritic.com/critic?filter=movies'
p889
sg13
(dp890
g68
F8
ssg16
VScreen International
p891
sg18
NsbsVVillage Voice/Simon Abrams
p892
g3
(g4
g5
NtRp893
(dp894
g8
g892
sg9
VSimon Abrams
p895
sg11
S'http://www.metacritic.com/critic/simon-abrams?filter=movies'
p896
sg13
(dp897
g555
F9
ssg16
VVillage Voice
p898
sg18
NsbsVPortland Oregonian/Roger Moore
p899
g3
(g4
g5
NtRp900
(dp901
g8
g899
sg9
VRoger Moore
p902
sg11
S'http://www.metacritic.com/critic?filter=movies'
p903
sg13
(dp904
g113
F5
ssg16
VPortland Oregonian
p905
sg18
NsbsVThe Film Stage/Christopher Schobert
p906
g3
(g4
g5
NtRp907
(dp908
g8
g906
sg9
VChristopher Schobert
p909
sg11
S'http://www.metacritic.com/critic/christopher-schobert?filter=movies'
p910
sg13
(dp911
g131
F10
ssg16
VThe Film Stage
p912
sg18
NsbsVPremiere/Peter Debruge
p913
g3
(g4
g5
NtRp914
(dp915
g8
g913
sg9
VPeter Debruge
p916
sg11
S'http://www.metacritic.com/critic/peter-debruge?filter=movies'
p917
sg13
(dp918
g134
F5
sg139
F7.5
ssg16
VPremiere
p919
sg18
NsbsVThe New York Times/Janet Maslin
p920
g3
(g4
g5
NtRp921
(dp922
g8
g920
sg9
VJanet Maslin
p923
sg11
S'http://www.metacritic.com/critic/janet-maslin?filter=movies'
p924
sg13
(dp925
g205
F10
sg290
F9
sg102
F8
sg43
F6
ssg16
VThe New York Times
p926
sg18
NsbsVVillage Voice/Nick Schager
p927
g3
(g4
g5
NtRp928
(dp929
g8
g927
sg9
VNick Schager
p930
sg11
S'http://www.metacritic.com/critic/nick-schager?filter=movies'
p931
sg13
(dp932
g150
F10
ssg16
VVillage Voice
p933
sg18
NsbsVSlant Magazine/Ed Gonzalez
p934
g3
(g4
g5
NtRp935
(dp936
g8
g934
sg9
VEd Gonzalez
p937
sg11
S'http://www.metacritic.com/critic/ed-gonzalez?filter=movies'
p938
sg13
(dp939
g125
F10
sg127
F7.5
sg94
F5
sg676
F10
sg131
F5
sg121
F7.5
ssg16
VSlant Magazine
p940
sg18
NsbsVNew York Daily News/Allen Salkin
p941
g3
(g4
g5
NtRp942
(dp943
g8
g941
sg9
VAllen Salkin
p944
sg11
S'http://www.metacritic.com/critic?filter=movies'
p945
sg13
(dp946
g60
F10
ssg16
VNew York Daily News
p947
sg18
NsbsVLos Angeles Times/Betsy Sharkey
p948
g3
(g4
g5
NtRp949
(dp950
g8
g948
sg9
VBetsy Sharkey
p951
sg11
S'http://www.metacritic.com/critic/betsy-sharkey?filter=movies'
p952
sg13
(dp953
g137
F5
sg71
F10
sg111
F10
sg63
F9
sg66
F10
sg126
F8
sg152
F8
sg555
F9
sg155
F8
ssg16
VLos Angeles Times
p954
sg18
NsbsVThe Playlist/Kevin Jagernauth
p955
g3
(g4
g5
NtRp956
(dp957
g8
g955
sg9
VKevin Jagernauth
p958
sg11
S'http://www.metacritic.com/critic/kevin-jagernauth?filter=movies'
p959
sg13
(dp960
g277
F8.3000000000000007
sg120
F8.3000000000000007
sg69
F10
ssg16
VThe Playlist
p961
sg18
NsbsVChicago Tribune/Michael Wilmington
p962
g3
(g4
g5
NtRp963
(dp964
g8
g962
sg9
VMichael Wilmington
p965
sg11
S'http://www.metacritic.com/critic/michael-wilmington?filter=movies'
p966
sg13
(dp967
g231
F10
sg115
F10
sg116
F10
sg676
F7.5
sg113
F3.7999999999999998
sg35
F8.8000000000000007
sg139
F10
sg102
F10
sg128
F10
sg130
F10
sg33
F10
sg677
F10
sg34
F8.8000000000000007
sg424
F8.8000000000000007
sg118
F10
sg142
F10
sg151
F10
sg166
F8.8000000000000007
sg288
F10
sg699
F10
sg289
F10
sg43
F8.8000000000000007
sg112
F7.5
sg290
F8.8000000000000007
sg167
F10
ssg16
VChicago Tribune
p968
sg18
NsbsVEntertainment Weekly/Staff (Not Credited)
p969
g3
(g4
g5
NtRp970
(dp971
g8
g969
sg9
VStaff (Not Credited)
p972
sg11
S'http://www.metacritic.com/critic?filter=movies'
p973
sg13
(dp974
g205
F10
ssg16
VEntertainment Weekly
p975
sg18
NsbsVUSA Today/Mike Clark
p976
g3
(g4
g5
NtRp977
(dp978
g8
g976
sg9
VMike Clark
p979
sg11
S'http://www.metacritic.com/critic/mike-clark?filter=movies'
p980
sg13
(dp981
g676
F5
sg149
F7.5
sg118
F10
sg112
F6.2999999999999998
sg142
F10
sg113
F6.2999999999999998
sg51
F10
sg102
F8.8000000000000007
sg52
F7.5
sg168
F8.8000000000000007
sg290
F10
sg119
F5
sg124
F8.8000000000000007
sg151
F8.8000000000000007
sg677
F10
sg165
F10
sg700
F10
sg460
F3.7999999999999998
sg134
F6.2999999999999998
sg167
F8.8000000000000007
sg139
F8.8000000000000007
ssg16
VUSA Today
p982
sg18
NsbsVRogerEbert.com/Godfrey Cheshire
p983
g3
(g4
g5
NtRp984
(dp985
g8
g983
sg9
VGodfrey Cheshire
p986
sg11
S'http://www.metacritic.com/critic/godfrey-cheshire?filter=movies'
p987
sg13
(dp988
g89
F8.8000000000000007
sg215
F8.8000000000000007
sg15
F6.2999999999999998
sg72
F10
sg216
F10
sg279
F10
ssg16
VRogerEbert.com
p989
sg18
NsbsVSlant Magazine/Jesse Cataldo
p990
g3
(g4
g5
NtRp991
(dp992
g8
g990
sg9
VJesse Cataldo
p993
sg11
S'http://www.metacritic.com/critic/jesse-cataldo?filter=movies'
p994
sg13
(dp995
g63
F8.8000000000000007
sg143
F8.8000000000000007
sg73
F6.2999999999999998
sg468
F6.2999999999999998
sg70
F7.5
sg511
F6.2999999999999998
ssg16
VSlant Magazine
p996
sg18
NsbsVSlant Magazine/Oleg Ivanov
p997
g3
(g4
g5
NtRp998
(dp999
g8
g997
sg9
VOleg Ivanov
p1000
sg11
S'http://www.metacritic.com/critic?filter=movies'
p1001
sg13
(dp1002
g416
F7.5
sg519
F8.8000000000000007
ssg16
VSlant Magazine
p1003
sg18
NsbsVThe A.V. Club/Tasha Robinson
p1004
g3
(g4
g5
NtRp1005
(dp1006
g8
g1004
sg9
VTasha Robinson
p1007
sg11
S'http://www.metacritic.com/critic/tasha-robinson?filter=movies'
p1008
sg13
(dp1009
g133
F10
sg91
F8.3000000000000007
sg127
F6.7000000000000002
sg158
F9.0999999999999996
ssg16
VThe A.V. Club
p1010
sg18
NsbsVMiami Herald/Connie Ogle
p1011
g3
(g4
g5
NtRp1012
(dp1013
g8
g1011
sg9
VConnie Ogle
p1014
sg11
S'http://www.metacritic.com/critic/connie-ogle?filter=movies'
p1015
sg13
(dp1016
g150
F10
sg134
F2.5
sg159
F6.2999999999999998
sg677
F8.8000000000000007
ssg16
VMiami Herald
p1017
sg18
NsbsVTotal Film/Phillip Kemp
p1018
g3
(g4
g5
NtRp1019
(dp1020
g8
g1018
sg9
VPhillip Kemp
p1021
sg11
S'http://www.metacritic.com/critic?filter=movies'
p1022
sg13
(dp1023
g150
F10
ssg16
VTotal Film
p1024
sg18
NsbsVEmpire/Ian Nathan
p1025
g3
(g4
g5
NtRp1026
(dp1027
g8
g1025
sg9
VIan Nathan
p1028
sg11
S'http://www.metacritic.com/critic/ian-nathan?filter=movies'
p1029
sg13
(dp1030
g156
F10
sg71
F8
sg125
F8
sg158
F10
sg65
F10
sg146
F10
sg147
F10
sg151
F8
ssg16
VEmpire
p1031
sg18
NsbsVEmpire/Ian Freer
p1032
g3
(g4
g5
NtRp1033
(dp1034
g8
g1032
sg9
VIan Freer
p1035
sg11
S'http://www.metacritic.com/critic/ian-freer?filter=movies'
p1036
sg13
(dp1037
g63
F8
sg275
F8
sg91
F8
sg66
F10
sg67
F10
sg68
F10
sg131
F8
sg60
F10
ssg16
VEmpire
p1038
sg18
NsbsVDallas Observer/Melissa Levine
p1039
g3
(g4
g5
NtRp1040
(dp1041
g8
g1039
sg9
VMelissa Levine
p1042
sg11
S'http://www.metacritic.com/critic?filter=movies'
p1043
sg13
(dp1044
g142
F9
sg151
F5
ssg16
VDallas Observer
p1045
sg18
NsbsVTime Out London/Dave Calhoun
p1046
g3
(g4
g5
NtRp1047
(dp1048
g8
g1046
sg9
VDave Calhoun
p1049
sg11
S'http://www.metacritic.com/critic/dave-calhoun?filter=movies'
p1050
sg13
(dp1051
g60
F10
sg89
F6
sg63
F8
sg143
F8
sg62
F8
sg215
F8
sg278
F10
sg275
F8
sg67
F10
sg68
F8
sg468
F8
sg69
F10
sg176
F10
sg154
F10
sg72
F6
sg73
F10
sg74
F6
ssg16
VTime Out London
p1052
sg18
NsbsVVillage Voice/Bilge Ebiri
p1053
g3
(g4
g5
NtRp1054
(dp1055
g8
g1053
sg9
VBilge Ebiri
p1056
sg11
S'http://www.metacritic.com/critic/bilge-ebiri?filter=movies'
p1057
sg13
(dp1058
g89
F6
sg468
F8
sg93
F10
ssg16
VVillage Voice
p1059
sg18
NsbsVLos Angeles Times/Sheri Linden
p1060
g3
(g4
g5
NtRp1061
(dp1062
g8
g1060
sg9
VSheri Linden
p1063
sg11
S'http://www.metacritic.com/critic/sheri-linden?filter=movies'
p1064
sg13
(dp1065
g277
F8
sg511
F10
sg276
F7
ssg16
VLos Angeles Times
p1066
sg18
NsbsVThe Telegraph/Mike McCahill
p1067
g3
(g4
g5
NtRp1068
(dp1069
g8
g1067
sg9
VMike McCahill
p1070
sg11
S'http://www.metacritic.com/critic/mike-mccahill?filter=movies'
p1071
sg13
(dp1072
g216
F6
ssg16
VThe Telegraph
p1073
sg18
NsbsVFilm.com/Eric D. Snider
p1074
g3
(g4
g5
NtRp1075
(dp1076
g8
g1074
sg9
VEric D. Snider
p1077
sg11
S'http://www.metacritic.com/critic?filter=movies'
p1078
sg13
(dp1079
g277
F2.5
ssg16
VFilm.com
p1080
sg18
NsbsVTNT RoughCut/Gabriel J.P. Goldberg
p1081
g3
(g4
g5
NtRp1082
(dp1083
g8
g1081
sg9
VGabriel J.P. Goldberg
p1084
sg11
S'http://www.metacritic.com/critic?filter=movies'
p1085
sg13
(dp1086
g149
F10
ssg16
VTNT RoughCut
p1087
sg18
NsbsVTNT RoughCut/J. Rentilly
p1088
g3
(g4
g5
NtRp1089
(dp1090
g8
g1088
sg9
VJ. Rentilly
p1091
sg11
S'http://www.metacritic.com/critic/j-rentilly?filter=movies'
p1092
sg13
(dp1093
g424
F3
ssg16
VTNT RoughCut
p1094
sg18
NsbsVDallas Observer/Arnold Wayne Jones
p1095
g3
(g4
g5
NtRp1096
(dp1097
g8
g1095
sg9
VArnold Wayne Jones
p1098
sg11
S'http://www.metacritic.com/critic?filter=movies'
p1099
sg13
(dp1100
g149
F10
ssg16
VDallas Observer
p1101
sg18
NsbsVVillage Voice/Jessica Winter
p1102
g3
(g4
g5
NtRp1103
(dp1104
g8
g1102
sg9
VJessica Winter
p1105
sg11
S'http://www.metacritic.com/critic/jessica-winter?filter=movies'
p1106
sg13
(dp1107
g460
F4
sg151
F6
ssg16
VVillage Voice
p1108
sg18
NsbsVVariety/Derek Elley
p1109
g3
(g4
g5
NtRp1110
(dp1111
g8
g1109
sg9
VDerek Elley
p1112
sg11
S'http://www.metacritic.com/critic/derek-elley?filter=movies'
p1113
sg13
(dp1114
g34
F8
sg43
F7
sg132
F8
sg166
F8
ssg16
VVariety
p1115
sg18
NsbsVVillage Voice/Sherilyn Connelly
p1116
g3
(g4
g5
NtRp1117
(dp1118
g8
g1116
sg9
VSherilyn Connelly
p1119
sg11
S'http://www.metacritic.com/critic/sherilyn-connelly?filter=movies'
p1120
sg13
(dp1121
g25
F7
sg416
F8
ssg16
VVillage Voice
p1122
sg18
NsbsVEmpire/Dan Jolin
p1123
g3
(g4
g5
NtRp1124
(dp1125
g8
g1123
sg9
VDan Jolin
p1126
sg11
S'http://www.metacritic.com/critic/dan-jolin?filter=movies'
p1127
sg13
(dp1128
g111
F8
sg25
F8
sg142
F10
sg127
F8
sg519
F8
sg148
F8
sg117
F10
sg121
F10
sg69
F10
ssg16
VEmpire
p1129
sg18
NsbsVEmpire/Nick de Semlyen
p1130
g3
(g4
g5
NtRp1131
(dp1132
g8
g1130
sg9
VNick de Semlyen
p1133
sg11
S'http://www.metacritic.com/critic?filter=movies'
p1134
sg13
(dp1135
g137
F4
ssg16
VEmpire
p1136
sg18
NsbsVNewsweek/Ann-Rebecca Laschever
p1137
g3
(g4
g5
NtRp1138
(dp1139
g8
g1137
sg9
VAnn-Rebecca Laschever
p1140
sg11
S'http://www.metacritic.com/critic?filter=movies'
p1141
sg13
(dp1142
g290
F4
ssg16
VNewsweek
p1143
sg18
NsbsVPremiere/Glenn Kenny
p1144
g3
(g4
g5
NtRp1145
(dp1146
g8
g1144
sg9
VGlenn Kenny
p1147
sg11
S'http://www.metacritic.com/critic/glenn-kenny?filter=movies'
p1148
sg13
(dp1149
g231
F6.2999999999999998
sg161
F10
sg158
F10
sg166
F8.8000000000000007
sg142
F10
sg138
F10
sg116
F10
sg147
F10
sg129
F8.8000000000000007
sg119
F6.2999999999999998
sg33
F10
sg151
F8.8000000000000007
sg287
F10
sg148
F7.5
sg165
F10
sg34
F8.8000000000000007
sg135
F10
sg168
F10
ssg16
VPremiere
p1150
sg18
NsbsVLos Angeles Times/Manohla Dargis
p1151
g3
(g4
g5
NtRp1152
(dp1153
g8
g1151
sg9
VManohla Dargis
p1154
sg11
S'http://www.metacritic.com/critic/manohla-dargis?filter=movies'
p1155
sg13
(dp1156
g119
F3
sg113
F3
sg138
F9
sg167
F9
sg128
F7
ssg16
VLos Angeles Times
p1157
sg18
NsbsVThe Hollywood Reporter/David Hunter
p1158
g3
(g4
g5
NtRp1159
(dp1160
g8
g1158
sg9
VDavid Hunter
p1161
sg11
S'http://www.metacritic.com/critic?filter=movies'
p1162
sg13
(dp1163
g33
F10
sg43
F9
ssg16
VThe Hollywood Reporter
p1164
sg18
NsbsVDallas Observer/Andy Klein
p1165
g3
(g4
g5
NtRp1166
(dp1167
g8
g1165
sg9
VAndy Klein
p1168
sg11
S'http://www.metacritic.com/critic/andy-klein?filter=movies'
p1169
sg13
(dp1170
g676
F8
sg167
F9
ssg16
VDallas Observer
p1171
sg18
NsbsVTV Guide Magazine/Ethan Alter
p1172
g3
(g4
g5
NtRp1173
(dp1174
g8
g1172
sg9
VEthan Alter
p1175
sg11
S'http://www.metacritic.com/critic?filter=movies'
p1176
sg13
(dp1177
g142
F8
sg139
F6
ssg16
VTV Guide Magazine
p1178
sg18
NsbsVPremiere/Jessica Letkemann
p1179
g3
(g4
g5
NtRp1180
(dp1181
g8
g1179
sg9
VJessica Letkemann
p1182
sg11
S'http://www.metacritic.com/critic/jessica-letkemann?filter=movies'
p1183
sg13
(dp1184
g117
F7.5
ssg16
VPremiere
p1185
sg18
NsbsVFilm.com/Elizabeth Weitzman
p1186
g3
(g4
g5
NtRp1187
(dp1188
g8
g1186
sg9
VElizabeth Weitzman
p1189
sg11
S'http://www.metacritic.com/critic/elizabeth-weitzman?filter=movies'
p1190
sg13
(dp1191
g149
F8
ssg16
VFilm.com
p1192
sg18
NsbsVPremiere/Rob Calvert
p1193
g3
(g4
g5
NtRp1194
(dp1195
g8
g1193
sg9
VRob Calvert
p1196
sg11
S'http://www.metacritic.com/critic?filter=movies'
p1197
sg13
(dp1198
g152
F10
ssg16
VPremiere
p1199
sg18
NsbsVThe New York Times/Jeannette Catsoulis
p1200
g3
(g4
g5
NtRp1201
(dp1202
g8
g1200
sg9
VJeannette Catsoulis
p1203
sg11
S'http://www.metacritic.com/critic/jeannette-catsoulis?filter=movies'
p1204
sg13
(dp1205
g123
F3
sg519
F8
ssg16
VThe New York Times
p1206
sg18
NsbsVBoston Globe/Wesley Morris
p1207
g3
(g4
g5
NtRp1208
(dp1209
g8
g1207
sg9
VWesley Morris
p1210
sg11
S'http://www.metacritic.com/critic/wesley-morris?filter=movies'
p1211
sg13
(dp1212
g111
F8.8000000000000007
sg113
F5
sg157
F6.2999999999999998
sg158
F8.8000000000000007
sg274
F8.8000000000000007
sg114
F10
sg116
F10
sg119
F6.2999999999999998
sg126
F7.5
sg132
F10
sg153
F7.5
sg135
F10
sg134
F5
sg35
F6.2999999999999998
sg122
F10
sg155
F5
ssg16
VBoston Globe
p1213
sg18
NsbsVEmpire/Chris Hewitt (1)
p1214
g3
(g4
g5
NtRp1215
(dp1216
g8
g1214
sg9
VChris Hewitt (1)
p1217
sg11
S'http://www.metacritic.com/critic/chris-hewitt-1?filter=movies'
p1218
sg13
(dp1219
g160
F8
sg164
F10
ssg16
VEmpire
p1220
sg18
NsbsVTotal Film/Neil Smith
p1221
g3
(g4
g5
NtRp1222
(dp1223
g8
g1221
sg9
VNeil Smith
p1224
sg11
S'http://www.metacritic.com/critic/neil-smith?filter=movies'
p1225
sg13
(dp1226
g110
F8
sg162
F8
ssg16
VTotal Film
p1227
sg18
NsbsVVillage Voice/Scott Tobias
p1228
g3
(g4
g5
NtRp1229
(dp1230
g8
g1228
sg9
VScott Tobias
p1231
sg11
S'http://www.metacritic.com/critic/scott-tobias?filter=movies'
p1232
sg13
(dp1233
g94
F8
ssg16
VVillage Voice
p1234
sg18
NsbsVNew York Post/Kyle Smith
p1235
g3
(g4
g5
NtRp1236
(dp1237
g8
g1235
sg9
VKyle Smith
p1238
sg11
S'http://www.metacritic.com/critic/kyle-smith?filter=movies'
p1239
sg13
(dp1240
g111
F7.5
sg123
F2.5
sg126
F7.5
sg121
F8.8000000000000007
sg122
F7.5
sg90
F10
sg519
F5
sg152
F7.5
sg132
F6.2999999999999998
sg134
F7.5
sg140
F8.8000000000000007
sg143
F5
sg150
F7.5
sg69
F7.5
sg155
F8.8000000000000007
sg71
F3.7999999999999998
sg157
F7.5
sg112
F10
sg74
F6.2999999999999998
sg165
F7.5
sg511
F10
sg60
F8.8000000000000007
ssg16
VNew York Post
p1241
sg18
NsbsVFilm Threat/Zack Haddad
p1242
g3
(g4
g5
NtRp1243
(dp1244
g8
g1242
sg9
VZack Haddad
p1245
sg11
S'http://www.metacritic.com/critic?filter=movies'
p1246
sg13
(dp1247
g135
F10
ssg16
VFilm Threat
p1248
sg18
NsbsVThe Telegraph/Tim Robey
p1249
g3
(g4
g5
NtRp1250
(dp1251
g8
g1249
sg9
VTim Robey
p1252
sg11
S'http://www.metacritic.com/critic/tim-robey?filter=movies'
p1253
sg13
(dp1254
g176
F10
sg89
F6
sg90
F8
sg143
F10
sg215
F8
sg278
F8
sg94
F8
sg275
F6
sg150
F8
sg468
F8
sg93
F10
sg131
F10
sg154
F10
sg121
F6
ssg16
VThe Telegraph
p1255
sg18
NsbsVThe New York Times/Renata Adler
p1256
g3
(g4
g5
NtRp1257
(dp1258
g8
g1256
sg9
VRenata Adler
p1259
sg11
S'http://www.metacritic.com/critic?filter=movies'
p1260
sg13
(dp1261
g130
F6
ssg16
VThe New York Times
p1262
sg18
NsbsVEntertainment Weekly/Owen Gleiberman
p1263
g3
(g4
g5
NtRp1264
(dp1265
g8
g1263
sg9
VOwen Gleiberman
p1266
sg11
S'http://www.metacritic.com/critic/owen-gleiberman?filter=movies'
p1267
sg13
(dp1268
g110
F10
sg111
F6.7000000000000002
sg123
F4.2000000000000002
sg126
F10
sg120
F10
sg35
F9.0999999999999996
sg122
F10
sg139
F9.0999999999999996
sg65
F10
sg128
F7.5
sg129
F9.0999999999999996
sg130
F10
sg131
F10
sg117
F9.0999999999999996
sg677
F9.0999999999999996
sg133
F10
sg152
F7.5
sg134
F8.3000000000000007
sg137
F8.3000000000000007
sg118
F5
sg140
F9.0999999999999996
sg143
F9.0999999999999996
sg138
F10
sg146
F7.5
sg148
F9.0999999999999996
sg69
F9.0999999999999996
sg166
F9.0999999999999996
sg155
F10
sg156
F10
sg157
F8.3000000000000007
sg158
F7.5
sg51
F10
sg290
F8.3000000000000007
sg163
F10
sg164
F7.5
sg165
F10
ssg16
VEntertainment Weekly
p1269
sg18
NsbsVTV Guide Magazine/Frank Lovece
p1270
g3
(g4
g5
NtRp1271
(dp1272
g8
g1270
sg9
VFrank Lovece
p1273
sg11
S'http://www.metacritic.com/critic/frank-lovece?filter=movies'
p1274
sg13
(dp1275
g149
F6
sg460
F2
sg289
F4
ssg16
VTV Guide Magazine
p1276
sg18
NsbsVThe Playlist/Charlie Schmidilin
p1277
g3
(g4
g5
NtRp1278
(dp1279
g8
g1277
sg9
VCharlie Schmidilin
p1280
sg11
S'http://www.metacritic.com/critic?filter=movies'
p1281
sg13
(dp1282
g114
F8.3000000000000007
ssg16
VThe Playlist
p1283
sg18
NsbsVWashington Post/Teresa Wiltz
p1284
g3
(g4
g5
NtRp1285
(dp1286
g8
g1284
sg9
VTeresa Wiltz
p1287
sg11
S'http://www.metacritic.com/critic?filter=movies'
p1288
sg13
(dp1289
g142
F10
sg139
F7
ssg16
VWashington Post
p1290
sg18
NsbsVAustin Chronicle/Marrit Ingman
p1291
g3
(g4
g5
NtRp1292
(dp1293
g8
g1291
sg9
VMarrit Ingman
p1294
sg11
S'http://www.metacritic.com/critic/marrit-ingman?filter=movies'
p1295
sg13
(dp1296
g134
F3
sg35
F7.7999999999999998
sg166
F8.9000000000000004
ssg16
VAustin Chronicle
p1297
sg18
NsbsVCineVue/Ben Nicholson
p1298
g3
(g4
g5
NtRp1299
(dp1300
g8
g1298
sg9
VBen Nicholson
p1301
sg11
S'http://www.metacritic.com/critic/ben-nicholson?filter=movies'
p1302
sg13
(dp1303
g143
F8
sg90
F8
sg25
F6
ssg16
VCineVue
p1304
sg18
NsbsVVillage Voice/Nick Pinkerton
p1305
g3
(g4
g5
NtRp1306
(dp1307
g8
g1305
sg9
VNick Pinkerton
p1308
sg11
S'http://www.metacritic.com/critic/nick-pinkerton?filter=movies'
p1309
sg13
(dp1310
g153
F3
sg120
F5
sg145
F4
sg157
F1
sg287
F9
ssg16
VVillage Voice
p1311
sg18
NsbsVWall Street Journal/Joe Morgenstern
p1312
g3
(g4
g5
NtRp1313
(dp1314
g8
g1312
sg9
VJoe Morgenstern
p1315
sg11
S'http://www.metacritic.com/critic/joe-morgenstern?filter=movies'
p1316
sg13
(dp1317
g231
F9
sg110
F10
sg69
F9
sg113
F1
sg90
F10
sg111
F10
sg33
F10
sg114
F9
sg116
F10
sg91
F5
sg216
F5
sg117
F9
sg126
F8
sg119
F1
sg120
F10
sg94
F10
sg162
F9
sg122
F10
sg139
F9
sg125
F10
sg65
F10
sg64
F7
sg127
F7
sg519
F8
sg128
F10
sg129
F10
sg66
F10
sg131
F10
sg132
F5
sg677
F9
sg133
F10
sg468
F10
sg34
F10
sg134
F3
sg312
F10
sg275
F7
sg135
F10
sg136
F9
sg137
F2
sg138
F10
sg276
F6
sg140
F6
sg142
F10
sg143
F9
sg144
F9
sg145
F8
sg156
F10
sg146
F8
sg148
F8
sg287
F9
sg67
F10
sg68
F10
sg176
F9
sg151
F10
sg166
F9
sg154
F9
sg147
F10
sg288
F8
sg699
F10
sg155
F9
sg676
F10
sg89
F10
sg71
F7
sg214
F9
sg158
F10
sg277
F8
sg159
F9
sg112
F7
sg150
F9
sg73
F10
sg161
F10
sg62
F10
sg163
F10
sg164
F9
sg165
F10
sg460
F2
sg279
F10
sg167
F6
sg60
F8
sg168
F10
ssg16
VWall Street Journal
p1318
sg18
NsbsVFilm Threat/Michael Ferraro
p1319
g3
(g4
g5
NtRp1320
(dp1321
g8
g1319
sg9
VMichael Ferraro
p1322
sg11
S'http://www.metacritic.com/critic?filter=movies'
p1323
sg13
(dp1324
g142
F9
sg151
F9
ssg16
VFilm Threat
p1325
sg18
NsbsVChicago Tribune/Michael Phillips
p1326
g3
(g4
g5
NtRp1327
(dp1328
g8
g1326
sg9
VMichael Phillips
p1329
sg11
S'http://www.metacritic.com/critic/michael-phillips?filter=movies'
p1330
sg13
(dp1331
g110
F10
sg111
F5
sg25
F8.8000000000000007
sg90
F10
sg274
F10
sg63
F10
sg114
F10
sg91
F10
sg117
F10
sg126
F5
sg60
F10
sg120
F10
sg72
F7.5
sg121
F7.5
sg122
F10
sg125
F10
sg65
F8.8000000000000007
sg64
F6.2999999999999998
sg215
F8.8000000000000007
sg127
F6.2999999999999998
sg94
F10
sg129
F10
sg66
F7.5
sg131
F10
sg132
F8.8000000000000007
sg133
F10
sg312
F7.5
sg275
F7.5
sg135
F10
sg137
F3.7999999999999998
sg160
F6.2999999999999998
sg140
F10
sg143
F8.8000000000000007
sg144
F8.8000000000000007
sg145
F6.2999999999999998
sg156
F10
sg146
F6.2999999999999998
sg148
F7.5
sg67
F10
sg68
F8.8000000000000007
sg176
F10
sg69
F8.8000000000000007
sg153
F7.5
sg154
F10
sg147
F8.8000000000000007
sg155
F7.5
sg89
F8.8000000000000007
sg71
F8.8000000000000007
sg157
F3.7999999999999998
sg158
F10
sg277
F8.8000000000000007
sg159
F7.5
sg150
F8.8000000000000007
sg511
F7.5
sg161
F10
sg62
F7.5
sg163
F8.8000000000000007
sg164
F7.5
sg165
F8.8000000000000007
sg73
F10
sg74
F8.8000000000000007
sg279
F10
ssg16
VChicago Tribune
p1332
sg18
NsbsVThe Verge/Tasha Robinson
p1333
g3
(g4
g5
NtRp1334
(dp1335
g8
g1333
sg9
VTasha Robinson
p1336
sg11
S'http://www.metacritic.com/critic/tasha-robinson?filter=movies'
p1337
sg13
(dp1338
g136
F7.2999999999999998
sg64
F7.7000000000000002
sg416
F8.8000000000000007
sg74
F8.4000000000000004
sg94
F10
ssg16
VThe Verge
p1339
sg18
NsbsVNewsweek/Walaika Haskins
p1340
g3
(g4
g5
NtRp1341
(dp1342
g8
g1340
sg9
VWalaika Haskins
p1343
sg11
S'http://www.metacritic.com/critic?filter=movies'
p1344
sg13
(dp1345
g124
F7
ssg16
VNewsweek
p1346
sg18
NsbsVTime Out London/Geoff Andrew
p1347
g3
(g4
g5
NtRp1348
(dp1349
g8
g1347
sg9
VGeoff Andrew
p1350
sg11
S'http://www.metacritic.com/critic/geoff-andrew?filter=movies'
p1351
sg13
(dp1352
g93
F8
ssg16
VTime Out London
p1353
sg18
NsbsVVillage Voice/Jim Ridley
p1354
g3
(g4
g5
NtRp1355
(dp1356
g8
g1354
sg9
VJim Ridley
p1357
sg11
S'http://www.metacritic.com/critic?filter=movies'
p1358
sg13
(dp1359
g152
F7
ssg16
VVillage Voice
p1360
sg18
NsbsVEmpire/Olly Richards
p1361
g3
(g4
g5
NtRp1362
(dp1363
g8
g1361
sg9
VOlly Richards
p1364
sg11
S'http://www.metacritic.com/critic/olly-richards?filter=movies'
p1365
sg13
(dp1366
g136
F6
sg133
F10
sg126
F8
ssg16
VEmpire
p1367
sg18
NsbsVChicago Sun-Times/Richard Roeper
p1368
g3
(g4
g5
NtRp1369
(dp1370
g8
g1368
sg9
VRichard Roeper
p1371
sg11
S'http://www.metacritic.com/critic/richard-roeper?filter=movies'
p1372
sg13
(dp1373
g136
F10
sg62
F10
sg90
F10
sg125
F8.8000000000000007
sg159
F10
sg64
F7.5
sg121
F10
sg65
F8.8000000000000007
sg94
F10
sg511
F10
sg66
F10
sg68
F10
sg131
F10
sg69
F8.8000000000000007
sg93
F8.8000000000000007
sg154
F8.8000000000000007
sg60
F10
sg73
F8.8000000000000007
sg74
F7.5
ssg16
VChicago Sun-Times
p1374
sg18
NsbsVThe Hollywood Reporter/Jordan Mintzer
p1375
g3
(g4
g5
NtRp1376
(dp1377
g8
g1375
sg9
VJordan Mintzer
p1378
sg11
S'http://www.metacritic.com/critic/jordan-mintzer?filter=movies'
p1379
sg13
(dp1380
g416
F7
ssg16
VThe Hollywood Reporter
p1381
sg18
NsbsVL.A. Weekly/Hazel-Dawn Dumpert
p1382
g3
(g4
g5
NtRp1383
(dp1384
g8
g1382
sg9
VHazel-Dawn Dumpert
p1385
sg11
S'http://www.metacritic.com/critic/hazel-dawn-dumpert?filter=movies'
p1386
sg13
(dp1387
g424
F3
ssg16
VL.A. Weekly
p1388
sg18
NsbsVTotal Film/Matthew Leyland
p1389
g3
(g4
g5
NtRp1390
(dp1391
g8
g1389
sg9
VMatthew Leyland
p1392
sg11
S'http://www.metacritic.com/critic/matthew-leyland?filter=movies'
p1393
sg13
(dp1394
g145
F10
sg127
F10
ssg16
VTotal Film
p1395
sg18
NsbsVTime Out New York/Joshua Rothkopf
p1396
g3
(g4
g5
NtRp1397
(dp1398
g8
g1396
sg9
VJoshua Rothkopf
p1399
sg11
S'http://www.metacritic.com/critic/joshua-rothkopf?filter=movies'
p1400
sg13
(dp1401
g136
F6
sg137
F8
sg156
F10
sg71
F8
sg90
F10
sg111
F8
sg114
F6
sg110
F10
sg65
F8
sg511
F8
sg162
F6
sg150
F10
sg163
F10
sg69
F10
sg555
F10
sg153
F8
sg120
F8
sg143
F10
sg122
F10
sg155
F10
ssg16
VTime Out New York
p1402
sg18
NsbsVNew York Daily News/Graham Fuller
p1403
g3
(g4
g5
NtRp1404
(dp1405
g8
g1403
sg9
VGraham Fuller
p1406
sg11
S'http://www.metacritic.com/critic?filter=movies'
p1407
sg13
(dp1408
g63
F10
sg275
F8
sg215
F10
sg25
F8
ssg16
VNew York Daily News
p1409
sg18
NsbsVSalon.com/Andrew O'Hehir
p1410
g3
(g4
g5
NtRp1411
(dp1412
g8
g1410
sg9
VAndrew O'Hehir
p1413
sg11
S'http://www.metacritic.com/critic/andrew-ohehir?filter=movies'
p1414
sg13
(dp1415
g110
F10
sg274
F9
sg63
F10
sg114
F9
sg65
F9
sg126
F7
sg120
F10
sg72
F10
sg121
F8
sg122
F10
sg161
F10
sg125
F9
sg64
F9
sg215
F10
sg127
F5
sg519
F9
sg94
F10
sg131
F10
sg33
F9
sg275
F10
sg137
F1
sg143
F9
sg144
F8
sg145
F10
sg147
F9
sg68
F7
sg69
F10
sg153
F4
sg154
F10
sg214
F9
sg155
F9
sg156
F10
sg71
F9
sg290
F6
sg62
F9
sg163
F9
sg70
F8
sg460
F6
sg279
F9
ssg16
VSalon.com
p1416
sg18
NsbsVUSA Today/Susan Wloszczyna
p1417
g3
(g4
g5
NtRp1418
(dp1419
g8
g1417
sg9
VSusan Wloszczyna
p1420
sg11
S'http://www.metacritic.com/critic/susan-wloszczyna?filter=movies'
p1421
sg13
(dp1422
g424
F6.2999999999999998
ssg16
VUSA Today
p1423
sg18
NsbsVEntertainment Weekly/Lisa Schwarzbaum
p1424
g3
(g4
g5
NtRp1425
(dp1426
g8
g1424
sg9
VLisa Schwarzbaum
p1427
sg11
S'http://www.metacritic.com/critic/lisa-schwarzbaum?filter=movies'
p1428
sg13
(dp1429
g231
F10
sg114
F10
sg116
F10
sg676
F8.3000000000000007
sg52
F6.7000000000000002
sg119
F5.7999999999999998
sg124
F8.3000000000000007
sg102
F8.3000000000000007
sg127
F8.3000000000000007
sg33
F10
sg132
F10
sg149
F10
sg34
F9.0999999999999996
sg135
F10
sg424
F2.5
sg160
F7.5
sg142
F10
sg144
F7.5
sg145
F7.5
sg147
F9.0999999999999996
sg151
F9.0999999999999996
sg153
F8.3000000000000007
sg288
F9.0999999999999996
sg699
F10
sg289
F10
sg112
F10
sg91
F10
sg161
F10
sg287
F10
sg460
F5
sg167
F9.0999999999999996
sg168
F10
ssg16
VEntertainment Weekly
p1430
sg18
NsbsVFilm Threat/Darrin Keene
p1431
g3
(g4
g5
NtRp1432
(dp1433
g8
g1431
sg9
VDarrin Keene
p1434
sg11
S'http://www.metacritic.com/critic?filter=movies'
p1435
sg13
(dp1436
g167
F8
ssg16
VFilm Threat
p1437
sg18
NsbsVScreenCrush/Britt Hayes
p1438
g3
(g4
g5
NtRp1439
(dp1440
g8
g1438
sg9
VBritt Hayes
p1441
sg11
S'http://www.metacritic.com/critic?filter=movies'
p1442
sg13
(dp1443
g74
F9
ssg16
VScreenCrush
p1444
sg18
NsbsVNew York Observer/Rex Reed
p1445
g3
(g4
g5
NtRp1446
(dp1447
g8
g1445
sg9
VRex Reed
p1448
sg11
S'http://www.metacritic.com/critic/rex-reed?filter=movies'
p1449
sg13
(dp1450
g110
F5
sg111
F10
sg90
F10
sg114
F2.5
sg126
F2.5
sg120
F10
sg162
F8.8000000000000007
sg64
F0
sg65
F7.5
sg519
F7.5
sg66
F2.5
sg131
F10
sg136
F7.5
sg143
F7.5
sg144
F10
sg145
F2.5
sg150
F10
sg153
F2.5
sg154
F10
sg155
F10
sg156
F5
sg159
F7.5
sg62
F8.8000000000000007
sg163
F7.5
sg73
F10
ssg16
VNew York Observer
p1451
sg18
NsbsVPremiere/Aaron Hillis
p1452
g3
(g4
g5
NtRp1453
(dp1454
g8
g1452
sg9
VAaron Hillis
p1455
sg11
S'http://www.metacritic.com/critic/aaron-hillis?filter=movies'
p1456
sg13
(dp1457
g112
F6.2999999999999998
ssg16
VPremiere
p1458
sg18
NsbsVEmpire/Liz Beardsworth
p1459
g3
(g4
g5
NtRp1460
(dp1461
g8
g1459
sg9
VLiz Beardsworth
p1462
sg11
S'http://www.metacritic.com/critic?filter=movies'
p1463
sg13
(dp1464
g468
F8
sg214
F10
ssg16
VEmpire
p1465
sg18
NsbsVFilm Threat/Ron Wells
p1466
g3
(g4
g5
NtRp1467
(dp1468
g8
g1466
sg9
VRon Wells
p1469
sg11
S'http://www.metacritic.com/critic/ron-wells?filter=movies'
p1470
sg13
(dp1471
g699
F8
ssg16
VFilm Threat
p1472
sg18
NsbsVTheWrap/Robert Abele
p1473
g3
(g4
g5
NtRp1474
(dp1475
g8
g1473
sg9
VRobert Abele
p1476
sg11
S'http://www.metacritic.com/critic/robert-abele?filter=movies'
p1477
sg13
(dp1478
g136
F8.5
sg468
F9
sg90
F7
ssg16
VTheWrap
p1479
sg18
NsbsVVariety/Peter Debruge
p1480
g3
(g4
g5
NtRp1481
(dp1482
g8
g1480
sg9
VPeter Debruge
p1483
sg11
S'http://www.metacritic.com/critic?filter=movies'
p1484
sg13
(dp1485
g136
F7
sg110
F9
sg156
F7
sg111
F10
sg126
F8
sg159
F9
sg144
F8
sg215
F10
sg127
F6
sg68
F10
sg162
F8
sg66
F10
sg150
F7
sg416
F10
sg131
F10
sg70
F10
sg120
F9
sg275
F9
sg60
F10
sg279
F6
ssg16
VVariety
p1486
sg18
NsbsVFilm Threat/Matthew Sorrento
p1487
g3
(g4
g5
NtRp1488
(dp1489
g8
g1487
sg9
VMatthew Sorrento
p1490
sg11
S'http://www.metacritic.com/critic?filter=movies'
p1491
sg13
(dp1492
g34
F10
sg91
F5
ssg16
VFilm Threat
p1493
sg18
NsbsVTotal Film/Philip Kemp
p1494
g3
(g4
g5
NtRp1495
(dp1496
g8
g1494
sg9
VPhilip Kemp
p1497
sg11
S'http://www.metacritic.com/critic?filter=movies'
p1498
sg13
(dp1499
g136
F6
sg72
F8
sg62
F8
sg69
F10
ssg16
VTotal Film
p1500
sg18
NsbsVBoxoffice Magazine/John P. McCarthy
p1501
g3
(g4
g5
NtRp1502
(dp1503
g8
g1501
sg9
VJohn P. McCarthy
p1504
sg11
S'http://www.metacritic.com/critic/john-p-mccarthy?filter=movies'
p1505
sg13
(dp1506
g137
F5
ssg16
VBoxoffice Magazine
p1507
sg18
NsbsVNew York Magazine (Vulture)/Ken Tucker
p1508
g3
(g4
g5
NtRp1509
(dp1510
g8
g1508
sg9
VKen Tucker
p1511
sg11
S'http://www.metacritic.com/critic/ken-tucker?filter=movies'
p1512
sg13
(dp1513
g129
F6
sg165
F9
sg112
F5
sg151
F9
sg139
F6
ssg16
VNew York Magazine (Vulture)
p1514
sg18
NsbsVFilm.com/Robert Horton
p1515
g3
(g4
g5
NtRp1516
(dp1517
g8
g1515
sg9
VRobert Horton
p1518
sg11
S'http://www.metacritic.com/critic/robert-horton?filter=movies'
p1519
sg13
(dp1520
g290
F7
sg424
F4
sg460
F4
sg118
F9
ssg16
VFilm.com
p1521
sg18
NsbsVThe Seattle Times/Tom Keogh
p1522
g3
(g4
g5
NtRp1523
(dp1524
g8
g1522
sg9
VTom Keogh
p1525
sg11
S'http://www.metacritic.com/critic/tom-keogh?filter=movies'
p1526
sg13
(dp1527
g93
F7.5
ssg16
VThe Seattle Times
p1528
sg18
NsbsVThe New York Times/Dave Kehr
p1529
g3
(g4
g5
NtRp1530
(dp1531
g8
g1529
sg9
VDave Kehr
p1532
sg11
S'http://www.metacritic.com/critic/dave-kehr?filter=movies'
p1533
sg13
(dp1534
g231
F9
ssg16
VThe New York Times
p1535
sg18
NsbsVTime/Staff (Not Credited)
p1536
g3
(g4
g5
NtRp1537
(dp1538
g8
g1536
sg9
VStaff (Not Credited)
p1539
sg11
S'http://www.metacritic.com/critic?filter=movies'
p1540
sg13
(dp1541
g51
F10
ssg16
VTime
p1542
sg18
NsbsVEmpire/David Parkinson
p1543
g3
(g4
g5
NtRp1544
(dp1545
g8
g1543
sg9
VDavid Parkinson
p1546
sg11
S'http://www.metacritic.com/critic/david-parkinson?filter=movies'
p1547
sg13
(dp1548
g276
F6
sg277
F8
sg92
F8
sg274
F8
sg72
F6
sg122
F8
ssg16
VEmpire
p1549
sg18
NsbsVEntertainment Weekly/Leah Greenblatt
p1550
g3
(g4
g5
NtRp1551
(dp1552
g8
g1550
sg9
VLeah Greenblatt
p1553
sg11
S'http://www.metacritic.com/critic/leah-greenblatt?filter=movies'
p1554
sg13
(dp1555
g159
F8.3000000000000007
sg176
F9.0999999999999996
sg162
F8.3000000000000007
ssg16
VEntertainment Weekly
p1556
sg18
NsbsVThe Dissolve/Mike D'Angelo
p1557
g3
(g4
g5
NtRp1558
(dp1559
g8
g1557
sg9
VMike D'Angelo
p1560
sg11
S'http://www.metacritic.com/critic/mike-dangelo?filter=movies'
p1561
sg13
(dp1562
g70
F6
ssg16
VThe Dissolve
p1563
sg18
NsbsVBaltimore Sun/Michael Sragow
p1564
g3
(g4
g5
NtRp1565
(dp1566
g8
g1564
sg9
VMichael Sragow
p1567
sg11
S'http://www.metacritic.com/critic/michael-sragow?filter=movies'
p1568
sg13
(dp1569
g231
F5
sg116
F10
sg128
F10
sg129
F10
sg33
F10
sg117
F10
sg677
F8.8000000000000007
sg133
F10
sg152
F3.7999999999999998
sg34
F10
sg135
F4.2000000000000002
sg160
F3.7999999999999998
sg140
F5
sg138
F5
sg146
F5.7999999999999998
sg147
F10
sg148
F10
sg151
F10
sg699
F10
sg289
F10
sg157
F6.2999999999999998
sg158
F10
sg112
F5
sg91
F10
sg161
F10
sg165
F5
sg167
F10
sg168
F6.2999999999999998
ssg16
VBaltimore Sun
p1570
sg18
NsbsVVariety/Deborah Young
p1571
g3
(g4
g5
NtRp1572
(dp1573
g8
g1571
sg9
VDeborah Young
p1574
sg11
S'http://www.metacritic.com/critic/deborah-young?filter=movies'
p1575
sg13
(dp1576
g231
F8
ssg16
VVariety
p1577
sg18
NsbsVPremiere/Sara Brady
p1578
g3
(g4
g5
NtRp1579
(dp1580
g8
g1578
sg9
VSara Brady
p1581
sg11
S'http://www.metacritic.com/critic?filter=movies'
p1582
sg13
(dp1583
g146
F7.5
ssg16
VPremiere
p1584
sg18
NsbsVThe New York Times/Elvis Mitchell
p1585
g3
(g4
g5
NtRp1586
(dp1587
g8
g1585
sg9
VElvis Mitchell
p1588
sg11
S'http://www.metacritic.com/critic/elvis-mitchell?filter=movies'
p1589
sg13
(dp1590
g149
F9
sg51
F10
sg118
F9
sg138
F7
sg699
F9
ssg16
VThe New York Times
p1591
sg18
NsbsVSan Francisco Chronicle/David Wiegand
p1592
g3
(g4
g5
NtRp1593
(dp1594
g8
g1592
sg9
VDavid Wiegand
p1595
sg11
S'http://www.metacritic.com/critic/david-wiegand?filter=movies'
p1596
sg13
(dp1597
g93
F10
ssg16
VSan Francisco Chronicle
p1598
sg18
NsbsVVariety/Staff (Not Credited)
p1599
g3
(g4
g5
NtRp1600
(dp1601
g8
g1599
sg9
VStaff (Not Credited)
p1602
sg11
S'http://www.metacritic.com/critic?filter=movies'
p1603
sg13
(dp1604
g205
F9
sg141
F8
sg51
F10
sg115
F9
sg130
F4
sg700
F9
sg701
F7
ssg16
VVariety
p1605
sg18
NsbsVTime/Richard Schickel
p1606
g3
(g4
g5
NtRp1607
(dp1608
g8
g1606
sg9
VRichard Schickel
p1609
sg11
S'http://www.metacritic.com/critic/richard-schickel?filter=movies'
p1610
sg13
(dp1611
g124
F7
sg102
F6
sg112
F5
sg147
F10
sg290
F8
sg677
F3
sg165
F7
sg148
F5
sg35
F6
sg167
F8
sg701
F8
sg135
F10
ssg16
VTime
p1612
sg18
NsbsVSan Francisco Chronicle/Carla Meyer
p1613
g3
(g4
g5
NtRp1614
(dp1615
g8
g1613
sg9
VCarla Meyer
p1616
sg11
S'http://www.metacritic.com/critic?filter=movies'
p1617
sg13
(dp1618
g231
F5
sg142
F10
sg166
F10
sg677
F7.5
ssg16
VSan Francisco Chronicle
p1619
sg18
NsbsVVariety/Jay Weissberg
p1620
g3
(g4
g5
NtRp1621
(dp1622
g8
g1620
sg9
VJay Weissberg
p1623
sg11
S'http://www.metacritic.com/critic/jay-weissberg?filter=movies'
p1624
sg13
(dp1625
g668
F6
sg278
F7
sg161
F10
sg555
F9
sg312
F9
sg216
F8
ssg16
VVariety
p1626
sg18
NsbsVVariety/Dennis Harvey
p1627
g3
(g4
g5
NtRp1628
(dp1629
g8
g1627
sg9
VDennis Harvey
p1630
sg11
S'http://www.metacritic.com/critic/dennis-harvey?filter=movies'
p1631
sg13
(dp1632
g148
F7
sg511
F5
ssg16
VVariety
p1633
sg18
NsbsVVillage Voice/Scott Foundas
p1634
g3
(g4
g5
NtRp1635
(dp1636
g8
g1634
sg9
VScott Foundas
p1637
sg11
S'http://www.metacritic.com/critic?filter=movies'
p1638
sg13
(dp1639
g110
F10
sg111
F9
sg140
F10
sg277
F9
sg158
F9
sg127
F5
sg147
F10
sg148
F9
ssg16
VVillage Voice
p1640
sg18
NsbsVNew York Magazine (Vulture)/David Edelstein
p1641
g3
(g4
g5
NtRp1642
(dp1643
g8
g1641
sg9
VDavid Edelstein
p1644
sg11
S'http://www.metacritic.com/critic/david-edelstein?filter=movies'
p1645
sg13
(dp1646
g110
F10
sg111
F8
sg114
F8
sg116
F8
sg91
F9
sg117
F5
sg126
F7
sg120
F10
sg72
F10
sg121
F9
sg122
F9
sg125
F9
sg65
F10
sg64
F7
sg127
F5
sg519
F8
sg94
F4
sg66
F6
sg62
F9
sg131
F7
sg132
F8
sg93
F9
sg133
F10
sg34
F9
sg135
F10
sg136
F6
sg160
F8
sg555
F9
sg140
F5
sg143
F9
sg144
F9
sg156
F9
sg146
F4
sg148
F5
sg67
F9
sg68
F10
sg176
F9
sg69
F9
sg153
F4
sg154
F8
sg147
F9
sg216
F7
sg155
F8
sg89
F9
sg71
F7
sg158
F10
sg159
F4
sg150
F8
sg511
F10
sg161
F9
sg162
F8
sg163
F6
sg164
F10
sg287
F9
sg73
F10
sg60
F6
sg279
F8
ssg16
VNew York Magazine (Vulture)
p1647
sg18
NsbsVBaltimore Sun/Ann Hornaday
p1648
g3
(g4
g5
NtRp1649
(dp1650
g8
g1648
sg9
VAnn Hornaday
p1651
sg11
S'http://www.metacritic.com/critic/ann-hornaday?filter=movies'
p1652
sg13
(dp1653
g290
F10
sg424
F3.7999999999999998
sg102
F7.5
sg149
F10
ssg16
VBaltimore Sun
p1654
sg18
NsbsVHitfix/Daniel Fienberg
p1655
g3
(g4
g5
NtRp1656
(dp1657
g8
g1655
sg9
VDaniel Fienberg
p1658
sg11
S'http://www.metacritic.com/critic?filter=movies'
p1659
sg13
(dp1660
g511
F8.3000000000000007
ssg16
VHitfix
p1661
sg18
NsbsVTV Guide Magazine/Cammila Albertson
p1662
g3
(g4
g5
NtRp1663
(dp1664
g8
g1662
sg9
VCammila Albertson
p1665
sg11
S'http://www.metacritic.com/critic?filter=movies'
p1666
sg13
(dp1667
g152
F8.8000000000000007
ssg16
VTV Guide Magazine
p1668
sg18
NsbsVEntertainment Weekly/Kevin P. Sullivan
p1669
g3
(g4
g5
NtRp1670
(dp1671
g8
g1669
sg9
VKevin P. Sullivan
p1672
sg11
S'http://www.metacritic.com/critic?filter=movies'
p1673
sg13
(dp1674
g519
F8.3000000000000007
ssg16
VEntertainment Weekly
p1675
sg18
NsbsVSlant Magazine/R. Kurt Osenlund
p1676
g3
(g4
g5
NtRp1677
(dp1678
g8
g1676
sg9
VR. Kurt Osenlund
p1679
sg11
S'http://www.metacritic.com/critic/r-kurt-osenlund?filter=movies'
p1680
sg13
(dp1681
g66
F5
sg156
F8.8000000000000007
sg62
F7.5
ssg16
VSlant Magazine
p1682
sg18
NsbsVThe Playlist/Gregory Ellwood
p1683
g3
(g4
g5
NtRp1684
(dp1685
g8
g1683
sg9
VGregory Ellwood
p1686
sg11
S'http://www.metacritic.com/critic/gregory-ellwood?filter=movies'
p1687
sg13
(dp1688
g136
F7.5
ssg16
VThe Playlist
p1689
sg18
NsbsVThe Film Stage/Jared Mobarak
p1690
g3
(g4
g5
NtRp1691
(dp1692
g8
g1690
sg9
VJared Mobarak
p1693
sg11
S'http://www.metacritic.com/critic/jared-mobarak?filter=movies'
p1694
sg13
(dp1695
g416
F8.3000000000000007
ssg16
VThe Film Stage
p1696
sg18
NsbsVSan Francisco Chronicle/G. Allen Johnson
p1697
g3
(g4
g5
NtRp1698
(dp1699
g8
g1697
sg9
VG. Allen Johnson
p1700
sg11
S'http://www.metacritic.com/critic?filter=movies'
p1701
sg13
(dp1702
g416
F5
sg276
F7.5
sg92
F5
ssg16
VSan Francisco Chronicle
p1703
sg18
NsbsVVillage Voice/Melissa Anderson
p1704
g3
(g4
g5
NtRp1705
(dp1706
g8
g1704
sg9
VMelissa Anderson
p1707
sg11
S'http://www.metacritic.com/critic/melissa-anderson?filter=movies'
p1708
sg13
(dp1709
g67
F10
sg176
F10
ssg16
VVillage Voice
p1710
sg18
NsbsVSan Francisco Chronicle/Ruthe Stein
p1711
g3
(g4
g5
NtRp1712
(dp1713
g8
g1711
sg9
VRuthe Stein
p1714
sg11
S'http://www.metacritic.com/critic/ruthe-stein?filter=movies'
p1715
sg13
(dp1716
g116
F10
sg151
F10
ssg16
VSan Francisco Chronicle
p1717
sg18
NsbsVThe Globe and Mail (Toronto)/James Adams
p1718
g3
(g4
g5
NtRp1719
(dp1720
g8
g1718
sg9
VJames Adams
p1721
sg11
S'http://www.metacritic.com/critic/james-adams?filter=movies'
p1722
sg13
(dp1723
g69
F7.5
ssg16
VThe Globe and Mail (Toronto)
p1724
sg18
NsbsVVillage Voice/Robert Wilonsky
p1725
g3
(g4
g5
NtRp1726
(dp1727
g8
g1725
sg9
VRobert Wilonsky
p1728
sg11
S'http://www.metacritic.com/critic?filter=movies'
p1729
sg13
(dp1730
g133
F10
sg91
F10
ssg16
VVillage Voice
p1731
sg18
NsbsVScreen International/Lee Marshall
p1732
g3
(g4
g5
NtRp1733
(dp1734
g8
g1732
sg9
VLee Marshall
p1735
sg11
S'http://www.metacritic.com/critic/lee-marshall?filter=movies'
p1736
sg13
(dp1737
g67
F10
sg60
F8
sg74
F8
sg214
F6
ssg16
VScreen International
p1738
sg18
NsbsVMr. Showbiz/Michael Atkinson
p1739
g3
(g4
g5
NtRp1740
(dp1741
g8
g1739
sg9
VMichael Atkinson
p1742
sg11
S'http://www.metacritic.com/critic/michael-atkinson?filter=movies'
p1743
sg13
(dp1744
g676
F9
sg118
F3
sg289
F8
ssg16
VMr. Showbiz
p1745
sg18
NsbsVFilm Threat/Nick Antosca
p1746
g3
(g4
g5
NtRp1747
(dp1748
g8
g1746
sg9
VNick Antosca
p1749
sg11
S'http://www.metacritic.com/critic?filter=movies'
p1750
sg13
(dp1751
g160
F7
ssg16
VFilm Threat
p1752
sg18
NsbsVMovieline/Michelle Orange
p1753
g3
(g4
g5
NtRp1754
(dp1755
g8
g1753
sg9
VMichelle Orange
p1756
sg11
S'http://www.metacritic.com/critic/michelle-orange?filter=movies'
p1757
sg13
(dp1758
g274
F8.5
sg145
F7.5
ssg16
VMovieline
p1759
sg18
NsbsVPremiere/Staff (Not Credited)
p1760
g3
(g4
g5
NtRp1761
(dp1762
g8
g1760
sg9
VStaff (Not Credited)
p1763
sg11
S'http://www.metacritic.com/critic?filter=movies'
p1764
sg13
(dp1765
g130
F10
ssg16
VPremiere
p1766
sg18
NsbsVScreen International/Fionnuala Halligan
p1767
g3
(g4
g5
NtRp1768
(dp1769
g8
g1767
sg9
VFionnuala Halligan
p1770
sg11
S'http://www.metacritic.com/critic/fionnuala-halligan?filter=movies'
p1771
sg13
(dp1772
g90
F10
sg121
F9
ssg16
VScreen International
p1773
sg18
NsbsVAustin Chronicle/Marjorie Baumgarten
p1774
g3
(g4
g5
NtRp1775
(dp1776
g8
g1774
sg9
VMarjorie Baumgarten
p1777
sg11
S'http://www.metacritic.com/critic/marjorie-baumgarten?filter=movies'
p1778
sg13
(dp1779
g111
F7.7999999999999998
sg25
F8.9000000000000004
sg90
F10
sg275
F5
sg115
F10
sg116
F10
sg676
F7.7999999999999998
sg126
F6.7000000000000002
sg120
F8.9000000000000004
sg121
F7.7999999999999998
sg122
F10
sg139
F6.7000000000000002
sg205
F10
sg127
F5
sg130
F10
sg468
F7.7999999999999998
sg132
F7.7999999999999998
sg93
F10
sg135
F10
sg555
F8.9000000000000004
sg141
F10
sg142
F7.7999999999999998
sg138
F10
sg146
F6.7000000000000002
sg147
F8.9000000000000004
sg287
F8.9000000000000004
sg154
F10
sg214
F8.9000000000000004
sg51
F8.9000000000000004
sg91
F8.9000000000000004
sg511
F7.7999999999999998
sg165
F8.9000000000000004
sg73
F8.9000000000000004
sg279
F8.9000000000000004
ssg16
VAustin Chronicle
p1780
sg18
NsbsVVillage Voice/Aaron Cutler
p1781
g3
(g4
g5
NtRp1782
(dp1783
g8
g1781
sg9
VAaron Cutler
p1784
sg11
S'http://www.metacritic.com/critic/aaron-cutler?filter=movies'
p1785
sg13
(dp1786
g279
F9
ssg16
VVillage Voice
p1787
sg18
NsbsVL.A. Weekly/Russel Swensen
p1788
g3
(g4
g5
NtRp1789
(dp1790
g8
g1788
sg9
VRussel Swensen
p1791
sg11
S'http://www.metacritic.com/critic?filter=movies'
p1792
sg13
(dp1793
g128
F7
ssg16
VL.A. Weekly
p1794
sg18
NsbsVSan Francisco Chronicle/Peter Hartlaub
p1795
g3
(g4
g5
NtRp1796
(dp1797
g8
g1795
sg9
VPeter Hartlaub
p1798
sg11
S'http://www.metacritic.com/critic/peter-hartlaub?filter=movies'
p1799
sg13
(dp1800
g136
F7.5
sg123
F2.5
sg132
F10
sg158
F10
ssg16
VSan Francisco Chronicle
p1801
sg18
NsbsVTime Out London/Alex Dudok de Wit
p1802
g3
(g4
g5
NtRp1803
(dp1804
g8
g1802
sg9
VAlex Dudok de Wit
p1805
sg11
S'http://www.metacritic.com/critic?filter=movies'
p1806
sg13
(dp1807
g25
F8
ssg16
VTime Out London
p1808
sg18
NsbsVScreen International/Anthony Kaufman
p1809
g3
(g4
g5
NtRp1810
(dp1811
g8
g1809
sg9
VAnthony Kaufman
p1812
sg11
S'http://www.metacritic.com/critic?filter=movies'
p1813
sg13
(dp1814
g150
F7
sg162
F5
ssg16
VScreen International
p1815
sg18
NsbsVThe Globe and Mail (Toronto)/Brad Wheeler
p1816
g3
(g4
g5
NtRp1817
(dp1818
g8
g1816
sg9
VBrad Wheeler
p1819
sg11
S'http://www.metacritic.com/critic?filter=movies'
p1820
sg13
(dp1821
g145
F8.8000000000000007
sg214
F8.8000000000000007
ssg16
VThe Globe and Mail (Toronto)
p1822
sg18
NsbsVTV Guide Magazine/Perry Seibert
p1823
g3
(g4
g5
NtRp1824
(dp1825
g8
g1823
sg9
VPerry Seibert
p1826
sg11
S'http://www.metacritic.com/critic?filter=movies'
p1827
sg13
(dp1828
g91
F10
ssg16
VTV Guide Magazine
p1829
sg18
NsbsVThe Film Stage/Zhuo-Ning Su
p1830
g3
(g4
g5
NtRp1831
(dp1832
g8
g1830
sg9
VZhuo-Ning Su
p1833
sg11
S'http://www.metacritic.com/critic/zhuo-ning-su?filter=movies'
p1834
sg13
(dp1835
g468
F9.0999999999999996
sg276
F8.3000000000000007
ssg16
VThe Film Stage
p1836
sg18
NsbsVChristian Science Monitor/Peter Rainer
p1837
g3
(g4
g5
NtRp1838
(dp1839
g8
g1837
sg9
VPeter Rainer
p1840
sg11
S'http://www.metacritic.com/critic/peter-rainer?filter=movies'
p1841
sg13
(dp1842
g110
F5.7999999999999998
sg111
F7.5
sg25
F10
sg90
F10
sg63
F10
sg114
F10
sg116
F10
sg91
F8.3000000000000007
sg117
F10
sg60
F9.0999999999999996
sg120
F6.7000000000000002
sg72
F7.5
sg35
F8.3000000000000007
sg511
F8.3000000000000007
sg122
F10
sg125
F10
sg65
F8.3000000000000007
sg64
F5
sg215
F10
sg127
F5.7999999999999998
sg94
F7.5
sg129
F10
sg66
F5.7999999999999998
sg131
F7.5
sg132
F10
sg93
F6.7000000000000002
sg133
F9.0999999999999996
sg468
F8.3000000000000007
sg34
F8.3000000000000007
sg312
F9.0999999999999996
sg275
F5.7999999999999998
sg135
F9.0999999999999996
sg136
F7.5
sg137
F3.2999999999999998
sg160
F6.7000000000000002
sg276
F9.0999999999999996
sg140
F9.0999999999999996
sg143
F8.3000000000000007
sg144
F7.5
sg145
F5.7999999999999998
sg156
F7.5
sg146
F7.5
sg148
F7.5
sg67
F6.7000000000000002
sg68
F8.3000000000000007
sg176
F9.0999999999999996
sg69
F9.0999999999999996
sg153
F7.5
sg147
F10
sg216
F7.5
sg155
F5
sg89
F8.3000000000000007
sg71
F7.5
sg158
F8.3000000000000007
sg277
F7.5
sg159
F8.3000000000000007
sg150
F10
sg92
F9.0999999999999996
sg161
F10
sg62
F7.5
sg163
F8.3000000000000007
sg164
F8.3000000000000007
sg165
F10
sg73
F7.5
sg74
F5.7999999999999998
sg279
F9.0999999999999996
ssg16
VChristian Science Monitor
p1843
sg18
NsbsVBoston Globe/Peter Keough
p1844
g3
(g4
g5
NtRp1845
(dp1846
g8
g1844
sg9
VPeter Keough
p1847
sg11
S'http://www.metacritic.com/critic/peter-keough?filter=movies'
p1848
sg13
(dp1849
g89
F10
sg63
F10
sg519
F7.5
sg74
F8.8000000000000007
sg555
F8.8000000000000007
sg72
F8.8000000000000007
sg60
F10
ssg16
VBoston Globe
p1850
sg18
NsbsVNew York Magazine (Vulture)/Peter Rainer
p1851
g3
(g4
g5
NtRp1852
(dp1853
g8
g1851
sg9
VPeter Rainer
p1854
sg11
S'http://www.metacritic.com/critic/peter-rainer?filter=movies'
p1855
sg13
(dp1856
g231
F8
sg289
F10
sg142
F10
sg138
F8
sg128
F10
sg676
F5
sg33
F10
sg288
F7
sg677
F10
sg166
F9
sg167
F9
sg699
F8
sg168
F9
ssg16
VNew York Magazine (Vulture)
p1857
sg18
NsbsVFilm Threat/David Grove
p1858
g3
(g4
g5
NtRp1859
(dp1860
g8
g1858
sg9
VDavid Grove
p1861
sg11
S'http://www.metacritic.com/critic/david-grove?filter=movies'
p1862
sg13
(dp1863
g113
F6
ssg16
VFilm Threat
p1864
sg18
NsbsVLos Angeles Times/Kenneth Turan
p1865
g3
(g4
g5
NtRp1866
(dp1867
g8
g1865
sg9
VKenneth Turan
p1868
sg11
S'http://www.metacritic.com/critic/kenneth-turan?filter=movies'
p1869
sg13
(dp1870
g231
F10
sg424
F3
sg25
F10
sg90
F10
sg114
F10
sg116
F9
sg65
F10
sg676
F9
sg117
F8
sg160
F5
sg52
F3
sg120
F10
sg72
F9
sg122
F10
sg139
F7
sg161
F10
sg125
F10
sg102
F8
sg127
F5
sg94
F10
sg15
F10
sg416
F9
sg131
F10
sg132
F10
sg677
F9
sg133
F10
sg33
F10
sg34
F9
sg134
F2
sg312
F9
sg135
F9
sg136
F8
sg118
F8
sg140
F10
sg142
F10
sg143
F10
sg144
F8
sg145
F10
sg146
F6
sg147
F10
sg148
F8
sg149
F8
sg150
F10
sg68
F10
sg176
F10
sg69
F10
sg166
F9
sg153
F10
sg154
F10
sg214
F6
sg288
F4
sg699
F10
sg156
F9
sg158
F10
sg51
F9
sg112
F9
sg91
F10
sg92
F8
sg290
F9
sg110
F10
sg62
F10
sg163
F10
sg164
F10
sg165
F10
sg279
F10
sg73
F10
sg168
F10
ssg16
VLos Angeles Times
p1871
sg18
NsbsVSt. Louis Post-Dispatch/Gail Pennington
p1872
g3
(g4
g5
NtRp1873
(dp1874
g8
g1872
sg9
VGail Pennington
p1875
sg11
S'http://www.metacritic.com/critic/gail-pennington?filter=movies'
p1876
sg13
(dp1877
g68
F7.5
ssg16
VSt. Louis Post-Dispatch
p1878
sg18
NsbsVDallas Observer/Staff (Not credited)
p1879
g3
(g4
g5
NtRp1880
(dp1881
g8
g1879
sg9
VStaff (Not credited)
p1882
sg11
S'http://www.metacritic.com/critic?filter=movies'
p1883
sg13
(dp1884
g166
F8
ssg16
VDallas Observer
p1885
sg18
NsbsVThe New Yorker/Pauline Kael
p1886
g3
(g4
g5
NtRp1887
(dp1888
g8
g1886
sg9
VPauline Kael
p1889
sg11
S'http://www.metacritic.com/critic/pauline-kael?filter=movies'
p1890
sg13
(dp1891
g700
F3
ssg16
VThe New Yorker
p1892
sg18
NsbsVThe Globe and Mail (Toronto)/Gayle MacDonald
p1893
g3
(g4
g5
NtRp1894
(dp1895
g8
g1893
sg9
VGayle MacDonald
p1896
sg11
S'http://www.metacritic.com/critic?filter=movies'
p1897
sg13
(dp1898
g137
F5
ssg16
VThe Globe and Mail (Toronto)
p1899
sg18
NsbsVChicago Reader/Staff (not credited)
p1900
g3
(g4
g5
NtRp1901
(dp1902
g8
g1900
sg9
VStaff (not credited)
p1903
sg11
S'http://www.metacritic.com/critic?filter=movies'
p1904
sg13
(dp1905
g158
F10
ssg16
VChicago Reader
p1906
sg18
NsbsVThe Globe and Mail (Toronto)/Staff (Not Credited)
p1907
g3
(g4
g5
NtRp1908
(dp1909
g8
g1907
sg9
VStaff (Not Credited)
p1910
sg11
S'http://www.metacritic.com/critic?filter=movies'
p1911
sg13
(dp1912
g701
F8.8000000000000007
ssg16
VThe Globe and Mail (Toronto)
p1913
sg18
NsbsVThe Hollywood Reporter/Eric Hansen
p1914
g3
(g4
g5
NtRp1915
(dp1916
g8
g1914
sg9
VEric Hansen
p1917
sg11
S'http://www.metacritic.com/critic?filter=movies'
p1918
sg13
(dp1919
g34
F8
ssg16
VThe Hollywood Reporter
p1920
sg18
NsbsVChicago Reader/Ronnie Scheib
p1921
g3
(g4
g5
NtRp1922
(dp1923
g8
g1921
sg9
VRonnie Scheib
p1924
sg11
S'http://www.metacritic.com/critic/ronnie-scheib?filter=movies'
p1925
sg13
(dp1926
g288
F5
ssg16
VChicago Reader
p1927
sg18
NsbsVTime Out New York/Keith Uhlich
p1928
g3
(g4
g5
NtRp1929
(dp1930
g8
g1928
sg9
VKeith Uhlich
p1931
sg11
S'http://www.metacritic.com/critic/keith-uhlich?filter=movies'
p1932
sg13
(dp1933
g160
F8
sg277
F8
sg144
F8
sg127
F8
sg126
F6
sg164
F6
ssg16
VTime Out New York
p1934
sg18
NsbsVVillage Voice/Ed Gonzalez
p1935
g3
(g4
g5
NtRp1936
(dp1937
g8
g1935
sg9
VEd Gonzalez
p1938
sg11
S'http://www.metacritic.com/critic?filter=movies'
p1939
sg13
(dp1940
g35
F5
ssg16
VVillage Voice
p1941
sg18
NsbsVAustin Chronicle/Steve Davis
p1942
g3
(g4
g5
NtRp1943
(dp1944
g8
g1942
sg9
VSteve Davis
p1945
sg11
S'http://www.metacritic.com/critic/steve-davis?filter=movies'
p1946
sg13
(dp1947
g150
F8.9000000000000004
sg131
F10
sg162
F6.7000000000000002
sg216
F8.9000000000000004
ssg16
VAustin Chronicle
p1948
sg18
NsbsVFilm Threat/Don R. Lewis
p1949
g3
(g4
g5
NtRp1950
(dp1951
g8
g1949
sg9
VDon R. Lewis
p1952
sg11
S'http://www.metacritic.com/critic?filter=movies'
p1953
sg13
(dp1954
g116
F9
sg147
F10
ssg16
VFilm Threat
p1955
sg18
NsbsVLos Angeles Times/John Anderson
p1956
g3
(g4
g5
NtRp1957
(dp1958
g8
g1956
sg9
VJohn Anderson
p1959
sg11
S'http://www.metacritic.com/critic?filter=movies'
p1960
sg13
(dp1961
g124
F8
ssg16
VLos Angeles Times
p1962
sg18
NsbsVThe Globe and Mail (Toronto)/Barry Hertz
p1963
g3
(g4
g5
NtRp1964
(dp1965
g8
g1963
sg9
VBarry Hertz
p1966
sg11
S'http://www.metacritic.com/critic/barry-hertz?filter=movies'
p1967
sg13
(dp1968
g64
F8.8000000000000007
sg468
F6.2999999999999998
sg73
F8.8000000000000007
sg60
F5
sg121
F8.8000000000000007
ssg16
VThe Globe and Mail (Toronto)
p1969
sg18
NsbsVFilm.com/James Rocchi
p1970
g3
(g4
g5
NtRp1971
(dp1972
g8
g1970
sg9
VJames Rocchi
p1973
sg11
S'http://www.metacritic.com/critic/james-rocchi?filter=movies'
p1974
sg13
(dp1975
g66
F6.2999999999999998
ssg16
VFilm.com
p1976
sg18
NsbsVFilm.com/Tom Keogh
p1977
g3
(g4
g5
NtRp1978
(dp1979
g8
g1977
sg9
VTom Keogh
p1980
sg11
S'http://www.metacritic.com/critic/tom-keogh?filter=movies'
p1981
sg13
(dp1982
g124
F8
sg424
F4
ssg16
VFilm.com
p1983
sg18
NsbsVChicago Sun-Times/Patrick Z. McGavin
p1984
g3
(g4
g5
NtRp1985
(dp1986
g8
g1984
sg9
VPatrick Z. McGavin
p1987
sg11
S'http://www.metacritic.com/critic?filter=movies'
p1988
sg13
(dp1989
g519
F7.5
ssg16
VChicago Sun-Times
p1990
sg18
NsbsVPremiere/Nick Starkey
p1991
g3
(g4
g5
NtRp1992
(dp1993
g8
g1991
sg9
VNick Starkey
p1994
sg11
S'http://www.metacritic.com/critic?filter=movies'
p1995
sg13
(dp1996
g164
F10
ssg16
VPremiere
p1997
sg18
NsbsVVillage Voice/Danny King
p1998
g3
(g4
g5
NtRp1999
(dp2000
g8
g1998
sg9
VDanny King
p2001
sg11
S'http://www.metacritic.com/critic/danny-king?filter=movies'
p2002
sg13
(dp2003
g136
F8
ssg16
VVillage Voice
p2004
sg18
NsbsVChicago Reader/Lisa Alspector
p2005
g3
(g4
g5
NtRp2006
(dp2007
g8
g2005
sg9
VLisa Alspector
p2008
sg11
S'http://www.metacritic.com/critic/lisa-alspector?filter=movies'
p2009
sg13
(dp2010
g124
F8
ssg16
VChicago Reader
p2011
sg18
NsbsVTotal Film/Emma Morgan
p2012
g3
(g4
g5
NtRp2013
(dp2014
g8
g2012
sg9
VEmma Morgan
p2015
sg11
S'http://www.metacritic.com/critic?filter=movies'
p2016
sg13
(dp2017
g143
F8
ssg16
VTotal Film
p2018
sg18
NsbsVUSA Today/Brian Truitt
p2019
g3
(g4
g5
NtRp2020
(dp2021
g8
g2019
sg9
VBrian Truitt
p2022
sg11
S'http://www.metacritic.com/critic/brian-truitt?filter=movies'
p2023
sg13
(dp2024
g136
F6.2999999999999998
sg90
F10
sg159
F8.8000000000000007
sg64
F7.5
sg68
F8.8000000000000007
sg73
F10
sg60
F7.5
ssg16
VUSA Today
p2025
sg18
NsbsVThe Dissolve/Nathan Rabin
p2026
g3
(g4
g5
NtRp2027
(dp2028
g8
g2026
sg9
VNathan Rabin
p2029
sg11
S'http://www.metacritic.com/critic/nathan-rabin?filter=movies'
p2030
sg13
(dp2031
g519
F8
ssg16
VThe Dissolve
p2032
sg18
NsbsVThe Guardian/Andrew Pulver
p2033
g3
(g4
g5
NtRp2034
(dp2035
g8
g2033
sg9
VAndrew Pulver
p2036
sg11
S'http://www.metacritic.com/critic/andrew-pulver?filter=movies'
p2037
sg13
(dp2038
g312
F8
sg143
F8
sg468
F8
ssg16
VThe Guardian
p2039
sg18
NsbsVThe Verge/Chris Plante
p2040
g3
(g4
g5
NtRp2041
(dp2042
g8
g2040
sg9
VChris Plante
p2043
sg11
S'http://www.metacritic.com/critic?filter=movies'
p2044
sg13
(dp2045
g90
F9.5
ssg16
VThe Verge
p2046
sg18
NsbsVThe Hollywood Reporter/Sura Wood
p2047
g3
(g4
g5
NtRp2048
(dp2049
g8
g2047
sg9
VSura Wood
p2050
sg11
S'http://www.metacritic.com/critic?filter=movies'
p2051
sg13
(dp2052
g148
F6
ssg16
VThe Hollywood Reporter
p2053
sg18
NsbsVHitfix/Catherine Bray
p2054
g3
(g4
g5
NtRp2055
(dp2056
g8
g2054
sg9
VCatherine Bray
p2057
sg11
S'http://www.metacritic.com/critic?filter=movies'
p2058
sg13
(dp2059
g66
F9.0999999999999996
ssg16
VHitfix
p2060
sg18
NsbsVTotal Film/Kevin Harley
p2061
g3
(g4
g5
NtRp2062
(dp2063
g8
g2061
sg9
VKevin Harley
p2064
sg11
S'http://www.metacritic.com/critic/kevin-harley?filter=movies'
p2065
sg13
(dp2066
g154
F10
sg159
F8
ssg16
VTotal Film
p2067
sg18
NsbsVThe Guardian/Xan Brooks
p2068
g3
(g4
g5
NtRp2069
(dp2070
g8
g2068
sg9
VXan Brooks
p2071
sg11
S'http://www.metacritic.com/critic/xan-brooks?filter=movies'
p2072
sg13
(dp2073
g71
F8
sg63
F8
sg114
F10
sg145
F8
sg65
F8
sg66
F6
sg70
F10
ssg16
VThe Guardian
p2074
sg18
NsbsVWashington Post/Ann Hornaday
p2075
g3
(g4
g5
NtRp2076
(dp2077
g8
g2075
sg9
VAnn Hornaday
p2078
sg11
S'http://www.metacritic.com/critic/ann-hornaday?filter=movies'
p2079
sg13
(dp2080
g110
F10
sg111
F6.2999999999999998
sg90
F10
sg63
F10
sg114
F6.2999999999999998
sg116
F10
sg91
F10
sg117
F10
sg160
F5
sg120
F10
sg72
F7.5
sg35
F7
sg162
F10
sg125
F10
sg65
F10
sg64
F6.2999999999999998
sg215
F10
sg127
F3.7999999999999998
sg94
F10
sg66
F10
sg62
F10
sg131
F10
sg132
F10
sg93
F10
sg468
F8.8000000000000007
sg312
F6.2999999999999998
sg275
F7.5
sg135
F10
sg136
F8.8000000000000007
sg137
F2.5
sg138
F9
sg143
F7.5
sg144
F7.5
sg145
F8.8000000000000007
sg156
F10
sg148
F9
sg67
F8.8000000000000007
sg68
F10
sg176
F10
sg69
F10
sg153
F8.8000000000000007
sg154
F10
sg155
F7.5
sg89
F8.8000000000000007
sg71
F10
sg277
F7.5
sg159
F6.2999999999999998
sg112
F5
sg150
F10
sg511
F10
sg161
F9
sg126
F5
sg163
F10
sg164
F7.5
sg165
F7
sg73
F10
sg60
F7.5
sg279
F7.5
ssg16
VWashington Post
p2081
sg18
NsbsVNPR/Mark Jenkins
p2082
g3
(g4
g5
NtRp2083
(dp2084
g8
g2082
sg9
VMark Jenkins
p2085
sg11
S'http://www.metacritic.com/critic/mark-jenkins?filter=movies'
p2086
sg13
(dp2087
g277
F7
ssg16
VNPR
p2088
sg18
NsbsVIndiewire/Adam Cook
p2089
g3
(g4
g5
NtRp2090
(dp2091
g8
g2089
sg9
VAdam Cook
p2092
sg11
S'http://www.metacritic.com/critic?filter=movies'
p2093
sg13
(dp2094
g276
F4.2000000000000002
ssg16
VIndiewire
p2095
sg18
NsbsVTNT RoughCut/Graham Verdon
p2096
g3
(g4
g5
NtRp2097
(dp2098
g8
g2096
sg9
VGraham Verdon
p2099
sg11
S'http://www.metacritic.com/critic?filter=movies'
p2100
sg13
(dp2101
g102
F4
ssg16
VTNT RoughCut
p2102
sg18
NsbsVTime Out New York/Cath Clarke
p2103
g3
(g4
g5
NtRp2104
(dp2105
g8
g2103
sg9
VCath Clarke
p2106
sg11
S'http://www.metacritic.com/critic?filter=movies'
p2107
sg13
(dp2108
g70
F8
ssg16
VTime Out New York
p2109
sg18
NsbsVConsequence of Sound/Dominick Suzanne-Mayer
p2110
g3
(g4
g5
NtRp2111
(dp2112
g8
g2110
sg9
VDominick Suzanne-Mayer
p2113
sg11
S'http://www.metacritic.com/critic/dominick-suzanne-mayer?filter=movies'
p2114
sg13
(dp2115
g136
F5.7999999999999998
sg131
F10
sg162
F4.2000000000000002
sg94
F9.0999999999999996
ssg16
VConsequence of Sound
p2116
sg18
NsbsVNew Times (L.A.)/Gregory Weinkauf
p2117
g3
(g4
g5
NtRp2118
(dp2119
g8
g2117
sg9
VGregory Weinkauf
p2120
sg11
S'http://www.metacritic.com/critic/gregory-weinkauf?filter=movies'
p2121
sg13
(dp2122
g289
F7
sg699
F9
ssg16
VNew Times (L.A.)
p2123
sg18
NsbsVEmpire/Phil de Semlyen
p2124
g3
(g4
g5
NtRp2125
(dp2126
g8
g2124
sg9
VPhil de Semlyen
p2127
sg11
S'http://www.metacritic.com/critic/phil-de-semlyen?filter=movies'
p2128
sg13
(dp2129
g215
F10
sg90
F10
ssg16
VEmpire
p2130
sg18
NsbsVChicago Tribune/Dave Kehr
p2131
g3
(g4
g5
NtRp2132
(dp2133
g8
g2131
sg9
VDave Kehr
p2134
sg11
S'http://www.metacritic.com/critic/dave-kehr?filter=movies'
p2135
sg13
(dp2136
g700
F8.8000000000000007
ssg16
VChicago Tribune
p2137
sg18
NsbsVSlant Magazine/Steve Macfarlane
p2138
g3
(g4
g5
NtRp2139
(dp2140
g8
g2138
sg9
VSteve Macfarlane
p2141
sg11
S'http://www.metacritic.com/critic/steve-macfarlane?filter=movies'
p2142
sg13
(dp2143
g154
F7.5
ssg16
VSlant Magazine
p2144
sg18
NsbsVWe Got This Covered/Sam Woolf
p2145
g3
(g4
g5
NtRp2146
(dp2147
g8
g2145
sg9
VSam Woolf
p2148
sg11
S'http://www.metacritic.com/critic?filter=movies'
p2149
sg13
(dp2150
g121
F8
ssg16
VWe Got This Covered
p2151
sg18
NsbsVSan Francisco Examiner/G. Allen Johnson
p2152
g3
(g4
g5
NtRp2153
(dp2154
g8
g2152
sg9
VG. Allen Johnson
p2155
sg11
S'http://www.metacritic.com/critic/g-allen-johnson?filter=movies'
p2156
sg13
(dp2157
g149
F8.8000000000000007
sg52
F0
ssg16
VSan Francisco Examiner
p2158
sg18
NsbsVPortland Oregonian/Jeff Baker
p2159
g3
(g4
g5
NtRp2160
(dp2161
g8
g2159
sg9
VJeff Baker
p2162
sg11
S'http://www.metacritic.com/critic/jeff-baker?filter=movies'
p2163
sg13
(dp2164
g71
F8.3000000000000007
sg159
F6.7000000000000002
sg519
F9.0999999999999996
sg73
F10
sg511
F9.0999999999999996
sg150
F8.3000000000000007
sg154
F10
sg312
F9.0999999999999996
sg121
F9.0999999999999996
ssg16
VPortland Oregonian
p2165
sg18
NsbsVSlant Magazine/John Semley
p2166
g3
(g4
g5
NtRp2167
(dp2168
g8
g2166
sg9
VJohn Semley
p2169
sg11
S'http://www.metacritic.com/critic?filter=movies'
p2170
sg13
(dp2171
g110
F7.5
sg111
F6.2999999999999998
ssg16
VSlant Magazine
p2172
sg18
NsbsVVariety/Lisa Nesselson
p2173
g3
(g4
g5
NtRp2174
(dp2175
g8
g2173
sg9
VLisa Nesselson
p2176
sg11
S'http://www.metacritic.com/critic/lisa-nesselson?filter=movies'
p2177
sg13
(dp2178
g287
F9
sg151
F9
sg288
F8
ssg16
VVariety
p2179
sg18
NsbsVCineVue/Craig Williams
p2180
g3
(g4
g5
NtRp2181
(dp2182
g8
g2180
sg9
VCraig Williams
p2183
sg11
S'http://www.metacritic.com/critic?filter=movies'
p2184
sg13
(dp2185
g71
F10
ssg16
VCineVue
p2186
sg18
NsbsVThe Globe and Mail (Toronto)/Rick Groen
p2187
g3
(g4
g5
NtRp2188
(dp2189
g8
g2187
sg9
VRick Groen
p2190
sg11
S'http://www.metacritic.com/critic/rick-groen?filter=movies'
p2191
sg13
(dp2192
g231
F6.2999999999999998
sg160
F5
sg52
F3.7999999999999998
sg120
F10
sg35
F6.2999999999999998
sg122
F8.8000000000000007
sg129
F8.8000000000000007
sg132
F10
sg34
F8.8000000000000007
sg134
F3.7999999999999998
sg117
F7.5
sg144
F7.5
sg142
F7.5
sg138
F7.5
sg146
F7.5
sg147
F10
sg148
F6.2999999999999998
sg287
F8.8000000000000007
sg151
F7.5
sg153
F7.5
sg155
F8.8000000000000007
sg156
F8.8000000000000007
sg277
F7.5
sg51
F8.8000000000000007
sg126
F7.5
sg163
F8.8000000000000007
sg164
F7.5
sg165
F7.5
ssg16
VThe Globe and Mail (Toronto)
p2193
sg18
NsbsVRogerEbert.com/Sheila O'Malley
p2194
g3
(g4
g5
NtRp2195
(dp2196
g8
g2194
sg9
VSheila O'Malley
p2197
sg11
S'http://www.metacritic.com/critic/sheila-omalley?filter=movies'
p2198
sg13
(dp2199
g159
F3.7999999999999998
sg73
F8.8000000000000007
sg468
F7.5
sg154
F8.8000000000000007
sg162
F3.7999999999999998
sg74
F8.8000000000000007
ssg16
VRogerEbert.com
p2200
sg18
NsbsVThe A.V. Club/Nathan Rabin
p2201
g3
(g4
g5
NtRp2202
(dp2203
g8
g2201
sg9
VNathan Rabin
p2204
sg11
S'http://www.metacritic.com/critic/nathan-rabin?filter=movies'
p2205
sg13
(dp2206
g137
F7.5
sg118
F10
sg139
F5
sg111
F9.0999999999999996
sg129
F8
sg113
F7
sg117
F8.3000000000000007
sg135
F10
sg168
F9
sg155
F10
ssg16
VThe A.V. Club
p2207
sg18
NsbsVThe A.V. Club/Ben Kenigsberg
p2208
g3
(g4
g5
NtRp2209
(dp2210
g8
g2208
sg9
VBen Kenigsberg
p2211
sg11
S'http://www.metacritic.com/critic/ben-kenigsberg?filter=movies'
p2212
sg13
(dp2213
g71
F10
ssg16
VThe A.V. Club
p2214
sg18
NsbsVThe A.V. Club/Mike D'Angelo
p2215
g3
(g4
g5
NtRp2216
(dp2217
g8
g2215
sg9
VMike D'Angelo
p2218
sg11
S'http://www.metacritic.com/critic/mike-dangelo?filter=movies'
p2219
sg13
(dp2220
g89
F8.3000000000000007
sg276
F5
sg63
F7.5
sg275
F6.7000000000000002
sg215
F8.3000000000000007
sg519
F7.5
sg92
F8.3000000000000007
sg67
F10
sg154
F9.0999999999999996
sg214
F5
sg121
F10
sg60
F9.0999999999999996
ssg16
VThe A.V. Club
p2221
sg18
NsbsVFilm Threat/Staff (Not credited)
p2222
g3
(g4
g5
NtRp2223
(dp2224
g8
g2222
sg9
VStaff (Not credited)
p2225
sg11
S'http://www.metacritic.com/critic?filter=movies'
p2226
sg13
(dp2227
g231
F6
ssg16
VFilm Threat
p2228
sg18
NsbsVThe Playlist/Chris Willman
p2229
g3
(g4
g5
NtRp2230
(dp2231
g8
g2229
sg9
VChris Willman
p2232
sg11
S'http://www.metacritic.com/critic?filter=movies'
p2233
sg13
(dp2234
g131
F9.0999999999999996
ssg16
VThe Playlist
p2235
sg18
NsbsVCineVue/Joe Walsh
p2236
g3
(g4
g5
NtRp2237
(dp2238
g8
g2236
sg9
VJoe Walsh
p2239
sg11
S'http://www.metacritic.com/critic/joe-walsh?filter=movies'
p2240
sg13
(dp2241
g68
F8
sg131
F10
ssg16
VCineVue
p2242
sg18
NsbsVVillage Voice/J. Hoberman
p2243
g3
(g4
g5
NtRp2244
(dp2245
g8
g2243
sg9
VJ. Hoberman
p2246
sg11
S'http://www.metacritic.com/critic/j-hoberman?filter=movies'
p2247
sg13
(dp2248
g231
F7
sg274
F8
sg116
F10
sg676
F9
sg117
F9
sg160
F9
sg122
F8
sg161
F10
sg102
F8
sg128
F7
sg129
F7
sg33
F8
sg132
F9
sg34
F7
sg135
F10
sg118
F4
sg142
F9
sg138
F9
sg146
F8
sg288
F7
sg699
F8
sg289
F4
sg290
F4
sg163
F7
sg164
F7
sg165
F7
sg167
F7
sg168
F9
ssg16
VVillage Voice
p2249
sg18
NsbsVScreen International/David D'Arcy
p2250
g3
(g4
g5
NtRp2251
(dp2252
g8
g2250
sg9
VDavid D'Arcy
p2253
sg11
S'http://www.metacritic.com/critic/david-darcy?filter=movies'
p2254
sg13
(dp2255
g15
F7
ssg16
VScreen International
p2256
sg18
NsbsVThe Film Stage/Rory O'Connor
p2257
g3
(g4
g5
NtRp2258
(dp2259
g8
g2257
sg9
VRory O'Connor
p2260
sg11
S'http://www.metacritic.com/critic/rory-oconnor?filter=movies'
p2261
sg13
(dp2262
g61
F10
ssg16
VThe Film Stage
p2263
sg18
NsbsVFilm Threat/Zach Haddad
p2264
g3
(g4
g5
NtRp2265
(dp2266
g8
g2264
sg9
VZach Haddad
p2267
sg11
S'http://www.metacritic.com/critic?filter=movies'
p2268
sg13
(dp2269
g123
F6
ssg16
VFilm Threat
p2270
sg18
NsbsVConsequence of Sound/Collin Brennan
p2271
g3
(g4
g5
NtRp2272
(dp2273
g8
g2271
sg9
VCollin Brennan
p2274
sg11
S'http://www.metacritic.com/critic/collin-brennan?filter=movies'
p2275
sg13
(dp2276
g468
F5
ssg16
VConsequence of Sound
p2277
sg18
NsbsVThe Globe and Mail (Toronto)/Geoff Pevere
p2278
g3
(g4
g5
NtRp2279
(dp2280
g8
g2278
sg9
VGeoff Pevere
p2281
sg11
S'http://www.metacritic.com/critic?filter=movies'
p2282
sg13
(dp2283
g312
F7.5
ssg16
VThe Globe and Mail (Toronto)
p2284
sg18
NsbsVBoxoffice Magazine/Pete Hammond
p2285
g3
(g4
g5
NtRp2286
(dp2287
g8
g2285
sg9
VPete Hammond
p2288
sg11
S'http://www.metacritic.com/critic/pete-hammond?filter=movies'
p2289
sg13
(dp2290
g153
F10
sg126
F9
sg156
F8
sg144
F9
sg163
F10
ssg16
VBoxoffice Magazine
p2291
sg18
NsbsVThe Hollywood Reporter/John DeFore
p2292
g3
(g4
g5
NtRp2293
(dp2294
g8
g2292
sg9
VJohn DeFore
p2295
sg11
S'http://www.metacritic.com/critic/john-defore?filter=movies'
p2296
sg13
(dp2297
g159
F10
sg519
F8
sg135
F10
ssg16
VThe Hollywood Reporter
p2298
sg18
NsbsVEntertainment Weekly/Joe McGovern
p2299
g3
(g4
g5
NtRp2300
(dp2301
g8
g2299
sg9
VJoe McGovern
p2302
sg11
S'http://www.metacritic.com/critic/joe-mcgovern?filter=movies'
p2303
sg13
(dp2304
g89
F10
sg215
F8.3000000000000007
sg25
F9.0999999999999996
sg92
F9.0999999999999996
ssg16
VEntertainment Weekly
p2305
sg18
NsbsVScreenCrush/Jordan Hoffman
p2306
g3
(g4
g5
NtRp2307
(dp2308
g8
g2306
sg9
VJordan Hoffman
p2309
sg11
S'http://www.metacritic.com/critic?filter=movies'
p2310
sg13
(dp2311
g131
F10
ssg16
VScreenCrush
p2312
sg18
NsbsVThe Hollywood Reporter/Todd McCarthy
p2313
g3
(g4
g5
NtRp2314
(dp2315
g8
g2313
sg9
VTodd McCarthy
p2316
sg11
S'http://www.metacritic.com/critic/todd-mccarthy?filter=movies'
p2317
sg13
(dp2318
g110
F10
sg111
F8
sg90
F9
sg114
F10
sg127
F6
sg121
F10
sg125
F9
sg64
F5
sg65
F10
sg15
F6
sg66
F10
sg131
F9
sg93
F7
sg136
F9
sg143
F9
sg144
F9
sg145
F10
sg150
F10
sg68
F9
sg69
F10
sg154
F9
sg156
F8
sg71
F7
sg92
F8
sg62
F8
sg73
F6
sg279
F10
ssg16
VThe Hollywood Reporter
p2319
sg18
NsbsVWall Street Journal/John Anderson
p2320
g3
(g4
g5
NtRp2321
(dp2322
g8
g2320
sg9
VJohn Anderson
p2323
sg11
S'http://www.metacritic.com/critic/john-anderson?filter=movies'
p2324
sg13
(dp2325
g153
F5
sg92
F8
ssg16
VWall Street Journal
p2326
sg18
NsbsVFilm Threat/Stina Chyn
p2327
g3
(g4
g5
NtRp2328
(dp2329
g8
g2327
sg9
VStina Chyn
p2330
sg11
S'http://www.metacritic.com/critic?filter=movies'
p2331
sg13
(dp2332
g35
F8
sg168
F8
ssg16
VFilm Threat
p2333
sg18
NsbsVVariety/Brian Lowry
p2334
g3
(g4
g5
NtRp2335
(dp2336
g8
g2334
sg9
VBrian Lowry
p2337
sg11
S'http://www.metacritic.com/critic/brian-lowry?filter=movies'
p2338
sg13
(dp2339
g134
F6
ssg16
VVariety
p2340
sg18
NsbsVThe Globe and Mail (Toronto)/John Semley
p2341
g3
(g4
g5
NtRp2342
(dp2343
g8
g2341
sg9
VJohn Semley
p2344
sg11
S'http://www.metacritic.com/critic/john-semley?filter=movies'
p2345
sg13
(dp2346
g511
F2.5
ssg16
VThe Globe and Mail (Toronto)
p2347
sg18
NsbsVVariety/Owen Gleiberman
p2348
g3
(g4
g5
NtRp2349
(dp2350
g8
g2348
sg9
VOwen Gleiberman
p2351
sg11
S'http://www.metacritic.com/critic/owen-gleiberman?filter=movies'
p2352
sg13
(dp2353
g89
F10
sg64
F9
sg93
F6
ssg16
VVariety
p2354
sg18
NsbsVLos Angeles Times/Mark Olsen
p2355
g3
(g4
g5
NtRp2356
(dp2357
g8
g2355
sg9
VMark Olsen
p2358
sg11
S'http://www.metacritic.com/critic/mark-olsen?filter=movies'
p2359
sg13
(dp2360
g121
F9
ssg16
VLos Angeles Times
p2361
sg18
NsbsVFilm Threat/Ross Williams
p2362
g3
(g4
g5
NtRp2363
(dp2364
g8
g2362
sg9
VRoss Williams
p2365
sg11
S'http://www.metacritic.com/critic/ross-williams?filter=movies'
p2366
sg13
(dp2367
g288
F10
ssg16
VFilm Threat
p2368
sg18
NsbsVEmpire/Simon Braund
p2369
g3
(g4
g5
NtRp2370
(dp2371
g8
g2369
sg9
VSimon Braund
p2372
sg11
S'http://www.metacritic.com/critic?filter=movies'
p2373
sg13
(dp2374
g134
F4
sg152
F8
ssg16
VEmpire
p2375
sg18
NsbsVSan Francisco Chronicle/Michael Ordoa
p2376
g3
(g4
g5
NtRp2377
(dp2378
g8
g2376
sg9
VMichael Ordoa
p2379
sg11
S'http://www.metacritic.com/critic?filter=movies'
p2380
sg13
(dp2381
g468
F7.5
ssg16
VSan Francisco Chronicle
p2382
sg18
NsbsVThe Playlist/Russ Fischer
p2383
g3
(g4
g5
NtRp2384
(dp2385
g8
g2383
sg9
VRuss Fischer
p2386
sg11
S'http://www.metacritic.com/critic/russ-fischer?filter=movies'
p2387
sg13
(dp2388
g64
F9.0999999999999996
sg162
F5
ssg16
VThe Playlist
p2389
sg18
NsbsVTheWrap/Alonso Duralde
p2390
g3
(g4
g5
NtRp2391
(dp2392
g8
g2390
sg9
VAlonso Duralde
p2393
sg11
S'http://www.metacritic.com/critic/alonso-duralde?filter=movies'
p2394
sg13
(dp2395
g275
F6.5999999999999996
sg64
F7.2000000000000002
sg519
F9
sg121
F8.5
sg511
F8
sg66
F9
sg150
F8.5
sg68
F8.9000000000000004
sg176
F8.5
sg162
F9
sg154
F9.5
sg73
F9.5
sg216
F9.1999999999999993
ssg16
VTheWrap
p2396
sg18
NsbsVNewsweek/Jack Kroll
p2397
g3
(g4
g5
NtRp2398
(dp2399
g8
g2397
sg9
VJack Kroll
p2400
sg11
S'http://www.metacritic.com/critic?filter=movies'
p2401
sg13
(dp2402
g700
F10
sg118
F8
ssg16
VNewsweek
p2403
sg18
NsbsVPremiere/Staff (Not credited)
p2404
g3
(g4
g5
NtRp2405
(dp2406
g8
g2404
sg9
VStaff (Not credited)
p2407
sg11
S'http://www.metacritic.com/critic?filter=movies'
p2408
sg13
(dp2409
g153
F8.8000000000000007
sg91
F8.8000000000000007
ssg16
VPremiere
p2410
sg18
NsbsVVillage Voice/April Wolfe
p2411
g3
(g4
g5
NtRp2412
(dp2413
g8
g2411
sg9
VApril Wolfe
p2414
sg11
S'http://www.metacritic.com/critic/april-wolfe?filter=movies'
p2415
sg13
(dp2416
g90
F10
ssg16
VVillage Voice
p2417
sg18
NsbsVThe Hollywood Reporter/Deborah Young
p2418
g3
(g4
g5
NtRp2419
(dp2420
g8
g2418
sg9
VDeborah Young
p2421
sg11
S'http://www.metacritic.com/critic/deborah-young?filter=movies'
p2422
sg13
(dp2423
g89
F8
sg276
F5
sg274
F7
sg63
F8
sg61
F9
sg70
F8
sg120
F10
sg72
F9
sg122
F9
ssg16
VThe Hollywood Reporter
p2424
sg18
NsbsVTime/Stephanie Zacharek
p2425
g3
(g4
g5
NtRp2426
(dp2427
g8
g2425
sg9
VStephanie Zacharek
p2428
sg11
S'http://www.metacritic.com/critic/stephanie-zacharek?filter=movies'
p2429
sg13
(dp2430
g90
F9
sg64
F7
sg94
F10
sg67
F9
sg176
F9
sg60
F6
sg93
F10
sg162
F7
sg74
F8
ssg16
VTime
p2431
sg18
NsbsVSan Francisco Chronicle/Edward Guthmann
p2432
g3
(g4
g5
NtRp2433
(dp2434
g8
g2432
sg9
VEdward Guthmann
p2435
sg11
S'http://www.metacritic.com/critic/edward-guthmann?filter=movies'
p2436
sg13
(dp2437
g290
F10
sg676
F7.5
sg168
F10
ssg16
VSan Francisco Chronicle
p2438
sg18
NsbsVEmpire/David Hughes
p2439
g3
(g4
g5
NtRp2440
(dp2441
g8
g2439
sg9
VDavid Hughes
p2442
sg11
S'http://www.metacritic.com/critic/david-hughes?filter=movies'
p2443
sg13
(dp2444
g231
F8
sg120
F10
sg279
F8
sg312
F10
sg70
F8
ssg16
VEmpire
p2445
sg18
NsbsVThe Playlist/Drew Taylor
p2446
g3
(g4
g5
NtRp2447
(dp2448
g8
g2446
sg9
VDrew Taylor
p2449
sg11
S'http://www.metacritic.com/critic/drew-taylor?filter=movies'
p2450
sg13
(dp2451
g156
F5
sg519
F7.5
ssg16
VThe Playlist
p2452
sg18
NsbsVChicago Reader/Dave Kehr
p2453
g3
(g4
g5
NtRp2454
(dp2455
g8
g2453
sg9
VDave Kehr
p2456
sg11
S'http://www.metacritic.com/critic/dave-kehr?filter=movies'
p2457
sg13
(dp2458
g205
F10
sg141
F2
ssg16
VChicago Reader
p2459
sg18
NsbsVSlant Magazine/Chris Cabin
p2460
g3
(g4
g5
NtRp2461
(dp2462
g8
g2460
sg9
VChris Cabin
p2463
sg11
S'http://www.metacritic.com/critic/chris-cabin?filter=movies'
p2464
sg13
(dp2465
g275
F6.2999999999999998
sg71
F10
sg69
F8.8000000000000007
sg279
F7.5
ssg16
VSlant Magazine
p2466
sg18
NsbsVThe Globe and Mail (Toronto)/Ray Conlogue
p2467
g3
(g4
g5
NtRp2468
(dp2469
g8
g2467
sg9
VRay Conlogue
p2470
sg11
S'http://www.metacritic.com/critic/ray-conlogue?filter=movies'
p2471
sg13
(dp2472
g113
F7.5
ssg16
VThe Globe and Mail (Toronto)
p2473
sg18
NsbsVChicago Sun-Times/Roger Ebert
p2474
g3
(g4
g5
NtRp2475
(dp2476
g8
g2474
sg9
VRoger Ebert
p2477
sg11
S'http://www.metacritic.com/critic/roger-ebert?filter=movies'
p2478
sg13
(dp2479
g231
F7.5
sg110
F7.5
sg160
F10
sg113
F7.5
sg111
F10
sg274
F8.8000000000000007
sg114
F6.2999999999999998
sg115
F10
sg116
F10
sg676
F7.5
sg117
F10
sg118
F8.8000000000000007
sg52
F8.8000000000000007
sg119
F7.5
sg120
F10
sg700
F6.2999999999999998
sg122
F10
sg139
F10
sg205
F5
sg161
F10
sg149
F10
sg102
F10
sg128
F7.5
sg129
F10
sg130
F10
sg699
F7.5
sg132
F10
sg288
F8.8000000000000007
sg677
F10
sg133
F8.8000000000000007
sg33
F8.8000000000000007
sg34
F10
sg134
F2.5
sg135
F8.8000000000000007
sg424
F5
sg137
F5
sg138
F8.8000000000000007
sg140
F10
sg141
F5
sg142
F10
sg144
F8.8000000000000007
sg145
F7.5
sg146
F5
sg147
F10
sg148
F10
sg287
F10
sg151
F8.8000000000000007
sg152
F8.8000000000000007
sg153
F10
sg124
F7.5
sg701
F10
sg155
F8.8000000000000007
sg156
F10
sg289
F10
sg43
F7.5
sg157
F7.5
sg158
F10
sg51
F10
sg112
F10
sg91
F10
sg290
F10
sg126
F7.5
sg163
F10
sg164
F10
sg165
F10
sg460
F5
sg167
F8.8000000000000007
sg168
F10
ssg16
VChicago Sun-Times
p2480
sg18
NsbsVChicago Tribune/Tasha Robinson
p2481
g3
(g4
g5
NtRp2482
(dp2483
g8
g2481
sg9
VTasha Robinson
p2484
sg11
S'http://www.metacritic.com/critic?filter=movies'
p2485
sg13
(dp2486
g287
F8.8000000000000007
ssg16
VChicago Tribune
p2487
sg18
NsbsVThe Playlist/Rodrigo Perez
p2488
g3
(g4
g5
NtRp2489
(dp2490
g8
g2488
sg9
VRodrigo Perez
p2491
sg11
S'http://www.metacritic.com/critic/rodrigo-perez?filter=movies'
p2492
sg13
(dp2493
g110
F8.3000000000000007
sg111
F4.2000000000000002
sg71
F8.3000000000000007
sg125
F9.0999999999999996
sg159
F9.0999999999999996
sg127
F8.3000000000000007
sg150
F10
sg72
F8.3000000000000007
sg312
F9.0999999999999996
sg511
F8.3000000000000007
sg60
F8.3000000000000007
ssg16
VThe Playlist
p2494
sg18
NsbsVTNT RoughCut/Christopher Brandon
p2495
g3
(g4
g5
NtRp2496
(dp2497
g8
g2495
sg9
VChristopher Brandon
p2498
sg11
S'http://www.metacritic.com/critic/christopher-brandon?filter=movies'
p2499
sg13
(dp2500
g290
F10
sg118
F7
ssg16
VTNT RoughCut
p2501
sg18
NsbsVThe Seattle Times/Michael Upchurch
p2502
g3
(g4
g5
NtRp2503
(dp2504
g8
g2502
sg9
VMichael Upchurch
p2505
sg11
S'http://www.metacritic.com/critic?filter=movies'
p2506
sg13
(dp2507
g92
F7.5
ssg16
VThe Seattle Times
p2508
sg18
NsbsVVillage Voice/Stephanie Zacharek
p2509
g3
(g4
g5
NtRp2510
(dp2511
g8
g2509
sg9
VStephanie Zacharek
p2512
sg11
S'http://www.metacritic.com/critic/stephanie-zacharek?filter=movies'
p2513
sg13
(dp2514
g71
F9
sg125
F4
sg159
F7
sg215
F9
sg65
F10
sg519
F8
sg275
F9
sg66
F7
sg131
F8
sg69
F10
sg154
F8
sg312
F9
sg73
F10
sg216
F9
ssg16
VVillage Voice
p2515
sg18
NsbsVThe Globe and Mail (Toronto)/Nathalie Atkinson 
p2516
g3
(g4
g5
NtRp2517
(dp2518
g8
g2516
sg9
VNathalie Atkinson 
p2519
sg11
S'http://www.metacritic.com/critic?filter=movies'
p2520
sg13
(dp2521
g519
F7.5
ssg16
VThe Globe and Mail (Toronto)
p2522
sg18
NsbsVPremiere/Eric Kohn
p2523
g3
(g4
g5
NtRp2524
(dp2525
g8
g2523
sg9
VEric Kohn
p2526
sg11
S'http://www.metacritic.com/critic?filter=movies'
p2527
sg13
(dp2528
g140
F7.5
ssg16
VPremiere
p2529
sg18
NsbsVEmpire/Staff (Not credited)
p2530
g3
(g4
g5
NtRp2531
(dp2532
g8
g2530
sg9
VStaff (Not credited)
p2533
sg11
S'http://www.metacritic.com/critic?filter=movies'
p2534
sg13
(dp2535
g165
F10
sg176
F8
ssg16
VEmpire
p2536
sg18
NsbsVLos Angeles Times/Michael Ordona
p2537
g3
(g4
g5
NtRp2538
(dp2539
g8
g2537
sg9
VMichael Ordona
p2540
sg11
S'http://www.metacritic.com/critic?filter=movies'
p2541
sg13
(dp2542
g123
F5
ssg16
VLos Angeles Times
p2543
sg18
NsbsVTotal Film/Matt Glasby
p2544
g3
(g4
g5
NtRp2545
(dp2546
g8
g2544
sg9
VMatt Glasby
p2547
sg11
S'http://www.metacritic.com/critic/matt-glasby?filter=movies'
p2548
sg13
(dp2549
g111
F8
sg275
F8
sg121
F10
ssg16
VTotal Film
p2550
sg18
NsbsVThe A.V. Club/Scott Tobias
p2551
g3
(g4
g5
NtRp2552
(dp2553
g8
g2551
sg9
VScott Tobias
p2554
sg11
S'http://www.metacritic.com/critic/scott-tobias?filter=movies'
p2555
sg13
(dp2556
g231
F8
sg148
F9.0999999999999996
sg277
F9.0999999999999996
sg142
F9
sg114
F10
sg138
F9
sg145
F9.0999999999999996
sg146
F7.5
sg161
F10
sg274
F9.0999999999999996
sg110
F10
sg126
F7.5
sg151
F6
sg119
F5
sg153
F9.0999999999999996
sg120
F10
sg167
F7
sg122
F10
sg164
F5
ssg16
VThe A.V. Club
p2557
sg18
NsbsVChicago Sun-Times/Mary Houlihan
p2558
g3
(g4
g5
NtRp2559
(dp2560
g8
g2558
sg9
VMary Houlihan
p2561
sg11
S'http://www.metacritic.com/critic/mary-houlihan?filter=movies'
p2562
sg13
(dp2563
g25
F7.5
ssg16
VChicago Sun-Times
p2564
sg18
NsbsVFilm.com/John Hartl
p2565
g3
(g4
g5
NtRp2566
(dp2567
g8
g2565
sg9
VJohn Hartl
p2568
sg11
S'http://www.metacritic.com/critic/john-hartl?filter=movies'
p2569
sg13
(dp2570
g205
F10
sg51
F10
sg124
F8
ssg16
VFilm.com
p2571
sg18
NsbsVMTV News/Amy Nicholson
p2572
g3
(g4
g5
NtRp2573
(dp2574
g8
g2572
sg9
VAmy Nicholson
p2575
sg11
S'http://www.metacritic.com/critic/amy-nicholson?filter=movies'
p2576
sg13
(dp2577
g136
F5
sg90
F6.7000000000000002
sg162
F6.7000000000000002
ssg16
VMTV News
p2578
sg18
NsbsVVariety/Editor
p2579
g3
(g4
g5
NtRp2580
(dp2581
g8
g2579
sg9
VEditor
p2582
sg11
S'http://www.metacritic.com/critic?filter=movies'
p2583
sg13
(dp2584
g424
F2
ssg16
VVariety
p2585
sg18
NsbsVTotal Film/Kate Stables
p2586
g3
(g4
g5
NtRp2587
(dp2588
g8
g2586
sg9
VKate Stables
p2589
sg11
S'http://www.metacritic.com/critic?filter=movies'
p2590
sg13
(dp2591
g156
F8
ssg16
VTotal Film
p2592
sg18
NsbsVThe New York Times/Ken Jaworowski
p2593
g3
(g4
g5
NtRp2594
(dp2595
g8
g2593
sg9
VKen Jaworowski
p2596
sg11
S'http://www.metacritic.com/critic/ken-jaworowski?filter=movies'
p2597
sg13
(dp2598
g206
F7
ssg16
VThe New York Times
p2599
sg18
NsbsVPremiere/Jenni Miller
p2600
g3
(g4
g5
NtRp2601
(dp2602
g8
g2600
sg9
VJenni Miller
p2603
sg11
S'http://www.metacritic.com/critic?filter=movies'
p2604
sg13
(dp2605
g133
F7.5
sg157
F7.5
ssg16
VPremiere
p2606
sg18
NsbsVSlant Magazine/Christopher Gray
p2607
g3
(g4
g5
NtRp2608
(dp2609
g8
g2607
sg9
VChristopher Gray
p2610
sg11
S'http://www.metacritic.com/critic/christopher-gray?filter=movies'
p2611
sg13
(dp2612
g159
F3.7999999999999998
sg67
F8.8000000000000007
sg68
F7.5
sg90
F8.8000000000000007
ssg16
VSlant Magazine
p2613
sg18
NsbsVThe Dissolve/Noel Murray
p2614
g3
(g4
g5
NtRp2615
(dp2616
g8
g2614
sg9
VNoel Murray
p2617
sg11
S'http://www.metacritic.com/critic/noel-murray?filter=movies'
p2618
sg13
(dp2619
g25
F8
sg555
F8
ssg16
VThe Dissolve
p2620
sg18
NsbsVDallas Observer/Bill Gallo
p2621
g3
(g4
g5
NtRp2622
(dp2623
g8
g2621
sg9
VBill Gallo
p2624
sg11
S'http://www.metacritic.com/critic/bill-gallo?filter=movies'
p2625
sg13
(dp2626
g290
F10
sg165
F9
sg119
F7
sg124
F5
ssg16
VDallas Observer
p2627
sg18
NsbsVL.A. Weekly/Paul Malcolm
p2628
g3
(g4
g5
NtRp2629
(dp2630
g8
g2628
sg9
VPaul Malcolm
p2631
sg11
S'http://www.metacritic.com/critic/paul-malcolm?filter=movies'
p2632
sg13
(dp2633
g134
F3
ssg16
VL.A. Weekly
p2634
sg18
NsbsVThe A.V. Club/Ignatiy Vishnevetsky
p2635
g3
(g4
g5
NtRp2636
(dp2637
g8
g2635
sg9
VIgnatiy Vishnevetsky
p2638
sg11
S'http://www.metacritic.com/critic/ignatiy-vishnevetsky?filter=movies'
p2639
sg13
(dp2640
g136
F9.0999999999999996
sg159
F5.7999999999999998
sg64
F7.5
sg468
F5
ssg16
VThe A.V. Club
p2641
sg18
NsbsVRogerEbert.com/Simon Abrams
p2642
g3
(g4
g5
NtRp2643
(dp2644
g8
g2642
sg9
VSimon Abrams
p2645
sg11
S'http://www.metacritic.com/critic/simon-abrams?filter=movies'
p2646
sg13
(dp2647
g519
F8.8000000000000007
sg70
F7.5
ssg16
VRogerEbert.com
p2648
sg18
NsbsVL.A. Weekly/Kim Morgan
p2649
g3
(g4
g5
NtRp2650
(dp2651
g8
g2649
sg9
VKim Morgan
p2652
sg11
S'http://www.metacritic.com/critic?filter=movies'
p2653
sg13
(dp2654
g142
F9
sg139
F4
ssg16
VL.A. Weekly
p2655
sg18
NsbsVIndiewire/Sterlin Johnson
p2656
g3
(g4
g5
NtRp2657
(dp2658
g8
g2656
sg9
VSterlin Johnson
p2659
sg11
S'http://www.metacritic.com/critic?filter=movies'
p2660
sg13
(dp2661
g150
F6.7000000000000002
ssg16
VIndiewire
p2662
sg18
NsbsVNew Times (L.A.)/Bill Gallo
p2663
g3
(g4
g5
NtRp2664
(dp2665
g8
g2663
sg9
VBill Gallo
p2666
sg11
S'http://www.metacritic.com/critic/bill-gallo?filter=movies'
p2667
sg13
(dp2668
g288
F6
ssg16
VNew Times (L.A.)
p2669
sg18
NsbsVSalon.com/Charles Taylor
p2670
g3
(g4
g5
NtRp2671
(dp2672
g8
g2670
sg9
VCharles Taylor
p2673
sg11
S'http://www.metacritic.com/critic/charles-taylor?filter=movies'
p2674
sg13
(dp2675
g424
F4
sg118
F2
sg142
F6
sg102
F6
sg128
F9
sg124
F3
sg151
F9
sg288
F4
sg119
F1
sg167
F10
sg139
F10
ssg16
VSalon.com
p2676
sg18
NsbsVChicago Tribune/Katie Walsh
p2677
g3
(g4
g5
NtRp2678
(dp2679
g8
g2677
sg9
VKatie Walsh
p2680
sg11
S'http://www.metacritic.com/critic/katie-walsh?filter=movies'
p2681
sg13
(dp2682
g136
F8.8000000000000007
ssg16
VChicago Tribune
p2683
sg18
NsbsVScreen International/Tim Grierson
p2684
g3
(g4
g5
NtRp2685
(dp2686
g8
g2684
sg9
VTim Grierson
p2687
sg11
S'http://www.metacritic.com/critic/tim-grierson?filter=movies'
p2688
sg13
(dp2689
g136
F7
sg159
F7
sg131
F8
sg93
F10
sg154
F9
sg73
F7
ssg16
VScreen International
p2690
sg18
NsbsVThe Guardian/Paul MacInnes
p2691
g3
(g4
g5
NtRp2692
(dp2693
g8
g2691
sg9
VPaul MacInnes
p2694
sg11
S'http://www.metacritic.com/critic?filter=movies'
p2695
sg13
(dp2696
g131
F10
ssg16
VThe Guardian
p2697
sg18
NsbsVDallas Observer/Hal Hinson
p2698
g3
(g4
g5
NtRp2699
(dp2700
g8
g2698
sg9
VHal Hinson
p2701
sg11
S'http://www.metacritic.com/critic?filter=movies'
p2702
sg13
(dp2703
g118
F5
ssg16
VDallas Observer
p2704
sg18
NsbsVTime Out New York/Geoff Andrew
p2705
g3
(g4
g5
NtRp2706
(dp2707
g8
g2705
sg9
VGeoff Andrew
p2708
sg11
S'http://www.metacritic.com/critic?filter=movies'
p2709
sg13
(dp2710
g216
F8
ssg16
VTime Out New York
p2711
sg18
NsbsVTime Out London/Wendy Ide
p2712
g3
(g4
g5
NtRp2713
(dp2714
g8
g2712
sg9
VWendy Ide
p2715
sg11
S'http://www.metacritic.com/critic?filter=movies'
p2716
sg13
(dp2717
g92
F8
ssg16
VTime Out London
p2718
sg18
NsbsVIndiewire/David Ehrlich
p2719
g3
(g4
g5
NtRp2720
(dp2721
g8
g2719
sg9
VDavid Ehrlich
p2722
sg11
S'http://www.metacritic.com/critic/david-ehrlich?filter=movies'
p2723
sg13
(dp2724
g468
F7.5
ssg16
VIndiewire
p2725
sg18
NsbsVTV Guide Magazine/Ken Fox
p2726
g3
(g4
g5
NtRp2727
(dp2728
g8
g2726
sg9
VKen Fox
p2729
sg11
S'http://www.metacritic.com/critic/ken-fox?filter=movies'
p2730
sg13
(dp2731
g161
F10
sg158
F8.8000000000000007
sg166
F7
sg138
F8
sg287
F8.8000000000000007
sg129
F10
sg133
F10
sg151
F7
sg676
F8
sg148
F8.8000000000000007
sg165
F8.8000000000000007
sg34
F10
sg167
F8
sg168
F6
ssg16
VTV Guide Magazine
p2732
sg18
NsbsVNew York Post/Rod Dreher
p2733
g3
(g4
g5
NtRp2734
(dp2735
g8
g2733
sg9
VRod Dreher
p2736
sg11
S'http://www.metacritic.com/critic?filter=movies'
p2737
sg13
(dp2738
g290
F10
sg124
F8.8000000000000007
sg118
F6.2999999999999998
ssg16
VNew York Post
p2739
sg18
NsbsVThe Film Stage/Dan Mecca
p2740
g3
(g4
g5
NtRp2741
(dp2742
g8
g2740
sg9
VDan Mecca
p2743
sg11
S'http://www.metacritic.com/critic?filter=movies'
p2744
sg13
(dp2745
g162
F8.3000000000000007
ssg16
VThe Film Stage
p2746
sg18
NsbsVThe Film Stage/Jordan Raup
p2747
g3
(g4
g5
NtRp2748
(dp2749
g8
g2747
sg9
VJordan Raup
p2750
sg11
S'http://www.metacritic.com/critic/jordan-raup?filter=movies'
p2751
sg13
(dp2752
g90
F9.0999999999999996
ssg16
VThe Film Stage
p2753
sg18
NsbsVTime Out New York/David Ehrlich
p2754
g3
(g4
g5
NtRp2755
(dp2756
g8
g2754
sg9
VDavid Ehrlich
p2757
sg11
S'http://www.metacritic.com/critic/david-ehrlich?filter=movies'
p2758
sg13
(dp2759
g159
F8
sg312
F6
sg519
F6
ssg16
VTime Out New York
p2760
sg18
NsbsVNew Orleans Times-Picayune/Mike Scott
p2761
g3
(g4
g5
NtRp2762
(dp2763
g8
g2761
sg9
VMike Scott
p2764
sg11
S'http://www.metacritic.com/critic/mike-scott?filter=movies'
p2765
sg13
(dp2766
g110
F10
sg111
F8
sg90
F10
sg114
F6
sg65
F10
sg126
F7.5
sg120
F8
sg122
F8
sg125
F6
sg127
F6
sg66
F10
sg131
F10
sg152
F7.5
sg143
F10
sg144
F8.8000000000000007
sg145
F6
sg150
F8
sg68
F10
sg69
F8
sg153
F8.8000000000000007
sg155
F10
sg156
F10
sg71
F4
sg91
F10
sg73
F10
sg163
F10
sg60
F8
sg511
F4
sg74
F8
sg279
F8
ssg16
VNew Orleans Times-Picayune
p2767
sg18
NsbsVFilm Threat/Ellen Marshall
p2768
g3
(g4
g5
NtRp2769
(dp2770
g8
g2768
sg9
VEllen Marshall
p2771
sg11
S'http://www.metacritic.com/critic?filter=movies'
p2772
sg13
(dp2773
g129
F10
ssg16
VFilm Threat
p2774
sg18
NsbsVPhiladelphia Inquirer/Tirdad Derakhshani
p2775
g3
(g4
g5
NtRp2776
(dp2777
g8
g2775
sg9
VTirdad Derakhshani
p2778
sg11
S'http://www.metacritic.com/critic/tirdad-derakhshani?filter=movies'
p2779
sg13
(dp2780
g90
F8.8000000000000007
sg67
F10
sg416
F8.8000000000000007
sg93
F10
sg72
F8.8000000000000007
sg312
F10
ssg16
VPhiladelphia Inquirer
p2781
sg18
NsbsVSalon.com/Stephanie Zacharek
p2782
g3
(g4
g5
NtRp2783
(dp2784
g8
g2782
sg9
VStephanie Zacharek
p2785
sg11
S'http://www.metacritic.com/critic/stephanie-zacharek?filter=movies'
p2786
sg13
(dp2787
g113
F1
sg116
F9
sg676
F9
sg117
F9
sg129
F6
sg152
F9
sg132
F8
sg677
F9
sg133
F7
sg34
F8
sg134
F4
sg135
F5
sg160
F6
sg140
F5
sg138
F7
sg146
F9
sg148
F6
sg699
F10
sg289
F9
sg157
F4
sg158
F10
sg112
F4
sg91
F5
sg164
F5
sg165
F5
sg168
F10
ssg16
VSalon.com
p2788
sg18
NsbsVArizona Republic/Randy Cordova
p2789
g3
(g4
g5
NtRp2790
(dp2791
g8
g2789
sg9
VRandy Cordova
p2792
sg11
S'http://www.metacritic.com/critic?filter=movies'
p2793
sg13
(dp2794
g137
F5
ssg16
VArizona Republic
p2795
sg18
NsbsVFilm.com/Sean Means
p2796
g3
(g4
g5
NtRp2797
(dp2798
g8
g2796
sg9
VSean Means
p2799
sg11
S'http://www.metacritic.com/critic/sean-means?filter=movies'
p2800
sg13
(dp2801
g118
F9
ssg16
VFilm.com
p2802
sg18
NsbsVTime Out New York/David Fear
p2803
g3
(g4
g5
NtRp2804
(dp2805
g8
g2803
sg9
VDavid Fear
p2806
sg11
S'http://www.metacritic.com/critic/david-fear?filter=movies'
p2807
sg13
(dp2808
g274
F6
sg145
F6
sg62
F6
sg131
F10
sg125
F8
ssg16
VTime Out New York
p2809
sg18
NsbsVSt. Louis Post-Dispatch/Joe Williams
p2810
g3
(g4
g5
NtRp2811
(dp2812
g8
g2810
sg9
VJoe Williams
p2813
sg11
S'http://www.metacritic.com/critic/joe-williams?filter=movies'
p2814
sg13
(dp2815
g137
F5
sg156
F5
sg160
F8.8000000000000007
sg62
F8.8000000000000007
sg125
F10
sg111
F10
sg277
F7.5
sg114
F10
sg144
F7.5
sg145
F10
sg127
F7.5
sg65
F8.8000000000000007
sg126
F6.2999999999999998
sg164
F7.5
sg555
F8.8000000000000007
sg153
F6.2999999999999998
sg71
F8.8000000000000007
sg143
F10
sg122
F8.8000000000000007
sg155
F8.8000000000000007
ssg16
VSt. Louis Post-Dispatch
p2816
sg18
NsbsVBoxoffice Magazine/Ray Greene
p2817
g3
(g4
g5
NtRp2818
(dp2819
g8
g2817
sg9
VRay Greene
p2820
sg11
S'http://www.metacritic.com/critic/ray-greene?filter=movies'
p2821
sg13
(dp2822
g155
F6
ssg16
VBoxoffice Magazine
p2823
sg18
NsbsVTotal Film/Tom Dawson
p2824
g3
(g4
g5
NtRp2825
(dp2826
g8
g2824
sg9
VTom Dawson
p2827
sg11
S'http://www.metacritic.com/critic/tom-dawson?filter=movies'
p2828
sg13
(dp2829
g277
F8
sg274
F8
ssg16
VTotal Film
p2830
sg18
NsbsVHitfix/Gregory Ellwood
p2831
g3
(g4
g5
NtRp2832
(dp2833
g8
g2831
sg9
VGregory Ellwood
p2834
sg11
S'http://www.metacritic.com/critic?filter=movies'
p2835
sg13
(dp2836
g159
F10
sg121
F8.3000000000000007
sg94
F10
sg150
F9.0999999999999996
sg154
F8.3000000000000007
sg214
F10
sg73
F10
sg74
F8.3000000000000007
ssg16
VHitfix
p2837
sg18
NsbsVThe Globe and Mail (Toronto)/Kiva Reardon
p2838
g3
(g4
g5
NtRp2839
(dp2840
g8
g2838
sg9
VKiva Reardon
p2841
sg11
S'http://www.metacritic.com/critic?filter=movies'
p2842
sg13
(dp2843
g279
F10
ssg16
VThe Globe and Mail (Toronto)
p2844
sg18
NsbsVThe Dissolve/Scott Tobias
p2845
g3
(g4
g5
NtRp2846
(dp2847
g8
g2845
sg9
VScott Tobias
p2848
sg11
S'http://www.metacritic.com/critic/scott-tobias?filter=movies'
p2849
sg13
(dp2850
g125
F10
sg63
F9
sg159
F3
sg215
F8
sg275
F6
sg66
F3
sg62
F9
sg131
F9
sg72
F9
sg312
F8
sg143
F9
sg279
F8
ssg16
VThe Dissolve
p2851
sg18
NsbsVCineVue/Tom Graham
p2852
g3
(g4
g5
NtRp2853
(dp2854
g8
g2852
sg9
VTom Graham
p2855
sg11
S'http://www.metacritic.com/critic?filter=movies'
p2856
sg13
(dp2857
g150
F8
ssg16
VCineVue
p2858
sg18
NsbsVThe Film Stage/Daniel Schindel
p2859
g3
(g4
g5
NtRp2860
(dp2861
g8
g2859
sg9
VDaniel Schindel
p2862
sg11
S'http://www.metacritic.com/critic/daniel-schindel?filter=movies'
p2863
sg13
(dp2864
g15
F6.7000000000000002
sg64
F9.0999999999999996
ssg16
VThe Film Stage
p2865
sg18
NsbsVThe New Republic/Stanley Kauffmann
p2866
g3
(g4
g5
NtRp2867
(dp2868
g8
g2866
sg9
VStanley Kauffmann
p2869
sg11
S'http://www.metacritic.com/critic/stanley-kauffmann?filter=movies'
p2870
sg13
(dp2871
g231
F5
sg205
F4
sg51
F10
sg138
F10
sg129
F7
sg149
F8
sg151
F7
sg142
F8
sg165
F10
sg700
F3
sg34
F9
sg35
F6
sg167
F8
sg701
F8
sg168
F9
ssg16
VThe New Republic
p2872
sg18
NsbsVPortland Oregonian/Stan Hall
p2873
g3
(g4
g5
NtRp2874
(dp2875
g8
g2873
sg9
VStan Hall
p2876
sg11
S'http://www.metacritic.com/critic/stan-hall?filter=movies'
p2877
sg13
(dp2878
g277
F8.3000000000000007
ssg16
VPortland Oregonian
p2879
sg18
NsbsVAustin Chronicle/Joey O'Bryan
p2880
g3
(g4
g5
NtRp2881
(dp2882
g8
g2880
sg9
VJoey O'Bryan
p2883
sg11
S'http://www.metacritic.com/critic?filter=movies'
p2884
sg13
(dp2885
g43
F8.9000000000000004
ssg16
VAustin Chronicle
p2886
sg18
NsbsVDallas Observer/Robert Wilonsky
p2887
g3
(g4
g5
NtRp2888
(dp2889
g8
g2887
sg9
VRobert Wilonsky
p2890
sg11
S'http://www.metacritic.com/critic/robert-wilonsky?filter=movies'
p2891
sg13
(dp2892
g424
F3
sg112
F4
sg102
F4
sg138
F10
sg146
F7
sg129
F10
sg134
F1
sg139
F5
ssg16
VDallas Observer
p2893
sg18
NsbsVFilm.com/Peter Brunette
p2894
g3
(g4
g5
NtRp2895
(dp2896
g8
g2894
sg9
VPeter Brunette
p2897
sg11
S'http://www.metacritic.com/critic/peter-brunette?filter=movies'
p2898
sg13
(dp2899
g290
F9
sg676
F9
sg118
F10
sg124
F8
ssg16
VFilm.com
p2900
sg18
NsbsVMr. Showbiz/Richard T. Jameson
p2901
g3
(g4
g5
NtRp2902
(dp2903
g8
g2901
sg9
VRichard T. Jameson
p2904
sg11
S'http://www.metacritic.com/critic?filter=movies'
p2905
sg13
(dp2906
g149
F9
ssg16
VMr. Showbiz
p2907
sg18
NsbsVFilm Threat/Chris Barsanti
p2908
g3
(g4
g5
NtRp2909
(dp2910
g8
g2908
sg9
VChris Barsanti
p2911
sg11
S'http://www.metacritic.com/critic?filter=movies'
p2912
sg13
(dp2913
g289
F10
ssg16
VFilm Threat
p2914
sg18
NsbsVTheWrap/Dave White
p2915
g3
(g4
g5
NtRp2916
(dp2917
g8
g2915
sg9
VDave White
p2918
sg11
S'http://www.metacritic.com/critic/dave-white?filter=movies'
p2919
sg13
(dp2920
g67
F9.5
sg74
F9
ssg16
VTheWrap
p2921
sg18
NsbsVConsequence of Sound/Sarah Kurchak
p2922
g3
(g4
g5
NtRp2923
(dp2924
g8
g2922
sg9
VSarah Kurchak
p2925
sg11
S'http://www.metacritic.com/critic/sarah-kurchak?filter=movies'
p2926
sg13
(dp2927
g89
F6.7000000000000002
sg176
F9.0999999999999996
sg60
F10
ssg16
VConsequence of Sound
p2928
sg18
NsbsVNew York Daily News/Jack Mathews
p2929
g3
(g4
g5
NtRp2930
(dp2931
g8
g2929
sg9
VJack Mathews
p2932
sg11
S'http://www.metacritic.com/critic/jack-mathews?filter=movies'
p2933
sg13
(dp2934
g113
F5
sg123
F5
sg116
F10
sg676
F8.8000000000000007
sg117
F10
sg35
F7.5
sg139
F8.8000000000000007
sg124
F6.2999999999999998
sg128
F10
sg129
F7.5
sg33
F10
sg132
F7.5
sg34
F8.8000000000000007
sg134
F3.7999999999999998
sg135
F8.8000000000000007
sg424
F2.5
sg118
F7.5
sg142
F10
sg138
F10
sg146
F10
sg147
F8.8000000000000007
sg148
F6.2999999999999998
sg151
F7.5
sg288
F6.2999999999999998
sg699
F8.8000000000000007
sg158
F10
sg112
F7.5
sg161
F10
sg287
F8.8000000000000007
sg460
F3.7999999999999998
sg168
F8.8000000000000007
ssg16
VNew York Daily News
p2935
sg18
NsbsVSt. Louis Post-Dispatch/Calvin Wilson
p2936
g3
(g4
g5
NtRp2937
(dp2938
g8
g2936
sg9
VCalvin Wilson
p2939
sg11
S'http://www.metacritic.com/critic/calvin-wilson?filter=movies'
p2940
sg13
(dp2941
g110
F10
sg90
F10
sg120
F10
sg121
F8.8000000000000007
sg64
F8.8000000000000007
sg162
F8.8000000000000007
sg66
F10
sg131
F10
sg93
F10
sg136
F8.8000000000000007
sg67
F8.8000000000000007
sg176
F8.8000000000000007
sg69
F10
sg154
F10
sg89
F10
sg159
F10
sg150
F10
sg73
F8.8000000000000007
sg163
F10
sg74
F8.8000000000000007
sg511
F8.8000000000000007
sg60
F8.8000000000000007
ssg16
VSt. Louis Post-Dispatch
p2942
sg18
NsbsVEmpire/Nev Pierce
p2943
g3
(g4
g5
NtRp2944
(dp2945
g8
g2943
sg9
VNev Pierce
p2946
sg11
S'http://www.metacritic.com/critic?filter=movies'
p2947
sg13
(dp2948
g153
F10
sg154
F8
sg145
F10
sg155
F8
ssg16
VEmpire
p2949
sg18
NsbsVSlant Magazine/Calum Marsh
p2950
g3
(g4
g5
NtRp2951
(dp2952
g8
g2950
sg9
VCalum Marsh
p2953
sg11
S'http://www.metacritic.com/critic?filter=movies'
p2954
sg13
(dp2955
g120
F5
sg114
F5
ssg16
VSlant Magazine
p2956
sg18
NsbsVVariety/Leonard Klady
p2957
g3
(g4
g5
NtRp2958
(dp2959
g8
g2957
sg9
VLeonard Klady
p2960
sg11
S'http://www.metacritic.com/critic?filter=movies'
p2961
sg13
(dp2962
g149
F9
ssg16
VVariety
p2963
sg18
NsbsVThe Guardian/Caspar Llewellyn Smith
p2964
g3
(g4
g5
NtRp2965
(dp2966
g8
g2964
sg9
VCaspar Llewellyn Smith
p2967
sg11
S'http://www.metacritic.com/critic?filter=movies'
p2968
sg13
(dp2969
g92
F6
ssg16
VThe Guardian
p2970
sg18
NsbsVWashington Post/Stephen Hunter
p2971
g3
(g4
g5
NtRp2972
(dp2973
g8
g2971
sg9
VStephen Hunter
p2974
sg11
S'http://www.metacritic.com/critic/stephen-hunter?filter=movies'
p2975
sg13
(dp2976
g231
F9
sg124
F7
sg289
F6
sg140
F7
sg424
F3
sg146
F7
sg128
F10
sg129
F10
sg130
F1
sg118
F2
sg287
F8
sg151
F9
sg147
F5
sg677
F8
sg119
F2
sg33
F9
sg134
F2
sg167
F10
sg168
F9
ssg16
VWashington Post
p2977
sg18
NsbsVLos Angeles Times/Justin Chang
p2978
g3
(g4
g5
NtRp2979
(dp2980
g8
g2978
sg9
VJustin Chang
p2981
sg11
S'http://www.metacritic.com/critic/justin-chang?filter=movies'
p2982
sg13
(dp2983
g89
F9
sg64
F6
sg67
F10
sg468
F6
sg93
F10
sg162
F5
sg74
F8
ssg16
VLos Angeles Times
p2984
sg18
NsbsVWe Got This Covered/Josh Cabrita
p2985
g3
(g4
g5
NtRp2986
(dp2987
g8
g2985
sg9
VJosh Cabrita
p2988
sg11
S'http://www.metacritic.com/critic/josh-cabrita?filter=movies'
p2989
sg13
(dp2990
g67
F10
ssg16
VWe Got This Covered
p2991
sg18
NsbsVArizona Republic/Kerry Lengel
p2992
g3
(g4
g5
NtRp2993
(dp2994
g8
g2992
sg9
VKerry Lengel
p2995
sg11
S'http://www.metacritic.com/critic/kerry-lengel?filter=movies'
p2996
sg13
(dp2997
g144
F8
ssg16
VArizona Republic
p2998
sg18
NsbsVThe Globe and Mail (Toronto)/Johanna Schneller
p2999
g3
(g4
g5
NtRp3000
(dp3001
g8
g2999
sg9
VJohanna Schneller
p3002
sg11
S'http://www.metacritic.com/critic?filter=movies'
p3003
sg13
(dp3004
g162
F6.2999999999999998
ssg16
VThe Globe and Mail (Toronto)
p3005
sg18
NsbsVRogerEbert.com/Peter Sobczynski
p3006
g3
(g4
g5
NtRp3007
(dp3008
g8
g3006
sg9
VPeter Sobczynski
p3009
sg11
S'http://www.metacritic.com/critic/peter-sobczynski?filter=movies'
p3010
sg13
(dp3011
g312
F8.8000000000000007
ssg16
VRogerEbert.com
p3012
sg18
NsbsVThe Hollywood Reporter/Michael Rechtshaffen
p3013
g3
(g4
g5
NtRp3014
(dp3015
g8
g3013
sg9
VMichael Rechtshaffen
p3016
sg11
S'http://www.metacritic.com/critic/michael-rechtshaffen?filter=movies'
p3017
sg13
(dp3018
g137
F8
sg134
F4
sg152
F9
sg91
F10
sg113
F6
ssg16
VThe Hollywood Reporter
p3019
sg18
NsbsVLos Angeles Times/Sam Adams
p3020
g3
(g4
g5
NtRp3021
(dp3022
g8
g3020
sg9
VSam Adams
p3023
sg11
S'http://www.metacritic.com/critic?filter=movies'
p3024
sg13
(dp3025
g157
F6
ssg16
VLos Angeles Times
p3026
sg18
NsbsVBoston Globe/Ty Burr
p3027
g3
(g4
g5
NtRp3028
(dp3029
g8
g3027
sg9
VTy Burr
p3030
sg11
S'http://www.metacritic.com/critic/ty-burr?filter=movies'
p3031
sg13
(dp3032
g231
F8.8000000000000007
sg110
F10
sg69
F8.8000000000000007
sg90
F10
sg115
F10
sg25
F8.8000000000000007
sg91
F10
sg92
F7.5
sg120
F10
sg94
F8.8000000000000007
sg121
F6.2999999999999998
sg139
F6.2999999999999998
sg125
F10
sg65
F8.8000000000000007
sg64
F6.2999999999999998
sg215
F10
sg127
F6.2999999999999998
sg128
F10
sg129
F8.8000000000000007
sg66
F10
sg416
F8.8000000000000007
sg131
F10
sg117
F10
sg93
F10
sg133
F10
sg468
F7.5
sg34
F8.8000000000000007
sg33
F8.8000000000000007
sg136
F7.5
sg137
F3.7999999999999998
sg138
F7.5
sg123
F3.7999999999999998
sg140
F7.5
sg142
F10
sg143
F8.8000000000000007
sg144
F7.5
sg145
F8.8000000000000007
sg146
F7.5
sg147
F10
sg148
F7.5
sg287
F8.8000000000000007
sg67
F8.8000000000000007
sg68
F8.8000000000000007
sg176
F10
sg151
F8.8000000000000007
sg152
F7.5
sg160
F6.2999999999999998
sg154
F10
sg214
F7.5
sg216
F8.8000000000000007
sg156
F8.8000000000000007
sg71
F8.8000000000000007
sg277
F8.8000000000000007
sg159
F6.2999999999999998
sg112
F7.5
sg150
F8.8000000000000007
sg73
F10
sg161
F10
sg62
F8.8000000000000007
sg163
F10
sg164
F8.8000000000000007
sg70
F8.8000000000000007
sg165
F8.8000000000000007
sg511
F8.8000000000000007
sg166
F8.8000000000000007
sg279
F8.8000000000000007
sg167
F10
sg168
F10
ssg16
VBoston Globe
p3033
sg18
NsbsVThe Hollywood Reporter/Leslie Felperin
p3034
g3
(g4
g5
NtRp3035
(dp3036
g8
g3034
sg9
VLeslie Felperin
p3037
sg11
S'http://www.metacritic.com/critic/leslie-felperin?filter=movies'
p3038
sg13
(dp3039
g25
F10
sg215
F10
sg278
F8
sg67
F10
sg555
F9
sg162
F5
sg74
F9
ssg16
VThe Hollywood Reporter
p3040
sg18
NsbsVLos Angeles Times/Michael Rechtshaffen
p3041
g3
(g4
g5
NtRp3042
(dp3043
g8
g3041
sg9
VMichael Rechtshaffen
p3044
sg11
S'http://www.metacritic.com/critic/michael-rechtshaffen?filter=movies'
p3045
sg13
(dp3046
g519
F8
ssg16
VLos Angeles Times
p3047
sg18
NsbsVSan Francisco Chronicle/Steve Rubenstein
p3048
g3
(g4
g5
NtRp3049
(dp3050
g8
g3048
sg9
VSteve Rubenstein
p3051
sg11
S'http://www.metacritic.com/critic?filter=movies'
p3052
sg13
(dp3053
g70
F5
ssg16
VSan Francisco Chronicle
p3054
sg18
NsbsVSan Francisco Chronicle/Peter Stack
p3055
g3
(g4
g5
NtRp3056
(dp3057
g8
g3055
sg9
VPeter Stack
p3058
sg11
S'http://www.metacritic.com/critic/peter-stack?filter=movies'
p3059
sg13
(dp3060
g149
F10
sg51
F10
ssg16
VSan Francisco Chronicle
p3061
sg18
NsbsVFilm Threat/Tim Merrill
p3062
g3
(g4
g5
NtRp3063
(dp3064
g8
g3062
sg9
VTim Merrill
p3065
sg11
S'http://www.metacritic.com/critic/tim-merrill?filter=movies'
p3066
sg13
(dp3067
g677
F8
ssg16
VFilm Threat
p3068
sg18
NsbsVThe Globe and Mail (Toronto)/Jeff Gray
p3069
g3
(g4
g5
NtRp3070
(dp3071
g8
g3069
sg9
VJeff Gray
p3072
sg11
S'http://www.metacritic.com/critic?filter=movies'
p3073
sg13
(dp3074
g124
F5
ssg16
VThe Globe and Mail (Toronto)
p3075
sg18
NsbsVNew York Post/Lou Lumenick
p3076
g3
(g4
g5
NtRp3077
(dp3078
g8
g3076
sg9
VLou Lumenick
p3079
sg11
S'http://www.metacritic.com/critic/lou-lumenick?filter=movies'
p3080
sg13
(dp3081
g110
F10
sg424
F6.2999999999999998
sg114
F8.8000000000000007
sg116
F10
sg65
F10
sg113
F5
sg160
F8.8000000000000007
sg119
F6.2999999999999998
sg162
F8.8000000000000007
sg139
F8.8000000000000007
sg125
F6.2999999999999998
sg102
F10
sg64
F7.5
sg127
F7.5
sg129
F8.8000000000000007
sg66
F8.8000000000000007
sg131
F10
sg117
F10
sg133
F10
sg33
F10
sg34
F8.8000000000000007
sg135
F8.8000000000000007
sg136
F8.8000000000000007
sg137
F5
sg138
F10
sg144
F7.5
sg145
F10
sg146
F8.8000000000000007
sg147
F10
sg148
F7.5
sg68
F10
sg151
F7.5
sg153
F10
sg154
F8.8000000000000007
sg288
F7.5
sg699
F10
sg156
F7.5
sg289
F7.5
sg158
F10
sg159
F8.8000000000000007
sg91
F10
sg62
F7.5
sg163
F10
sg164
F8.8000000000000007
sg73
F10
sg168
F10
ssg16
VNew York Post
p3082
sg18
NsbsVVariety/l
p3083
g3
(g4
g5
NtRp3084
(dp3085
g8
g3083
sg9
Vl
sg11
S'http://www.metacritic.com/critic?filter=movies'
p3086
sg13
(dp3087
g35
F5
ssg16
VVariety
p3088
sg18
NsbsVTime Out London/Tom Huddleston
p3089
g3
(g4
g5
NtRp3090
(dp3091
g8
g3089
sg9
VTom Huddleston
p3092
sg11
S'http://www.metacritic.com/critic/tom-huddleston?filter=movies'
p3093
sg13
(dp3094
g131
F10
sg65
F8
sg279
F8
ssg16
VTime Out London
p3095
sg18
NsbsVWashington Post/John Anderson
p3096
g3
(g4
g5
NtRp3097
(dp3098
g8
g3096
sg9
VJohn Anderson
p3099
sg11
S'http://www.metacritic.com/critic?filter=movies'
p3100
sg13
(dp3101
g133
F10
ssg16
VWashington Post
p3102
sg18
NsbsVSan Francisco Examiner/Wesley Morris
p3103
g3
(g4
g5
NtRp3104
(dp3105
g8
g3103
sg9
VWesley Morris
p3106
sg11
S'http://www.metacritic.com/critic/wesley-morris?filter=movies'
p3107
sg13
(dp3108
g205
F10
sg124
F7.5
sg118
F6.2999999999999998
sg424
F7.5
sg102
F10
sg290
F6.2999999999999998
ssg16
VSan Francisco Examiner
p3109
sg18
NsbsVCineVue/Patrick Gamble
p3110
g3
(g4
g5
NtRp3111
(dp3112
g8
g3110
sg9
VPatrick Gamble
p3113
sg11
S'http://www.metacritic.com/critic/patrick-gamble?filter=movies'
p3114
sg13
(dp3115
g214
F6
ssg16
VCineVue
p3116
sg18
NsbsVThe Hollywood Reporter/Stephen Dalton
p3117
g3
(g4
g5
NtRp3118
(dp3119
g8
g3117
sg9
VStephen Dalton
p3120
sg11
S'http://www.metacritic.com/critic?filter=movies'
p3121
sg13
(dp3122
g277
F7
sg275
F8
sg176
F7
sg214
F8
ssg16
VThe Hollywood Reporter
p3123
sg18
NsbsVConsequence of Sound/Michael Roffman
p3124
g3
(g4
g5
NtRp3125
(dp3126
g8
g3124
sg9
VMichael Roffman
p3127
sg11
S'http://www.metacritic.com/critic/michael-roffman?filter=movies'
p3128
sg13
(dp3129
g64
F8.3000000000000007
sg121
F10
sg74
F8.3000000000000007
ssg16
VConsequence of Sound
p3130
sg18
NsbsVSan Francisco Chronicle/David Lewis
p3131
g3
(g4
g5
NtRp3132
(dp3133
g8
g3131
sg9
VDavid Lewis
p3134
sg11
S'http://www.metacritic.com/critic?filter=movies'
p3135
sg13
(dp3136
g555
F7.5
ssg16
VSan Francisco Chronicle
p3137
sg18
NsbsVVariety/Ella Taylor
p3138
g3
(g4
g5
NtRp3139
(dp3140
g8
g3138
sg9
VElla Taylor
p3141
sg11
S'http://www.metacritic.com/critic/ella-taylor?filter=movies'
p3142
sg13
(dp3143
g15
F8
ssg16
VVariety
p3144
sg18
NsbsVMiami Herald/Rene Rodriguez
p3145
g3
(g4
g5
NtRp3146
(dp3147
g8
g3145
sg9
VRene Rodriguez
p3148
sg11
S'http://www.metacritic.com/critic/rene-rodriguez?filter=movies'
p3149
sg13
(dp3150
g110
F8.8000000000000007
sg111
F7.5
sg69
F10
sg113
F5
sg90
F10
sg114
F5
sg166
F8.8000000000000007
sg116
F10
sg65
F8.8000000000000007
sg216
F7.5
sg117
F8.8000000000000007
sg160
F10
sg60
F7.5
sg119
F5
sg120
F10
sg72
F8.8000000000000007
sg35
F7.5
sg121
F8.8000000000000007
sg122
F10
sg139
F7.5
sg161
F10
sg125
F10
sg102
F7.5
sg64
F6.2999999999999998
sg215
F10
sg127
F7.5
sg128
F8.8000000000000007
sg129
F8.8000000000000007
sg66
F8.8000000000000007
sg131
F10
sg132
F8.8000000000000007
sg93
F10
sg133
F10
sg33
F10
sg34
F8.8000000000000007
sg312
F8.8000000000000007
sg275
F8.8000000000000007
sg135
F10
sg137
F5
sg138
F10
sg140
F8.8000000000000007
sg142
F10
sg144
F7.5
sg145
F10
sg146
F7.5
sg147
F10
sg148
F6.2999999999999998
sg68
F7.5
sg176
F8.8000000000000007
sg151
F6.2999999999999998
sg152
F7.5
sg153
F8.8000000000000007
sg154
F10
sg214
F7.5
sg288
F8.8000000000000007
sg699
F7.5
sg155
F8.8000000000000007
sg676
F6.2999999999999998
sg89
F7.5
sg289
F7.5
sg43
F7.5
sg157
F7.5
sg158
F7.5
sg112
F7.5
sg91
F10
sg73
F10
sg290
F8.8000000000000007
sg62
F8.8000000000000007
sg163
F10
sg164
F6.2999999999999998
sg70
F8.8000000000000007
sg165
F10
sg460
F5
sg167
F8.8000000000000007
sg74
F8.8000000000000007
sg168
F8.8000000000000007
ssg16
VMiami Herald
p3151
sg18
NsbsVSlant Magazine/None
p3152
g3
(g4
g5
NtRp3153
(dp3154
g8
g3152
sg9
Nsg11
Nsg13
(dp3155
g277
F8.8000000000000007
ssg16
VSlant Magazine
p3156
sg18
NsbsVVariety/Leslie Felperin
p3157
g3
(g4
g5
NtRp3158
(dp3159
g8
g3157
sg9
VLeslie Felperin
p3160
sg11
S'http://www.metacritic.com/critic?filter=movies'
p3161
sg13
(dp3162
g117
F9
ssg16
VVariety
p3163
sg18
NsbsVVillage Voice/Karina Longworth
p3164
g3
(g4
g5
NtRp3165
(dp3166
g8
g3164
sg9
VKarina Longworth
p3167
sg11
S'http://www.metacritic.com/critic?filter=movies'
p3168
sg13
(dp3169
g126
F7
sg114
F9
sg144
F8
sg155
F5
ssg16
VVillage Voice
p3170
sg18
NsbsVThe New York Times/Bosley Crowther
p3171
g3
(g4
g5
NtRp3172
(dp3173
g8
g3171
sg9
VBosley Crowther
p3174
sg11
S'http://www.metacritic.com/critic?filter=movies'
p3175
sg13
(dp3176
g115
F7
ssg16
VThe New York Times
p3177
sg18
NsbsVPremiere/Kelly Borgeson
p3178
g3
(g4
g5
NtRp3179
(dp3180
g8
g3178
sg9
VKelly Borgeson
p3181
sg11
S'http://www.metacritic.com/critic/kelly-borgeson?filter=movies'
p3182
sg13
(dp3183
g113
F7.5
ssg16
VPremiere
p3184
sg18
NsbsVEmpire/Angie Errigo
p3185
g3
(g4
g5
NtRp3186
(dp3187
g8
g3185
sg9
VAngie Errigo
p3188
sg11
S'http://www.metacritic.com/critic/angie-errigo?filter=movies'
p3189
sg13
(dp3190
g130
F10
sg150
F8
sg139
F8
ssg16
VEmpire
p3191
sg18
NsbsVThe New Yorker/Richard Brody
p3192
g3
(g4
g5
NtRp3193
(dp3194
g8
g3192
sg9
VRichard Brody
p3195
sg11
S'http://www.metacritic.com/critic/richard-brody?filter=movies'
p3196
sg13
(dp3197
g150
F3
ssg16
VThe New Yorker
p3198
sg18
NsbsVHitfix/Guy Lodge
p3199
g3
(g4
g5
NtRp3200
(dp3201
g8
g3199
sg9
VGuy Lodge
p3202
sg11
S'http://www.metacritic.com/critic?filter=movies'
p3203
sg13
(dp3204
g275
F6.7000000000000002
ssg16
VHitfix
p3205
sg18
NsbsVEmpire/Helen O'Hara
p3206
g3
(g4
g5
NtRp3207
(dp3208
g8
g3206
sg9
VHelen O'Hara
p3209
sg11
S'http://www.metacritic.com/critic?filter=movies'
p3210
sg13
(dp3211
g287
F8
sg162
F8
sg93
F8
sg135
F10
ssg16
VEmpire
p3212
sg18
NsbsVThe Guardian/Catherine Shoard
p3213
g3
(g4
g5
NtRp3214
(dp3215
g8
g3213
sg9
VCatherine Shoard
p3216
sg11
S'http://www.metacritic.com/critic/catherine-shoard?filter=movies'
p3217
sg13
(dp3218
g60
F10
ssg16
VThe Guardian
p3219
sg18
NsbsVLos Angeles Times/Charles Solomon
p3220
g3
(g4
g5
NtRp3221
(dp3222
g8
g3220
sg9
VCharles Solomon
p3223
sg11
S'http://www.metacritic.com/critic/charles-solomon?filter=movies'
p3224
sg13
(dp3225
g216
F4
ssg16
VLos Angeles Times
p3226
sg18
NsbsVVariety/Justin Chang
p3227
g3
(g4
g5
NtRp3228
(dp3229
g8
g3227
sg9
VJustin Chang
p3230
sg11
S'http://www.metacritic.com/critic/justin-chang?filter=movies'
p3231
sg13
(dp3232
g143
F10
sg90
F10
sg158
F10
sg277
F6
sg63
F10
sg114
F9
sg140
F10
sg116
F8
sg65
F10
sg145
F9
sg94
F9
sg274
F8
sg163
F10
sg153
F10
sg154
F10
sg73
F9
ssg16
VVariety
p3233
sg18
NsbsVThe Globe and Mail (Toronto)/Liam Lacey
p3234
g3
(g4
g5
NtRp3235
(dp3236
g8
g3234
sg9
VLiam Lacey
p3237
sg11
S'http://www.metacritic.com/critic/liam-lacey?filter=movies'
p3238
sg13
(dp3239
g110
F7.5
sg111
F6.2999999999999998
sg123
F6.2999999999999998
sg274
F10
sg63
F10
sg114
F10
sg166
F6.2999999999999998
sg116
F10
sg65
F10
sg119
F5
sg139
F6.2999999999999998
sg125
F8.8000000000000007
sg215
F8.8000000000000007
sg127
F6.2999999999999998
sg128
F7.5
sg66
F7.5
sg131
F10
sg133
F10
sg33
F7.5
sg135
F8.8000000000000007
sg118
F10
sg140
F7.5
sg143
F8.8000000000000007
sg152
F5
sg216
F7.5
sg158
F8.8000000000000007
sg112
F6.2999999999999998
sg161
F8.8000000000000007
sg62
F10
sg167
F8.8000000000000007
sg168
F7.5
ssg16
VThe Globe and Mail (Toronto)
p3240
sg18
NsbsVTime Out London/Cath Clarke
p3241
g3
(g4
g5
NtRp3242
(dp3243
g8
g3241
sg9
VCath Clarke
p3244
sg11
S'http://www.metacritic.com/critic/cath-clarke?filter=movies'
p3245
sg13
(dp3246
g66
F10
sg519
F8
sg125
F8
sg70
F8
ssg16
VTime Out London
p3247
sg18
NsbsVLos Angeles Times/Sheila Benson
p3248
g3
(g4
g5
NtRp3249
(dp3250
g8
g3248
sg9
VSheila Benson
p3251
sg11
S'http://www.metacritic.com/critic/sheila-benson?filter=movies'
p3252
sg13
(dp3253
g700
F9
ssg16
VLos Angeles Times
p3254
sg18
NsbsVThe Dissolve/Keith Phipps
p3255
g3
(g4
g5
NtRp3256
(dp3257
g8
g3255
sg9
VKeith Phipps
p3258
sg11
S'http://www.metacritic.com/critic/keith-phipps?filter=movies'
p3259
sg13
(dp3260
g71
F9
sg69
F9
sg65
F9
ssg16
VThe Dissolve
p3261
sg18
NsbsVNew Times (L.A.)/Andy Klein
p3262
g3
(g4
g5
NtRp3263
(dp3264
g8
g3262
sg9
VAndy Klein
p3265
sg11
S'http://www.metacritic.com/critic/andy-klein?filter=movies'
p3266
sg13
(dp3267
g677
F9
ssg16
VNew Times (L.A.)
p3268
sg18
NsbsVHitfix/Drew McWeeny
p3269
g3
(g4
g5
NtRp3270
(dp3271
g8
g3269
sg9
VDrew McWeeny
p3272
sg11
S'http://www.metacritic.com/critic/drew-mcweeny?filter=movies'
p3273
sg13
(dp3274
g136
F5
sg71
F10
sg90
F10
sg143
F10
sg64
F8.3000000000000007
sg68
F10
sg60
F10
sg216
F10
ssg16
VHitfix
p3275
sg18
NsbsVBaltimore Sun/Chris Kaltenbach
p3276
g3
(g4
g5
NtRp3277
(dp3278
g8
g3276
sg9
VChris Kaltenbach
p3279
sg11
S'http://www.metacritic.com/critic/chris-kaltenbach?filter=movies'
p3280
sg13
(dp3281
g113
F5
sg142
F10
sg676
F8.8000000000000007
sg287
F9.0999999999999996
sg132
F6.7000000000000002
sg166
F8.8000000000000007
sg119
F3.7999999999999998
sg134
F2.5
sg288
F6.2999999999999998
sg139
F6.2999999999999998
ssg16
VBaltimore Sun
p3282
sg18
NsbsVEmpire/David Eimer
p3283
g3
(g4
g5
NtRp3284
(dp3285
g8
g3283
sg9
VDavid Eimer
p3286
sg11
S'http://www.metacritic.com/critic?filter=movies'
p3287
sg13
(dp3288
g52
F4
ssg16
VEmpire
p3289
sg18
NsbsVTotal Film/Emma Dibdin
p3290
g3
(g4
g5
NtRp3291
(dp3292
g8
g3290
sg9
VEmma Dibdin
p3293
sg11
S'http://www.metacritic.com/critic/emma-dibdin?filter=movies'
p3294
sg13
(dp3295
g114
F10
sg131
F8
sg125
F8
ssg16
VTotal Film
p3296
sg18
NsbsVChicago Sun-Times/Bill Stamets
p3297
g3
(g4
g5
NtRp3298
(dp3299
g8
g3297
sg9
VBill Stamets
p3300
sg11
S'http://www.metacritic.com/critic/bill-stamets?filter=movies'
p3301
sg13
(dp3302
g312
F8.8000000000000007
sg215
F8.8000000000000007
sg279
F10
ssg16
VChicago Sun-Times
p3303
sg18
NsbsVFilm.com/Keith Simanton
p3304
g3
(g4
g5
NtRp3305
(dp3306
g8
g3304
sg9
VKeith Simanton
p3307
sg11
S'http://www.metacritic.com/critic?filter=movies'
p3308
sg13
(dp3309
g149
F7
ssg16
VFilm.com
p3310
sg18
NsbsVConsequence of Sound/Nico Lang
p3311
g3
(g4
g5
NtRp3312
(dp3313
g8
g3311
sg9
VNico Lang
p3314
sg11
S'http://www.metacritic.com/critic/nico-lang?filter=movies'
p3315
sg13
(dp3316
g67
F10
sg93
F9.0999999999999996
ssg16
VConsequence of Sound
p3317
sg18
NsbsVAustin Chronicle/Marc Savlov
p3318
g3
(g4
g5
NtRp3319
(dp3320
g8
g3318
sg9
VMarc Savlov
p3321
sg11
S'http://www.metacritic.com/critic/marc-savlov?filter=movies'
p3322
sg13
(dp3323
g231
F8.9000000000000004
sg424
F3
sg123
F3
sg113
F4
sg160
F6.7000000000000002
sg52
F2
sg119
F2
sg94
F8.9000000000000004
sg290
F8.9000000000000004
sg102
F6.7000000000000002
sg215
F8.9000000000000004
sg65
F8.9000000000000004
sg519
F7.7999999999999998
sg128
F8.9000000000000004
sg416
F8.9000000000000004
sg33
F7.7999999999999998
sg117
F8.9000000000000004
sg133
F8.9000000000000004
sg136
F7.7999999999999998
sg137
F4
sg118
F7.7999999999999998
sg140
F5
sg145
F7.7999999999999998
sg149
F8.9000000000000004
sg67
F8.9000000000000004
sg699
F8.9000000000000004
sg158
F8.9000000000000004
sg112
F7.7999999999999998
sg124
F7.7999999999999998
sg164
F8.9000000000000004
sg167
F8.9000000000000004
ssg16
VAustin Chronicle
p3324
sg18
NsbsVThe Hollywood Reporter/Boyd van Hoeij
p3325
g3
(g4
g5
NtRp3326
(dp3327
g8
g3325
sg9
VBoyd van Hoeij
p3328
sg11
S'http://www.metacritic.com/critic/boyd-van-hoeij?filter=movies'
p3329
sg13
(dp3330
g206
F8
sg312
F8
sg94
F8
ssg16
VThe Hollywood Reporter
p3331
sg18
NsbsVSlant Magazine/Carson Lund
p3332
g3
(g4
g5
NtRp3333
(dp3334
g8
g3332
sg9
VCarson Lund
p3335
sg11
S'http://www.metacritic.com/critic/carson-lund?filter=movies'
p3336
sg13
(dp3337
g206
F6.2999999999999998
ssg16
VSlant Magazine
p3338
sg18
NsbsVThe Hollywood Reporter/David Rooney
p3339
g3
(g4
g5
NtRp3340
(dp3341
g8
g3339
sg9
VDavid Rooney
p3342
sg11
S'http://www.metacritic.com/critic/david-rooney?filter=movies'
p3343
sg13
(dp3344
g668
F10
sg60
F10
sg468
F8
sg511
F9
sg216
F7
ssg16
VThe Hollywood Reporter
p3345
sg18
NsbsVChicago Reader/Andrea Gronvall
p3346
g3
(g4
g5
NtRp3347
(dp3348
g8
g3346
sg9
VAndrea Gronvall
p3349
sg11
S'http://www.metacritic.com/critic/andrea-gronvall?filter=movies'
p3350
sg13
(dp3351
g133
F8
sg148
F5
sg33
F10
sg157
F0
sg91
F9
ssg16
VChicago Reader
p3352
sg18
NsbsVThe New Yorker/David Denby
p3353
g3
(g4
g5
NtRp3354
(dp3355
g8
g3353
sg9
VDavid Denby
p3356
sg11
S'http://www.metacritic.com/critic/david-denby?filter=movies'
p3357
sg13
(dp3358
g110
F9
sg126
F7
sg139
F8
sg65
F9
sg129
F10
sg131
F10
sg677
F10
sg133
F9
sg135
F10
sg137
F5
sg160
F5
sg140
F5
sg142
F9
sg143
F6
sg144
F7
sg148
F5
sg153
F5
sg699
F9
sg289
F8
sg158
F10
sg112
F5
sg91
F8
sg62
F7
sg163
F10
sg164
F9
sg168
F8
sg167
F7
sg279
F10
ssg16
VThe New Yorker
p3359
sg18
NsbsVThe Playlist/Kimber Myers
p3360
g3
(g4
g5
NtRp3361
(dp3362
g8
g3360
sg9
VKimber Myers
p3363
sg11
S'http://www.metacritic.com/critic/kimber-myers?filter=movies'
p3364
sg13
(dp3365
g416
F8.3000000000000007
ssg16
VThe Playlist
p3366
sg18
NsbsVFilm Threat/Rick Kisonak
p3367
g3
(g4
g5
NtRp3368
(dp3369
g8
g3367
sg9
VRick Kisonak
p3370
sg11
S'http://www.metacritic.com/critic/rick-kisonak?filter=movies'
p3371
sg13
(dp3372
g161
F8
sg287
F8
sg168
F8
sg152
F7
sg139
F6
ssg16
VFilm Threat
p3373
sg18
NsbsVBoxoffice Magazine/Wade Major
p3374
g3
(g4
g5
NtRp3375
(dp3376
g8
g3374
sg9
VWade Major
p3377
sg11
S'http://www.metacritic.com/critic/wade-major?filter=movies'
p3378
sg13
(dp3379
g122
F8
ssg16
VBoxoffice Magazine
p3380
sg18
NsbsVL.A. Weekly/Ella Taylor
p3381
g3
(g4
g5
NtRp3382
(dp3383
g8
g3381
sg9
VElla Taylor
p3384
sg11
S'http://www.metacritic.com/critic/ella-taylor?filter=movies'
p3385
sg13
(dp3386
g231
F9
sg290
F8
sg161
F10
sg289
F7
sg116
F10
sg129
F9
sg151
F5
sg677
F10
sg165
F9
sg460
F2
sg167
F8
sg168
F10
ssg16
VL.A. Weekly
p3387
sg18
NsbsVThe Film Stage/Nick Newman
p3388
g3
(g4
g5
NtRp3389
(dp3390
g8
g3388
sg9
VNick Newman
p3391
sg11
S'http://www.metacritic.com/critic/nick-newman?filter=movies'
p3392
sg13
(dp3393
g136
F7.5
ssg16
VThe Film Stage
p3394
sg18
NsbsVSlant Magazine/Elise Nakhnikian
p3395
g3
(g4
g5
NtRp3396
(dp3397
g8
g3395
sg9
VElise Nakhnikian
p3398
sg11
S'http://www.metacritic.com/critic/elise-nakhnikian?filter=movies'
p3399
sg13
(dp3400
g150
F6.2999999999999998
sg25
F8.8000000000000007
sg555
F8.8000000000000007
ssg16
VSlant Magazine
p3401
sg18
NsbsVSlant Magazine/Matt Noller
p3402
g3
(g4
g5
NtRp3403
(dp3404
g8
g3402
sg9
VMatt Noller
p3405
sg11
S'http://www.metacritic.com/critic?filter=movies'
p3406
sg13
(dp3407
g43
F8.8000000000000007
ssg16
VSlant Magazine
p3408
sg18
NsbsVSan Francisco Chronicle/Mick LaSalle
p3409
g3
(g4
g5
NtRp3410
(dp3411
g8
g3409
sg9
VMick LaSalle
p3412
sg11
S'http://www.metacritic.com/critic/mick-lasalle?filter=movies'
p3413
sg13
(dp3414
g110
F10
sg111
F10
sg90
F7.5
sg274
F5
sg114
F5
sg65
F10
sg117
F10
sg160
F10
sg52
F2.5
sg120
F7.5
sg94
F10
sg35
F7.5
sg121
F7.5
sg139
F7.5
sg124
F7.5
sg125
F5
sg64
F7.5
sg127
F2.5
sg519
F7.5
sg128
F7.5
sg129
F10
sg66
F10
sg62
F7.5
sg131
F10
sg216
F10
sg133
F7.5
sg33
F7.5
sg34
F10
sg134
F0
sg275
F7.5
sg135
F5
sg424
F5
sg138
F7.5
sg140
F7.5
sg143
F10
sg144
F10
sg145
F5
sg146
F5
sg147
F10
sg148
F7.5
sg287
F7.5
sg150
F10
sg68
F7.5
sg176
F10
sg69
F7.5
sg152
F7.5
sg154
F10
sg214
F7.5
sg288
F7.5
sg699
F10
sg155
F10
sg156
F10
sg289
F5
sg43
F5
sg157
F2.5
sg113
F2.5
sg159
F7.5
sg112
F7.5
sg91
F7.5
sg73
F10
sg161
F10
sg126
F7.5
sg163
F10
sg165
F10
sg511
F7.5
sg167
F10
sg60
F10
ssg16
VSan Francisco Chronicle
p3415
sg18
NsbsVThe Playlist/Oliver Lyttelton
p3416
g3
(g4
g5
NtRp3417
(dp3418
g8
g3416
sg9
VOliver Lyttelton
p3419
sg11
S'http://www.metacritic.com/critic/oliver-lyttelton?filter=movies'
p3420
sg13
(dp3421
g25
F9.0999999999999996
sg276
F4.2000000000000002
sg215
F10
sg65
F10
sg94
F8.3000000000000007
sg468
F9.0999999999999996
sg216
F7.5
sg74
F10
ssg16
VThe Playlist
p3422
sg18
NsbsVWashington Post/Stephanie Merry
p3423
g3
(g4
g5
NtRp3424
(dp3425
g8
g3423
sg9
VStephanie Merry
p3426
sg11
S'http://www.metacritic.com/critic/stephanie-merry?filter=movies'
p3427
sg13
(dp3428
g416
F7.5
sg121
F7.5
sg74
F6.2999999999999998
sg214
F7.5
ssg16
VWashington Post
p3429
sg18
NsbsVThe Hollywood Reporter/Sheri Linden
p3430
g3
(g4
g5
NtRp3431
(dp3432
g8
g3430
sg9
VSheri Linden
p3433
sg11
S'http://www.metacritic.com/critic/sheri-linden?filter=movies'
p3434
sg13
(dp3435
g231
F9
ssg16
VThe Hollywood Reporter
p3436
sg18
NsbsVVariety/Todd McCarthy
p3437
g3
(g4
g5
NtRp3438
(dp3439
g8
g3437
sg9
VTodd McCarthy
p3440
sg11
S'http://www.metacritic.com/critic/todd-mccarthy?filter=movies'
p3441
sg13
(dp3442
g118
F9
sg119
F6
sg139
F8
sg290
F9
sg128
F9
sg33
F10
sg677
F9
sg133
F8
sg135
F10
sg160
F8
sg142
F9
sg138
F9
sg146
F9
sg147
F10
sg699
F9
sg155
F8
sg289
F7
sg112
F7
sg91
F10
sg124
F6
sg164
F9
sg165
F8
sg167
F5
ssg16
VVariety
p3443
sg18
NsbsVThe New York Times/Manohla Dargis
p3444
g3
(g4
g5
NtRp3445
(dp3446
g8
g3444
sg9
VManohla Dargis
p3447
sg11
S'http://www.metacritic.com/critic/manohla-dargis?filter=movies'
p3448
sg13
(dp3449
g110
F10
sg274
F9
sg63
F6
sg117
F9
sg120
F10
sg162
F8
sg125
F10
sg215
F8
sg15
F7
sg66
F10
sg131
F10
sg132
F10
sg93
F9
sg135
F10
sg136
F9
sg137
F4
sg160
F5
sg555
F10
sg140
F9
sg142
F9
sg145
F8
sg146
F5
sg151
F6
sg216
F7
sg71
F10
sg157
F5
sg112
F9
sg91
F7
sg161
F10
sg163
F9
sg164
F10
sg60
F10
ssg16
VThe New York Times
p3450
sg18
NsbsVThe Hollywood Reporter/Bernard Besserglik
p3451
g3
(g4
g5
NtRp3452
(dp3453
g8
g3451
sg9
VBernard Besserglik
p3454
sg11
S'http://www.metacritic.com/critic?filter=movies'
p3455
sg13
(dp3456
g151
F8
ssg16
VThe Hollywood Reporter
p3457
sg18
NsbsVCineVue/Matthew Anderson
p3458
g3
(g4
g5
NtRp3459
(dp3460
g8
g3458
sg9
VMatthew Anderson
p3461
sg11
S'http://www.metacritic.com/critic/matthew-anderson?filter=movies'
p3462
sg13
(dp3463
g64
F8
ssg16
VCineVue
p3464
sg18
NsbsVNew York Observer/Thelma Adams
p3465
g3
(g4
g5
NtRp3466
(dp3467
g8
g3465
sg9
VThelma Adams
p3468
sg11
S'http://www.metacritic.com/critic?filter=movies'
p3469
sg13
(dp3470
g89
F7.5
ssg16
VNew York Observer
p3471
sg18
NsbsVFilm Threat/Mark Bell
p3472
g3
(g4
g5
NtRp3473
(dp3474
g8
g3472
sg9
VMark Bell
p3475
sg11
S'http://www.metacritic.com/critic?filter=movies'
p3476
sg13
(dp3477
g132
F7
sg157
F7
ssg16
VFilm Threat
p3478
sg18
NsbsVThe Seattle Times/Moira Macdonald
p3479
g3
(g4
g5
NtRp3480
(dp3481
g8
g3479
sg9
VMoira Macdonald
p3482
sg11
S'http://www.metacritic.com/critic/moira-macdonald?filter=movies'
p3483
sg13
(dp3484
g136
F8.8000000000000007
sg90
F10
sg64
F6.2999999999999998
sg131
F10
sg154
F10
sg121
F8.8000000000000007
ssg16
VThe Seattle Times
p3485
sg18
NsbsVThe Playlist/Jessica Kiang
p3486
g3
(g4
g5
NtRp3487
(dp3488
g8
g3486
sg9
VJessica Kiang
p3489
sg11
S'http://www.metacritic.com/critic/jessica-kiang?filter=movies'
p3490
sg13
(dp3491
g89
F8.3000000000000007
sg214
F8.3000000000000007
sg668
F10
sg63
F5
sg143
F8.3000000000000007
sg62
F6.7000000000000002
sg61
F8.3000000000000007
sg278
F9.0999999999999996
sg121
F7.5
sg275
F10
sg66
F10
sg67
F9.0999999999999996
sg68
F8.3000000000000007
sg176
F10
sg93
F9.0999999999999996
sg70
F9.0999999999999996
sg154
F10
sg92
F7.5
sg73
F9.0999999999999996
sg279
F8.3000000000000007
ssg16
VThe Playlist
p3492
sg18
NsbsVThe Hollywood Reporter/Ray Bennett
p3493
g3
(g4
g5
NtRp3494
(dp3495
g8
g3493
sg9
VRay Bennett
p3496
sg11
S'http://www.metacritic.com/critic/ray-bennett?filter=movies'
p3497
sg13
(dp3498
g116
F8
sg147
F8
sg161
F8
sg132
F8
sg165
F10
sg35
F6
ssg16
VThe Hollywood Reporter
p3499
sg18
NsbsVNew York Post/Sara Stewart
p3500
g3
(g4
g5
NtRp3501
(dp3502
g8
g3500
sg9
VSara Stewart
p3503
sg11
S'http://www.metacritic.com/critic/sara-stewart?filter=movies'
p3504
sg13
(dp3505
g89
F7.5
sg312
F10
sg93
F7.5
ssg16
VNew York Post
p3506
sg18
NsbsVTheWrap/Dan Callahan
p3507
g3
(g4
g5
NtRp3508
(dp3509
g8
g3507
sg9
VDan Callahan
p3510
sg11
S'http://www.metacritic.com/critic?filter=movies'
p3511
sg13
(dp3512
g71
F5
ssg16
VTheWrap
p3513
sg18
NsbsVSlate/Dana Stevens
p3514
g3
(g4
g5
NtRp3515
(dp3516
g8
g3514
sg9
VDana Stevens
p3517
sg11
S'http://www.metacritic.com/critic/dana-stevens?filter=movies'
p3518
sg13
(dp3519
g110
F9
sg111
F5
sg90
F10
sg114
F8
sg65
F8
sg117
F10
sg120
F8
sg121
F8
sg122
F10
sg125
F9
sg127
F4
sg66
F8
sg131
F9
sg132
F10
sg133
F8
sg152
F7
sg34
F10
sg135
F10
sg136
F6
sg137
F6
sg160
F7
sg140
F10
sg143
F7
sg144
F7
sg145
F4
sg156
F8
sg146
F6
sg148
F5
sg68
F10
sg176
F10
sg69
F9
sg153
F7
sg154
F10
sg147
F7
sg155
F9
sg89
F8
sg71
F7
sg277
F8
sg91
F10
sg511
F8
sg161
F9
sg62
F9
sg163
F8
sg164
F9
sg287
F10
sg73
F9
sg60
F10
sg279
F10
ssg16
VSlate
p3520
sg18
NsbsVVariety/Alissa Simon
p3521
g3
(g4
g5
NtRp3522
(dp3523
g8
g3521
sg9
VAlissa Simon
p3524
sg11
S'http://www.metacritic.com/critic/alissa-simon?filter=movies'
p3525
sg13
(dp3526
g72
F8
sg122
F9
sg92
F9
ssg16
VVariety
p3527
sg18
NsbsVFilm.com/David Ehrlich
p3528
g3
(g4
g5
NtRp3529
(dp3530
g8
g3528
sg9
VDavid Ehrlich
p3531
sg11
S'http://www.metacritic.com/critic/david-ehrlich?filter=movies'
p3532
sg13
(dp3533
g125
F8
ssg16
VFilm.com
p3534
sg18
NsbsVThe A.V. Club/A.A. Dowd 
p3535
g3
(g4
g5
NtRp3536
(dp3537
g8
g3535
sg9
VA.A. Dowd 
p3538
sg11
S'http://www.metacritic.com/critic/aa-dowd?filter=movies'
p3539
sg13
(dp3540
g90
F10
sg125
F10
sg279
F8.3000000000000007
sg143
F8.3000000000000007
sg62
F5.7999999999999998
sg65
F8.3000000000000007
sg68
F9.0999999999999996
sg94
F9.0999999999999996
sg511
F9.0999999999999996
sg66
F8.3000000000000007
sg162
F5.7999999999999998
sg131
F9.0999999999999996
sg74
F8.3000000000000007
sg93
F10
sg70
F7.5
sg176
F10
sg72
F9.0999999999999996
sg73
F8.3000000000000007
sg216
F7.5
sg69
F8.3000000000000007
ssg16
VThe A.V. Club
p3541
sg18
NsbsVNew York Daily News/Joe Dziemianowicz
p3542
g3
(g4
g5
NtRp3543
(dp3544
g8
g3542
sg9
VJoe Dziemianowicz
p3545
sg11
S'http://www.metacritic.com/critic/joe-dziemianowicz?filter=movies'
p3546
sg13
(dp3547
g64
F8
ssg16
VNew York Daily News
p3548
sg18
NsbsVWe Got This Covered/Matt Donato
p3549
g3
(g4
g5
NtRp3550
(dp3551
g8
g3549
sg9
VMatt Donato
p3552
sg11
S'http://www.metacritic.com/critic/matt-donato?filter=movies'
p3553
sg13
(dp3554
g131
F9
ssg16
VWe Got This Covered
p3555
sg18
NsbsVSan Francisco Chronicle/Amy Biancolli
p3556
g3
(g4
g5
NtRp3557
(dp3558
g8
g3556
sg9
VAmy Biancolli
p3559
sg11
S'http://www.metacritic.com/critic?filter=movies'
p3560
sg13
(dp3561
g153
F10
sg137
F5
sg164
F7.5
sg122
F10
ssg16
VSan Francisco Chronicle
p3562
sg18
NsbsVTime/Mary Corliss
p3563
g3
(g4
g5
NtRp3564
(dp3565
g8
g3563
sg9
VMary Corliss
p3566
sg11
S'http://www.metacritic.com/critic?filter=movies'
p3567
sg13
(dp3568
g120
F10
ssg16
VTime
p3569
sg18
NsbsVSan Francisco Chronicle/Walter Addiego
p3570
g3
(g4
g5
NtRp3571
(dp3572
g8
g3570
sg9
VWalter Addiego
p3573
sg11
S'http://www.metacritic.com/critic/walter-addiego?filter=movies'
p3574
sg13
(dp3575
g277
F7.5
sg67
F7.5
sg72
F7.5
sg74
F7.5
sg279
F10
ssg16
VSan Francisco Chronicle
p3576
sg18
NsbsVThe Hollywood Reporter/Duane Byrge
p3577
g3
(g4
g5
NtRp3578
(dp3579
g8
g3577
sg9
VDuane Byrge
p3580
sg11
S'http://www.metacritic.com/critic?filter=movies'
p3581
sg13
(dp3582
g155
F5
ssg16
VThe Hollywood Reporter
p3583
sg18
NsbsVThe Globe and Mail (Toronto)/Christopher Harris
p3584
g3
(g4
g5
NtRp3585
(dp3586
g8
g3584
sg9
VChristopher Harris
p3587
sg11
S'http://www.metacritic.com/critic?filter=movies'
p3588
sg13
(dp3589
g43
F7.5
ssg16
VThe Globe and Mail (Toronto)
p3590
sg18
NsbsVEmpire/William Thomas
p3591
g3
(g4
g5
NtRp3592
(dp3593
g8
g3591
sg9
VWilliam Thomas
p3594
sg11
S'http://www.metacritic.com/critic/william-thomas?filter=movies'
p3595
sg13
(dp3596
g123
F6
ssg16
VEmpire
p3597
sg18
NsbsVTime/Richard Corliss
p3598
g3
(g4
g5
NtRp3599
(dp3600
g8
g3598
sg9
VRichard Corliss
p3601
sg11
S'http://www.metacritic.com/critic/richard-corliss?filter=movies'
p3602
sg13
(dp3603
g110
F10
sg111
F8
sg114
F7
sg65
F10
sg676
F9
sg700
F10
sg122
F10
sg139
F9
sg205
F10
sg125
F10
sg151
F9
sg127
F5
sg128
F10
sg129
F9
sg131
F10
sg133
F10
sg33
F10
sg34
F10
sg424
F3
sg160
F10
sg140
F10
sg142
F10
sg138
F9
sg145
F10
sg146
F10
sg149
F4
sg69
F7
sg152
F5
sg153
F10
sg288
F5
sg699
F10
sg156
F8
sg71
F7
sg157
F7
sg158
F10
sg91
F10
sg161
F10
sg163
F10
sg164
F9
sg168
F9
ssg16
VTime
p3604
sg18
NsbsVFilm Threat/Mariko McDonald
p3605
g3
(g4
g5
NtRp3606
(dp3607
g8
g3605
sg9
VMariko McDonald
p3608
sg11
S'http://www.metacritic.com/critic?filter=movies'
p3609
sg13
(dp3610
g138
F10
ssg16
VFilm Threat
p3611
sg18
NsbsVNewsweek/David Ansen
p3612
g3
(g4
g5
NtRp3613
(dp3614
g8
g3612
sg9
VDavid Ansen
p3615
sg11
S'http://www.metacritic.com/critic/david-ansen?filter=movies'
p3616
sg13
(dp3617
g116
F8
sg139
F6
sg102
F9
sg128
F10
sg33
F10
sg117
F10
sg677
F8
sg133
F10
sg34
F9
sg132
F7
sg140
F7
sg142
F10
sg146
F9
sg148
F5
sg165
F10
sg699
F10
sg158
F10
sg112
F7
sg287
F10
sg135
F10
sg167
F9
sg168
F9
ssg16
VNewsweek
p3618
sg18
NsbsVSlant Magazine/Kenji Fujishima
p3619
g3
(g4
g5
NtRp3620
(dp3621
g8
g3619
sg9
VKenji Fujishima
p3622
sg11
S'http://www.metacritic.com/critic/kenji-fujishima?filter=movies'
p3623
sg13
(dp3624
g278
F7.5
sg74
F6.2999999999999998
ssg16
VSlant Magazine
p3625
sg18
NsbsVPortland Oregonian/Marc Mohan
p3626
g3
(g4
g5
NtRp3627
(dp3628
g8
g3626
sg9
VMarc Mohan
p3629
sg11
S'http://www.metacritic.com/critic/marc-mohan?filter=movies'
p3630
sg13
(dp3631
g110
F8.3000000000000007
sg111
F9.0999999999999996
sg156
F7.5
sg125
F8.3000000000000007
sg63
F9.0999999999999996
sg143
F9.0999999999999996
sg62
F8.3000000000000007
sg65
F10
sg25
F9.0999999999999996
sg214
F5.7999999999999998
sg66
F10
sg68
F9.0999999999999996
sg131
F8.3000000000000007
sg69
F10
sg555
F8.3000000000000007
sg120
F9.0999999999999996
sg279
F8.3000000000000007
sg155
F5
ssg16
VPortland Oregonian
p3632
sg18
NsbsVUSA Today/Claudia Puig
p3633
g3
(g4
g5
NtRp3634
(dp3635
g8
g3633
sg9
VClaudia Puig
p3636
sg11
S'http://www.metacritic.com/critic/claudia-puig?filter=movies'
p3637
sg13
(dp3638
g110
F6.2999999999999998
sg111
F8.8000000000000007
sg114
F6.2999999999999998
sg116
F8.8000000000000007
sg65
F10
sg117
F8.8000000000000007
sg160
F8.8000000000000007
sg35
F7.5
sg122
F10
sg125
F8.8000000000000007
sg127
F6.2999999999999998
sg128
F8.8000000000000007
sg129
F10
sg66
F8.8000000000000007
sg62
F10
sg131
F10
sg132
F7.5
sg133
F10
sg33
F10
sg34
F10
sg135
F8.8000000000000007
sg144
F7.5
sg140
F10
sg143
F8.8000000000000007
sg138
F8.8000000000000007
sg145
F7.5
sg146
F7.5
sg147
F8.8000000000000007
sg148
F8.8000000000000007
sg69
F7.5
sg152
F7.5
sg153
F8.8000000000000007
sg288
F8.8000000000000007
sg699
F7.5
sg155
F10
sg156
F8.8000000000000007
sg71
F6.2999999999999998
sg157
F6.2999999999999998
sg158
F8.8000000000000007
sg91
F10
sg161
F8.8000000000000007
sg126
F6.2999999999999998
sg163
F10
sg164
F7.5
sg287
F10
ssg16
VUSA Today
p3639
sg18
NsbsVTV Guide Magazine/Maitland McDonagh
p3640
g3
(g4
g5
NtRp3641
(dp3642
g8
g3640
sg9
VMaitland McDonagh
p3643
sg11
S'http://www.metacritic.com/critic/maitland-mcdonagh?filter=movies'
p3644
sg13
(dp3645
g231
F7
sg123
F3.7999999999999998
sg116
F10
sg113
F6
sg119
F4
sg35
F7.5
sg290
F8
sg102
F8
sg128
F6
sg33
F7
sg117
F7.5
sg677
F5
sg134
F4
sg132
F7.5
sg424
F4
sg118
F8
sg140
F10
sg146
F6.2999999999999998
sg147
F7.5
sg288
F6
sg699
F7
sg112
F6
sg124
F4
sg135
F7.5
ssg16
VTV Guide Magazine
p3646
sg18
NsbsVThe Guardian/Lanre Bakare
p3647
g3
(g4
g5
NtRp3648
(dp3649
g8
g3647
sg9
VLanre Bakare
p3650
sg11
S'http://www.metacritic.com/critic/lanre-bakare?filter=movies'
p3651
sg13
(dp3652
g90
F6
ssg16
VThe Guardian
p3653
sg18
NsbsVThe New York Times/Stephen Holden
p3654
g3
(g4
g5
NtRp3655
(dp3656
g8
g3654
sg9
VStephen Holden
p3657
sg11
S'http://www.metacritic.com/critic/stephen-holden?filter=movies'
p3658
sg13
(dp3659
g289
F9
sg677
F10
sg214
F9
sg124
F2
sg52
F7
sg165
F10
sg72
F10
sg35
F6
ssg16
VThe New York Times
p3660
sg18
NsbsVVillage Voice/Michael Nordine
p3661
g3
(g4
g5
NtRp3662
(dp3663
g8
g3661
sg9
VMichael Nordine
p3664
sg11
S'http://www.metacritic.com/critic/michael-nordine?filter=movies'
p3665
sg13
(dp3666
g74
F9
ssg16
VVillage Voice
p3667
sg18
NsbsVLos Angeles Times/Robert Abele
p3668
g3
(g4
g5
NtRp3669
(dp3670
g8
g3668
sg9
VRobert Abele
p3671
sg11
S'http://www.metacritic.com/critic/robert-abele?filter=movies'
p3672
sg13
(dp3673
g275
F7
ssg16
VLos Angeles Times
p3674
sg18
NsbsVNew York Daily News/Joe Neumaier
p3675
g3
(g4
g5
NtRp3676
(dp3677
g8
g3675
sg9
VJoe Neumaier
p3678
sg11
S'http://www.metacritic.com/critic/joe-neumaier?filter=movies'
p3679
sg13
(dp3680
g110
F8
sg111
F8
sg274
F6
sg114
F8
sg120
F10
sg121
F8
sg122
F8
sg65
F10
sg152
F5
sg133
F8
sg131
F10
sg140
F10
sg143
F6
sg144
F8
sg145
F8
sg68
F10
sg155
F10
sg156
F8
sg277
F8
sg159
F8
sg62
F8
sg163
F10
sg164
F6
sg511
F10
sg279
F8
ssg16
VNew York Daily News
p3681
sg18
NsbsVScreen International/Mark Adams
p3682
g3
(g4
g5
NtRp3683
(dp3684
g8
g3682
sg9
VMark Adams
p3685
sg11
S'http://www.metacritic.com/critic/mark-adams?filter=movies'
p3686
sg13
(dp3687
g176
F9
ssg16
VScreen International
p3688
sg18
NsbsVThe Globe and Mail (Toronto)/Jay Scott
p3689
g3
(g4
g5
NtRp3690
(dp3691
g8
g3689
sg9
VJay Scott
p3692
sg11
S'http://www.metacritic.com/critic/jay-scott?filter=movies'
p3693
sg13
(dp3694
g700
F10
ssg16
VThe Globe and Mail (Toronto)
p3695
sg18
NsbsVFilm Threat/Eric Campos
p3696
g3
(g4
g5
NtRp3697
(dp3698
g8
g3696
sg9
VEric Campos
p3699
sg11
S'http://www.metacritic.com/critic?filter=movies'
p3700
sg13
(dp3701
g128
F10
ssg16
VFilm Threat
p3702
sg18
NsbsVThe A.V. Club/Noel Murray
p3703
g3
(g4
g5
NtRp3704
(dp3705
g8
g3703
sg9
VNoel Murray
p3706
sg11
S'http://www.metacritic.com/critic/noel-murray?filter=movies'
p3707
sg13
(dp3708
g157
F6.7000000000000002
sg116
F9.0999999999999996
sg150
F9.0999999999999996
sg416
F9.0999999999999996
sg166
F7
sg287
F9.0999999999999996
sg34
F7.5
sg35
F6.7000000000000002
ssg16
VThe A.V. Club
p3709
sg18
NsbsVTotal Film/Jamie Graham
p3710
g3
(g4
g5
NtRp3711
(dp3712
g8
g3710
sg9
VJamie Graham
p3713
sg11
S'http://www.metacritic.com/critic/jamie-graham?filter=movies'
p3714
sg13
(dp3715
g25
F8
sg90
F10
sg66
F10
sg67
F10
sg68
F10
sg60
F8
sg120
F10
sg73
F8
sg216
F8
ssg16
VTotal Film
p3716
sg18
NsbsVL.A. Weekly/Manohla Dargis
p3717
g3
(g4
g5
NtRp3718
(dp3719
g8
g3717
sg9
VManohla Dargis
p3720
sg11
S'http://www.metacritic.com/critic/manohla-dargis?filter=movies'
p3721
sg13
(dp3722
g676
F9
sg118
F6
sg288
F2
sg699
F10
ssg16
VL.A. Weekly
p3723
sg18
NsbsVCineVue/Lucy Popescu
p3724
g3
(g4
g5
NtRp3725
(dp3726
g8
g3724
sg9
VLucy Popescu
p3727
sg11
S'http://www.metacritic.com/critic?filter=movies'
p3728
sg13
(dp3729
g176
F8
ssg16
VCineVue
p3730
sg18
NsbsVScreen International/Jonathan Romney
p3731
g3
(g4
g5
NtRp3732
(dp3733
g8
g3731
sg9
VJonathan Romney
p3734
sg11
S'http://www.metacritic.com/critic/jonathan-romney?filter=movies'
p3735
sg13
(dp3736
g64
F6
sg94
F9
ssg16
VScreen International
p3737
sg18
NsbsVVariety/Scott Foundas
p3738
g3
(g4
g5
NtRp3739
(dp3740
g8
g3738
sg9
VScott Foundas
p3741
sg11
S'http://www.metacritic.com/critic/scott-foundas?filter=movies'
p3742
sg13
(dp3743
g71
F10
sg125
F10
sg62
F10
sg468
F7
sg69
F10
sg121
F10
ssg16
VVariety
p3744
sg18
NsbsVEmpire/Damon Wise
p3745
g3
(g4
g5
NtRp3746
(dp3747
g8
g3745
sg9
VDamon Wise
p3748
sg11
S'http://www.metacritic.com/critic/damon-wise?filter=movies'
p3749
sg13
(dp3750
g143
F8
sg161
F10
sg62
F10
sg163
F8
sg132
F8
sg114
F10
ssg16
VEmpire
p3751
sg18
NsbsVVillage Voice/Alan Scherstuhl
p3752
g3
(g4
g5
NtRp3753
(dp3754
g8
g3752
sg9
VAlan Scherstuhl
p3755
sg11
S'http://www.metacritic.com/critic/alan-scherstuhl?filter=movies'
p3756
sg13
(dp3757
g276
F8
sg63
F10
sg64
F7
sg92
F10
sg15
F8
sg70
F10
sg72
F9
sg511
F6
ssg16
VVillage Voice
p3758
sg18
NsbsVTampa Bay Times/Steve Persall
p3759
g3
(g4
g5
NtRp3760
(dp3761
g8
g3759
sg9
VSteve Persall
p3762
sg11
S'http://www.metacritic.com/critic/steve-persall?filter=movies'
p3763
sg13
(dp3764
g110
F10
sg90
F10
sg114
F10
sg126
F6.7000000000000002
sg120
F10
sg121
F10
sg122
F10
sg125
F10
sg64
F6.7000000000000002
sg65
F10
sg162
F9.0999999999999996
sg66
F10
sg131
F10
sg136
F5.7999999999999998
sg137
F8.3000000000000007
sg143
F10
sg144
F10
sg145
F7.5
sg150
F8.3000000000000007
sg68
F10
sg69
F10
sg153
F8.3000000000000007
sg154
F8.3000000000000007
sg155
F10
sg156
F7.5
sg43
F5.7999999999999998
sg159
F7.5
sg511
F10
sg62
F10
sg163
F10
sg60
F10
sg73
F10
sg74
F10
ssg16
VTampa Bay Times
p3765
sg18
NsbsVRolling Stone/Peter Travers
p3766
g3
(g4
g5
NtRp3767
(dp3768
g8
g3766
sg9
VPeter Travers
p3769
sg11
S'http://www.metacritic.com/critic/peter-travers?filter=movies'
p3770
sg13
(dp3771
g116
F10
sg127
F6.2999999999999998
sg676
F9
sg113
F2.5
sg121
F8.8000000000000007
sg64
F6.2999999999999998
sg128
F7.5
sg129
F8.8000000000000007
sg677
F10
sg133
F10
sg135
F10
sg424
F4
sg160
F7.5
sg143
F8.8000000000000007
sg176
F8.8000000000000007
sg153
F8.8000000000000007
sg156
F8.8000000000000007
sg289
F9
sg157
F6.2999999999999998
sg158
F8.8000000000000007
sg51
F8
sg164
F8.8000000000000007
sg511
F8.8000000000000007
sg74
F8.8000000000000007
sg90
F10
sg162
F8.8000000000000007
sg122
F8.8000000000000007
sg102
F9
sg94
F8.8000000000000007
sg66
F10
sg117
F10
sg142
F10
sg138
F8.8000000000000007
sg145
F8.8000000000000007
sg146
F7.5
sg69
F8.8000000000000007
sg154
F10
sg216
F8.8000000000000007
sg155
F8.8000000000000007
sg159
F8.8000000000000007
sg150
F8.8000000000000007
sg167
F8.8000000000000007
sg279
F10
sg123
F2.5
sg275
F8.8000000000000007
sg126
F7.5
sg125
F8.8000000000000007
sg215
F8.8000000000000007
sg519
F7.5
sg131
F10
sg701
F10
sg93
F8.8000000000000007
sg152
F8.8000000000000007
sg34
F8.8000000000000007
sg134
F0
sg132
F8.8000000000000007
sg144
F8.8000000000000007
sg148
F8.8000000000000007
sg699
F10
sg89
F8.8000000000000007
sg71
F7.5
sg91
F10
sg290
F10
sg62
F8.8000000000000007
sg73
F10
sg60
F10
sg110
F10
sg111
F8.8000000000000007
sg114
F10
sg120
F8.8000000000000007
sg139
F8.8000000000000007
sg65
F10
sg33
F8.8000000000000007
sg136
F8.8000000000000007
sg137
F5
sg140
F8.8000000000000007
sg147
F10
sg67
F8.8000000000000007
sg68
F10
sg151
F8.8000000000000007
sg277
F7.5
sg112
F7.5
sg161
F10
sg163
F10
sg165
F10
sg168
F8.8000000000000007
ssg16
VRolling Stone
p3772
sg18
NsbsVNew York Daily News/Amy Rowe
p3773
g3
(g4
g5
NtRp3774
(dp3775
g8
g3773
sg9
VAmy Rowe
p3776
sg11
S'http://www.metacritic.com/critic?filter=movies'
p3777
sg13
(dp3778
g93
F7
ssg16
VNew York Daily News
p3779
sg18
NsbsVBoston Globe/Jay Carr
p3780
g3
(g4
g5
NtRp3781
(dp3782
g8
g3780
sg9
VJay Carr
p3783
sg11
S'http://www.metacritic.com/critic/jay-carr?filter=movies'
p3784
sg13
(dp3785
g424
F2.5
sg289
F10
sg102
F7.5
sg290
F10
sg677
F10
sg460
F6.2999999999999998
sg288
F8.8000000000000007
sg699
F10
ssg16
VBoston Globe
p3786
sg18
NsbsVNew York Daily News/Jami Bernard
p3787
g3
(g4
g5
NtRp3788
(dp3789
g8
g3787
sg9
VJami Bernard
p3790
sg11
S'http://www.metacritic.com/critic/jami-bernard?filter=movies'
p3791
sg13
(dp3792
g231
F8.8000000000000007
sg289
F8.8000000000000007
sg102
F5
sg290
F10
sg119
F3.7999999999999998
sg677
F8.8000000000000007
sg165
F10
sg167
F8.8000000000000007
ssg16
VNew York Daily News
p3793
sg18
NsbsVRogerEbert.com/Matt Zoller Seitz
p3794
g3
(g4
g5
NtRp3795
(dp3796
g8
g3794
sg9
VMatt Zoller Seitz
p3797
sg11
S'http://www.metacritic.com/critic/matt-zoller-seitz?filter=movies'
p3798
sg13
(dp3799
g71
F10
sg90
F10
sg65
F10
sg92
F7.5
sg68
F10
sg555
F10
sg511
F7.5
sg60
F8.8000000000000007
ssg16
VRogerEbert.com
p3800
sg18
NsbsVThe Guardian/Nigel M Smith
p3801
g3
(g4
g5
NtRp3802
(dp3803
g8
g3801
sg9
VNigel M Smith
p3804
sg11
S'http://www.metacritic.com/critic/nigel-m-smith?filter=movies'
p3805
sg13
(dp3806
g136
F6
sg214
F10
ssg16
VThe Guardian
p3807
sg18
NsbsVThe Hollywood Reporter/Frank Scheck
p3808
g3
(g4
g5
NtRp3809
(dp3810
g8
g3808
sg9
VFrank Scheck
p3811
sg11
S'http://www.metacritic.com/critic/frank-scheck?filter=movies'
p3812
sg13
(dp3813
g123
F3
ssg16
VThe Hollywood Reporter
p3814
sg18
NsbsVNPR/Ian Buckwalter
p3815
g3
(g4
g5
NtRp3816
(dp3817
g8
g3815
sg9
VIan Buckwalter
p3818
sg11
S'http://www.metacritic.com/critic/ian-buckwalter?filter=movies'
p3819
sg13
(dp3820
g137
F4.5
sg156
F8
sg69
F9.5
ssg16
VNPR
p3821
sg18
NsbsVSlate/David Edelstein
p3822
g3
(g4
g5
NtRp3823
(dp3824
g8
g3822
sg9
VDavid Edelstein
p3825
sg11
S'http://www.metacritic.com/critic/david-edelstein?filter=movies'
p3826
sg13
(dp3827
g124
F7
sg289
F9
sg142
F9
sg102
F9
sg138
F10
sg128
F7
sg129
F9
sg112
F7
sg118
F3
sg33
F10
sg151
F8
sg677
F10
sg165
F6
sg460
F5
sg134
F6
sg167
F10
sg699
F10
sg168
F9
ssg16
VSlate
p3828
sg18
NsbsVSeattle Post-Intelligencer/William Arnold
p3829
g3
(g4
g5
NtRp3830
(dp3831
g8
g3829
sg9
VWilliam Arnold
p3832
sg11
S'http://www.metacritic.com/critic/william-arnold?filter=movies'
p3833
sg13
(dp3834
g119
F2.5
sg139
F10
sg124
F10
sg102
F8.3000000000000007
sg128
F10
sg129
F8.3000000000000007
sg33
F10
sg117
F5
sg134
F5.7999999999999998
sg132
F6.7000000000000002
sg135
F10
sg424
F4.2000000000000002
sg118
F7.5
sg142
F8.3000000000000007
sg138
F7.5
sg146
F9.0999999999999996
sg148
F10
sg151
F7.5
sg288
F10
sg699
F9.0999999999999996
sg157
F5.7999999999999998
sg112
F9.0999999999999996
sg290
F10
sg165
F9.0999999999999996
sg460
F4.2000000000000002
sg167
F6.7000000000000002
ssg16
VSeattle Post-Intelligencer
p3835
sg18
NsbsVVariety/Maggie Lee
p3836
g3
(g4
g5
NtRp3837
(dp3838
g8
g3836
sg9
VMaggie Lee
p3839
sg11
S'http://www.metacritic.com/critic/maggie-lee?filter=movies'
p3840
sg13
(dp3841
g61
F8
sg25
F9
ssg16
VVariety
p3842
sg18
NsbsVNPR/Scott Tobias
p3843
g3
(g4
g5
NtRp3844
(dp3845
g8
g3843
sg9
VScott Tobias
p3846
sg11
S'http://www.metacritic.com/critic/scott-tobias?filter=movies'
p3847
sg13
(dp3848
g160
F6.7000000000000002
sg155
F9
ssg16
VNPR
p3849
sg18
NsbsVVillage Voice/Dennis Lim
p3850
g3
(g4
g5
NtRp3851
(dp3852
g8
g3850
sg9
VDennis Lim
p3853
sg11
S'http://www.metacritic.com/critic/dennis-lim?filter=movies'
p3854
sg13
(dp3855
g424
F3
sg677
F8
ssg16
VVillage Voice
p3856
sg18
NsbsVAustin Chronicle/Kimberley Jones
p3857
g3
(g4
g5
NtRp3858
(dp3859
g8
g3857
sg9
VKimberley Jones
p3860
sg11
S'http://www.metacritic.com/critic/kimberley-jones?filter=movies'
p3861
sg13
(dp3862
g110
F8.9000000000000004
sg125
F8.9000000000000004
sg64
F6.7000000000000002
sg129
F7.7999999999999998
sg66
F10
sg152
F7.7999999999999998
sg677
F7.7999999999999998
sg143
F10
sg144
F7.7999999999999998
sg156
F6.7000000000000002
sg68
F8.9000000000000004
sg176
F10
sg69
F8.9000000000000004
sg153
F7.7999999999999998
sg288
F8.9000000000000004
sg155
F6.7000000000000002
sg89
F8.9000000000000004
sg289
F7.7999999999999998
sg159
F7.7999999999999998
sg163
F8.9000000000000004
sg460
F2
sg168
F8.9000000000000004
sg60
F6.7000000000000002
sg151
F5
ssg16
VAustin Chronicle
p3863
sg18
NsbsVArizona Republic/Bill Goodykoontz
p3864
g3
(g4
g5
NtRp3865
(dp3866
g8
g3864
sg9
VBill Goodykoontz
p3867
sg11
S'http://www.metacritic.com/critic/bill-goodykoontz?filter=movies'
p3868
sg13
(dp3869
g110
F10
sg111
F8
sg25
F8
sg90
F10
sg114
F9
sg65
F10
sg126
F7
sg120
F9
sg121
F8
sg122
F10
sg125
F10
sg64
F8
sg215
F9
sg127
F5
sg519
F9
sg94
F9
sg66
F10
sg416
F8
sg131
F10
sg93
F8
sg312
F8
sg275
F8
sg136
F8
sg143
F9
sg145
F8
sg156
F9
sg214
F8
sg67
F9
sg68
F10
sg176
F9
sg69
F9
sg153
F10
sg154
F9
sg216
F8
sg155
F9
sg89
F9
sg71
F8
sg277
F9
sg159
F9
sg150
F9
sg511
F9
sg162
F8
sg62
F8
sg163
F10
sg60
F9
sg73
F10
sg74
F8
sg279
F9
ssg16
VArizona Republic
p3870
sg18
NsbsVEntertainment Weekly/Chris Nashawaty
p3871
g3
(g4
g5
NtRp3872
(dp3873
g8
g3871
sg9
VChris Nashawaty
p3874
sg11
S'http://www.metacritic.com/critic/chris-nashawaty?filter=movies'
p3875
sg13
(dp3876
g136
F7.5
sg62
F8.3000000000000007
sg90
F10
sg125
F7.5
sg275
F10
sg64
F7.5
sg121
F10
sg94
F10
sg511
F9.0999999999999996
sg66
F9.0999999999999996
sg150
F8.3000000000000007
sg68
F10
sg74
F10
sg93
F9.0999999999999996
sg71
F5
sg154
F9.0999999999999996
sg60
F9.0999999999999996
sg312
F9.0999999999999996
sg73
F10
sg216
F7.5
sg279
F7.5
ssg16
VEntertainment Weekly
p3877
sg18
NsbsVChicago Tribune/Marc Caro
p3878
g3
(g4
g5
NtRp3879
(dp3880
g8
g3878
sg9
VMarc Caro
p3881
sg11
S'http://www.metacritic.com/critic?filter=movies'
p3882
sg13
(dp3883
g124
F8.8000000000000007
ssg16
VChicago Tribune
p3884
sg18
NsbsVPhiladelphia Inquirer/Carrie Rickey
p3885
g3
(g4
g5
NtRp3886
(dp3887
g8
g3885
sg9
VCarrie Rickey
p3888
sg11
S'http://www.metacritic.com/critic/carrie-rickey?filter=movies'
p3889
sg13
(dp3890
g116
F10
sg113
F5
sg126
F7.5
sg119
F5
sg124
F8.8000000000000007
sg128
F7.5
sg129
F8.8000000000000007
sg677
F7.5
sg34
F10
sg424
F2.5
sg137
F5
sg140
F7.5
sg142
F10
sg144
F8.8000000000000007
sg148
F8.8000000000000007
sg165
F8.8000000000000007
sg166
F8.8000000000000007
sg43
F7.5
sg112
F6.2999999999999998
sg91
F10
sg290
F7.5
sg163
F10
sg287
F10
sg460
F6.2999999999999998
sg167
F8.8000000000000007
sg168
F10
ssg16
VPhiladelphia Inquirer
p3891
sg18
NsbsVBoxoffice Magazine/Amy Nicholson
p3892
g3
(g4
g5
NtRp3893
(dp3894
g8
g3892
sg9
VAmy Nicholson
p3895
sg11
S'http://www.metacritic.com/critic?filter=movies'
p3896
sg13
(dp3897
g145
F7
ssg16
VBoxoffice Magazine
p3898
sg18
NsbsVChicago Sun-Times/Steven Boone
p3899
g3
(g4
g5
NtRp3900
(dp3901
g8
g3899
sg9
VSteven Boone
p3902
sg11
S'http://www.metacritic.com/critic?filter=movies'
p3903
sg13
(dp3904
g277
F8.8000000000000007
ssg16
VChicago Sun-Times
p3905
sg18
NsbsVRogerEbert.com/Brian Tallerico
p3906
g3
(g4
g5
NtRp3907
(dp3908
g8
g3906
sg9
VBrian Tallerico
p3909
sg11
S'http://www.metacritic.com/critic/brian-tallerico?filter=movies'
p3910
sg13
(dp3911
g64
F7.5
sg121
F7.5
sg416
F8.8000000000000007
sg214
F7.5
ssg16
VRogerEbert.com
p3912
sg18
NsbsVChicago Reader/Jonathan Rosenbaum
p3913
g3
(g4
g5
NtRp3914
(dp3915
g8
g3913
sg9
VJonathan Rosenbaum
p3916
sg11
S'http://www.metacritic.com/critic/jonathan-rosenbaum?filter=movies'
p3917
sg13
(dp3918
g231
F9
sg115
F8
sg116
F10
sg52
F4
sg700
F10
sg35
F5
sg139
F5
sg102
F9
sg129
F7
sg130
F10
sg699
F6
sg132
F7
sg677
F9
sg149
F8
sg34
F7
sg134
F6
sg135
F7
sg424
F6
sg118
F8
sg142
F7
sg138
F10
sg147
F3
sg151
F6
sg701
F2
sg289
F9
sg51
F8
sg290
F9
sg165
F7
sg460
F4
sg167
F9
sg168
F7
ssg16
VChicago Reader
p3919
sg18
NsbsVChicago Reader/Ben Sachs
p3920
g3
(g4
g5
NtRp3921
(dp3922
g8
g3920
sg9
VBen Sachs
p3923
sg11
S'http://www.metacritic.com/critic?filter=movies'
p3924
sg13
(dp3925
g126
F5
ssg16
VChicago Reader
p3926
sg18
NsbsVThe A.V. Club/David Ehrlich
p3927
g3
(g4
g5
NtRp3928
(dp3929
g8
g3927
sg9
VDavid Ehrlich
p3930
sg11
S'http://www.metacritic.com/critic/david-ehrlich?filter=movies'
p3931
sg13
(dp3932
g25
F10
ssg16
VThe A.V. Club
p3933
sg18
NsbsVFilm.com/Ernest Hardy
p3934
g3
(g4
g5
NtRp3935
(dp3936
g8
g3934
sg9
VErnest Hardy
p3937
sg11
S'http://www.metacritic.com/critic/ernest-hardy?filter=movies'
p3938
sg13
(dp3939
g102
F9
ssg16
VFilm.com
p3940
sg18
NsbsVThe Film Stage/Giovanni Marchini Camia
p3941
g3
(g4
g5
NtRp3942
(dp3943
g8
g3941
sg9
VGiovanni Marchini Camia
p3944
sg11
S'http://www.metacritic.com/critic/giovanni-marchini-camia?filter=movies'
p3945
sg13
(dp3946
g89
F6.7000000000000002
sg278
F7.5
sg67
F10
sg93
F10
sg121
F7.5
sg74
F8.3000000000000007
ssg16
VThe Film Stage
p3947
sg18
NsbsVChicago Sun-Times/Bruce Ingram
p3948
g3
(g4
g5
NtRp3949
(dp3950
g8
g3948
sg9
VBruce Ingram
p3951
sg11
S'http://www.metacritic.com/critic/bruce-ingram?filter=movies'
p3952
sg13
(dp3953
g143
F10
sg216
F7.5
ssg16
VChicago Sun-Times
p3954
sg18
NsbsVSlant Magazine/Andrew Schenker
p3955
g3
(g4
g5
NtRp3956
(dp3957
g8
g3955
sg9
VAndrew Schenker
p3958
sg11
S'http://www.metacritic.com/critic/andrew-schenker?filter=movies'
p3959
sg13
(dp3960
g274
F3.7999999999999998
sg126
F5
ssg16
VSlant Magazine
p3961
sg18
NsbsVFilm Threat/Clint Morris
p3962
g3
(g4
g5
NtRp3963
(dp3964
g8
g3962
sg9
VClint Morris
p3965
sg11
S'http://www.metacritic.com/critic?filter=movies'
p3966
sg13
(dp3967
g119
F4
ssg16
VFilm Threat
p3968
sg18
NsbsVVillage Voice/Alex Pappademas
p3969
g3
(g4
g5
NtRp3970
(dp3971
g8
g3969
sg9
VAlex Pappademas
p3972
sg11
S'http://www.metacritic.com/critic?filter=movies'
p3973
sg13
(dp3974
g119
F3
ssg16
VVillage Voice
p3975
sg18
NsbsVWashington Post/Desson Thomson
p3976
g3
(g4
g5
NtRp3977
(dp3978
g8
g3976
sg9
VDesson Thomson
p3979
sg11
S'http://www.metacritic.com/critic/desson-thomson?filter=movies'
p3980
sg13
(dp3981
g676
F9
sg113
F8
sg52
F4
sg119
F6
sg700
F10
sg139
F8
sg290
F9
sg128
F10
sg130
F10
sg33
F10
sg677
F9
sg149
F9
sg152
F7
sg34
F10
sg134
F8
sg424
F3
sg118
F8
sg142
F10
sg151
F6
sg166
F9
sg288
F10
sg699
F10
sg289
F9
sg43
F8
sg158
F9
sg51
F7
sg112
F9
sg124
F9
sg460
F4
sg167
F10
sg168
F8
ssg16
VWashington Post
p3982
sg18
NsbsVSlant Magazine/Nick Schager
p3983
g3
(g4
g5
NtRp3984
(dp3985
g8
g3983
sg9
VNick Schager
p3986
sg11
S'http://www.metacritic.com/critic/nick-schager?filter=movies'
p3987
sg13
(dp3988
g137
F2.5
sg145
F7.5
sg122
F8.8000000000000007
ssg16
VSlant Magazine
p3989
sg18
NsbsVPortland Oregonian/Kim Morgan
p3990
g3
(g4
g5
NtRp3991
(dp3992
g8
g3990
sg9
VKim Morgan
p3993
sg11
S'http://www.metacritic.com/critic/kim-morgan?filter=movies'
p3994
sg13
(dp3995
g119
F4.2000000000000002
sg424
F5
sg460
F4.2000000000000002
ssg16
VPortland Oregonian
p3996
sg18
NsbsVOrlando Sentinel/Roger Moore
p3997
g3
(g4
g5
NtRp3998
(dp3999
g8
g3997
sg9
VRoger Moore
p4000
sg11
S'http://www.metacritic.com/critic/roger-moore?filter=movies'
p4001
sg13
(dp4002
g137
F5
sg144
F7.5
sg126
F7.5
sg163
F10
sg153
F7.5
sg155
F7.5
ssg16
VOrlando Sentinel
p4003
sg18
NsbsVThe New York Times/A.O. Scott
p4004
g3
(g4
g5
NtRp4005
(dp4006
g8
g4004
sg9
VA.O. Scott
p4007
sg11
S'http://www.metacritic.com/critic/ao-scott?filter=movies'
p4008
sg13
(dp4009
g111
F10
sg90
F9
sg114
F10
sg116
F10
sg65
F9
sg676
F10
sg113
F1
sg126
F7
sg128
F9
sg121
F6
sg122
F8
sg64
F6
sg127
F5
sg94
F7
sg468
F9
sg133
F10
sg33
F10
sg34
F10
sg312
F6
sg275
F7
sg424
F5
sg143
F10
sg144
F9
sg156
F10
sg147
F10
sg148
F8
sg67
F10
sg68
F10
sg176
F9
sg69
F10
sg152
F7
sg153
F6
sg154
F10
sg288
F9
sg155
F5
sg89
F10
sg158
F10
sg277
F10
sg159
F7
sg150
F9
sg92
F10
sg511
F10
sg62
F9
sg70
F8
sg287
F9
sg279
F10
sg73
F10
sg74
F10
sg168
F10
ssg16
VThe New York Times
p4010
sg18
NsbsVChicago Tribune/Allison Benedikt
p4011
g3
(g4
g5
NtRp4012
(dp4013
g8
g4011
sg9
VAllison Benedikt
p4014
sg11
S'http://www.metacritic.com/critic/allison-benedikt?filter=movies'
p4015
sg13
(dp4016
g134
F1.2
ssg16
VChicago Tribune
p4017
sg18
NsbsVFilm Threat/Phil Hall
p4018
g3
(g4
g5
NtRp4019
(dp4020
g8
g4018
sg9
VPhil Hall
p4021
sg11
S'http://www.metacritic.com/critic/phil-hall?filter=movies'
p4022
sg13
(dp4023
g165
F4
sg167
F5
ssg16
VFilm Threat
p4024
sg18
NsbsVNew York Daily News/Jordan Hoffman
p4025
g3
(g4
g5
NtRp4026
(dp4027
g8
g4025
sg9
VJordan Hoffman
p4028
sg11
S'http://www.metacritic.com/critic?filter=movies'
p4029
sg13
(dp4030
g72
F8
sg216
F8
ssg16
VNew York Daily News
p4031
sg18
NsbsVLos Angeles Times/Carina Chocano
p4032
g3
(g4
g5
NtRp4033
(dp4034
g8
g4032
sg9
VCarina Chocano
p4035
sg11
S'http://www.metacritic.com/critic/carina-chocano?filter=movies'
p4036
sg13
(dp4037
g129
F9
sg287
F8
sg35
F7
sg151
F8
ssg16
VLos Angeles Times
p4038
sg18
NsbsVL.A. Weekly/John Patterson
p4039
g3
(g4
g5
NtRp4040
(dp4041
g8
g4039
sg9
VJohn Patterson
p4042
sg11
S'http://www.metacritic.com/critic/john-patterson?filter=movies'
p4043
sg13
(dp4044
g124
F8
ssg16
VL.A. Weekly
p4045
sg18
NsbsVEmpire/Colin Kennedy
p4046
g3
(g4
g5
NtRp4047
(dp4048
g8
g4046
sg9
VColin Kennedy
p4049
sg11
S'http://www.metacritic.com/critic?filter=movies'
p4050
sg13
(dp4051
g138
F8
ssg16
VEmpire
p4052
sg18
NsbsVSalon.com/Max Cea
p4053
g3
(g4
g5
NtRp4054
(dp4055
g8
g4053
sg9
VMax Cea
p4056
sg11
S'http://www.metacritic.com/critic?filter=movies'
p4057
sg13
(dp4058
g93
F9
ssg16
VSalon.com
p4059
sg18
NsbsVVillage Voice/Chris Packham
p4060
g3
(g4
g5
NtRp4061
(dp4062
g8
g4060
sg9
VChris Packham
p4063
sg11
S'http://www.metacritic.com/critic?filter=movies'
p4064
sg13
(dp4065
g156
F9
ssg16
VVillage Voice
p4066
sg18
NsbsVCharlotte Observer/Lawrence Toppman
p4067
g3
(g4
g5
NtRp4068
(dp4069
g8
g4067
sg9
VLawrence Toppman
p4070
sg11
S'http://www.metacritic.com/critic/lawrence-toppman?filter=movies'
p4071
sg13
(dp4072
g110
F8.8000000000000007
sg113
F6.2999999999999998
sg114
F8.8000000000000007
sg116
F10
sg65
F10
sg117
F7.5
sg119
F3.7999999999999998
sg120
F8.8000000000000007
sg94
F8.8000000000000007
sg121
F6.2999999999999998
sg122
F8.8000000000000007
sg139
F8.8000000000000007
sg161
F6.2999999999999998
sg125
F10
sg102
F2.5
sg64
F7.5
sg127
F7.5
sg128
F7.5
sg129
F7.5
sg66
F8.3000000000000007
sg131
F10
sg132
F8.8000000000000007
sg677
F7.5
sg133
F8.8000000000000007
sg33
F10
sg134
F3.7999999999999998
sg312
F9.0999999999999996
sg135
F7.5
sg424
F3.7999999999999998
sg137
F6.2999999999999998
sg138
F7.5
sg140
F10
sg142
F10
sg143
F8.3000000000000007
sg144
F6.2999999999999998
sg145
F7.5
sg146
F7.5
sg147
F7.5
sg148
F8.8000000000000007
sg68
F10
sg176
F7.5
sg162
F8.8000000000000007
sg166
F10
sg153
F8.8000000000000007
sg699
F10
sg155
F8.8000000000000007
sg156
F10
sg157
F5
sg158
F10
sg159
F9.0999999999999996
sg112
F10
sg73
F10
sg290
F8.8000000000000007
sg163
F10
sg60
F5
sg165
F10
sg460
F3.7999999999999998
sg167
F8.8000000000000007
sg74
F8.8000000000000007
sg168
F6.2999999999999998
ssg16
VCharlotte Observer
p4073
sg18
NsbsVChicago Tribune/Mark Caro
p4074
g3
(g4
g5
NtRp4075
(dp4076
g8
g4074
sg9
VMark Caro
p4077
sg11
S'http://www.metacritic.com/critic/mark-caro?filter=movies'
p4078
sg13
(dp4079
g119
F5
sg460
F3.7999999999999998
sg138
F7.5
sg168
F8.8000000000000007
ssg16
VChicago Tribune
p4080
sg18
NsbsVFilm.com/Stephanie Zacharek
p4081
g3
(g4
g5
NtRp4082
(dp4083
g8
g4081
sg9
VStephanie Zacharek
p4084
sg11
S'http://www.metacritic.com/critic/stephanie-zacharek?filter=movies'
p4085
sg13
(dp4086
g110
F10
ssg16
VFilm.com
p4087
sg18
NsbsVThe New York Times/Dana Stevens
p4088
g3
(g4
g5
NtRp4089
(dp4090
g8
g4088
sg9
VDana Stevens
p4091
sg11
S'http://www.metacritic.com/critic/dana-stevens?filter=movies'
p4092
sg13
(dp4093
g129
F9
sg166
F9
sg119
F2
sg460
F3
sg134
F4
sg167
F9
sg139
F7
ssg16
VThe New York Times
p4094
sg18
NsbsVTNT RoughCut/Matt Kelsey
p4095
g3
(g4
g5
NtRp4096
(dp4097
g8
g4095
sg9
VMatt Kelsey
p4098
sg11
S'http://www.metacritic.com/critic?filter=movies'
p4099
sg13
(dp4100
g124
F8.5
ssg16
VTNT RoughCut
p4101
sg18
NsbsVTime/Mary Pols
p4102
g3
(g4
g5
NtRp4103
(dp4104
g8
g4102
sg9
VMary Pols
p4105
sg11
S'http://www.metacritic.com/critic/mary-pols?filter=movies'
p4106
sg13
(dp4107
g277
F8
sg137
F8
sg126
F8
sg68
F10
sg155
F8
ssg16
VTime
p4108
sg18
NsbsVMovieline/Stephanie Zacharek
p4109
g3
(g4
g5
NtRp4110
(dp4111
g8
g4109
sg9
VStephanie Zacharek
p4112
sg11
S'http://www.metacritic.com/critic/stephanie-zacharek?filter=movies'
p4113
sg13
(dp4114
g137
F4
sg144
F9
sg126
F7.5
sg163
F9.5
sg153
F3
sg122
F8.5
sg155
F8.5
ssg16
VMovieline
p4115
sg18
NsbsVIndiewire/Eric Kohn
p4116
g3
(g4
g5
NtRp4117
(dp4118
g8
g4116
sg9
VEric Kohn
p4119
sg11
S'http://www.metacritic.com/critic/eric-kohn?filter=movies'
p4120
sg13
(dp4121
g110
F10
sg111
F7.5
sg90
F8.3000000000000007
sg274
F9.0999999999999996
sg63
F9.0999999999999996
sg275
F8.3000000000000007
sg65
F9.0999999999999996
sg206
F10
sg126
F6.7000000000000002
sg120
F9.0999999999999996
sg121
F6.7000000000000002
sg122
F10
sg125
F9.0999999999999996
sg64
F7.5
sg215
F10
sg127
F7.5
sg94
F9.0999999999999996
sg15
F7.5
sg66
F9.0999999999999996
sg131
F10
sg93
F10
sg136
F6.7000000000000002
sg143
F9.0999999999999996
sg145
F7.5
sg67
F8.3000000000000007
sg68
F9.0999999999999996
sg176
F9.0999999999999996
sg69
F9.0999999999999996
sg154
F10
sg216
F10
sg156
F7.5
sg71
F8.3000000000000007
sg277
F7.5
sg162
F8.3000000000000007
sg62
F6.7000000000000002
sg60
F9.0999999999999996
sg70
F10
sg73
F7.5
sg74
F9.0999999999999996
ssg16
VIndiewire
p4122
sg18
NsbsVTime Out New York/Tomris Laffly
p4123
g3
(g4
g5
NtRp4124
(dp4125
g8
g4123
sg9
VTomris Laffly
p4126
sg11
S'http://www.metacritic.com/critic?filter=movies'
p4127
sg13
(dp4128
g64
F10
ssg16
VTime Out New York
p4129
sg18
NsbsVThe Guardian/Brian Moylan
p4130
g3
(g4
g5
NtRp4131
(dp4132
g8
g4130
sg9
VBrian Moylan
p4133
sg11
S'http://www.metacritic.com/critic?filter=movies'
p4134
sg13
(dp4135
g162
F8
ssg16
VThe Guardian
p4136
sg18
NsbsVPortland Oregonian/Diana Abu-Jaber
p4137
g3
(g4
g5
NtRp4138
(dp4139
g8
g4137
sg9
VDiana Abu-Jaber
p4140
sg11
S'http://www.metacritic.com/critic/diana-abu-jaber?filter=movies'
p4141
sg13
(dp4142
g124
F7.5
ssg16
VPortland Oregonian
p4143
sg18
NsbsVVariety/Rob Nelson
p4144
g3
(g4
g5
NtRp4145
(dp4146
g8
g4144
sg9
VRob Nelson
p4147
sg11
S'http://www.metacritic.com/critic/rob-nelson?filter=movies'
p4148
sg13
(dp4149
g519
F4
ssg16
VVariety
p4150
sg18
NsbsVChicago Tribune/Gene Siskel
p4151
g3
(g4
g5
NtRp4152
(dp4153
g8
g4151
sg9
VGene Siskel
p4154
sg11
S'http://www.metacritic.com/critic/gene-siskel?filter=movies'
p4155
sg13
(dp4156
g141
F10
sg51
F10
sg149
F10
ssg16
VChicago Tribune
p4157
sg18
NsbsVL.A. Weekly/Scott Foundas
p4158
g3
(g4
g5
NtRp4159
(dp4160
g8
g4158
sg9
VScott Foundas
p4161
sg11
S'http://www.metacritic.com/critic/scott-foundas?filter=movies'
p4162
sg13
(dp4163
g113
F8
sg123
F5
sg91
F9
sg112
F8
sg146
F10
sg164
F10
sg117
F8
sg33
F10
sg132
F9
sg166
F9
sg34
F5
sg35
F5
sg135
F10
ssg16
VL.A. Weekly
p4164
sg18
NsbsVNew York Post/Jonathan Foreman
p4165
g3
(g4
g5
NtRp4166
(dp4167
g8
g4165
sg9
VJonathan Foreman
p4168
sg11
S'http://www.metacritic.com/critic/jonathan-foreman?filter=movies'
p4169
sg13
(dp4170
g676
F10
sg118
F5
sg128
F7.5
sg460
F5
sg677
F10
ssg16
VNew York Post
p4171
sg18
NsbsVWashington Post/Michael O'Sullivan
p4172
g3
(g4
g5
NtRp4173
(dp4174
g8
g4172
sg9
VMichael O'Sullivan
p4175
sg11
S'http://www.metacritic.com/critic/michael-osullivan?filter=movies'
p4176
sg13
(dp4177
g25
F8.8000000000000007
sg138
F9
sg519
F7.5
sg216
F8.8000000000000007
sg555
F8.8000000000000007
ssg16
VWashington Post
p4178
sg18
NsbsVThe New York Times/Vincent Canby
p4179
g3
(g4
g5
NtRp4180
(dp4181
g8
g4179
sg9
VVincent Canby
p4182
sg11
S'http://www.metacritic.com/critic/vincent-canby?filter=movies'
p4183
sg13
(dp4184
g141
F9
sg700
F10
sg701
F10
ssg16
VThe New York Times
p4185
sg18
NsbsVFilm Threat/Harry Hartoonian
p4186
g3
(g4
g5
NtRp4187
(dp4188
g8
g4186
sg9
VHarry Hartoonian
p4189
sg11
S'http://www.metacritic.com/critic?filter=movies'
p4190
sg13
(dp4191
g52
F2
ssg16
VFilm Threat
p4192
sg18
NsbsVBoxoffice Magazine/Sara Maria Vizcarrondo
p4193
g3
(g4
g5
NtRp4194
(dp4195
g8
g4193
sg9
VSara Maria Vizcarrondo
p4196
sg11
S'http://www.metacritic.com/critic/sara-maria-vizcarrondo?filter=movies'
p4197
sg13
(dp4198
g114
F7
ssg16
VBoxoffice Magazine
p4199
sg18
NsbsVScreenCrush/Matt Singer
p4200
g3
(g4
g5
NtRp4201
(dp4202
g8
g4200
sg9
VMatt Singer
p4203
sg11
S'http://www.metacritic.com/critic/matt-singer?filter=movies'
p4204
sg13
(dp4205
g136
F7
sg64
F8
sg121
F8
ssg16
VScreenCrush
p4206
sg18
NsbsVSan Francisco Chronicle/Judy Stone
p4207
g3
(g4
g5
NtRp4208
(dp4209
g8
g4207
sg9
VJudy Stone
p4210
sg11
S'http://www.metacritic.com/critic?filter=movies'
p4211
sg13
(dp4212
g700
F7.5
ssg16
VSan Francisco Chronicle
p4213
sg18
NsbsVThe Guardian/Ed Gibbs
p4214
g3
(g4
g5
NtRp4215
(dp4216
g8
g4214
sg9
VEd Gibbs
p4217
sg11
S'http://www.metacritic.com/critic?filter=movies'
p4218
sg13
(dp4219
g159
F8
ssg16
VThe Guardian
p4220
sg18
NsbsVVariety/Guy Lodge
p4221
g3
(g4
g5
NtRp4222
(dp4223
g8
g4221
sg9
VGuy Lodge
p4224
sg11
S'http://www.metacritic.com/critic/guy-lodge?filter=movies'
p4225
sg13
(dp4226
g67
F10
sg276
F6
sg74
F10
sg214
F8
ssg16
VVariety
p4227
sg18
NsbsVWall Street Journal/Joanne Kaufman
p4228
g3
(g4
g5
NtRp4229
(dp4230
g8
g4228
sg9
VJoanne Kaufman
p4231
sg11
S'http://www.metacritic.com/critic?filter=movies'
p4232
sg13
(dp4233
g160
F5
ssg16
VWall Street Journal
p4234
sg18
NsbsVMcClatchy-Tribune News Service/Roger Moore
p4235
g3
(g4
g5
NtRp4236
(dp4237
g8
g4235
sg9
VRoger Moore
p4238
sg11
S'http://www.metacritic.com/critic/roger-moore?filter=movies'
p4239
sg13
(dp4240
g25
F7.5
sg71
F6.2999999999999998
sg125
F8.8000000000000007
sg143
F8.8000000000000007
sg65
F8.8000000000000007
sg66
F10
sg62
F10
sg131
F10
sg69
F6.2999999999999998
ssg16
VMcClatchy-Tribune News Service
p4241
sg18
NsbsVIndiewire/Greg Cwick
p4242
g3
(g4
g5
NtRp4243
(dp4244
g8
g4242
sg9
VGreg Cwick
p4245
sg11
S'http://www.metacritic.com/critic?filter=movies'
p4246
sg13
(dp4247
g279
F10
ssg16
VIndiewire
p4248
sg18
NsbsVScreen International/Dan Fainaru
p4249
g3
(g4
g5
NtRp4250
(dp4251
g8
g4249
sg9
VDan Fainaru
p4252
sg11
S'http://www.metacritic.com/critic/dan-fainaru?filter=movies'
p4253
sg13
(dp4254
g276
F5
ssg16
VScreen International
p4255
sg18
NsbsVSlant Magazine/Matt Brennan
p4256
g3
(g4
g5
NtRp4257
(dp4258
g8
g4256
sg9
VMatt Brennan
p4259
sg11
S'http://www.metacritic.com/critic/matt-brennan?filter=movies'
p4260
sg13
(dp4261
g176
F10
ssg16
VSlant Magazine
p4262
sg18
NsbsVNew York Post/V.A. Musetto
p4263
g3
(g4
g5
NtRp4264
(dp4265
g8
g4263
sg9
VV.A. Musetto
p4266
sg11
S'http://www.metacritic.com/critic/va-musetto?filter=movies'
p4267
sg13
(dp4268
g231
F8.8000000000000007
sg274
F7.5
sg161
F8.8000000000000007
sg166
F7.5
sg287
F7.5
sg35
F5
sg167
F7.5
ssg16
VNew York Post
p4269
sg18
NsbsVSlant Magazine/Jake Cole
p4270
g3
(g4
g5
NtRp4271
(dp4272
g8
g4270
sg9
VJake Cole
p4273
sg11
S'http://www.metacritic.com/critic/jake-cole?filter=movies'
p4274
sg13
(dp4275
g64
F7.5
sg93
F10
ssg16
VSlant Magazine
p4276
sg18
NsbsVWall Street Journal/Julie Salamon
p4277
g3
(g4
g5
NtRp4278
(dp4279
g8
g4277
sg9
VJulie Salamon
p4280
sg11
S'http://www.metacritic.com/critic/julie-salamon?filter=movies'
p4281
sg13
(dp4282
g51
F10
sg700
F3
ssg16
VWall Street Journal
p4283
sg18
Nsbs.