(dp1
VThe Film Stage/Christopher Schobert
p2
ccopy_reg
_reconstructor
p3
(ccritic
Critic
p4
c__builtin__
object
p5
NtRp6
(dp7
S'ident'
p8
g2
sS'name'
p9
VChristopher Schobert
p10
sS'url'
p11
S'http://www.metacritic.com/critic/christopher-schobert?filter=movies'
p12
sS'reviews'
p13
(dp14
S'12-years-a-slave'
p15
F10
ssS'source'
p16
VThe Film Stage
p17
sS'correlation'
p18
NsbsVThe Playlist/Nick Schager
p19
g3
(g4
g5
NtRp20
(dp21
g8
g19
sg9
VNick Schager
p22
sg11
S'http://www.metacritic.com/critic/nick-schager?filter=movies'
p23
sg13
(dp24
S'sand-storm'
p25
F7.5
ssg16
VThe Playlist
p26
sg18
NsbsVThe New York Times/Nicolas Rapold
p27
g3
(g4
g5
NtRp28
(dp29
g8
g27
sg9
VNicolas Rapold
p30
sg11
S'http://www.metacritic.com/critic/nicolas-rapold?filter=movies'
p31
sg13
(dp32
S'the-tale-of-the-princess-kaguya'
p33
F8
ssg16
VThe New York Times
p34
sg18
NsbsVEmpire/Alan Morrison
p35
g3
(g4
g5
NtRp36
(dp37
g8
g35
sg9
VAlan Morrison
p38
sg11
S'http://www.metacritic.com/critic/alan-morrison?filter=movies'
p39
sg13
(dp40
S'the-lord-of-the-rings-the-return-of-the-king'
p41
F10
sS'the-lives-of-others'
p42
F10
sS'paris-je-taime'
p43
F8
ssg16
VEmpire
p44
sg18
NsbsVSan Francisco Examiner/Walter Addiego
p45
g3
(g4
g5
NtRp46
(dp47
g8
g45
sg9
VWalter Addiego
p48
sg11
S'http://www.metacritic.com/critic/walter-addiego?filter=movies'
p49
sg13
(dp50
S'chungking-express'
p51
F8.8000000000000007
ssg16
VSan Francisco Examiner
p52
sg18
NsbsVThe New Yorker/Terrence Rafferty
p53
g3
(g4
g5
NtRp54
(dp55
g8
g53
sg9
VTerrence Rafferty
p56
sg11
S'http://www.metacritic.com/critic?filter=movies'
p57
sg13
(dp58
S'schindlers-list'
p59
F10
sS'anaconda'
p60
F3
ssg16
VThe New Yorker
p61
sg18
NsbsVThe Telegraph/Robbie Collin
p62
g3
(g4
g5
NtRp63
(dp64
g8
g62
sg9
VRobbie Collin
p65
sg11
S'http://www.metacritic.com/critic/robbie-collin?filter=movies'
p66
sg13
(dp67
S'anomalisa'
p68
F10
sS'after-the-storm-2016'
p69
F8
sS'the-nice-guys'
p70
F8
sS'inherent-vice'
p71
F10
sS'winter-sleep'
p72
F8
sS'nebraska'
p73
F8
sg33
F10
sS'gravity'
p74
F10
sS'birdman-or-the-unexpected-virtue-of-ignorance'
p75
F10
sS'inside-out-2015'
p76
F10
sS'inside-llewyn-davis'
p77
F10
sS'a-pigeon-sat-on-a-branch-reflecting-on-existence'
p78
F10
sS'about-elly-2009'
p79
F8
sS'spotlight'
p80
F8
sS'the-lobster'
p81
F8
ssg16
VThe Telegraph
p82
sg18
NsbsVEmpire/James White
p83
g3
(g4
g5
NtRp84
(dp85
g8
g83
sg9
VJames White
p86
sg11
S'http://www.metacritic.com/critic/james-white?filter=movies'
p87
sg13
(dp88
g70
F8
ssg16
VEmpire
p89
sg18
NsbsVThe Globe and Mail (Toronto)/Kate Taylor
p90
g3
(g4
g5
NtRp91
(dp92
g8
g90
sg9
VKate Taylor
p93
sg11
S'http://www.metacritic.com/critic/kate-taylor?filter=movies'
p94
sg13
(dp95
S'the-salesman'
p96
F10
sS'manchester-by-the-sea'
p97
F10
sS'up'
p98
F7.5
sS'rams'
p99
F7.5
sS'son-of-saul'
p100
F10
sg81
F7.5
ssg16
VThe Globe and Mail (Toronto)
p101
sg18
NsbsVNew York Post/Sara Stewart
p102
g3
(g4
g5
NtRp103
(dp104
g8
g102
sg9
VSara Stewart
p105
sg11
S'http://www.metacritic.com/critic/sara-stewart?filter=movies'
p106
sg13
(dp107
g96
F7.5
sS'the-salt-of-the-earth'
p108
F10
ssg16
VNew York Post
p109
sg18
NsbsVL.A. Weekly/F. X. Feeney
p110
g3
(g4
g5
NtRp111
(dp112
g8
g110
sg9
VF. X. Feeney
p113
sg11
S'http://www.metacritic.com/critic/f-x-feeney?filter=movies'
p114
sg13
(dp115
S'magnolia'
p116
F10
ssg16
VL.A. Weekly
p117
sg18
NsbsVReelViews/James Berardinelli
p118
g3
(g4
g5
NtRp119
(dp120
g8
g118
sg9
VJames Berardinelli
p121
sg11
S'http://www.metacritic.com/critic/james-berardinelli?filter=movies'
p122
sg13
(dp123
S'zero-dark-thirty'
p124
F8.8000000000000007
sS'django-unchained'
p125
F8.8000000000000007
sS'eyes-wide-shut'
p126
F8.8000000000000007
sS'ghost-rider'
p127
F5
sg77
F7.5
sS'the-master'
p128
F7.5
sS'dr-strangelove-or-how-i-learned-to-stop-worrying-and-love-the-bomb'
p129
F10
sS'pans-labyrinth'
p130
F8.8000000000000007
sS'the-hobbit-an-unexpected-journey'
p131
F7.5
sS'american-wedding'
p132
F6.2999999999999998
sS'crazy-stupid-love'
p133
F7.5
sg60
F5
sS'2-fast-2-furious'
p134
F1.2
sS'amour'
p135
F8.8000000000000007
sS'the-lord-of-the-rings-the-two-towers'
p136
F10
sS'captain-fantastic'
p137
F7.5
sS'a-separation'
p138
F8.8000000000000007
sS'ray'
p139
F5
sS'the-sixth-sense'
p140
F3.7999999999999998
sS'her'
p141
F8.8000000000000007
sS'2001-a-space-odyssey'
p142
F10
sg70
F7.5
sg97
F8.8000000000000007
sg74
F10
sg100
F8.8000000000000007
sS'capote'
p143
F8.8000000000000007
sg75
F7.5
sS'the-hangover'
p144
F7.5
sS'borat-cultural-learnings-of-america-for-make-benefit-glorious-nation-of-kazakhstan'
p145
F7.5
sS'wall-e'
p146
F8.8000000000000007
sg41
F10
sg42
F8.8000000000000007
sS'the-dukes-of-hazzard'
p147
F1.2
sS'children-of-men'
p148
F7.5
sS'there-will-be-blood'
p149
F7.5
sS'sully'
p150
F7.5
sS'the-hangover-part-ii'
p151
F7.5
sS'inglourious-basterds'
p152
F10
sS'the-dark-knight'
p153
F10
sS'a-clockwork-orange'
p154
F10
sS'sideways'
p155
F8.8000000000000007
sS'the-grand-budapest-hotel'
p156
F7.5
sS'midnight-in-paris'
p157
F7.5
sS'the-dark-knight-rises'
p158
F8.8000000000000007
sS'superman-returns'
p159
F8.8000000000000007
sS'no-country-for-old-men'
p160
F8.8000000000000007
sS'into-the-wild'
p161
F8.8000000000000007
sS'fargo'
p162
F7.5
sS'brooklyn'
p163
F8.8000000000000007
sg76
F8.8000000000000007
sS'a-very-long-engagement'
p164
F7.5
sS'spring-summer-fall-winter-and-spring'
p165
F8.8000000000000007
sS'inception'
p166
F8.8000000000000007
sg51
F8.8000000000000007
sS'carol'
p167
F8.8000000000000007
sS'blue-valentine'
p168
F8.8000000000000007
sS'lincoln'
p169
F8.8000000000000007
sg71
F7.5
sS'rocknrolla'
p170
F5
sS'ratatouille'
p171
F7.5
sg59
F10
sS'me-and-earl-and-the-dying-girl'
p172
F8.8000000000000007
sS'batman-begins'
p173
F8.8000000000000007
sS'sicario'
p174
F8.8000000000000007
sg98
F7.5
sS'the-pianist'
p175
F8.8000000000000007
sS'4-months-3-weeks-and-2-days'
p176
F8.8000000000000007
sg73
F8.8000000000000007
sS'the-social-network'
p177
F8.8000000000000007
sS'avatar'
p178
F10
sg15
F8.8000000000000007
sS'brokeback-mountain'
p179
F7.5
sS'eternal-sunshine-of-the-spotless-mind'
p180
F8.8000000000000007
sg80
F8.8000000000000007
sg68
F7.5
sS'lost-in-translation'
p181
F10
ssg16
VReelViews
p182
sg18
NsbsVRogerEbert.com/Susan Wloszczyna
p183
g3
(g4
g5
NtRp184
(dp185
g8
g183
sg9
VSusan Wloszczyna
p186
sg11
S'http://www.metacritic.com/critic/susan-wloszczyna?filter=movies'
p187
sg13
(dp188
g150
F7.5
sg15
F8.8000000000000007
sS'45-years'
p189
F10
ssg16
VRogerEbert.com
p190
sg18
NsbsVAustin Chronicle/Josh Rosenblatt
p191
g3
(g4
g5
NtRp192
(dp193
g8
g191
sg9
VJosh Rosenblatt
p194
sg11
S'http://www.metacritic.com/critic?filter=movies'
p195
sg13
(dp196
g176
F7.7999999999999998
sg161
F6.7000000000000002
sg42
F8.9000000000000004
sg170
F6.7000000000000002
ssg16
VAustin Chronicle
p197
sg18
NsbsVScreen International/Lee Marshall
p198
g3
(g4
g5
NtRp199
(dp200
g8
g198
sg9
VLee Marshall
p201
sg11
S'http://www.metacritic.com/critic?filter=movies'
p202
sg13
(dp203
g68
F8
sg81
F8
sS'victoria'
p204
F6
ssg16
VScreen International
p205
sg18
NsbsVThe Playlist/Todd Gilchrist
p206
g3
(g4
g5
NtRp207
(dp208
g8
g206
sg9
VTodd Gilchrist
p209
sg11
S'http://www.metacritic.com/critic/todd-gilchrist?filter=movies'
p210
sg13
(dp211
g158
F10
ssg16
VThe Playlist
p212
sg18
NsbsVVillage Voice/Michael Atkinson
p213
g3
(g4
g5
NtRp214
(dp215
g8
g213
sg9
VMichael Atkinson
p216
sg11
S'http://www.metacritic.com/critic/michael-atkinson?filter=movies'
p217
sg13
(dp218
S'brazil'
p219
F10
sg140
F5
sg129
F10
sg154
F8
sg173
F6
sS'the-academy-of-muses'
p220
F9
sg165
F8
sg139
F5
ssg16
VVillage Voice
p221
sg18
NsbsVSlant Magazine/Chuck Bowen
p222
g3
(g4
g5
NtRp223
(dp224
g8
g222
sg9
VChuck Bowen
p225
sg11
S'http://www.metacritic.com/critic/chuck-bowen?filter=movies'
p226
sg13
(dp227
g96
F10
sS'leviathan-2014'
p228
F8.8000000000000007
sg204
F5
sg99
F7.5
sS'wild-tales'
p229
F7.5
sg79
F8.8000000000000007
sg68
F7.5
ssg16
VSlant Magazine
p230
sg18
NsbsVThe Dissolve/Tasha Robinson
p231
g3
(g4
g5
NtRp232
(dp233
g8
g231
sg9
VTasha Robinson
p234
sg11
S'http://www.metacritic.com/critic/tasha-robinson?filter=movies'
p235
sg13
(dp236
g76
F10
sg229
F7
ssg16
VThe Dissolve
p237
sg18
NsbsVMiami Herald/Marta Barber
p238
g3
(g4
g5
NtRp239
(dp240
g8
g238
sg9
VMarta Barber
p241
sg11
S'http://www.metacritic.com/critic/marta-barber?filter=movies'
p242
sg13
(dp243
S'the-return-2004'
p244
F8.8000000000000007
ssg16
VMiami Herald
p245
sg18
NsbsVWe Got This Covered/ Darren Ruecker
p246
g3
(g4
g5
NtRp247
(dp248
g8
g246
sg9
V Darren Ruecker
p249
sg11
S'http://www.metacritic.com/critic/darren-ruecker?filter=movies'
p250
sg13
(dp251
g97
F10
ssg16
VWe Got This Covered
p252
sg18
NsbsVNew York Post/Megan Lehmann
p253
g3
(g4
g5
NtRp254
(dp255
g8
g253
sg9
VMegan Lehmann
p256
sg11
S'http://www.metacritic.com/critic/megan-lehmann?filter=movies'
p257
sg13
(dp258
g155
F10
ssg16
VNew York Post
p259
sg18
NsbsVVillage Voice/Nathan Lee
p260
g3
(g4
g5
NtRp261
(dp262
g8
g260
sg9
VNathan Lee
p263
sg11
S'http://www.metacritic.com/critic?filter=movies'
p264
sg13
(dp265
g127
F4
ssg16
VVillage Voice
p266
sg18
NsbsVThe A.V. Club/Keith Uhlich
p267
g3
(g4
g5
NtRp268
(dp269
g8
g267
sg9
VKeith Uhlich
p270
sg11
S'http://www.metacritic.com/critic?filter=movies'
p271
sg13
(dp272
g108
F7.5
sS'gett-the-trial-of-viviane-amsalem'
p273
F9.0999999999999996
ssg16
VThe A.V. Club
p274
sg18
NsbsVVariety/Charles Gant
p275
g3
(g4
g5
NtRp276
(dp277
g8
g275
sg9
VCharles Gant
p278
sg11
S'http://www.metacritic.com/critic/charles-gant?filter=movies'
p279
sg13
(dp280
g189
F8
ssg16
VVariety
p281
sg18
NsbsVThe Guardian/Peter Bradshaw
p282
g3
(g4
g5
NtRp283
(dp284
g8
g282
sg9
VPeter Bradshaw
p285
sg11
S'http://www.metacritic.com/critic/peter-bradshaw?filter=movies'
p286
sg13
(dp287
g125
F10
sS'once-upon-a-time-in-anatolia'
p288
F10
sS'mommy'
p289
F8
sg135
F10
sg79
F8
sg174
F8
sg141
F6
sg70
F8
sg228
F10
sg131
F6
sg100
F10
sS'sweet-bean'
p290
F4
sg163
F8
sg76
F8
sg189
F10
sg77
F10
sg167
F10
sg96
F6
sS'beyond-the-hills'
p291
F8
sS'graduation'
p292
F10
sg73
F8
sg80
F6
sg81
F6
sS'ida'
p293
F8
ssg16
VThe Guardian
p294
sg18
NsbsVPortland Oregonian/Shawn Levy
p295
g3
(g4
g5
NtRp296
(dp297
g8
g295
sg9
VShawn Levy
p298
sg11
S'http://www.metacritic.com/critic/shawn-levy?filter=movies'
p299
sg13
(dp300
g288
F8.3000000000000007
sg128
F8.3000000000000007
sg130
F10
sg133
F5.7999999999999998
sg138
F9.0999999999999996
sg139
F8.3000000000000007
sS'american-beauty'
p301
F8.3000000000000007
sg180
F9.0999999999999996
sg116
F8.3000000000000007
sg136
F9.0999999999999996
sg143
F10
sg144
F7.5
sg145
F8.3000000000000007
sg146
F8.3000000000000007
sg41
F10
sg42
F10
sg147
F5
sg148
F7.5
sg149
F9.0999999999999996
sg151
F6.7000000000000002
sg152
F7.5
sg153
F8.3000000000000007
sg155
F9.0999999999999996
sg157
F8.3000000000000007
sg158
F7.5
sg159
F5.7999999999999998
sg160
F9.0999999999999996
sg161
F8.3000000000000007
sS'persepolis'
p302
F8.3000000000000007
sg164
F9.0999999999999996
sg166
F10
sS'amelie'
p303
F8.3000000000000007
sS'waking-life'
p304
F10
sg171
F9.0999999999999996
sg173
F9.0999999999999996
sg98
F8.3000000000000007
sg176
F8.3000000000000007
sg177
F10
sg178
F8.3000000000000007
sg179
F9.0999999999999996
sg175
F9.0999999999999996
sg181
F10
ssg16
VPortland Oregonian
p305
sg18
NsbsVSan Francisco Chronicle/Carla Meyer
p306
g3
(g4
g5
NtRp307
(dp308
g8
g306
sg9
VCarla Meyer
p309
sg11
S'http://www.metacritic.com/critic/carla-meyer?filter=movies'
p310
sg13
(dp311
g244
F5
sg155
F10
sS'gosford-park'
p312
F7.5
sg165
F10
ssg16
VSan Francisco Chronicle
p313
sg18
NsbsVTheWrap/Tricia Olszewski
p314
g3
(g4
g5
NtRp315
(dp316
g8
g314
sg9
VTricia Olszewski
p317
sg11
S'http://www.metacritic.com/critic/tricia-olszewski?filter=movies'
p318
sg13
(dp319
g69
F10
ssg16
VTheWrap
p320
sg18
NsbsVVariety/Emanuel Levy
p321
g3
(g4
g5
NtRp322
(dp323
g8
g321
sg9
VEmanuel Levy
p324
sg11
S'http://www.metacritic.com/critic/emanuel-levy?filter=movies'
p325
sg13
(dp326
g116
F7
ssg16
VVariety
p327
sg18
NsbsVNPR/Bob Mondello
p328
g3
(g4
g5
NtRp329
(dp330
g8
g328
sg9
VBob Mondello
p331
sg11
S'http://www.metacritic.com/critic/bob-mondello?filter=movies'
p332
sg13
(dp333
g124
F9.5
sg71
F7.5
sg153
F9.5
sg228
F9
sg172
F8
sg73
F9.5
sg158
F8.5
sg74
F9
sg100
F10
sg75
F9
sg133
F7
sg177
F10
sg138
F10
sg15
F10
sg146
F9
sg131
F7.5
sg79
F9
sg108
F9
sg81
F9
ssg16
VNPR
p334
sg18
NsbsVSalon.com/Laura Miller
p335
g3
(g4
g5
NtRp336
(dp337
g8
g335
sg9
VLaura Miller
p338
sg11
S'http://www.metacritic.com/critic?filter=movies'
p339
sg13
(dp340
g162
F5
ssg16
VSalon.com
p341
sg18
NsbsVPremiere/Stephen Saito
p342
g3
(g4
g5
NtRp343
(dp344
g8
g342
sg9
VStephen Saito
p345
sg11
S'http://www.metacritic.com/critic?filter=movies'
p346
sg13
(dp347
g148
F8.8000000000000007
ssg16
VPremiere
p348
sg18
NsbsVSlant Magazine/Clayton Dillard
p349
g3
(g4
g5
NtRp350
(dp351
g8
g349
sg9
VClayton Dillard
p352
sg11
S'http://www.metacritic.com/critic/clayton-dillard?filter=movies'
p353
sg13
(dp354
g25
F6.2999999999999998
sg108
F7.5
ssg16
VSlant Magazine
p355
sg18
NsbsVL.A. Weekly/John Powers
p356
g3
(g4
g5
NtRp357
(dp358
g8
g356
sg9
VJohn Powers
p359
sg11
S'http://www.metacritic.com/critic/john-powers?filter=movies'
p360
sg13
(dp361
g180
F7
ssg16
VL.A. Weekly
p362
sg18
NsbsVNPR/Stephanie Zacharek
p363
g3
(g4
g5
NtRp364
(dp365
g8
g363
sg9
VStephanie Zacharek
p366
sg11
S'http://www.metacritic.com/critic?filter=movies'
p367
sg13
(dp368
g125
F9
ssg16
VNPR
p369
sg18
NsbsVNew York Magazine (Vulture)/Bilge Ebiri
p370
g3
(g4
g5
NtRp371
(dp372
g8
g370
sg9
VBilge Ebiri
p373
sg11
S'http://www.metacritic.com/critic/bilge-ebiri?filter=movies'
p374
sg13
(dp375
g33
F10
sg97
F10
sg72
F7
sg228
F8
sg25
F9
sg108
F8
ssg16
VNew York Magazine (Vulture)
p376
sg18
NsbsVScreen International/Wendy Ide
p377
g3
(g4
g5
NtRp378
(dp379
g8
g377
sg9
VWendy Ide
p380
sg11
S'http://www.metacritic.com/critic/wendy-ide?filter=movies'
p381
sg13
(dp382
g69
F8
ssg16
VScreen International
p383
sg18
NsbsVVillage Voice/Peter L'Official
p384
g3
(g4
g5
NtRp385
(dp386
g8
g384
sg9
VPeter L'Official
p387
sg11
S'http://www.metacritic.com/critic?filter=movies'
p388
sg13
(dp389
g147
F3
ssg16
VVillage Voice
p390
sg18
NsbsVConsequence of Sound/None
p391
g3
(g4
g5
NtRp392
(dp393
g8
g391
sg9
Nsg11
Nsg13
(dp394
g97
F10
ssg16
VConsequence of Sound
p395
sg18
NsbsVMovieline/Michelle Orange
p396
g3
(g4
g5
NtRp397
(dp398
g8
g396
sg9
VMichelle Orange
p399
sg11
S'http://www.metacritic.com/critic/michelle-orange?filter=movies'
p400
sg13
(dp401
g288
F8.5
sg158
F7.5
ssg16
VMovieline
p402
sg18
NsbsVSlant Magazine/Keith Watson
p403
g3
(g4
g5
NtRp404
(dp405
g8
g403
sg9
VKeith Watson
p406
sg11
S'http://www.metacritic.com/critic/keith-watson?filter=movies'
p407
sg13
(dp408
g137
F2.5
ssg16
VSlant Magazine
p409
sg18
NsbsVThe Guardian/Katey Rich
p410
g3
(g4
g5
NtRp411
(dp412
g8
g410
sg9
VKatey Rich
p413
sg11
S'http://www.metacritic.com/critic?filter=movies'
p414
sg13
(dp415
g124
F10
sg169
F8
ssg16
VThe Guardian
p416
sg18
NsbsVSlate/Michael Agger
p417
g3
(g4
g5
NtRp418
(dp419
g8
g417
sg9
VMichael Agger
p420
sg11
S'http://www.metacritic.com/critic?filter=movies'
p421
sg13
(dp422
g134
F3
ssg16
VSlate
p423
sg18
NsbsVThe New York Times/Glenn Kenny
p424
g3
(g4
g5
NtRp425
(dp426
g8
g424
sg9
VGlenn Kenny
p427
sg11
S'http://www.metacritic.com/critic/glenn-kenny?filter=movies'
p428
sg13
(dp429
g69
F9
sS'april-and-the-extraordinary-world'
p430
F10
sg290
F9
ssg16
VThe New York Times
p431
sg18
NsbsVMiami Herald/Charles Savage
p432
g3
(g4
g5
NtRp433
(dp434
g8
g432
sg9
VCharles Savage
p435
sg11
S'http://www.metacritic.com/critic/charles-savage?filter=movies'
p436
sg13
(dp437
S'gone-in-sixty-seconds'
p438
F5
ssg16
VMiami Herald
p439
sg18
NsbsVEmpire/Mark Dinning
p440
g3
(g4
g5
NtRp441
(dp442
g8
g440
sg9
VMark Dinning
p443
sg11
S'http://www.metacritic.com/critic?filter=movies'
p444
sg13
(dp445
g153
F10
ssg16
VEmpire
p446
sg18
NsbsVL.A. Weekly/David Chute
p447
g3
(g4
g5
NtRp448
(dp449
g8
g447
sg9
VDavid Chute
p450
sg11
S'http://www.metacritic.com/critic/david-chute?filter=movies'
p451
sg13
(dp452
g134
F6
ssg16
VL.A. Weekly
p453
sg18
NsbsVVariety/Andrew Barker
p454
g3
(g4
g5
NtRp455
(dp456
g8
g454
sg9
VAndrew Barker
p457
sg11
S'http://www.metacritic.com/critic?filter=movies'
p458
sg13
(dp459
g151
F5
ssg16
VVariety
p460
sg18
NsbsVChicago Reader/J.R. Jones
p461
g3
(g4
g5
NtRp462
(dp463
g8
g461
sg9
VJ.R. Jones
p464
sg11
S'http://www.metacritic.com/critic/jr-jones?filter=movies'
p465
sg13
(dp466
g151
F7
sg152
F7
sg127
F5
sg132
F5
sg153
F8
sg173
F5
sg158
F3
sg159
F6
sg178
F10
sg136
F9
sg176
F10
sg166
F5
sg144
F9
sg145
F10
sg302
F10
sg165
F8
sg134
F4
sg177
F10
sg157
F8
sg138
F10
sg168
F8
ssg16
VChicago Reader
p467
sg18
NsbsVDallas Observer/Luke Y. Thompson
p468
g3
(g4
g5
NtRp469
(dp470
g8
g468
sg9
VLuke Y. Thompson
p471
sg11
S'http://www.metacritic.com/critic/luke-y-thompson?filter=movies'
p472
sg13
(dp473
g132
F5
sS'the-wedding-planner'
p474
F2
ssg16
VDallas Observer
p475
sg18
NsbsVArizona Republic/Barbara VanDenburgh
p476
g3
(g4
g5
NtRp477
(dp478
g8
g476
sg9
VBarbara VanDenburgh
p479
sg11
S'http://www.metacritic.com/critic/barbara-vandenburgh?filter=movies'
p480
sg13
(dp481
S'dheepan'
p482
F7
ssg16
VArizona Republic
p483
sg18
NsbsVCineVue/Craig Williams
p484
g3
(g4
g5
NtRp485
(dp486
g8
g484
sg9
VCraig Williams
p487
sg11
S'http://www.metacritic.com/critic?filter=movies'
p488
sg13
(dp489
g71
F10
ssg16
VCineVue
p490
sg18
NsbsVThe New York Times/Janet Maslin
p491
g3
(g4
g5
NtRp492
(dp493
g8
g491
sg9
VJanet Maslin
p494
sg11
S'http://www.metacritic.com/critic/janet-maslin?filter=movies'
p495
sg13
(dp496
g219
F10
sg301
F9
sg116
F8
sg51
F6
ssg16
VThe New York Times
p497
sg18
NsbsVScreen International/Allan Hunter
p498
g3
(g4
g5
NtRp499
(dp500
g8
g498
sg9
VAllan Hunter
p501
sg11
S'http://www.metacritic.com/critic/allan-hunter?filter=movies'
p502
sg13
(dp503
g96
F8
sg482
F9
sg99
F8
ssg16
VScreen International
p504
sg18
NsbsVRogerEbert.com/Christy Lemire
p505
g3
(g4
g5
NtRp506
(dp507
g8
g505
sg9
VChristy Lemire
p508
sg11
S'http://www.metacritic.com/critic/christy-lemire?filter=movies'
p509
sg13
(dp510
g75
F10
sg73
F8.8000000000000007
sg100
F8.8000000000000007
ssg16
VRogerEbert.com
p511
sg18
NsbsVWashington Post/Phillip Kennicott
p512
g3
(g4
g5
NtRp513
(dp514
g8
g512
sg9
VPhillip Kennicott
p515
sg11
S'http://www.metacritic.com/critic?filter=movies'
p516
sg13
(dp517
g165
F6
ssg16
VWashington Post
p518
sg18
NsbsVThe Guardian/Jordan Hoffman
p519
g3
(g4
g5
NtRp520
(dp521
g8
g519
sg9
VJordan Hoffman
p522
sg11
S'http://www.metacritic.com/critic/jordan-hoffman?filter=movies'
p523
sg13
(dp524
S'the-end-of-the-tour'
p525
F8
ssg16
VThe Guardian
p526
sg18
NsbsVTotal Film/Rosie Fletcher
p527
g3
(g4
g5
NtRp528
(dp529
g8
g527
sg9
VRosie Fletcher
p530
sg11
S'http://www.metacritic.com/critic?filter=movies'
p531
sg13
(dp532
S'what-we-do-in-the-shadows'
p533
F8
ssg16
VTotal Film
p534
sg18
NsbsVChicago Sun-Times/Roger Ebert
p535
g3
(g4
g5
NtRp536
(dp537
g8
g535
sg9
VRoger Ebert
p538
sg11
S'http://www.metacritic.com/critic/roger-ebert?filter=movies'
p539
sg13
(dp540
g244
F7.5
sg125
F10
sg126
F8.8000000000000007
sg288
F8.8000000000000007
sg128
F6.2999999999999998
sg129
F10
sg130
F10
sg302
F10
sS'in-the-mood-for-love'
p541
F7.5
sg132
F7.5
sg135
F10
sg133
F7.5
sg60
F8.8000000000000007
sg134
F7.5
sS'full-metal-jacket'
p542
F6.2999999999999998
sS'crimes-and-misdemeanors'
p543
F10
sg138
F10
sg139
F10
sg219
F5
sg176
F10
sg180
F8.8000000000000007
sg116
F10
sg136
F7.5
sg143
F10
sg142
F10
sg144
F8.8000000000000007
sg145
F10
sg312
F10
sg146
F8.8000000000000007
sg41
F8.8000000000000007
sg42
F10
sg147
F2.5
sg148
F10
sg149
F8.8000000000000007
sg438
F5
sg151
F5
sg152
F10
sg153
F10
sg154
F5
sg155
F10
sg157
F8.8000000000000007
sg158
F7.5
sg159
F5
sg160
F10
sg161
F10
sg162
F10
sg164
F8.8000000000000007
sg166
F10
sg303
F8.8000000000000007
sS'the-lord-of-the-rings-the-fellowship-of-the-ring'
p544
F7.5
sg168
F8.8000000000000007
sg301
F10
sg169
F10
sg304
F10
sg51
F7.5
sg170
F7.5
sg171
F10
sg59
F10
sg173
F10
sg98
F10
sg140
F7.5
sg124
F7.5
sg177
F10
sg178
F10
sg179
F10
sg474
F5
sg175
F8.8000000000000007
sg181
F10
ssg16
VChicago Sun-Times
p545
sg18
NsbsVSan Francisco Chronicle/C.W. Nevius
p546
g3
(g4
g5
NtRp547
(dp548
g8
g546
sg9
VC.W. Nevius
p549
sg11
S'http://www.metacritic.com/critic/cw-nevius?filter=movies'
p550
sg13
(dp551
g134
F7.5
ssg16
VSan Francisco Chronicle
p552
sg18
NsbsVFilm.com/Kate Erbland
p553
g3
(g4
g5
NtRp554
(dp555
g8
g553
sg9
VKate Erbland
p556
sg11
S'http://www.metacritic.com/critic?filter=movies'
p557
sg13
(dp558
g156
F8.1999999999999993
ssg16
VFilm.com
p559
sg18
NsbsVEmpire/Kim Newman
p560
g3
(g4
g5
NtRp561
(dp562
g8
g560
sg9
VKim Newman
p563
sg11
S'http://www.metacritic.com/critic/kim-newman?filter=movies'
p564
sg13
(dp565
g124
F10
sg154
F10
sg59
F10
sg173
F8
sg130
F10
sg143
F10
ssg16
VEmpire
p566
sg18
NsbsVNew York Post/Farran Smith Nehme
p567
g3
(g4
g5
NtRp568
(dp569
g8
g567
sg9
VFarran Smith Nehme
p570
sg11
S'http://www.metacritic.com/critic/farran-smith-nehme?filter=movies'
p571
sg13
(dp572
g135
F10
sg291
F8.8000000000000007
sg72
F7.5
sg289
F6.2999999999999998
sg228
F10
sg100
F6.2999999999999998
sg204
F6.2999999999999998
sg99
F8.8000000000000007
sg482
F7.5
sg273
F8.8000000000000007
sg78
F7.5
sg189
F8.8000000000000007
sg79
F10
sg229
F7.5
sg293
F8.8000000000000007
ssg16
VNew York Post
p573
sg18
NsbsVTotal Film/James Mottram
p574
g3
(g4
g5
NtRp575
(dp576
g8
g574
sg9
VJames Mottram
p577
sg11
S'http://www.metacritic.com/critic/james-mottram?filter=movies'
p578
sg13
(dp579
g72
F8
sg70
F8
sg71
F8
sg74
F10
sg78
F6
ssg16
VTotal Film
p580
sg18
NsbsVBoxoffice Magazine/James Rocchi
p581
g3
(g4
g5
NtRp582
(dp583
g8
g581
sg9
VJames Rocchi
p584
sg11
S'http://www.metacritic.com/critic?filter=movies'
p585
sg13
(dp586
g124
F9
sg125
F10
sg131
F4
sg135
F8
ssg16
VBoxoffice Magazine
p587
sg18
NsbsVEmpire/Rob Fraser
p588
g3
(g4
g5
NtRp589
(dp590
g8
g588
sg9
VRob Fraser
p591
sg11
S'http://www.metacritic.com/critic?filter=movies'
p592
sg13
(dp593
g181
F10
ssg16
VEmpire
p594
sg18
NsbsVVariety/Joe Leydon
p595
g3
(g4
g5
NtRp596
(dp597
g8
g595
sg9
VJoe Leydon
p598
sg11
S'http://www.metacritic.com/critic/joe-leydon?filter=movies'
p599
sg13
(dp600
g144
F9
sg170
F8
sg60
F5
ssg16
VVariety
p601
sg18
NsbsVThe Playlist/Chris Willman
p602
g3
(g4
g5
NtRp603
(dp604
g8
g602
sg9
VChris Willman
p605
sg11
S'http://www.metacritic.com/critic?filter=movies'
p606
sg13
(dp607
g15
F9.0999999999999996
ssg16
VThe Playlist
p608
sg18
NsbsVVariety/Robert Koehler
p609
g3
(g4
g5
NtRp610
(dp611
g8
g609
sg9
VRobert Koehler
p612
sg11
S'http://www.metacritic.com/critic/robert-koehler?filter=movies'
p613
sg13
(dp614
g132
F8
sg474
F3
sg127
F2
ssg16
VVariety
p615
sg18
NsbsVNew York Daily News/Elizabeth Weitzman
p616
g3
(g4
g5
NtRp617
(dp618
g8
g616
sg9
VElizabeth Weitzman
p619
sg11
S'http://www.metacritic.com/critic/elizabeth-weitzman?filter=movies'
p620
sg13
(dp621
g151
F4
sg152
F8
sg71
F8
sg170
F5
sg141
F10
sg98
F8
sg131
F6
sg75
F8
sg133
F6
sg77
F10
sg165
F7.5
sg166
F10
ssg16
VNew York Daily News
p622
sg18
NsbsVThe New Yorker/Anthony Lane
p623
g3
(g4
g5
NtRp624
(dp625
g8
g623
sg9
VAnthony Lane
p626
sg11
S'http://www.metacritic.com/critic/anthony-lane?filter=movies'
p627
sg13
(dp628
g244
F9
sg125
F5
sg97
F9
sg128
F9
sg130
F9
sg135
F9
sg136
F9
sg174
F8
sg138
F9
sg79
F8
sg141
F9
sg70
F7
sg228
F8
sg131
F6
sg533
F7
sg100
F9
sg75
F9
sg41
F8
sg145
F8
sg42
F10
sg148
F8
sg180
F8
sg158
F7
sg159
F5
sg160
F7
sg302
F7
sg76
F9
sg77
F8
sg167
F9
sg303
F4
sg168
F8
sg169
F7
sg71
F8
sg170
F5
sg291
F8
sg96
F8
sg525
F7
sg176
F8
sg68
F8
sg179
F9
sg80
F9
sg81
F7
ssg16
VThe New Yorker
p629
sg18
NsbsVNPR/Ella Taylor
p630
g3
(g4
g5
NtRp631
(dp632
g8
g630
sg9
VElla Taylor
p633
sg11
S'http://www.metacritic.com/critic/ella-taylor?filter=movies'
p634
sg13
(dp635
g135
F9
sg128
F9.5
sg157
F7.5
ssg16
VNPR
p636
sg18
NsbsVFilm.com/William Goss
p637
g3
(g4
g5
NtRp638
(dp639
g8
g637
sg9
VWilliam Goss
p640
sg11
S'http://www.metacritic.com/critic/william-goss?filter=movies'
p641
sg13
(dp642
g15
F8.5999999999999996
sg74
F9.4000000000000004
ssg16
VFilm.com
p643
sg18
NsbsVAustin Chronicle/Josh Kupecki
p644
g3
(g4
g5
NtRp645
(dp646
g8
g644
sg9
VJosh Kupecki
p647
sg11
S'http://www.metacritic.com/critic?filter=movies'
p648
sg13
(dp649
g108
F7.7999999999999998
sg71
F7.7999999999999998
sg81
F7.7999999999999998
ssg16
VAustin Chronicle
p650
sg18
NsbsVFilm Threat/Kevin Carr
p651
g3
(g4
g5
NtRp652
(dp653
g8
g651
sg9
VKevin Carr
p654
sg11
S'http://www.metacritic.com/critic?filter=movies'
p655
sg13
(dp656
g41
F7
ssg16
VFilm Threat
p657
sg18
NsbsVSlant Magazine/Christopher Gray
p658
g3
(g4
g5
NtRp659
(dp660
g8
g658
sg9
VChristopher Gray
p661
sg11
S'http://www.metacritic.com/critic?filter=movies'
p662
sg13
(dp663
g172
F3.7999999999999998
sg76
F7.5
sg97
F8.8000000000000007
ssg16
VSlant Magazine
p664
sg18
NsbsVThe Playlist/Noel Murray
p665
g3
(g4
g5
NtRp666
(dp667
g8
g665
sg9
VNoel Murray
p668
sg11
S'http://www.metacritic.com/critic/noel-murray?filter=movies'
p669
sg13
(dp670
g97
F9.0999999999999996
ssg16
VThe Playlist
p671
sg18
NsbsVThe A.V. Club/Keith Phipps
p672
g3
(g4
g5
NtRp673
(dp674
g8
g672
sg9
VKeith Phipps
p675
sg11
S'http://www.metacritic.com/critic/keith-phipps?filter=movies'
p676
sg13
(dp677
g169
F7.5
sg152
F6.7000000000000002
sg127
F3.2999999999999998
sg153
F10
sg173
F10
sg160
F10
sg140
F8
sg136
F10
sg144
F5.7999999999999998
sg148
F10
sg179
F8
sg41
F9
sg157
F6.7000000000000002
sg147
F5
sg177
F9.0999999999999996
ssg16
VThe A.V. Club
p678
sg18
NsbsVCineVue/John Bleasdale
p679
g3
(g4
g5
NtRp680
(dp681
g8
g679
sg9
VJohn Bleasdale
p682
sg11
S'http://www.metacritic.com/critic/john-bleasdale?filter=movies'
p683
sg13
(dp684
g68
F10
sg96
F8
sg290
F6
sS'the-postmans-white-nights'
p685
F8
sg72
F8
sg289
F10
sg78
F8
sg174
F8
sg100
F10
sg75
F10
sg482
F6
sg229
F6
sg228
F10
sg99
F8
sg137
F6
sg81
F8
ssg16
VCineVue
p686
sg18
NsbsVSeattle Post-Intelligencer/Sean Axmaker
p687
g3
(g4
g5
NtRp688
(dp689
g8
g687
sg9
VSean Axmaker
p690
sg11
S'http://www.metacritic.com/critic/sean-axmaker?filter=movies'
p691
sg13
(dp692
g302
F10
sg304
F6.7000000000000002
sg171
F9.0999999999999996
sg153
F10
sg130
F10
sg160
F10
sg176
F10
sg132
F6.7000000000000002
sg541
F10
sg312
F10
sg146
F9.0999999999999996
sg42
F8.3000000000000007
sg43
F9.0999999999999996
sg181
F10
ssg16
VSeattle Post-Intelligencer
p693
sg18
NsbsVPremiere/Kelly Borgeson
p694
g3
(g4
g5
NtRp695
(dp696
g8
g694
sg9
VKelly Borgeson
p697
sg11
S'http://www.metacritic.com/critic/kelly-borgeson?filter=movies'
p698
sg13
(dp699
g132
F7.5
ssg16
VPremiere
p700
sg18
NsbsVMovieline/Alison Willmore
p701
g3
(g4
g5
NtRp702
(dp703
g8
g701
sg9
VAlison Willmore
p704
sg11
S'http://www.metacritic.com/critic/alison-willmore/movieline?filter=movies'
p705
sg13
(dp706
g124
F9
sg125
F6
sg169
F9
sg128
F9
sg135
F7
ssg16
VMovieline
p707
sg18
NsbsVWashington Post/Rita Kempley
p708
g3
(g4
g5
NtRp709
(dp710
g8
g708
sg9
VRita Kempley
p711
sg11
S'http://www.metacritic.com/critic/rita-kempley?filter=movies'
p712
sg13
(dp713
g59
F6
sg116
F8
sg543
F7
sg60
F3
sg162
F9
sg542
F9
sg303
F9
sg544
F10
ssg16
VWashington Post
p714
sg18
NsbsVMovie Nation/Roger Moore
p715
g3
(g4
g5
NtRp716
(dp717
g8
g715
sg9
VRoger Moore
p718
sg11
S'http://www.metacritic.com/critic/roger-moore?filter=movies'
p719
sg13
(dp720
g150
F7.5
sg96
F7.5
sg70
F6.2999999999999998
sg97
F8.8000000000000007
sg228
F7.5
sg172
F8.8000000000000007
sg78
F5
sg174
F8.8000000000000007
sg533
F6.2999999999999998
sg204
F7.5
sg137
F6.2999999999999998
sg163
F7.5
sg76
F8.8000000000000007
sg68
F5
sg273
F7.5
sg80
F10
sg525
F8.8000000000000007
sg167
F7.5
sg289
F7.5
sg81
F5
ssg16
VMovie Nation
p721
sg18
NsbsVFilm.com/Jordan Hoffman
p722
g3
(g4
g5
NtRp723
(dp724
g8
g722
sg9
VJordan Hoffman
p725
sg11
S'http://www.metacritic.com/critic/jordan-hoffman?filter=movies'
p726
sg13
(dp727
g73
F6.9000000000000004
sg77
F9.5
ssg16
VFilm.com
p728
sg18
NsbsVSan Francisco Chronicle/Bob Graham
p729
g3
(g4
g5
NtRp730
(dp731
g8
g729
sg9
VBob Graham
p732
sg11
S'http://www.metacritic.com/critic/bob-graham?filter=movies'
p733
sg13
(dp734
g474
F5
sg126
F7.5
sg116
F7.5
ssg16
VSan Francisco Chronicle
p735
sg18
NsbsVTime/Stephanie Zacharek
p736
g3
(g4
g5
NtRp737
(dp738
g8
g736
sg9
VStephanie Zacharek
p739
sg11
S'http://www.metacritic.com/critic/stephanie-zacharek?filter=movies'
p740
sg13
(dp741
g97
F9
sg70
F7
sg100
F10
sg189
F9
sg81
F8
sg137
F7
sg68
F6
ssg16
VTime
p742
sg18
NsbsVFilm Threat/Michael Dequina
p743
g3
(g4
g5
NtRp744
(dp745
g8
g743
sg9
VMichael Dequina
p746
sg11
S'http://www.metacritic.com/critic/michael-dequina?filter=movies'
p747
sg13
(dp748
g134
F7
ssg16
VFilm Threat
p749
sg18
NsbsVLos Angeles Times/Kevin Thomas
p750
g3
(g4
g5
NtRp751
(dp752
g8
g750
sg9
VKevin Thomas
p753
sg11
S'http://www.metacritic.com/critic/kevin-thomas?filter=movies'
p754
sg13
(dp755
g474
F6
sg304
F8
sg51
F10
ssg16
VLos Angeles Times
p756
sg18
NsbsVSalon.com/Scott Rosenberg
p757
g3
(g4
g5
NtRp758
(dp759
g8
g757
sg9
VScott Rosenberg
p760
sg11
S'http://www.metacritic.com/critic?filter=movies'
p761
sg13
(dp762
g142
F10
ssg16
VSalon.com
p763
sg18
NsbsVTV Guide Magazine/Staff (Not Credited)
p764
g3
(g4
g5
NtRp765
(dp766
g8
g764
sg9
VStaff (Not Credited)
p767
sg11
S'http://www.metacritic.com/critic?filter=movies'
p768
sg13
(dp769
g219
F7
sg154
F10
sg59
F10
sg129
F10
sg142
F9
sg60
F5
sg542
F8
sg543
F7
ssg16
VTV Guide Magazine
p770
sg18
NsbsVVillage Voice/Eric Hynes
p771
g3
(g4
g5
NtRp772
(dp773
g8
g771
sg9
VEric Hynes
p774
sg11
S'http://www.metacritic.com/critic?filter=movies'
p775
sg13
(dp776
g151
F2
ssg16
VVillage Voice
p777
sg18
NsbsVPhiladelphia Inquirer/Steven Rea
p778
g3
(g4
g5
NtRp779
(dp780
g8
g778
sg9
VSteven Rea
p781
sg11
S'http://www.metacritic.com/critic/steven-rea?filter=movies'
p782
sg13
(dp783
g124
F10
sg125
F6.2999999999999998
sg289
F7.5
sg131
F5
sg541
F10
sg99
F8.8000000000000007
sg135
F10
sg41
F7.5
sg43
F6.2999999999999998
sg174
F7.5
sg138
F8.8000000000000007
sg139
F6.2999999999999998
sg141
F10
sg116
F7.5
sg70
F7.5
sg228
F8.8000000000000007
sg74
F10
sg533
F7.5
sg100
F8.8000000000000007
sg75
F10
sg148
F8.8000000000000007
sg482
F8.8000000000000007
sg145
F8.8000000000000007
sg273
F8.8000000000000007
sg146
F7.5
sg144
F7.5
sg147
F5
sg128
F7.5
sg544
F6.2999999999999998
sg149
F8.8000000000000007
sg150
F8.8000000000000007
sg152
F5
sg156
F10
sg180
F10
sg158
F7.5
sg159
F8.8000000000000007
sg160
F8.8000000000000007
sg163
F10
sg76
F10
sg189
F10
sg164
F7.5
sg166
F6.2999999999999998
sg167
F10
sg303
F10
sg229
F8.8000000000000007
sg168
F6.2999999999999998
sg169
F8.8000000000000007
sg304
F8.8000000000000007
sg71
F6.2999999999999998
sg170
F5
sg171
F8.8000000000000007
sg291
F7.5
sg178
F8.8000000000000007
sg525
F8.8000000000000007
sg73
F10
sg68
F8.8000000000000007
sg15
F10
sg293
F10
sg80
F10
sg81
F10
sg77
F10
ssg16
VPhiladelphia Inquirer
p784
sg18
NsbsVTime/John Anderson
p785
g3
(g4
g5
NtRp786
(dp787
g8
g785
sg9
VJohn Anderson
p788
sg11
S'http://www.metacritic.com/critic?filter=movies'
p789
sg13
(dp790
g80
F9
ssg16
VTime
p791
sg18
NsbsVCineVue/Lucy Popescu
p792
g3
(g4
g5
NtRp793
(dp794
g8
g792
sg9
VLucy Popescu
p795
sg11
S'http://www.metacritic.com/critic?filter=movies'
p796
sg13
(dp797
g189
F8
ssg16
VCineVue
p798
sg18
NsbsVVariety/Scott Foundas
p799
g3
(g4
g5
NtRp800
(dp801
g8
g799
sg9
VScott Foundas
p802
sg11
S'http://www.metacritic.com/critic/scott-foundas?filter=movies'
p803
sg13
(dp804
g71
F10
sg141
F10
sg73
F10
sg482
F7
sg77
F10
sg174
F10
ssg16
VVariety
p805
sg18
NsbsVEntertainment Weekly/Bruce Fretts
p806
g3
(g4
g5
NtRp807
(dp808
g8
g806
sg9
VBruce Fretts
p809
sg11
S'http://www.metacritic.com/critic/bruce-fretts?filter=movies'
p810
sg13
(dp811
g132
F1.6000000000000001
ssg16
VEntertainment Weekly
p812
sg18
NsbsVTime Out London/Guy Lodge
p813
g3
(g4
g5
NtRp814
(dp815
g8
g813
sg9
VGuy Lodge
p816
sg11
S'http://www.metacritic.com/critic/guy-lodge?filter=movies'
p817
sg13
(dp818
g174
F6
ssg16
VTime Out London
p819
sg18
NsbsVVariety/Maggie Lee
p820
g3
(g4
g5
NtRp821
(dp822
g8
g820
sg9
VMaggie Lee
p823
sg11
S'http://www.metacritic.com/critic/maggie-lee?filter=movies'
p824
sg13
(dp825
g69
F8
sg33
F9
ssg16
VVariety
p826
sg18
NsbsVChicago Reader/Ben Sachs
p827
g3
(g4
g5
NtRp828
(dp829
g8
g827
sg9
VBen Sachs
p830
sg11
S'http://www.metacritic.com/critic?filter=movies'
p831
sg13
(dp832
g133
F5
ssg16
VChicago Reader
p833
sg18
NsbsVNew York Daily News/Stephen Whitty 
p834
g3
(g4
g5
NtRp835
(dp836
g8
g834
sg9
VStephen Whitty 
p837
sg11
S'http://www.metacritic.com/critic/stephen-whitty?filter=movies'
p838
sg13
(dp839
g150
F6
sg97
F10
sg163
F8
sg167
F10
sg137
F8
sg81
F7
ssg16
VNew York Daily News
p840
sg18
NsbsVUSA Today/Scott Bowles
p841
g3
(g4
g5
NtRp842
(dp843
g8
g841
sg9
VScott Bowles
p844
sg11
S'http://www.metacritic.com/critic/scott-bowles?filter=movies'
p845
sg13
(dp846
g151
F5
ssg16
VUSA Today
p847
sg18
NsbsVMr. Showbiz/Kevin Maynard
p848
g3
(g4
g5
NtRp849
(dp850
g8
g848
sg9
VKevin Maynard
p851
sg11
S'http://www.metacritic.com/critic/kevin-maynard?filter=movies'
p852
sg13
(dp853
g140
F3
sg474
F3.5
sg116
F8.5
ssg16
VMr. Showbiz
p854
sg18
NsbsVVariety/David Rooney
p855
g3
(g4
g5
NtRp856
(dp857
g8
g855
sg9
VDavid Rooney
p858
sg11
S'http://www.metacritic.com/critic/david-rooney?filter=movies'
p859
sg13
(dp860
g143
F10
sg181
F8
ssg16
VVariety
p861
sg18
NsbsVIndiewire/Anisha Jhaveri
p862
g3
(g4
g5
NtRp863
(dp864
g8
g862
sg9
VAnisha Jhaveri
p865
sg11
S'http://www.metacritic.com/critic?filter=movies'
p866
sg13
(dp867
g172
F10
ssg16
VIndiewire
p868
sg18
NsbsVChristian Science Monitor/David Sterritt
p869
g3
(g4
g5
NtRp870
(dp871
g8
g869
sg9
VDavid Sterritt
p872
sg11
S'http://www.metacritic.com/critic/david-sterritt?filter=movies'
p873
sg13
(dp874
g244
F10
sg541
F7.5
sg132
F2.5
sg60
F7.5
sg134
F2.5
sg542
F10
sg139
F7.5
sg301
F7.5
sg116
F5
sg136
F7.5
sg41
F5
sg312
F10
sg438
F2.5
sg126
F7.5
sg155
F10
sg180
F10
sg164
F7.5
sg165
F10
sg303
F7.5
sg544
F6.2999999999999998
sg304
F7.5
sg59
F8.8000000000000007
sg173
F5
sg140
F5
sg474
F0
sg175
F7.5
sg181
F10
ssg16
VChristian Science Monitor
p875
sg18
NsbsVCineVue/Rory O'Connor
p876
g3
(g4
g5
NtRp877
(dp878
g8
g876
sg9
VRory O'Connor
p879
sg11
S'http://www.metacritic.com/critic?filter=movies'
p880
sg13
(dp881
g167
F8
ssg16
VCineVue
p882
sg18
NsbsVThe Seattle Times/Soren Andersen
p883
g3
(g4
g5
NtRp884
(dp885
g8
g883
sg9
VSoren Andersen
p886
sg11
S'http://www.metacritic.com/critic/soren-andersen?filter=movies'
p887
sg13
(dp888
g68
F8.8000000000000007
ssg16
VThe Seattle Times
p889
sg18
NsbsVVillage Voice/Amy Nicholson
p890
g3
(g4
g5
NtRp891
(dp892
g8
g890
sg9
VAmy Nicholson
p893
sg11
S'http://www.metacritic.com/critic/amy-nicholson?filter=movies'
p894
sg13
(dp895
g156
F9
sg73
F9
sg204
F10
sg76
F8
sg174
F6
sg68
F10
ssg16
VVillage Voice
p896
sg18
NsbsVScreen International/Charles Gant
p897
g3
(g4
g5
NtRp898
(dp899
g8
g897
sg9
VCharles Gant
p900
sg11
S'http://www.metacritic.com/critic?filter=movies'
p901
sg13
(dp902
g76
F8
ssg16
VScreen International
p903
sg18
NsbsVVillage Voice/Simon Abrams
p904
g3
(g4
g5
NtRp905
(dp906
g8
g904
sg9
VSimon Abrams
p907
sg11
S'http://www.metacritic.com/critic/simon-abrams?filter=movies'
p908
sg13
(dp909
g273
F9
ssg16
VVillage Voice
p910
sg18
NsbsVPortland Oregonian/Roger Moore
p911
g3
(g4
g5
NtRp912
(dp913
g8
g911
sg9
VRoger Moore
p914
sg11
S'http://www.metacritic.com/critic?filter=movies'
p915
sg13
(dp916
g132
F5
ssg16
VPortland Oregonian
p917
sg18
NsbsVSlant Magazine/Eric Henderson
p918
g3
(g4
g5
NtRp919
(dp920
g8
g918
sg9
VEric Henderson
p921
sg11
S'http://www.metacritic.com/critic/eric-henderson?filter=movies'
p922
sg13
(dp923
g150
F6.2999999999999998
sg74
F8.8000000000000007
ssg16
VSlant Magazine
p924
sg18
NsbsVThe Globe and Mail (Toronto)/Simon Houpt
p925
g3
(g4
g5
NtRp926
(dp927
g8
g925
sg9
VSimon Houpt
p928
sg11
S'http://www.metacritic.com/critic?filter=movies'
p929
sg13
(dp930
g150
F6.2999999999999998
ssg16
VThe Globe and Mail (Toronto)
p931
sg18
NsbsVPremiere/Peter Debruge
p932
g3
(g4
g5
NtRp933
(dp934
g8
g932
sg9
VPeter Debruge
p935
sg11
S'http://www.metacritic.com/critic/peter-debruge?filter=movies'
p936
sg13
(dp937
g147
F5
sg139
F7.5
ssg16
VPremiere
p938
sg18
NsbsVL.A. Weekly/Ernest Hardy
p939
g3
(g4
g5
NtRp940
(dp941
g8
g939
sg9
VErnest Hardy
p942
sg11
S'http://www.metacritic.com/critic/ernest-hardy?filter=movies'
p943
sg13
(dp944
g60
F3
ssg16
VL.A. Weekly
p945
sg18
NsbsVVillage Voice/Nick Schager
p946
g3
(g4
g5
NtRp947
(dp948
g8
g946
sg9
VNick Schager
p949
sg11
S'http://www.metacritic.com/critic/nick-schager?filter=movies'
p950
sg13
(dp951
g163
F10
ssg16
VVillage Voice
p952
sg18
NsbsVSlant Magazine/Ed Gonzalez
p953
g3
(g4
g5
NtRp954
(dp955
g8
g953
sg9
VEd Gonzalez
p956
sg11
S'http://www.metacritic.com/critic/ed-gonzalez?filter=movies'
p957
sg13
(dp958
g141
F10
sg131
F7.5
sg100
F5
sg541
F10
sg15
F5
sg174
F7.5
ssg16
VSlant Magazine
p959
sg18
NsbsVNew York Daily News/Allen Salkin
p960
g3
(g4
g5
NtRp961
(dp962
g8
g960
sg9
VAllen Salkin
p963
sg11
S'http://www.metacritic.com/critic?filter=movies'
p964
sg13
(dp965
g68
F10
ssg16
VNew York Daily News
p966
sg18
NsbsVLos Angeles Times/Betsy Sharkey
p967
g3
(g4
g5
NtRp968
(dp969
g8
g967
sg9
VBetsy Sharkey
p970
sg11
S'http://www.metacritic.com/critic/betsy-sharkey?filter=movies'
p971
sg13
(dp972
g125
F10
sg71
F10
sg151
F5
sg72
F9
sg75
F10
sg133
F8
sg144
F8
sg273
F9
sg168
F8
ssg16
VLos Angeles Times
p973
sg18
NsbsVSlant Magazine/Oleg Ivanov
p974
g3
(g4
g5
NtRp975
(dp976
g8
g974
sg9
VOleg Ivanov
p977
sg11
S'http://www.metacritic.com/critic?filter=movies'
p978
sg13
(dp979
g430
F7.5
sg533
F8.8000000000000007
ssg16
VSlant Magazine
p980
sg18
NsbsVChicago Tribune/Michael Wilmington
p981
g3
(g4
g5
NtRp982
(dp983
g8
g981
sg9
VMichael Wilmington
p984
sg11
S'http://www.metacritic.com/critic/michael-wilmington?filter=movies'
p985
sg13
(dp986
g244
F10
sg129
F10
sg130
F10
sg541
F7.5
sg132
F3.7999999999999998
sg43
F8.8000000000000007
sg139
F10
sg116
F10
sg136
F10
sg142
F10
sg41
F10
sg312
F10
sg42
F8.8000000000000007
sg438
F8.8000000000000007
sg126
F10
sg155
F10
sg164
F10
sg165
F8.8000000000000007
sg303
F10
sg544
F10
sg304
F10
sg51
F8.8000000000000007
sg173
F7.5
sg301
F8.8000000000000007
sg175
F10
ssg16
VChicago Tribune
p987
sg18
NsbsVEntertainment Weekly/Staff (Not Credited)
p988
g3
(g4
g5
NtRp989
(dp990
g8
g988
sg9
VStaff (Not Credited)
p991
sg11
S'http://www.metacritic.com/critic?filter=movies'
p992
sg13
(dp993
g219
F10
ssg16
VEntertainment Weekly
p994
sg18
NsbsVUSA Today/Mike Clark
p995
g3
(g4
g5
NtRp996
(dp997
g8
g995
sg9
VMike Clark
p998
sg11
S'http://www.metacritic.com/critic/mike-clark?filter=movies'
p999
sg13
(dp1000
g301
F10
sg162
F7.5
sg147
F6.2999999999999998
sg132
F6.2999999999999998
sg155
F10
sg116
F8.8000000000000007
sg173
F6.2999999999999998
sg59
F10
sg140
F8.8000000000000007
sg179
F10
sg126
F10
sg164
F8.8000000000000007
sg541
F5
sg60
F7.5
sg134
F5
sg542
F10
sg474
F3.7999999999999998
sg181
F8.8000000000000007
sg312
F10
sg175
F8.8000000000000007
sg139
F8.8000000000000007
ssg16
VUSA Today
p1001
sg18
NsbsVRogerEbert.com/Godfrey Cheshire
p1002
g3
(g4
g5
NtRp1003
(dp1004
g8
g1002
sg9
VGodfrey Cheshire
p1005
sg11
S'http://www.metacritic.com/critic/godfrey-cheshire?filter=movies'
p1006
sg13
(dp1007
g96
F8.8000000000000007
sg228
F8.8000000000000007
sg25
F6.2999999999999998
sg79
F10
sg229
F10
sg293
F10
ssg16
VRogerEbert.com
p1008
sg18
NsbsVSlant Magazine/Jesse Cataldo
p1009
g3
(g4
g5
NtRp1010
(dp1011
g8
g1009
sg9
VJesse Cataldo
p1012
sg11
S'http://www.metacritic.com/critic/jesse-cataldo?filter=movies'
p1013
sg13
(dp1014
g72
F8.8000000000000007
sg156
F8.8000000000000007
sg80
F6.2999999999999998
sg482
F6.2999999999999998
sg78
F7.5
sg525
F6.2999999999999998
ssg16
VSlant Magazine
p1015
sg18
NsbsVThe Playlist/Kevin Jagernauth
p1016
g3
(g4
g5
NtRp1017
(dp1018
g8
g1016
sg9
VKevin Jagernauth
p1019
sg11
S'http://www.metacritic.com/critic/kevin-jagernauth?filter=movies'
p1020
sg13
(dp1021
g291
F8.3000000000000007
sg135
F8.3000000000000007
sg77
F10
ssg16
VThe Playlist
p1022
sg18
NsbsVThe A.V. Club/Tasha Robinson
p1023
g3
(g4
g5
NtRp1024
(dp1025
g8
g1023
sg9
VTasha Robinson
p1026
sg11
S'http://www.metacritic.com/critic/tasha-robinson?filter=movies'
p1027
sg13
(dp1028
g146
F10
sg131
F6.7000000000000002
sg98
F8.3000000000000007
sg171
F9.0999999999999996
ssg16
VThe A.V. Club
p1029
sg18
NsbsVMiami Herald/Connie Ogle
p1030
g3
(g4
g5
NtRp1031
(dp1032
g8
g1030
sg9
VConnie Ogle
p1033
sg11
S'http://www.metacritic.com/critic/connie-ogle?filter=movies'
p1034
sg13
(dp1035
g172
F6.2999999999999998
sg147
F2.5
sg163
F10
sg312
F8.8000000000000007
ssg16
VMiami Herald
p1036
sg18
NsbsVTotal Film/Phillip Kemp
p1037
g3
(g4
g5
NtRp1038
(dp1039
g8
g1037
sg9
VPhillip Kemp
p1040
sg11
S'http://www.metacritic.com/critic?filter=movies'
p1041
sg13
(dp1042
g163
F10
ssg16
VTotal Film
p1043
sg18
NsbsVEmpire/Ian Nathan
p1044
g3
(g4
g5
NtRp1045
(dp1046
g8
g1044
sg9
VIan Nathan
p1047
sg11
S'http://www.metacritic.com/critic/ian-nathan?filter=movies'
p1048
sg13
(dp1049
g169
F10
sg71
F8
sg141
F8
sg171
F10
sg74
F10
sg160
F10
sg164
F8
sg159
F10
ssg16
VEmpire
p1050
sg18
NsbsVEmpire/Ian Freer
p1051
g3
(g4
g5
NtRp1052
(dp1053
g8
g1051
sg9
VIan Freer
p1054
sg11
S'http://www.metacritic.com/critic?filter=movies'
p1055
sg13
(dp1056
g72
F8
sg289
F8
sg98
F8
sg75
F10
sg76
F10
sg15
F8
sg68
F10
ssg16
VEmpire
p1057
sg18
NsbsVDallas Observer/Melissa Levine
p1058
g3
(g4
g5
NtRp1059
(dp1060
g8
g1058
sg9
VMelissa Levine
p1061
sg11
S'http://www.metacritic.com/critic?filter=movies'
p1062
sg13
(dp1063
g155
F9
sg164
F5
ssg16
VDallas Observer
p1064
sg18
NsbsVTime Out London/Dave Calhoun
p1065
g3
(g4
g5
NtRp1066
(dp1067
g8
g1065
sg9
VDave Calhoun
p1068
sg11
S'http://www.metacritic.com/critic/dave-calhoun?filter=movies'
p1069
sg13
(dp1070
g68
F10
sg96
F6
sg156
F8
sg72
F8
sg289
F8
sg73
F8
sg228
F8
sg292
F10
sg76
F8
sg189
F10
sg77
F10
sg482
F8
sg167
F10
sg79
F6
sg80
F10
sg81
F6
ssg16
VTime Out London
p1071
sg18
NsbsVVillage Voice/Bilge Ebiri
p1072
g3
(g4
g5
NtRp1073
(dp1074
g8
g1072
sg9
VBilge Ebiri
p1075
sg11
S'http://www.metacritic.com/critic/bilge-ebiri?filter=movies'
p1076
sg13
(dp1077
g69
F10
sg482
F8
sg96
F6
ssg16
VVillage Voice
p1078
sg18
NsbsVFilm Threat/Tim Merrill
p1079
g3
(g4
g5
NtRp1080
(dp1081
g8
g1079
sg9
VTim Merrill
p1082
sg11
S'http://www.metacritic.com/critic/tim-merrill?filter=movies'
p1083
sg13
(dp1084
g312
F8
ssg16
VFilm Threat
p1085
sg18
NsbsVTime Out London/Alex Dudok de Wit
p1086
g3
(g4
g5
NtRp1087
(dp1088
g8
g1086
sg9
VAlex Dudok de Wit
p1089
sg11
S'http://www.metacritic.com/critic?filter=movies'
p1090
sg13
(dp1091
g33
F8
ssg16
VTime Out London
p1092
sg18
NsbsVFilm.com/Eric D. Snider
p1093
g3
(g4
g5
NtRp1094
(dp1095
g8
g1093
sg9
VEric D. Snider
p1096
sg11
S'http://www.metacritic.com/critic?filter=movies'
p1097
sg13
(dp1098
g291
F2.5
ssg16
VFilm.com
p1099
sg18
NsbsVTNT RoughCut/J. Rentilly
p1100
g3
(g4
g5
NtRp1101
(dp1102
g8
g1100
sg9
VJ. Rentilly
p1103
sg11
S'http://www.metacritic.com/critic/j-rentilly?filter=movies'
p1104
sg13
(dp1105
g438
F3
ssg16
VTNT RoughCut
p1106
sg18
NsbsVDallas Observer/Arnold Wayne Jones
p1107
g3
(g4
g5
NtRp1108
(dp1109
g8
g1107
sg9
VArnold Wayne Jones
p1110
sg11
S'http://www.metacritic.com/critic?filter=movies'
p1111
sg13
(dp1112
g162
F10
ssg16
VDallas Observer
p1113
sg18
NsbsVVillage Voice/Jessica Winter
p1114
g3
(g4
g5
NtRp1115
(dp1116
g8
g1114
sg9
VJessica Winter
p1117
sg11
S'http://www.metacritic.com/critic/jessica-winter?filter=movies'
p1118
sg13
(dp1119
g474
F4
sg164
F6
ssg16
VVillage Voice
p1120
sg18
NsbsVVariety/Derek Elley
p1121
g3
(g4
g5
NtRp1122
(dp1123
g8
g1121
sg9
VDerek Elley
p1124
sg11
S'http://www.metacritic.com/critic/derek-elley?filter=movies'
p1125
sg13
(dp1126
g42
F8
sg51
F7
sg148
F8
sg165
F8
ssg16
VVariety
p1127
sg18
NsbsVVillage Voice/Sherilyn Connelly
p1128
g3
(g4
g5
NtRp1129
(dp1130
g8
g1128
sg9
VSherilyn Connelly
p1131
sg11
S'http://www.metacritic.com/critic/sherilyn-connelly?filter=movies'
p1132
sg13
(dp1133
g33
F7
sg430
F8
ssg16
VVillage Voice
p1134
sg18
NsbsVEmpire/Dan Jolin
p1135
g3
(g4
g5
NtRp1136
(dp1137
g8
g1135
sg9
VDan Jolin
p1138
sg11
S'http://www.metacritic.com/critic/dan-jolin?filter=movies'
p1139
sg13
(dp1140
g125
F8
sg33
F8
sg155
F10
sg131
F8
sg533
F8
sg161
F8
sg77
F10
sg174
F10
sg145
F10
ssg16
VEmpire
p1141
sg18
NsbsVEmpire/Nick de Semlyen
p1142
g3
(g4
g5
NtRp1143
(dp1144
g8
g1142
sg9
VNick de Semlyen
p1145
sg11
S'http://www.metacritic.com/critic?filter=movies'
p1146
sg13
(dp1147
g151
F4
ssg16
VEmpire
p1148
sg18
NsbsVNewsweek/Ann-Rebecca Laschever
p1149
g3
(g4
g5
NtRp1150
(dp1151
g8
g1149
sg9
VAnn-Rebecca Laschever
p1152
sg11
S'http://www.metacritic.com/critic?filter=movies'
p1153
sg13
(dp1154
g301
F4
ssg16
VNewsweek
p1155
sg18
NsbsVPremiere/Glenn Kenny
p1156
g3
(g4
g5
NtRp1157
(dp1158
g8
g1156
sg9
VGlenn Kenny
p1159
sg11
S'http://www.metacritic.com/critic/glenn-kenny?filter=movies'
p1160
sg13
(dp1161
g244
F6.2999999999999998
sg143
F8.8000000000000007
sg171
F10
sg155
F10
sg180
F10
sg130
F10
sg160
F10
sg176
F10
sg179
F10
sg161
F7.5
sg41
F10
sg164
F8.8000000000000007
sg302
F10
sg165
F8.8000000000000007
sg134
F6.2999999999999998
sg42
F8.8000000000000007
sg149
F10
sg181
F10
ssg16
VPremiere
p1162
sg18
NsbsVLos Angeles Times/Manohla Dargis
p1163
g3
(g4
g5
NtRp1164
(dp1165
g8
g1163
sg9
VManohla Dargis
p1166
sg11
S'http://www.metacritic.com/critic/manohla-dargis?filter=movies'
p1167
sg13
(dp1168
g134
F3
sg132
F3
sg180
F9
sg175
F9
sg136
F7
ssg16
VLos Angeles Times
p1169
sg18
NsbsVThe Hollywood Reporter/David Hunter
p1170
g3
(g4
g5
NtRp1171
(dp1172
g8
g1170
sg9
VDavid Hunter
p1173
sg11
S'http://www.metacritic.com/critic?filter=movies'
p1174
sg13
(dp1175
g51
F9
sg41
F10
ssg16
VThe Hollywood Reporter
p1176
sg18
NsbsVDallas Observer/Andy Klein
p1177
g3
(g4
g5
NtRp1178
(dp1179
g8
g1177
sg9
VAndy Klein
p1180
sg11
S'http://www.metacritic.com/critic/andy-klein?filter=movies'
p1181
sg13
(dp1182
g541
F8
sg175
F9
ssg16
VDallas Observer
p1183
sg18
NsbsVTV Guide Magazine/Ethan Alter
p1184
g3
(g4
g5
NtRp1185
(dp1186
g8
g1184
sg9
VEthan Alter
p1187
sg11
S'http://www.metacritic.com/critic?filter=movies'
p1188
sg13
(dp1189
g155
F8
sg139
F6
ssg16
VTV Guide Magazine
p1190
sg18
NsbsVPremiere/Jessica Letkemann
p1191
g3
(g4
g5
NtRp1192
(dp1193
g8
g1191
sg9
VJessica Letkemann
p1194
sg11
S'http://www.metacritic.com/critic/jessica-letkemann?filter=movies'
p1195
sg13
(dp1196
g145
F7.5
ssg16
VPremiere
p1197
sg18
NsbsVFilm.com/Elizabeth Weitzman
p1198
g3
(g4
g5
NtRp1199
(dp1200
g8
g1198
sg9
VElizabeth Weitzman
p1201
sg11
S'http://www.metacritic.com/critic/elizabeth-weitzman?filter=movies'
p1202
sg13
(dp1203
g162
F8
ssg16
VFilm.com
p1204
sg18
NsbsVPremiere/Rob Calvert
p1205
g3
(g4
g5
NtRp1206
(dp1207
g8
g1205
sg9
VRob Calvert
p1208
sg11
S'http://www.metacritic.com/critic?filter=movies'
p1209
sg13
(dp1210
g144
F10
ssg16
VPremiere
p1211
sg18
NsbsVThe New York Times/Jeannette Catsoulis
p1212
g3
(g4
g5
NtRp1213
(dp1214
g8
g1212
sg9
VJeannette Catsoulis
p1215
sg11
S'http://www.metacritic.com/critic/jeannette-catsoulis?filter=movies'
p1216
sg13
(dp1217
g127
F3
sg533
F8
ssg16
VThe New York Times
p1218
sg18
NsbsVTime Out London/Tom Huddleston
p1219
g3
(g4
g5
NtRp1220
(dp1221
g8
g1219
sg9
VTom Huddleston
p1222
sg11
S'http://www.metacritic.com/critic/tom-huddleston?filter=movies'
p1223
sg13
(dp1224
g15
F10
sg74
F8
sg293
F8
ssg16
VTime Out London
p1225
sg18
NsbsVEmpire/Chris Hewitt (1)
p1226
g3
(g4
g5
NtRp1227
(dp1228
g8
g1226
sg9
VChris Hewitt (1)
p1229
sg11
S'http://www.metacritic.com/critic/chris-hewitt-1?filter=movies'
p1230
sg13
(dp1231
g152
F8
sg178
F10
ssg16
VEmpire
p1232
sg18
NsbsVTotal Film/Neil Smith
p1233
g3
(g4
g5
NtRp1234
(dp1235
g8
g1233
sg9
VNeil Smith
p1236
sg11
S'http://www.metacritic.com/critic/neil-smith?filter=movies'
p1237
sg13
(dp1238
g124
F8
sg137
F8
ssg16
VTotal Film
p1239
sg18
NsbsVVillage Voice/Scott Tobias
p1240
g3
(g4
g5
NtRp1241
(dp1242
g8
g1240
sg9
VScott Tobias
p1243
sg11
S'http://www.metacritic.com/critic/scott-tobias?filter=movies'
p1244
sg13
(dp1245
g100
F8
ssg16
VVillage Voice
p1246
sg18
NsbsVNew York Post/Kyle Smith
p1247
g3
(g4
g5
NtRp1248
(dp1249
g8
g1247
sg9
VKyle Smith
p1250
sg11
S'http://www.metacritic.com/critic/kyle-smith?filter=movies'
p1251
sg13
(dp1252
g125
F7.5
sg127
F2.5
sg133
F7.5
sg174
F8.8000000000000007
sg138
F7.5
sg97
F10
sg533
F5
sg144
F7.5
sg148
F6.2999999999999998
sg147
F7.5
sg153
F8.8000000000000007
sg156
F5
sg163
F7.5
sg77
F7.5
sg168
F8.8000000000000007
sg71
F3.7999999999999998
sg170
F7.5
sg173
F10
sg81
F6.2999999999999998
sg179
F7.5
sg525
F10
sg68
F8.8000000000000007
ssg16
VNew York Post
p1253
sg18
NsbsVTNT RoughCut/Gabriel J.P. Goldberg
p1254
g3
(g4
g5
NtRp1255
(dp1256
g8
g1254
sg9
VGabriel J.P. Goldberg
p1257
sg11
S'http://www.metacritic.com/critic?filter=movies'
p1258
sg13
(dp1259
g162
F10
ssg16
VTNT RoughCut
p1260
sg18
NsbsVThe Telegraph/Tim Robey
p1261
g3
(g4
g5
NtRp1262
(dp1263
g8
g1261
sg9
VTim Robey
p1264
sg11
S'http://www.metacritic.com/critic/tim-robey?filter=movies'
p1265
sg13
(dp1266
g96
F6
sg97
F8
sg228
F8
sg289
F6
sg174
F6
sg292
F8
sg100
F8
sg163
F8
sg189
F10
sg15
F10
sg482
F8
sg167
F10
sg156
F10
ssg16
VThe Telegraph
p1267
sg18
NsbsVThe New York Times/Renata Adler
p1268
g3
(g4
g5
NtRp1269
(dp1270
g8
g1268
sg9
VRenata Adler
p1271
sg11
S'http://www.metacritic.com/critic?filter=movies'
p1272
sg13
(dp1273
g142
F6
ssg16
VThe New York Times
p1274
sg18
NsbsVEntertainment Weekly/Owen Gleiberman
p1275
g3
(g4
g5
NtRp1276
(dp1277
g8
g1275
sg9
VOwen Gleiberman
p1278
sg11
S'http://www.metacritic.com/critic/owen-gleiberman?filter=movies'
p1279
sg13
(dp1280
g124
F10
sg125
F6.7000000000000002
sg127
F4.2000000000000002
sg133
F10
sg135
F10
sg43
F9.0999999999999996
sg138
F10
sg139
F9.0999999999999996
sg74
F10
sg136
F7.5
sg143
F9.0999999999999996
sg142
F10
sg144
F7.5
sg145
F9.0999999999999996
sg312
F9.0999999999999996
sg146
F10
sg15
F10
sg147
F8.3000000000000007
sg151
F8.3000000000000007
sg126
F5
sg153
F9.0999999999999996
sg156
F9.0999999999999996
sg180
F10
sg159
F7.5
sg161
F9.0999999999999996
sg77
F9.0999999999999996
sg165
F9.0999999999999996
sg168
F10
sg169
F10
sg170
F8.3000000000000007
sg171
F7.5
sg59
F10
sg301
F8.3000000000000007
sg177
F10
sg178
F7.5
sg179
F10
ssg16
VEntertainment Weekly
p1281
sg18
NsbsVTV Guide Magazine/Frank Lovece
p1282
g3
(g4
g5
NtRp1283
(dp1284
g8
g1282
sg9
VFrank Lovece
p1285
sg11
S'http://www.metacritic.com/critic/frank-lovece?filter=movies'
p1286
sg13
(dp1287
g162
F6
sg474
F2
sg304
F4
ssg16
VTV Guide Magazine
p1288
sg18
NsbsVPhiladelphia Inquirer/Tirdad Derakhshani
p1289
g3
(g4
g5
NtRp1290
(dp1291
g8
g1289
sg9
VTirdad Derakhshani
p1292
sg11
S'http://www.metacritic.com/critic/tirdad-derakhshani?filter=movies'
p1293
sg13
(dp1294
g108
F10
sg430
F8.8000000000000007
sg79
F8.8000000000000007
sg97
F8.8000000000000007
ssg16
VPhiladelphia Inquirer
p1295
sg18
NsbsVWashington Post/Teresa Wiltz
p1296
g3
(g4
g5
NtRp1297
(dp1298
g8
g1296
sg9
VTeresa Wiltz
p1299
sg11
S'http://www.metacritic.com/critic?filter=movies'
p1300
sg13
(dp1301
g155
F10
sg139
F7
ssg16
VWashington Post
p1302
sg18
NsbsVAustin Chronicle/Marrit Ingman
p1303
g3
(g4
g5
NtRp1304
(dp1305
g8
g1303
sg9
VMarrit Ingman
p1306
sg11
S'http://www.metacritic.com/critic/marrit-ingman?filter=movies'
p1307
sg13
(dp1308
g147
F3
sg43
F7.7999999999999998
sg165
F8.9000000000000004
ssg16
VAustin Chronicle
p1309
sg18
NsbsVCineVue/Ben Nicholson
p1310
g3
(g4
g5
NtRp1311
(dp1312
g8
g1310
sg9
VBen Nicholson
p1313
sg11
S'http://www.metacritic.com/critic/ben-nicholson?filter=movies'
p1314
sg13
(dp1315
g33
F6
sg156
F8
sg97
F8
ssg16
VCineVue
p1316
sg18
NsbsVVillage Voice/Nick Pinkerton
p1317
g3
(g4
g5
NtRp1318
(dp1319
g8
g1317
sg9
VNick Pinkerton
p1320
sg11
S'http://www.metacritic.com/critic/nick-pinkerton?filter=movies'
p1321
sg13
(dp1322
g166
F3
sg302
F9
sg158
F4
sg170
F1
sg135
F5
ssg16
VVillage Voice
p1323
sg18
NsbsVWall Street Journal/Joe Morgenstern
p1324
g3
(g4
g5
NtRp1325
(dp1326
g8
g1324
sg9
VJoe Morgenstern
p1327
sg11
S'http://www.metacritic.com/critic/joe-morgenstern?filter=movies'
p1328
sg13
(dp1329
g244
F9
sg125
F10
sg77
F9
sg97
F10
sg289
F7
sg130
F10
sg131
F7
sg541
F10
sg132
F1
sg133
F8
sg134
F1
sg135
F10
sg136
F10
sg137
F9
sg138
F10
sg139
F9
sg141
F10
sg70
F7
sg74
F10
sg533
F8
sg100
F10
sg143
F10
sg75
F10
sg178
F9
sg482
F10
sg145
F9
sg312
F9
sg146
F10
sg41
F10
sg42
F10
sg147
F3
sg108
F10
sg128
F9
sg148
F5
sg149
F10
sg150
F9
sg151
F2
sg69
F8
sg180
F10
sg96
F10
sg153
F6
sg155
F10
sg156
F9
sg157
F9
sg158
F8
sg159
F8
sg160
F10
sg161
F8
sg302
F9
sg163
F9
sg76
F10
sg189
F9
sg164
F10
sg165
F9
sg167
F9
sg204
F9
sg303
F8
sg229
F5
sg168
F9
sg169
F10
sg71
F7
sg171
F10
sg291
F8
sg172
F9
sg173
F7
sg98
F5
sg290
F6
sg175
F6
sg176
F10
sg124
F10
sg73
F10
sg177
F10
sg68
F8
sg15
F10
sg179
F10
sg474
F2
sg293
F10
sg80
F10
sg544
F10
sg181
F10
ssg16
VWall Street Journal
p1330
sg18
NsbsVWe Got This Covered/Matt Donato
p1331
g3
(g4
g5
NtRp1332
(dp1333
g8
g1331
sg9
VMatt Donato
p1334
sg11
S'http://www.metacritic.com/critic/matt-donato?filter=movies'
p1335
sg13
(dp1336
g15
F9
ssg16
VWe Got This Covered
p1337
sg18
NsbsVFilm Threat/Michael Ferraro
p1338
g3
(g4
g5
NtRp1339
(dp1340
g8
g1338
sg9
VMichael Ferraro
p1341
sg11
S'http://www.metacritic.com/critic?filter=movies'
p1342
sg13
(dp1343
g155
F9
sg164
F9
ssg16
VFilm Threat
p1344
sg18
NsbsVChicago Tribune/Michael Phillips
p1345
g3
(g4
g5
NtRp1346
(dp1347
g8
g1345
sg9
VMichael Phillips
p1348
sg11
S'http://www.metacritic.com/critic/michael-phillips?filter=movies'
p1349
sg13
(dp1350
g124
F10
sg125
F5
sg33
F8.8000000000000007
sg97
F10
sg288
F10
sg72
F10
sg289
F7.5
sg131
F6.2999999999999998
sg133
F5
sg135
F10
sg79
F7.5
sg174
F7.5
sg138
F10
sg141
F10
sg70
F6.2999999999999998
sg228
F8.8000000000000007
sg74
F8.8000000000000007
sg100
F10
sg143
F10
sg75
F7.5
sg15
F10
sg145
F10
sg146
F10
sg108
F7.5
sg128
F10
sg148
F8.8000000000000007
sg149
F10
sg151
F3.7999999999999998
sg152
F6.2999999999999998
sg96
F8.8000000000000007
sg153
F10
sg156
F8.8000000000000007
sg157
F8.8000000000000007
sg158
F6.2999999999999998
sg159
F6.2999999999999998
sg160
F8.8000000000000007
sg161
F7.5
sg163
F8.8000000000000007
sg76
F8.8000000000000007
sg189
F10
sg77
F8.8000000000000007
sg166
F7.5
sg167
F10
sg168
F7.5
sg169
F10
sg71
F8.8000000000000007
sg170
F3.7999999999999998
sg171
F10
sg291
F8.8000000000000007
sg172
F7.5
sg98
F10
sg178
F7.5
sg176
F10
sg73
F7.5
sg177
F8.8000000000000007
sg68
F10
sg179
F8.8000000000000007
sg525
F7.5
sg80
F10
sg81
F8.8000000000000007
sg293
F10
ssg16
VChicago Tribune
p1351
sg18
NsbsVThe Verge/Tasha Robinson
p1352
g3
(g4
g5
NtRp1353
(dp1354
g8
g1352
sg9
VTasha Robinson
p1355
sg11
S'http://www.metacritic.com/critic/tasha-robinson?filter=movies'
p1356
sg13
(dp1357
g150
F7.2999999999999998
sg70
F7.7000000000000002
sg430
F8.8000000000000007
sg81
F8.4000000000000004
sg100
F10
ssg16
VThe Verge
p1358
sg18
NsbsVNewsweek/Walaika Haskins
p1359
g3
(g4
g5
NtRp1360
(dp1361
g8
g1359
sg9
VWalaika Haskins
p1362
sg11
S'http://www.metacritic.com/critic?filter=movies'
p1363
sg13
(dp1364
g140
F7
ssg16
VNewsweek
p1365
sg18
NsbsVVillage Voice/Jim Ridley
p1366
g3
(g4
g5
NtRp1367
(dp1368
g8
g1366
sg9
VJim Ridley
p1369
sg11
S'http://www.metacritic.com/critic?filter=movies'
p1370
sg13
(dp1371
g144
F7
ssg16
VVillage Voice
p1372
sg18
NsbsVEmpire/Olly Richards
p1373
g3
(g4
g5
NtRp1374
(dp1375
g8
g1373
sg9
VOlly Richards
p1376
sg11
S'http://www.metacritic.com/critic/olly-richards?filter=movies'
p1377
sg13
(dp1378
g146
F10
sg150
F6
sg133
F8
ssg16
VEmpire
p1379
sg18
NsbsVChicago Sun-Times/Richard Roeper
p1380
g3
(g4
g5
NtRp1381
(dp1382
g8
g1380
sg9
VRichard Roeper
p1383
sg11
S'http://www.metacritic.com/critic/richard-roeper?filter=movies'
p1384
sg13
(dp1385
g150
F10
sg70
F7.5
sg97
F10
sg141
F8.8000000000000007
sg172
F10
sg73
F10
sg174
F10
sg74
F8.8000000000000007
sg100
F10
sg525
F10
sg75
F10
sg76
F10
sg15
F10
sg77
F8.8000000000000007
sg68
F10
sg167
F8.8000000000000007
sg80
F8.8000000000000007
sg81
F7.5
ssg16
VChicago Sun-Times
p1386
sg18
NsbsVThe Hollywood Reporter/Jordan Mintzer
p1387
g3
(g4
g5
NtRp1388
(dp1389
g8
g1387
sg9
VJordan Mintzer
p1390
sg11
S'http://www.metacritic.com/critic/jordan-mintzer?filter=movies'
p1391
sg13
(dp1392
g430
F7
ssg16
VThe Hollywood Reporter
p1393
sg18
NsbsVL.A. Weekly/Hazel-Dawn Dumpert
p1394
g3
(g4
g5
NtRp1395
(dp1396
g8
g1394
sg9
VHazel-Dawn Dumpert
p1397
sg11
S'http://www.metacritic.com/critic/hazel-dawn-dumpert?filter=movies'
p1398
sg13
(dp1399
g438
F3
ssg16
VL.A. Weekly
p1400
sg18
NsbsVTotal Film/Matthew Leyland
p1401
g3
(g4
g5
NtRp1402
(dp1403
g8
g1401
sg9
VMatthew Leyland
p1404
sg11
S'http://www.metacritic.com/critic/matthew-leyland?filter=movies'
p1405
sg13
(dp1406
g158
F10
sg131
F10
ssg16
VTotal Film
p1407
sg18
NsbsVTime Out New York/Joshua Rothkopf
p1408
g3
(g4
g5
NtRp1409
(dp1410
g8
g1408
sg9
VJoshua Rothkopf
p1411
sg11
S'http://www.metacritic.com/critic/joshua-rothkopf?filter=movies'
p1412
sg13
(dp1413
g150
F6
sg125
F8
sg169
F10
sg71
F8
sg97
F10
sg151
F8
sg128
F6
sg156
F10
sg124
F10
sg74
F8
sg525
F8
sg163
F10
sg177
F10
sg77
F10
sg273
F10
sg166
F8
sg135
F8
sg137
F6
sg138
F10
sg168
F10
ssg16
VTime Out New York
p1414
sg18
NsbsVNew York Daily News/Graham Fuller
p1415
g3
(g4
g5
NtRp1416
(dp1417
g8
g1415
sg9
VGraham Fuller
p1418
sg11
S'http://www.metacritic.com/critic?filter=movies'
p1419
sg13
(dp1420
g72
F10
sg33
F8
sg228
F10
sg289
F8
ssg16
VNew York Daily News
p1421
sg18
NsbsVSalon.com/Andrew O'Hehir
p1422
g3
(g4
g5
NtRp1423
(dp1424
g8
g1422
sg9
VAndrew O'Hehir
p1425
sg11
S'http://www.metacritic.com/critic/andrew-ohehir?filter=movies'
p1426
sg13
(dp1427
g124
F10
sg288
F9
sg72
F10
sg289
F10
sg131
F5
sg133
F7
sg135
F10
sg79
F10
sg174
F8
sg138
F10
sg176
F10
sg141
F9
sg70
F9
sg228
F10
sg74
F9
sg533
F9
sg100
F10
sg41
F9
sg15
F10
sg128
F9
sg151
F1
sg156
F9
sg157
F8
sg158
F10
sg160
F9
sg76
F7
sg77
F10
sg166
F4
sg167
F10
sg204
F9
sg168
F9
sg169
F10
sg71
F9
sg301
F6
sg73
F9
sg177
F9
sg78
F8
sg474
F6
sg293
F9
ssg16
VSalon.com
p1428
sg18
NsbsVUSA Today/Susan Wloszczyna
p1429
g3
(g4
g5
NtRp1430
(dp1431
g8
g1429
sg9
VSusan Wloszczyna
p1432
sg11
S'http://www.metacritic.com/critic/susan-wloszczyna?filter=movies'
p1433
sg13
(dp1434
g438
F6.2999999999999998
ssg16
VUSA Today
p1435
sg18
NsbsVEntertainment Weekly/Lisa Schwarzbaum
p1436
g3
(g4
g5
NtRp1437
(dp1438
g8
g1436
sg9
VLisa Schwarzbaum
p1439
sg11
S'http://www.metacritic.com/critic/lisa-schwarzbaum?filter=movies'
p1440
sg13
(dp1441
g244
F10
sg128
F10
sg130
F10
sg541
F8.3000000000000007
sg60
F6.7000000000000002
sg134
F5.7999999999999998
sg176
F10
sg116
F8.3000000000000007
sg131
F8.3000000000000007
sg41
F10
sg148
F10
sg162
F10
sg42
F9.0999999999999996
sg149
F10
sg438
F2.5
sg152
F7.5
sg155
F10
sg157
F7.5
sg158
F7.5
sg160
F9.0999999999999996
sg164
F9.0999999999999996
sg166
F8.3000000000000007
sg303
F9.0999999999999996
sg544
F10
sg304
F10
sg173
F10
sg98
F10
sg140
F8.3000000000000007
sg302
F10
sg474
F5
sg175
F9.0999999999999996
sg181
F10
ssg16
VEntertainment Weekly
p1442
sg18
NsbsVFilm Threat/Darrin Keene
p1443
g3
(g4
g5
NtRp1444
(dp1445
g8
g1443
sg9
VDarrin Keene
p1446
sg11
S'http://www.metacritic.com/critic?filter=movies'
p1447
sg13
(dp1448
g175
F8
ssg16
VFilm Threat
p1449
sg18
NsbsVL.A. Weekly/Russel Swensen
p1450
g3
(g4
g5
NtRp1451
(dp1452
g8
g1450
sg9
VRussel Swensen
p1453
sg11
S'http://www.metacritic.com/critic?filter=movies'
p1454
sg13
(dp1455
g136
F7
ssg16
VL.A. Weekly
p1456
sg18
NsbsVNew York Observer/Rex Reed
p1457
g3
(g4
g5
NtRp1458
(dp1459
g8
g1457
sg9
VRex Reed
p1460
sg11
S'http://www.metacritic.com/critic/rex-reed?filter=movies'
p1461
sg13
(dp1462
g124
F5
sg125
F10
sg97
F10
sg128
F2.5
sg133
F2.5
sg135
F10
sg137
F8.8000000000000007
sg70
F0
sg74
F7.5
sg533
F7.5
sg75
F2.5
sg15
F10
sg150
F7.5
sg156
F7.5
sg157
F10
sg158
F2.5
sg163
F10
sg166
F2.5
sg167
F10
sg168
F10
sg169
F5
sg172
F7.5
sg73
F8.8000000000000007
sg177
F7.5
sg80
F10
ssg16
VNew York Observer
p1463
sg18
NsbsVPremiere/Aaron Hillis
p1464
g3
(g4
g5
NtRp1465
(dp1466
g8
g1464
sg9
VAaron Hillis
p1467
sg11
S'http://www.metacritic.com/critic/aaron-hillis?filter=movies'
p1468
sg13
(dp1469
g173
F6.2999999999999998
ssg16
VPremiere
p1470
sg18
NsbsVThe Guardian/Nigel M Smith
p1471
g3
(g4
g5
NtRp1472
(dp1473
g8
g1471
sg9
VNigel M Smith
p1474
sg11
S'http://www.metacritic.com/critic/nigel-m-smith?filter=movies'
p1475
sg13
(dp1476
g150
F6
sg204
F10
ssg16
VThe Guardian
p1477
sg18
NsbsVTheWrap/Robert Abele
p1478
g3
(g4
g5
NtRp1479
(dp1480
g8
g1478
sg9
VRobert Abele
p1481
sg11
S'http://www.metacritic.com/critic/robert-abele?filter=movies'
p1482
sg13
(dp1483
g150
F8.5
sg482
F9
sg97
F7
ssg16
VTheWrap
p1484
sg18
NsbsVVariety/Peter Debruge
p1485
g3
(g4
g5
NtRp1486
(dp1487
g8
g1485
sg9
VPeter Debruge
p1488
sg11
S'http://www.metacritic.com/critic/peter-debruge?filter=movies'
p1489
sg13
(dp1490
g150
F7
sg125
F10
sg169
F7
sg172
F9
sg157
F8
sg228
F10
sg124
F9
sg76
F10
sg137
F8
sg289
F9
sg75
F10
sg163
F7
sg133
F8
sg15
F10
sg78
F10
sg131
F6
sg135
F9
sg430
F10
sg68
F10
sg293
F6
ssg16
VVariety
p1491
sg18
NsbsVFilm Threat/Matthew Sorrento
p1492
g3
(g4
g5
NtRp1493
(dp1494
g8
g1492
sg9
VMatthew Sorrento
p1495
sg11
S'http://www.metacritic.com/critic?filter=movies'
p1496
sg13
(dp1497
g42
F10
sg98
F5
ssg16
VFilm Threat
p1498
sg18
NsbsVTotal Film/Philip Kemp
p1499
g3
(g4
g5
NtRp1500
(dp1501
g8
g1499
sg9
VPhilip Kemp
p1502
sg11
S'http://www.metacritic.com/critic?filter=movies'
p1503
sg13
(dp1504
g150
F6
sg79
F8
sg73
F8
sg77
F10
ssg16
VTotal Film
p1505
sg18
NsbsVSlant Magazine/Andrew Schenker
p1506
g3
(g4
g5
NtRp1507
(dp1508
g8
g1506
sg9
VAndrew Schenker
p1509
sg11
S'http://www.metacritic.com/critic/andrew-schenker?filter=movies'
p1510
sg13
(dp1511
g288
F3.7999999999999998
sg133
F5
ssg16
VSlant Magazine
p1512
sg18
NsbsVNew York Magazine (Vulture)/Ken Tucker
p1513
g3
(g4
g5
NtRp1514
(dp1515
g8
g1513
sg9
VKen Tucker
p1516
sg11
S'http://www.metacritic.com/critic?filter=movies'
p1517
sg13
(dp1518
g143
F6
sg179
F9
sg173
F5
sg164
F9
sg139
F6
ssg16
VNew York Magazine (Vulture)
p1519
sg18
NsbsVFilm.com/Robert Horton
p1520
g3
(g4
g5
NtRp1521
(dp1522
g8
g1520
sg9
VRobert Horton
p1523
sg11
S'http://www.metacritic.com/critic/robert-horton?filter=movies'
p1524
sg13
(dp1525
g438
F4
sg301
F7
sg474
F4
sg126
F9
ssg16
VFilm.com
p1526
sg18
NsbsVThe New York Times/Dave Kehr
p1527
g3
(g4
g5
NtRp1528
(dp1529
g8
g1527
sg9
VDave Kehr
p1530
sg11
S'http://www.metacritic.com/critic/dave-kehr?filter=movies'
p1531
sg13
(dp1532
g244
F9
ssg16
VThe New York Times
p1533
sg18
NsbsVThe Telegraph/Mike McCahill
p1534
g3
(g4
g5
NtRp1535
(dp1536
g8
g1534
sg9
VMike McCahill
p1537
sg11
S'http://www.metacritic.com/critic/mike-mccahill?filter=movies'
p1538
sg13
(dp1539
g229
F6
ssg16
VThe Telegraph
p1540
sg18
NsbsVTime/Staff (Not Credited)
p1541
g3
(g4
g5
NtRp1542
(dp1543
g8
g1541
sg9
VStaff (Not Credited)
p1544
sg11
S'http://www.metacritic.com/critic?filter=movies'
p1545
sg13
(dp1546
g59
F10
ssg16
VTime
p1547
sg18
NsbsVEmpire/David Parkinson
p1548
g3
(g4
g5
NtRp1549
(dp1550
g8
g1548
sg9
VDavid Parkinson
p1551
sg11
S'http://www.metacritic.com/critic/david-parkinson?filter=movies'
p1552
sg13
(dp1553
g290
F6
sg291
F8
sg99
F8
sg288
F8
sg79
F6
sg138
F8
ssg16
VEmpire
p1554
sg18
NsbsVEntertainment Weekly/Leah Greenblatt
p1555
g3
(g4
g5
NtRp1556
(dp1557
g8
g1555
sg9
VLeah Greenblatt
p1558
sg11
S'http://www.metacritic.com/critic/leah-greenblatt?filter=movies'
p1559
sg13
(dp1560
g172
F8.3000000000000007
sg189
F9.0999999999999996
sg137
F8.3000000000000007
ssg16
VEntertainment Weekly
p1561
sg18
NsbsVThe Dissolve/Mike D'Angelo
p1562
g3
(g4
g5
NtRp1563
(dp1564
g8
g1562
sg9
VMike D'Angelo
p1565
sg11
S'http://www.metacritic.com/critic/mike-dangelo?filter=movies'
p1566
sg13
(dp1567
g78
F6
ssg16
VThe Dissolve
p1568
sg18
NsbsVBaltimore Sun/Michael Sragow
p1569
g3
(g4
g5
NtRp1570
(dp1571
g8
g1569
sg9
VMichael Sragow
p1572
sg11
S'http://www.metacritic.com/critic/michael-sragow?filter=movies'
p1573
sg13
(dp1574
g244
F5
sg130
F10
sg136
F10
sg143
F10
sg144
F3.7999999999999998
sg145
F10
sg312
F8.8000000000000007
sg146
F10
sg41
F10
sg42
F10
sg149
F4.2000000000000002
sg152
F3.7999999999999998
sg153
F5
sg180
F5
sg159
F5.7999999999999998
sg160
F10
sg161
F10
sg164
F10
sg544
F10
sg304
F10
sg170
F6.2999999999999998
sg171
F10
sg173
F5
sg98
F10
sg176
F10
sg179
F5
sg175
F10
sg181
F6.2999999999999998
ssg16
VBaltimore Sun
p1575
sg18
NsbsVVariety/Deborah Young
p1576
g3
(g4
g5
NtRp1577
(dp1578
g8
g1576
sg9
VDeborah Young
p1579
sg11
S'http://www.metacritic.com/critic/deborah-young?filter=movies'
p1580
sg13
(dp1581
g244
F8
ssg16
VVariety
p1582
sg18
NsbsVPremiere/Sara Brady
p1583
g3
(g4
g5
NtRp1584
(dp1585
g8
g1583
sg9
VSara Brady
p1586
sg11
S'http://www.metacritic.com/critic?filter=movies'
p1587
sg13
(dp1588
g159
F7.5
ssg16
VPremiere
p1589
sg18
NsbsVThe New York Times/Elvis Mitchell
p1590
g3
(g4
g5
NtRp1591
(dp1592
g8
g1590
sg9
VElvis Mitchell
p1593
sg11
S'http://www.metacritic.com/critic/elvis-mitchell?filter=movies'
p1594
sg13
(dp1595
g162
F9
sg59
F10
sg126
F9
sg544
F9
sg180
F7
ssg16
VThe New York Times
p1596
sg18
NsbsVVariety/Staff (Not Credited)
p1597
g3
(g4
g5
NtRp1598
(dp1599
g8
g1597
sg9
VStaff (Not Credited)
p1600
sg11
S'http://www.metacritic.com/critic?filter=movies'
p1601
sg13
(dp1602
g219
F9
sg154
F8
sg59
F10
sg129
F9
sg142
F4
sg542
F9
sg543
F7
ssg16
VVariety
p1603
sg18
NsbsVTime/Richard Schickel
p1604
g3
(g4
g5
NtRp1605
(dp1606
g8
g1604
sg9
VRichard Schickel
p1607
sg11
S'http://www.metacritic.com/critic/richard-schickel?filter=movies'
p1608
sg13
(dp1609
g301
F8
sg116
F6
sg173
F5
sg160
F10
sg140
F7
sg312
F3
sg179
F7
sg161
F5
sg43
F6
sg175
F8
sg543
F8
sg149
F10
ssg16
VTime
p1610
sg18
NsbsVThe Dissolve/Keith Phipps
p1611
g3
(g4
g5
NtRp1612
(dp1613
g8
g1611
sg9
VKeith Phipps
p1614
sg11
S'http://www.metacritic.com/critic/keith-phipps?filter=movies'
p1615
sg13
(dp1616
g71
F9
sg77
F9
sg74
F9
ssg16
VThe Dissolve
p1617
sg18
NsbsVVillage Voice/David Ng
p1618
g3
(g4
g5
NtRp1619
(dp1620
g8
g1618
sg9
VDavid Ng
p1621
sg11
S'http://www.metacritic.com/critic?filter=movies'
p1622
sg13
(dp1623
g132
F5
ssg16
VVillage Voice
p1624
sg18
NsbsVVariety/Jay Weissberg
p1625
g3
(g4
g5
NtRp1626
(dp1627
g8
g1625
sg9
VJay Weissberg
p1628
sg11
S'http://www.metacritic.com/critic?filter=movies'
p1629
sg13
(dp1630
g685
F6
sg292
F7
sg176
F10
sg273
F9
sg108
F9
sg229
F8
ssg16
VVariety
p1631
sg18
NsbsVVariety/Dennis Harvey
p1632
g3
(g4
g5
NtRp1633
(dp1634
g8
g1632
sg9
VDennis Harvey
p1635
sg11
S'http://www.metacritic.com/critic/dennis-harvey?filter=movies'
p1636
sg13
(dp1637
g161
F7
sg525
F5
ssg16
VVariety
p1638
sg18
NsbsVVillage Voice/Scott Foundas
p1639
g3
(g4
g5
NtRp1640
(dp1641
g8
g1639
sg9
VScott Foundas
p1642
sg11
S'http://www.metacritic.com/critic/scott-foundas?filter=movies'
p1643
sg13
(dp1644
g124
F10
sg125
F9
sg171
F9
sg291
F9
sg153
F10
sg131
F5
sg160
F10
sg161
F9
ssg16
VVillage Voice
p1645
sg18
NsbsVNew York Magazine (Vulture)/David Edelstein
p1646
g3
(g4
g5
NtRp1647
(dp1648
g8
g1646
sg9
VDavid Edelstein
p1649
sg11
S'http://www.metacritic.com/critic/david-edelstein?filter=movies'
p1650
sg13
(dp1651
g124
F10
sg125
F8
sg128
F8
sg130
F8
sg131
F5
sg133
F7
sg135
F10
sg79
F10
sg137
F8
sg138
F9
sg141
F9
sg70
F7
sg74
F10
sg533
F8
sg100
F4
sg75
F6
sg15
F7
sg145
F5
sg273
F9
sg146
F10
sg42
F9
sg148
F8
sg149
F10
sg150
F6
sg152
F8
sg96
F9
sg153
F5
sg156
F9
sg157
F9
sg159
F4
sg160
F9
sg161
F5
sg163
F8
sg76
F10
sg189
F9
sg77
F9
sg166
F4
sg167
F8
sg229
F7
sg168
F8
sg169
F9
sg71
F7
sg171
F10
sg172
F4
sg174
F9
sg98
F9
sg525
F10
sg176
F9
sg73
F9
sg177
F6
sg178
F10
sg302
F9
sg80
F10
sg68
F6
sg293
F8
ssg16
VNew York Magazine (Vulture)
p1652
sg18
NsbsVBaltimore Sun/Ann Hornaday
p1653
g3
(g4
g5
NtRp1654
(dp1655
g8
g1653
sg9
VAnn Hornaday
p1656
sg11
S'http://www.metacritic.com/critic/ann-hornaday?filter=movies'
p1657
sg13
(dp1658
g438
F3.7999999999999998
sg162
F10
sg116
F7.5
sg301
F10
ssg16
VBaltimore Sun
p1659
sg18
NsbsVHitfix/Daniel Fienberg
p1660
g3
(g4
g5
NtRp1661
(dp1662
g8
g1660
sg9
VDaniel Fienberg
p1663
sg11
S'http://www.metacritic.com/critic?filter=movies'
p1664
sg13
(dp1665
g525
F8.3000000000000007
ssg16
VHitfix
p1666
sg18
NsbsVTV Guide Magazine/Cammila Albertson
p1667
g3
(g4
g5
NtRp1668
(dp1669
g8
g1667
sg9
VCammila Albertson
p1670
sg11
S'http://www.metacritic.com/critic?filter=movies'
p1671
sg13
(dp1672
g144
F8.8000000000000007
ssg16
VTV Guide Magazine
p1673
sg18
NsbsVEntertainment Weekly/Kevin P. Sullivan
p1674
g3
(g4
g5
NtRp1675
(dp1676
g8
g1674
sg9
VKevin P. Sullivan
p1677
sg11
S'http://www.metacritic.com/critic?filter=movies'
p1678
sg13
(dp1679
g533
F8.3000000000000007
ssg16
VEntertainment Weekly
p1680
sg18
NsbsVSlant Magazine/R. Kurt Osenlund
p1681
g3
(g4
g5
NtRp1682
(dp1683
g8
g1681
sg9
VR. Kurt Osenlund
p1684
sg11
S'http://www.metacritic.com/critic/r-kurt-osenlund?filter=movies'
p1685
sg13
(dp1686
g75
F5
sg169
F8.8000000000000007
sg73
F7.5
ssg16
VSlant Magazine
p1687
sg18
NsbsVThe Playlist/Gregory Ellwood
p1688
g3
(g4
g5
NtRp1689
(dp1690
g8
g1688
sg9
VGregory Ellwood
p1691
sg11
S'http://www.metacritic.com/critic/gregory-ellwood?filter=movies'
p1692
sg13
(dp1693
g150
F7.5
ssg16
VThe Playlist
p1694
sg18
NsbsVThe Film Stage/Jared Mobarak
p1695
g3
(g4
g5
NtRp1696
(dp1697
g8
g1695
sg9
VJared Mobarak
p1698
sg11
S'http://www.metacritic.com/critic/jared-mobarak?filter=movies'
p1699
sg13
(dp1700
g430
F8.3000000000000007
ssg16
VThe Film Stage
p1701
sg18
NsbsVSan Francisco Chronicle/G. Allen Johnson
p1702
g3
(g4
g5
NtRp1703
(dp1704
g8
g1702
sg9
VG. Allen Johnson
p1705
sg11
S'http://www.metacritic.com/critic?filter=movies'
p1706
sg13
(dp1707
g430
F5
sg290
F7.5
sg99
F5
ssg16
VSan Francisco Chronicle
p1708
sg18
NsbsVVillage Voice/Melissa Anderson
p1709
g3
(g4
g5
NtRp1710
(dp1711
g8
g1709
sg9
VMelissa Anderson
p1712
sg11
S'http://www.metacritic.com/critic/melissa-anderson?filter=movies'
p1713
sg13
(dp1714
g189
F10
ssg16
VVillage Voice
p1715
sg18
NsbsVSan Francisco Chronicle/Ruthe Stein
p1716
g3
(g4
g5
NtRp1717
(dp1718
g8
g1716
sg9
VRuthe Stein
p1719
sg11
S'http://www.metacritic.com/critic/ruthe-stein?filter=movies'
p1720
sg13
(dp1721
g130
F10
sg164
F10
ssg16
VSan Francisco Chronicle
p1722
sg18
NsbsVThe Globe and Mail (Toronto)/James Adams
p1723
g3
(g4
g5
NtRp1724
(dp1725
g8
g1723
sg9
VJames Adams
p1726
sg11
S'http://www.metacritic.com/critic/james-adams?filter=movies'
p1727
sg13
(dp1728
g77
F7.5
ssg16
VThe Globe and Mail (Toronto)
p1729
sg18
NsbsVVillage Voice/Robert Wilonsky
p1730
g3
(g4
g5
NtRp1731
(dp1732
g8
g1730
sg9
VRobert Wilonsky
p1733
sg11
S'http://www.metacritic.com/critic?filter=movies'
p1734
sg13
(dp1735
g146
F10
sg98
F10
ssg16
VVillage Voice
p1736
sg18
NsbsVMr. Showbiz/Larry Terenzi
p1737
g3
(g4
g5
NtRp1738
(dp1739
g8
g1737
sg9
VLarry Terenzi
p1740
sg11
S'http://www.metacritic.com/critic/larry-terenzi?filter=movies'
p1741
sg13
(dp1742
g438
F6
ssg16
VMr. Showbiz
p1743
sg18
NsbsVMr. Showbiz/Michael Atkinson
p1744
g3
(g4
g5
NtRp1745
(dp1746
g8
g1744
sg9
VMichael Atkinson
p1747
sg11
S'http://www.metacritic.com/critic/michael-atkinson?filter=movies'
p1748
sg13
(dp1749
g541
F9
sg126
F3
sg304
F8
ssg16
VMr. Showbiz
p1750
sg18
NsbsVFilm Threat/Nick Antosca
p1751
g3
(g4
g5
NtRp1752
(dp1753
g8
g1751
sg9
VNick Antosca
p1754
sg11
S'http://www.metacritic.com/critic?filter=movies'
p1755
sg13
(dp1756
g152
F7
ssg16
VFilm Threat
p1757
sg18
NsbsVFilm Threat/Pete Vonder Haar
p1758
g3
(g4
g5
NtRp1759
(dp1760
g8
g1758
sg9
VPete Vonder Haar
p1761
sg11
S'http://www.metacritic.com/critic/pete-vonder-haar?filter=movies'
p1762
sg13
(dp1763
g171
F8
sg173
F8
sg159
F5
sg161
F9
sg145
F10
sg153
F9
sg146
F9
sg147
F3
ssg16
VFilm Threat
p1764
sg18
NsbsVPremiere/Staff (Not Credited)
p1765
g3
(g4
g5
NtRp1766
(dp1767
g8
g1765
sg9
VStaff (Not Credited)
p1768
sg11
S'http://www.metacritic.com/critic?filter=movies'
p1769
sg13
(dp1770
g142
F10
ssg16
VPremiere
p1771
sg18
NsbsVScreen International/Fionnuala Halligan
p1772
g3
(g4
g5
NtRp1773
(dp1774
g8
g1772
sg9
VFionnuala Halligan
p1775
sg11
S'http://www.metacritic.com/critic/fionnuala-halligan?filter=movies'
p1776
sg13
(dp1777
g174
F9
sg97
F10
ssg16
VScreen International
p1778
sg18
NsbsVAustin Chronicle/Marjorie Baumgarten
p1779
g3
(g4
g5
NtRp1780
(dp1781
g8
g1779
sg9
VMarjorie Baumgarten
p1782
sg11
S'http://www.metacritic.com/critic/marjorie-baumgarten?filter=movies'
p1783
sg13
(dp1784
g125
F7.7999999999999998
sg33
F8.9000000000000004
sg97
F10
sg289
F5
sg129
F10
sg130
F10
sg541
F7.7999999999999998
sg133
F6.7000000000000002
sg135
F8.9000000000000004
sg174
F7.7999999999999998
sg138
F10
sg139
F6.7000000000000002
sg219
F10
sg131
F5
sg142
F10
sg482
F7.7999999999999998
sg148
F7.7999999999999998
sg273
F8.9000000000000004
sg149
F10
sg154
F10
sg155
F7.7999999999999998
sg180
F10
sg159
F6.7000000000000002
sg160
F8.9000000000000004
sg179
F8.9000000000000004
sg167
F10
sg204
F8.9000000000000004
sg59
F8.9000000000000004
sg98
F8.9000000000000004
sg525
F7.7999999999999998
sg302
F8.9000000000000004
sg80
F8.9000000000000004
sg293
F8.9000000000000004
ssg16
VAustin Chronicle
p1785
sg18
NsbsVVillage Voice/Aaron Cutler
p1786
g3
(g4
g5
NtRp1787
(dp1788
g8
g1786
sg9
VAaron Cutler
p1789
sg11
S'http://www.metacritic.com/critic/aaron-cutler?filter=movies'
p1790
sg13
(dp1791
g293
F9
ssg16
VVillage Voice
p1792
sg18
NsbsVScreenCrush/Britt Hayes
p1793
g3
(g4
g5
NtRp1794
(dp1795
g8
g1793
sg9
VBritt Hayes
p1796
sg11
S'http://www.metacritic.com/critic?filter=movies'
p1797
sg13
(dp1798
g81
F9
ssg16
VScreenCrush
p1799
sg18
NsbsVSan Francisco Chronicle/Peter Hartlaub
p1800
g3
(g4
g5
NtRp1801
(dp1802
g8
g1800
sg9
VPeter Hartlaub
p1803
sg11
S'http://www.metacritic.com/critic/peter-hartlaub?filter=movies'
p1804
sg13
(dp1805
g150
F7.5
sg127
F2.5
sg148
F10
sg171
F10
ssg16
VSan Francisco Chronicle
p1806
sg18
NsbsVScreen International/Anthony Kaufman
p1807
g3
(g4
g5
NtRp1808
(dp1809
g8
g1807
sg9
VAnthony Kaufman
p1810
sg11
S'http://www.metacritic.com/critic?filter=movies'
p1811
sg13
(dp1812
g163
F7
sg137
F5
ssg16
VScreen International
p1813
sg18
NsbsVThe Globe and Mail (Toronto)/Brad Wheeler
p1814
g3
(g4
g5
NtRp1815
(dp1816
g8
g1814
sg9
VBrad Wheeler
p1817
sg11
S'http://www.metacritic.com/critic?filter=movies'
p1818
sg13
(dp1819
g158
F8.8000000000000007
sg204
F8.8000000000000007
ssg16
VThe Globe and Mail (Toronto)
p1820
sg18
NsbsVTV Guide Magazine/Perry Seibert
p1821
g3
(g4
g5
NtRp1822
(dp1823
g8
g1821
sg9
VPerry Seibert
p1824
sg11
S'http://www.metacritic.com/critic?filter=movies'
p1825
sg13
(dp1826
g98
F10
ssg16
VTV Guide Magazine
p1827
sg18
NsbsVChristian Science Monitor/Peter Rainer
p1828
g3
(g4
g5
NtRp1829
(dp1830
g8
g1828
sg9
VPeter Rainer
p1831
sg11
S'http://www.metacritic.com/critic/peter-rainer?filter=movies'
p1832
sg13
(dp1833
g124
F5.7999999999999998
sg125
F7.5
sg33
F10
sg97
F10
sg72
F10
sg289
F5.7999999999999998
sg130
F10
sg131
F5.7999999999999998
sg99
F9.0999999999999996
sg135
F6.7000000000000002
sg79
F7.5
sg43
F8.3000000000000007
sg525
F8.3000000000000007
sg138
F10
sg290
F9.0999999999999996
sg141
F10
sg70
F5
sg228
F10
sg74
F8.3000000000000007
sg100
F7.5
sg143
F10
sg75
F5.7999999999999998
sg482
F8.3000000000000007
sg145
F10
sg146
F9.0999999999999996
sg15
F7.5
sg42
F8.3000000000000007
sg108
F9.0999999999999996
sg128
F10
sg148
F10
sg149
F9.0999999999999996
sg150
F7.5
sg151
F3.2999999999999998
sg69
F7.5
sg152
F6.7000000000000002
sg96
F8.3000000000000007
sg153
F9.0999999999999996
sg156
F8.3000000000000007
sg157
F7.5
sg158
F5.7999999999999998
sg159
F7.5
sg160
F10
sg161
F7.5
sg163
F10
sg76
F8.3000000000000007
sg189
F9.0999999999999996
sg77
F9.0999999999999996
sg166
F7.5
sg229
F7.5
sg168
F5
sg169
F7.5
sg71
F7.5
sg171
F8.3000000000000007
sg291
F7.5
sg172
F8.3000000000000007
sg98
F8.3000000000000007
sg178
F8.3000000000000007
sg176
F10
sg73
F7.5
sg177
F8.3000000000000007
sg68
F9.0999999999999996
sg179
F10
sg80
F7.5
sg81
F5.7999999999999998
sg293
F9.0999999999999996
ssg16
VChristian Science Monitor
p1834
sg18
NsbsVBoston Globe/Peter Keough
p1835
g3
(g4
g5
NtRp1836
(dp1837
g8
g1835
sg9
VPeter Keough
p1838
sg11
S'http://www.metacritic.com/critic/peter-keough?filter=movies'
p1839
sg13
(dp1840
g96
F10
sg72
F10
sg533
F7.5
sg68
F10
sg273
F8.8000000000000007
sg79
F8.8000000000000007
sg81
F8.8000000000000007
ssg16
VBoston Globe
p1841
sg18
NsbsVNew York Magazine (Vulture)/Peter Rainer
p1842
g3
(g4
g5
NtRp1843
(dp1844
g8
g1842
sg9
VPeter Rainer
p1845
sg11
S'http://www.metacritic.com/critic/peter-rainer?filter=movies'
p1846
sg13
(dp1847
g244
F8
sg304
F10
sg155
F10
sg180
F8
sg136
F10
sg541
F5
sg41
F10
sg303
F7
sg165
F9
sg312
F10
sg175
F9
sg544
F8
sg181
F9
ssg16
VNew York Magazine (Vulture)
p1848
sg18
NsbsVFilm Threat/David Grove
p1849
g3
(g4
g5
NtRp1850
(dp1851
g8
g1849
sg9
VDavid Grove
p1852
sg11
S'http://www.metacritic.com/critic/david-grove?filter=movies'
p1853
sg13
(dp1854
g132
F6
ssg16
VFilm Threat
p1855
sg18
NsbsVFilm Threat/Don R. Lewis
p1856
g3
(g4
g5
NtRp1857
(dp1858
g8
g1856
sg9
VDon R. Lewis
p1859
sg11
S'http://www.metacritic.com/critic?filter=movies'
p1860
sg13
(dp1861
g130
F9
sg160
F10
ssg16
VFilm Threat
p1862
sg18
NsbsVSt. Louis Post-Dispatch/Gail Pennington
p1863
g3
(g4
g5
NtRp1864
(dp1865
g8
g1863
sg9
VGail Pennington
p1866
sg11
S'http://www.metacritic.com/critic/gail-pennington?filter=movies'
p1867
sg13
(dp1868
g76
F7.5
ssg16
VSt. Louis Post-Dispatch
p1869
sg18
NsbsVDallas Observer/Staff (Not credited)
p1870
g3
(g4
g5
NtRp1871
(dp1872
g8
g1870
sg9
VStaff (Not credited)
p1873
sg11
S'http://www.metacritic.com/critic?filter=movies'
p1874
sg13
(dp1875
g165
F8
ssg16
VDallas Observer
p1876
sg18
NsbsVThe New Yorker/Pauline Kael
p1877
g3
(g4
g5
NtRp1878
(dp1879
g8
g1877
sg9
VPauline Kael
p1880
sg11
S'http://www.metacritic.com/critic/pauline-kael?filter=movies'
p1881
sg13
(dp1882
g542
F3
ssg16
VThe New Yorker
p1883
sg18
NsbsVThe Globe and Mail (Toronto)/Gayle MacDonald
p1884
g3
(g4
g5
NtRp1885
(dp1886
g8
g1884
sg9
VGayle MacDonald
p1887
sg11
S'http://www.metacritic.com/critic?filter=movies'
p1888
sg13
(dp1889
g151
F5
ssg16
VThe Globe and Mail (Toronto)
p1890
sg18
NsbsVNew York Daily News/Dave Kehr
p1891
g3
(g4
g5
NtRp1892
(dp1893
g8
g1891
sg9
VDave Kehr
p1894
sg11
S'http://www.metacritic.com/critic/dave-kehr?filter=movies'
p1895
sg13
(dp1896
g51
F9
ssg16
VNew York Daily News
p1897
sg18
NsbsVChicago Reader/Staff (not credited)
p1898
g3
(g4
g5
NtRp1899
(dp1900
g8
g1898
sg9
VStaff (not credited)
p1901
sg11
S'http://www.metacritic.com/critic?filter=movies'
p1902
sg13
(dp1903
g171
F10
ssg16
VChicago Reader
p1904
sg18
NsbsVThe Globe and Mail (Toronto)/Staff (Not Credited)
p1905
g3
(g4
g5
NtRp1906
(dp1907
g8
g1905
sg9
VStaff (Not Credited)
p1908
sg11
S'http://www.metacritic.com/critic?filter=movies'
p1909
sg13
(dp1910
g543
F8.8000000000000007
ssg16
VThe Globe and Mail (Toronto)
p1911
sg18
NsbsVFilm.com/Ernest Hardy
p1912
g3
(g4
g5
NtRp1913
(dp1914
g8
g1912
sg9
VErnest Hardy
p1915
sg11
S'http://www.metacritic.com/critic/ernest-hardy?filter=movies'
p1916
sg13
(dp1917
g116
F9
ssg16
VFilm.com
p1918
sg18
NsbsVChicago Reader/Ronnie Scheib
p1919
g3
(g4
g5
NtRp1920
(dp1921
g8
g1919
sg9
VRonnie Scheib
p1922
sg11
S'http://www.metacritic.com/critic/ronnie-scheib?filter=movies'
p1923
sg13
(dp1924
g303
F5
ssg16
VChicago Reader
p1925
sg18
NsbsVTime Out New York/Keith Uhlich
p1926
g3
(g4
g5
NtRp1927
(dp1928
g8
g1926
sg9
VKeith Uhlich
p1929
sg11
S'http://www.metacritic.com/critic/keith-uhlich?filter=movies'
p1930
sg13
(dp1931
g152
F8
sg291
F8
sg157
F8
sg131
F8
sg133
F6
sg178
F6
ssg16
VTime Out New York
p1932
sg18
NsbsVVillage Voice/Ed Gonzalez
p1933
g3
(g4
g5
NtRp1934
(dp1935
g8
g1933
sg9
VEd Gonzalez
p1936
sg11
S'http://www.metacritic.com/critic?filter=movies'
p1937
sg13
(dp1938
g43
F5
ssg16
VVillage Voice
p1939
sg18
NsbsVAustin Chronicle/Steve Davis
p1940
g3
(g4
g5
NtRp1941
(dp1942
g8
g1940
sg9
VSteve Davis
p1943
sg11
S'http://www.metacritic.com/critic/steve-davis?filter=movies'
p1944
sg13
(dp1945
g163
F8.9000000000000004
sg15
F10
sg137
F6.7000000000000002
sg229
F8.9000000000000004
ssg16
VAustin Chronicle
p1946
sg18
NsbsVLos Angeles Times/Kenneth Turan
p1947
g3
(g4
g5
NtRp1948
(dp1949
g8
g1947
sg9
VKenneth Turan
p1950
sg11
S'http://www.metacritic.com/critic/kenneth-turan?filter=movies'
p1951
sg13
(dp1952
g244
F10
sg150
F8
sg33
F10
sg97
F10
sg128
F10
sg130
F9
sg131
F5
sg541
F9
sg126
F8
sg60
F3
sg135
F10
sg79
F9
sg138
F10
sg139
F7
sg301
F9
sg141
F10
sg116
F8
sg74
F10
sg100
F10
sg25
F10
sg430
F9
sg41
F10
sg145
F8
sg312
F9
sg146
F10
sg15
F10
sg42
F9
sg147
F2
sg108
F9
sg148
F10
sg149
F9
sg438
F3
sg152
F5
sg153
F10
sg155
F10
sg156
F10
sg157
F8
sg158
F10
sg159
F6
sg160
F10
sg161
F8
sg162
F8
sg163
F10
sg76
F10
sg189
F10
sg77
F10
sg165
F9
sg166
F10
sg167
F10
sg204
F6
sg303
F4
sg544
F10
sg169
F9
sg171
F10
sg59
F9
sg173
F9
sg98
F10
sg99
F8
sg176
F10
sg124
F10
sg73
F10
sg177
F10
sg178
F10
sg179
F10
sg293
F10
sg80
F10
sg181
F10
ssg16
VLos Angeles Times
p1953
sg18
NsbsVLos Angeles Times/John Anderson
p1954
g3
(g4
g5
NtRp1955
(dp1956
g8
g1954
sg9
VJohn Anderson
p1957
sg11
S'http://www.metacritic.com/critic?filter=movies'
p1958
sg13
(dp1959
g140
F8
ssg16
VLos Angeles Times
p1960
sg18
NsbsVIndiewire/Greg Cwick
p1961
g3
(g4
g5
NtRp1962
(dp1963
g8
g1961
sg9
VGreg Cwick
p1964
sg11
S'http://www.metacritic.com/critic?filter=movies'
p1965
sg13
(dp1966
g293
F10
ssg16
VIndiewire
p1967
sg18
NsbsVThe Globe and Mail (Toronto)/Barry Hertz
p1968
g3
(g4
g5
NtRp1969
(dp1970
g8
g1968
sg9
VBarry Hertz
p1971
sg11
S'http://www.metacritic.com/critic/barry-hertz?filter=movies'
p1972
sg13
(dp1973
g69
F8.8000000000000007
sg70
F8.8000000000000007
sg174
F8.8000000000000007
sg482
F6.2999999999999998
sg80
F8.8000000000000007
sg68
F5
ssg16
VThe Globe and Mail (Toronto)
p1974
sg18
NsbsVFilm.com/James Rocchi
p1975
g3
(g4
g5
NtRp1976
(dp1977
g8
g1975
sg9
VJames Rocchi
p1978
sg11
S'http://www.metacritic.com/critic/james-rocchi?filter=movies'
p1979
sg13
(dp1980
g75
F6.2999999999999998
ssg16
VFilm.com
p1981
sg18
NsbsVFilm.com/Tom Keogh
p1982
g3
(g4
g5
NtRp1983
(dp1984
g8
g1982
sg9
VTom Keogh
p1985
sg11
S'http://www.metacritic.com/critic/tom-keogh?filter=movies'
p1986
sg13
(dp1987
g438
F4
sg140
F8
ssg16
VFilm.com
p1988
sg18
NsbsVChicago Sun-Times/Patrick Z. McGavin
p1989
g3
(g4
g5
NtRp1990
(dp1991
g8
g1989
sg9
VPatrick Z. McGavin
p1992
sg11
S'http://www.metacritic.com/critic?filter=movies'
p1993
sg13
(dp1994
g533
F7.5
ssg16
VChicago Sun-Times
p1995
sg18
NsbsVPremiere/Nick Starkey
p1996
g3
(g4
g5
NtRp1997
(dp1998
g8
g1996
sg9
VNick Starkey
p1999
sg11
S'http://www.metacritic.com/critic?filter=movies'
p2000
sg13
(dp2001
g178
F10
ssg16
VPremiere
p2002
sg18
NsbsVVillage Voice/Danny King
p2003
g3
(g4
g5
NtRp2004
(dp2005
g8
g2003
sg9
VDanny King
p2006
sg11
S'http://www.metacritic.com/critic/danny-king?filter=movies'
p2007
sg13
(dp2008
g150
F8
ssg16
VVillage Voice
p2009
sg18
NsbsVChicago Reader/Lisa Alspector
p2010
g3
(g4
g5
NtRp2011
(dp2012
g8
g2010
sg9
VLisa Alspector
p2013
sg11
S'http://www.metacritic.com/critic/lisa-alspector?filter=movies'
p2014
sg13
(dp2015
g140
F8
ssg16
VChicago Reader
p2016
sg18
NsbsVUSA Today/Brian Truitt
p2017
g3
(g4
g5
NtRp2018
(dp2019
g8
g2017
sg9
VBrian Truitt
p2020
sg11
S'http://www.metacritic.com/critic?filter=movies'
p2021
sg13
(dp2022
g150
F6.2999999999999998
sg97
F10
sg172
F8.8000000000000007
sg70
F7.5
sg76
F8.8000000000000007
sg80
F10
sg68
F7.5
ssg16
VUSA Today
p2023
sg18
NsbsVThe Dissolve/Nathan Rabin
p2024
g3
(g4
g5
NtRp2025
(dp2026
g8
g2024
sg9
VNathan Rabin
p2027
sg11
S'http://www.metacritic.com/critic/nathan-rabin?filter=movies'
p2028
sg13
(dp2029
g533
F8
ssg16
VThe Dissolve
p2030
sg18
NsbsVThe Guardian/Andrew Pulver
p2031
g3
(g4
g5
NtRp2032
(dp2033
g8
g2031
sg9
VAndrew Pulver
p2034
sg11
S'http://www.metacritic.com/critic/andrew-pulver?filter=movies'
p2035
sg13
(dp2036
g108
F8
sg156
F8
sg482
F8
ssg16
VThe Guardian
p2037
sg18
NsbsVThe Verge/Chris Plante
p2038
g3
(g4
g5
NtRp2039
(dp2040
g8
g2038
sg9
VChris Plante
p2041
sg11
S'http://www.metacritic.com/critic?filter=movies'
p2042
sg13
(dp2043
g97
F9.5
ssg16
VThe Verge
p2044
sg18
NsbsVThe Hollywood Reporter/Sura Wood
p2045
g3
(g4
g5
NtRp2046
(dp2047
g8
g2045
sg9
VSura Wood
p2048
sg11
S'http://www.metacritic.com/critic?filter=movies'
p2049
sg13
(dp2050
g161
F6
ssg16
VThe Hollywood Reporter
p2051
sg18
NsbsVHitfix/Catherine Bray
p2052
g3
(g4
g5
NtRp2053
(dp2054
g8
g2052
sg9
VCatherine Bray
p2055
sg11
S'http://www.metacritic.com/critic?filter=movies'
p2056
sg13
(dp2057
g75
F9.0999999999999996
ssg16
VHitfix
p2058
sg18
NsbsVTotal Film/Kevin Harley
p2059
g3
(g4
g5
NtRp2060
(dp2061
g8
g2059
sg9
VKevin Harley
p2062
sg11
S'http://www.metacritic.com/critic/kevin-harley?filter=movies'
p2063
sg13
(dp2064
g172
F8
sg167
F10
ssg16
VTotal Film
p2065
sg18
NsbsVThe Guardian/Xan Brooks
p2066
g3
(g4
g5
NtRp2067
(dp2068
g8
g2066
sg9
VXan Brooks
p2069
sg11
S'http://www.metacritic.com/critic/xan-brooks?filter=movies'
p2070
sg13
(dp2071
g71
F8
sg72
F8
sg128
F10
sg158
F8
sg74
F8
sg75
F6
sg78
F10
ssg16
VThe Guardian
p2072
sg18
NsbsVWashington Post/Ann Hornaday
p2073
g3
(g4
g5
NtRp2074
(dp2075
g8
g2073
sg9
VAnn Hornaday
p2076
sg11
S'http://www.metacritic.com/critic/ann-hornaday?filter=movies'
p2077
sg13
(dp2078
g124
F10
sg125
F6.2999999999999998
sg97
F10
sg72
F10
sg289
F7.5
sg130
F10
sg131
F3.7999999999999998
sg133
F5
sg135
F10
sg79
F7.5
sg43
F7
sg137
F10
sg141
F10
sg70
F6.2999999999999998
sg228
F10
sg74
F10
sg100
F10
sg75
F10
sg482
F8.8000000000000007
sg145
F10
sg15
F10
sg108
F6.2999999999999998
sg128
F6.2999999999999998
sg148
F10
sg149
F10
sg150
F8.8000000000000007
sg151
F2.5
sg152
F5
sg156
F7.5
sg157
F7.5
sg158
F8.8000000000000007
sg96
F8.8000000000000007
sg161
F9
sg163
F10
sg76
F10
sg189
F10
sg77
F10
sg166
F8.8000000000000007
sg167
F10
sg168
F7.5
sg169
F10
sg71
F10
sg291
F7.5
sg172
F6.2999999999999998
sg173
F5
sg98
F10
sg525
F10
sg176
F9
sg73
F10
sg177
F10
sg178
F7.5
sg179
F7
sg180
F9
sg80
F10
sg68
F7.5
sg293
F7.5
ssg16
VWashington Post
p2079
sg18
NsbsVNPR/Mark Jenkins
p2080
g3
(g4
g5
NtRp2081
(dp2082
g8
g2080
sg9
VMark Jenkins
p2083
sg11
S'http://www.metacritic.com/critic/mark-jenkins?filter=movies'
p2084
sg13
(dp2085
g291
F7
ssg16
VNPR
p2086
sg18
NsbsVIndiewire/Adam Cook
p2087
g3
(g4
g5
NtRp2088
(dp2089
g8
g2087
sg9
VAdam Cook
p2090
sg11
S'http://www.metacritic.com/critic?filter=movies'
p2091
sg13
(dp2092
g290
F4.2000000000000002
ssg16
VIndiewire
p2093
sg18
NsbsVTNT RoughCut/Graham Verdon
p2094
g3
(g4
g5
NtRp2095
(dp2096
g8
g2094
sg9
VGraham Verdon
p2097
sg11
S'http://www.metacritic.com/critic?filter=movies'
p2098
sg13
(dp2099
g116
F4
ssg16
VTNT RoughCut
p2100
sg18
NsbsVEmpire/Angie Errigo
p2101
g3
(g4
g5
NtRp2102
(dp2103
g8
g2101
sg9
VAngie Errigo
p2104
sg11
S'http://www.metacritic.com/critic/angie-errigo?filter=movies'
p2105
sg13
(dp2106
g142
F10
sg163
F8
sg139
F8
ssg16
VEmpire
p2107
sg18
NsbsVConsequence of Sound/Dominick Suzanne-Mayer
p2108
g3
(g4
g5
NtRp2109
(dp2110
g8
g2108
sg9
VDominick Suzanne-Mayer
p2111
sg11
S'http://www.metacritic.com/critic/dominick-suzanne-mayer?filter=movies'
p2112
sg13
(dp2113
g150
F5.7999999999999998
sg15
F10
sg137
F4.2000000000000002
sg100
F9.0999999999999996
ssg16
VConsequence of Sound
p2114
sg18
NsbsVNew Times (L.A.)/Gregory Weinkauf
p2115
g3
(g4
g5
NtRp2116
(dp2117
g8
g2115
sg9
VGregory Weinkauf
p2118
sg11
S'http://www.metacritic.com/critic/gregory-weinkauf?filter=movies'
p2119
sg13
(dp2120
g304
F7
sg544
F9
ssg16
VNew Times (L.A.)
p2121
sg18
NsbsVEmpire/Phil de Semlyen
p2122
g3
(g4
g5
NtRp2123
(dp2124
g8
g2122
sg9
VPhil de Semlyen
p2125
sg11
S'http://www.metacritic.com/critic/phil-de-semlyen?filter=movies'
p2126
sg13
(dp2127
g228
F10
sg97
F10
ssg16
VEmpire
p2128
sg18
NsbsVChicago Tribune/Dave Kehr
p2129
g3
(g4
g5
NtRp2130
(dp2131
g8
g2129
sg9
VDave Kehr
p2132
sg11
S'http://www.metacritic.com/critic/dave-kehr?filter=movies'
p2133
sg13
(dp2134
g542
F8.8000000000000007
ssg16
VChicago Tribune
p2135
sg18
NsbsVSlant Magazine/Steve Macfarlane
p2136
g3
(g4
g5
NtRp2137
(dp2138
g8
g2136
sg9
VSteve Macfarlane
p2139
sg11
S'http://www.metacritic.com/critic/steve-macfarlane?filter=movies'
p2140
sg13
(dp2141
g167
F7.5
ssg16
VSlant Magazine
p2142
sg18
NsbsVWe Got This Covered/Sam Woolf
p2143
g3
(g4
g5
NtRp2144
(dp2145
g8
g2143
sg9
VSam Woolf
p2146
sg11
S'http://www.metacritic.com/critic?filter=movies'
p2147
sg13
(dp2148
g174
F8
ssg16
VWe Got This Covered
p2149
sg18
NsbsVWashington Post/Desson Thomson
p2150
g3
(g4
g5
NtRp2151
(dp2152
g8
g2150
sg9
VDesson Thomson
p2153
sg11
S'http://www.metacritic.com/critic/desson-thomson?filter=movies'
p2154
sg13
(dp2155
g541
F9
sg132
F8
sg60
F4
sg134
F6
sg542
F10
sg139
F8
sg301
F9
sg136
F10
sg142
F10
sg41
F10
sg312
F9
sg162
F9
sg144
F7
sg42
F10
sg147
F8
sg438
F3
sg126
F8
sg155
F10
sg164
F6
sg165
F9
sg303
F10
sg544
F10
sg304
F9
sg51
F8
sg171
F9
sg59
F7
sg173
F9
sg140
F9
sg474
F4
sg175
F10
sg181
F8
ssg16
VWashington Post
p2156
sg18
NsbsVPortland Oregonian/Jeff Baker
p2157
g3
(g4
g5
NtRp2158
(dp2159
g8
g2157
sg9
VJeff Baker
p2160
sg11
S'http://www.metacritic.com/critic/jeff-baker?filter=movies'
p2161
sg13
(dp2162
g71
F8.3000000000000007
sg172
F6.7000000000000002
sg533
F9.0999999999999996
sg174
F9.0999999999999996
sg525
F9.0999999999999996
sg163
F8.3000000000000007
sg167
F10
sg108
F9.0999999999999996
sg80
F10
ssg16
VPortland Oregonian
p2163
sg18
NsbsVSlant Magazine/John Semley
p2164
g3
(g4
g5
NtRp2165
(dp2166
g8
g2164
sg9
VJohn Semley
p2167
sg11
S'http://www.metacritic.com/critic?filter=movies'
p2168
sg13
(dp2169
g124
F7.5
sg125
F6.2999999999999998
ssg16
VSlant Magazine
p2170
sg18
NsbsVVariety/Lisa Nesselson
p2171
g3
(g4
g5
NtRp2172
(dp2173
g8
g2171
sg9
VLisa Nesselson
p2174
sg11
S'http://www.metacritic.com/critic/lisa-nesselson?filter=movies'
p2175
sg13
(dp2176
g302
F9
sg164
F9
sg303
F8
ssg16
VVariety
p2177
sg18
NsbsVTheWrap/Ben Croll
p2178
g3
(g4
g5
NtRp2179
(dp2180
g8
g2178
sg9
VBen Croll
p2181
sg11
S'http://www.metacritic.com/critic/ben-croll?filter=movies'
p2182
sg13
(dp2183
g96
F8
ssg16
VTheWrap
p2184
sg18
NsbsVThe Globe and Mail (Toronto)/Rick Groen
p2185
g3
(g4
g5
NtRp2186
(dp2187
g8
g2185
sg9
VRick Groen
p2188
sg11
S'http://www.metacritic.com/critic/rick-groen?filter=movies'
p2189
sg13
(dp2190
g244
F6.2999999999999998
sg133
F7.5
sg60
F3.7999999999999998
sg135
F10
sg43
F6.2999999999999998
sg138
F8.8000000000000007
sg180
F7.5
sg143
F8.8000000000000007
sg145
F7.5
sg42
F8.8000000000000007
sg147
F3.7999999999999998
sg148
F10
sg152
F5
sg155
F7.5
sg157
F7.5
sg159
F7.5
sg160
F10
sg161
F6.2999999999999998
sg179
F7.5
sg164
F7.5
sg166
F7.5
sg168
F8.8000000000000007
sg169
F8.8000000000000007
sg291
F7.5
sg59
F8.8000000000000007
sg177
F8.8000000000000007
sg178
F7.5
sg302
F8.8000000000000007
ssg16
VThe Globe and Mail (Toronto)
p2191
sg18
NsbsVRogerEbert.com/Sheila O'Malley
p2192
g3
(g4
g5
NtRp2193
(dp2194
g8
g2192
sg9
VSheila O'Malley
p2195
sg11
S'http://www.metacritic.com/critic/sheila-omalley?filter=movies'
p2196
sg13
(dp2197
g172
F3.7999999999999998
sg80
F8.8000000000000007
sg482
F7.5
sg167
F8.8000000000000007
sg137
F3.7999999999999998
sg81
F8.8000000000000007
ssg16
VRogerEbert.com
p2198
sg18
NsbsVThe A.V. Club/Nathan Rabin
p2199
g3
(g4
g5
NtRp2200
(dp2201
g8
g2199
sg9
VNathan Rabin
p2202
sg11
S'http://www.metacritic.com/critic/nathan-rabin?filter=movies'
p2203
sg13
(dp2204
g125
F9.0999999999999996
sg126
F10
sg151
F7.5
sg143
F8
sg132
F7
sg145
F8.3000000000000007
sg149
F10
sg181
F9
sg168
F10
sg139
F5
ssg16
VThe A.V. Club
p2205
sg18
NsbsVThe A.V. Club/Mike D'Angelo
p2206
g3
(g4
g5
NtRp2207
(dp2208
g8
g2206
sg9
VMike D'Angelo
p2209
sg11
S'http://www.metacritic.com/critic/mike-dangelo?filter=movies'
p2210
sg13
(dp2211
g96
F8.3000000000000007
sg290
F5
sg72
F7.5
sg289
F6.7000000000000002
sg228
F8.3000000000000007
sg533
F7.5
sg204
F5
sg167
F9.0999999999999996
sg99
F8.3000000000000007
sg174
F10
sg68
F9.0999999999999996
ssg16
VThe A.V. Club
p2212
sg18
NsbsVFilm Threat/Staff (Not credited)
p2213
g3
(g4
g5
NtRp2214
(dp2215
g8
g2213
sg9
VStaff (Not credited)
p2216
sg11
S'http://www.metacritic.com/critic?filter=movies'
p2217
sg13
(dp2218
g244
F6
ssg16
VFilm Threat
p2219
sg18
NsbsVSeattle Post-Intelligencer/William Arnold
p2220
g3
(g4
g5
NtRp2221
(dp2222
g8
g2220
sg9
VWilliam Arnold
p2223
sg11
S'http://www.metacritic.com/critic/william-arnold?filter=movies'
p2224
sg13
(dp2225
g134
F2.5
sg139
F10
sg301
F10
sg116
F8.3000000000000007
sg136
F10
sg143
F8.3000000000000007
sg41
F10
sg145
F5
sg147
F5.7999999999999998
sg148
F6.7000000000000002
sg149
F10
sg438
F4.2000000000000002
sg126
F7.5
sg155
F8.3000000000000007
sg180
F7.5
sg159
F9.0999999999999996
sg161
F10
sg164
F7.5
sg303
F10
sg544
F9.0999999999999996
sg170
F5.7999999999999998
sg173
F9.0999999999999996
sg140
F10
sg179
F9.0999999999999996
sg474
F4.2000000000000002
sg175
F6.7000000000000002
ssg16
VSeattle Post-Intelligencer
p2226
sg18
NsbsVCineVue/Joe Walsh
p2227
g3
(g4
g5
NtRp2228
(dp2229
g8
g2227
sg9
VJoe Walsh
p2230
sg11
S'http://www.metacritic.com/critic/joe-walsh?filter=movies'
p2231
sg13
(dp2232
g76
F8
sg15
F10
ssg16
VCineVue
p2233
sg18
NsbsVVillage Voice/J. Hoberman
p2234
g3
(g4
g5
NtRp2235
(dp2236
g8
g2234
sg9
VJ. Hoberman
p2237
sg11
S'http://www.metacritic.com/critic/j-hoberman?filter=movies'
p2238
sg13
(dp2239
g244
F7
sg288
F8
sg130
F10
sg541
F9
sg126
F4
sg138
F8
sg301
F4
sg116
F8
sg136
F7
sg143
F7
sg41
F8
sg145
F9
sg42
F7
sg149
F10
sg152
F9
sg155
F9
sg180
F9
sg159
F8
sg148
F9
sg303
F7
sg544
F8
sg304
F4
sg176
F10
sg177
F7
sg178
F7
sg179
F7
sg175
F7
sg181
F9
ssg16
VVillage Voice
p2240
sg18
NsbsVScreen International/David D'Arcy
p2241
g3
(g4
g5
NtRp2242
(dp2243
g8
g2241
sg9
VDavid D'Arcy
p2244
sg11
S'http://www.metacritic.com/critic/david-darcy?filter=movies'
p2245
sg13
(dp2246
g25
F7
ssg16
VScreen International
p2247
sg18
NsbsVThe Film Stage/Rory O'Connor
p2248
g3
(g4
g5
NtRp2249
(dp2250
g8
g2248
sg9
VRory O'Connor
p2251
sg11
S'http://www.metacritic.com/critic/rory-oconnor?filter=movies'
p2252
sg13
(dp2253
g69
F10
ssg16
VThe Film Stage
p2254
sg18
NsbsVFilm Threat/Zach Haddad
p2255
g3
(g4
g5
NtRp2256
(dp2257
g8
g2255
sg9
VZach Haddad
p2258
sg11
S'http://www.metacritic.com/critic?filter=movies'
p2259
sg13
(dp2260
g127
F6
ssg16
VFilm Threat
p2261
sg18
NsbsVConsequence of Sound/Collin Brennan
p2262
g3
(g4
g5
NtRp2263
(dp2264
g8
g2262
sg9
VCollin Brennan
p2265
sg11
S'http://www.metacritic.com/critic/collin-brennan?filter=movies'
p2266
sg13
(dp2267
g482
F5
ssg16
VConsequence of Sound
p2268
sg18
NsbsVThe Globe and Mail (Toronto)/Geoff Pevere
p2269
g3
(g4
g5
NtRp2270
(dp2271
g8
g2269
sg9
VGeoff Pevere
p2272
sg11
S'http://www.metacritic.com/critic?filter=movies'
p2273
sg13
(dp2274
g108
F7.5
ssg16
VThe Globe and Mail (Toronto)
p2275
sg18
NsbsVBoxoffice Magazine/Pete Hammond
p2276
g3
(g4
g5
NtRp2277
(dp2278
g8
g2276
sg9
VPete Hammond
p2279
sg11
S'http://www.metacritic.com/critic/pete-hammond?filter=movies'
p2280
sg13
(dp2281
g166
F10
sg157
F9
sg169
F8
sg133
F9
sg177
F10
ssg16
VBoxoffice Magazine
p2282
sg18
NsbsVThe Hollywood Reporter/John DeFore
p2283
g3
(g4
g5
NtRp2284
(dp2285
g8
g2283
sg9
VJohn DeFore
p2286
sg11
S'http://www.metacritic.com/critic/john-defore?filter=movies'
p2287
sg13
(dp2288
g172
F10
sg533
F8
sg149
F10
ssg16
VThe Hollywood Reporter
p2289
sg18
NsbsVEntertainment Weekly/Joe McGovern
p2290
g3
(g4
g5
NtRp2291
(dp2292
g8
g2290
sg9
VJoe McGovern
p2293
sg11
S'http://www.metacritic.com/critic?filter=movies'
p2294
sg13
(dp2295
g33
F9.0999999999999996
sg228
F8.3000000000000007
sg96
F10
sg99
F9.0999999999999996
ssg16
VEntertainment Weekly
p2296
sg18
NsbsVScreenCrush/Jordan Hoffman
p2297
g3
(g4
g5
NtRp2298
(dp2299
g8
g2297
sg9
VJordan Hoffman
p2300
sg11
S'http://www.metacritic.com/critic?filter=movies'
p2301
sg13
(dp2302
g15
F10
ssg16
VScreenCrush
p2303
sg18
NsbsVThe Hollywood Reporter/Todd McCarthy
p2304
g3
(g4
g5
NtRp2305
(dp2306
g8
g2304
sg9
VTodd McCarthy
p2307
sg11
S'http://www.metacritic.com/critic/todd-mccarthy?filter=movies'
p2308
sg13
(dp2309
g124
F10
sg125
F8
sg97
F9
sg128
F10
sg131
F6
sg174
F10
sg141
F9
sg70
F5
sg74
F10
sg25
F6
sg75
F10
sg15
F9
sg150
F9
sg156
F9
sg157
F9
sg158
F10
sg163
F10
sg76
F9
sg77
F10
sg167
F9
sg169
F8
sg71
F7
sg99
F8
sg73
F8
sg80
F6
sg293
F10
ssg16
VThe Hollywood Reporter
p2310
sg18
NsbsVWall Street Journal/John Anderson
p2311
g3
(g4
g5
NtRp2312
(dp2313
g8
g2311
sg9
VJohn Anderson
p2314
sg11
S'http://www.metacritic.com/critic/john-anderson?filter=movies'
p2315
sg13
(dp2316
g166
F5
sg99
F8
ssg16
VWall Street Journal
p2317
sg18
NsbsVFilm Threat/Stina Chyn
p2318
g3
(g4
g5
NtRp2319
(dp2320
g8
g2318
sg9
VStina Chyn
p2321
sg11
S'http://www.metacritic.com/critic?filter=movies'
p2322
sg13
(dp2323
g43
F8
sg181
F8
ssg16
VFilm Threat
p2324
sg18
NsbsVDallas Observer/Gregory Weinkauf
p2325
g3
(g4
g5
NtRp2326
(dp2327
g8
g2325
sg9
VGregory Weinkauf
p2328
sg11
S'http://www.metacritic.com/critic/gregory-weinkauf?filter=movies'
p2329
sg13
(dp2330
g129
F10
sg136
F9
sg41
F10
sg181
F4
ssg16
VDallas Observer
p2331
sg18
NsbsVVariety/Owen Gleiberman
p2332
g3
(g4
g5
NtRp2333
(dp2334
g8
g2332
sg9
VOwen Gleiberman
p2335
sg11
S'http://www.metacritic.com/critic/owen-gleiberman?filter=movies'
p2336
sg13
(dp2337
g96
F10
sg70
F9
ssg16
VVariety
p2338
sg18
NsbsVLos Angeles Times/Mark Olsen
p2339
g3
(g4
g5
NtRp2340
(dp2341
g8
g2339
sg9
VMark Olsen
p2342
sg11
S'http://www.metacritic.com/critic/mark-olsen?filter=movies'
p2343
sg13
(dp2344
g174
F9
ssg16
VLos Angeles Times
p2345
sg18
NsbsVFilm Threat/Ross Williams
p2346
g3
(g4
g5
NtRp2347
(dp2348
g8
g2346
sg9
VRoss Williams
p2349
sg11
S'http://www.metacritic.com/critic/ross-williams?filter=movies'
p2350
sg13
(dp2351
g303
F10
ssg16
VFilm Threat
p2352
sg18
NsbsVEmpire/Simon Braund
p2353
g3
(g4
g5
NtRp2354
(dp2355
g8
g2353
sg9
VSimon Braund
p2356
sg11
S'http://www.metacritic.com/critic?filter=movies'
p2357
sg13
(dp2358
g147
F4
sg144
F8
ssg16
VEmpire
p2359
sg18
NsbsVThe Globe and Mail (Toronto)/John Semley
p2360
g3
(g4
g5
NtRp2361
(dp2362
g8
g2360
sg9
VJohn Semley
p2363
sg11
S'http://www.metacritic.com/critic/john-semley?filter=movies'
p2364
sg13
(dp2365
g525
F2.5
ssg16
VThe Globe and Mail (Toronto)
p2366
sg18
NsbsVThe Playlist/Russ Fischer
p2367
g3
(g4
g5
NtRp2368
(dp2369
g8
g2367
sg9
VRuss Fischer
p2370
sg11
S'http://www.metacritic.com/critic/russ-fischer?filter=movies'
p2371
sg13
(dp2372
g70
F9.0999999999999996
sg137
F5
ssg16
VThe Playlist
p2373
sg18
NsbsVTheWrap/Alonso Duralde
p2374
g3
(g4
g5
NtRp2375
(dp2376
g8
g2374
sg9
VAlonso Duralde
p2377
sg11
S'http://www.metacritic.com/critic/alonso-duralde?filter=movies'
p2378
sg13
(dp2379
g289
F6.5999999999999996
sg70
F7.2000000000000002
sg174
F8.5
sg533
F9
sg80
F9.5
sg525
F8
sg75
F9
sg163
F8.5
sg76
F8.9000000000000004
sg189
F8.5
sg167
F9.5
sg137
F9
sg229
F9.1999999999999993
ssg16
VTheWrap
p2380
sg18
NsbsVNewsweek/Jack Kroll
p2381
g3
(g4
g5
NtRp2382
(dp2383
g8
g2381
sg9
VJack Kroll
p2384
sg11
S'http://www.metacritic.com/critic?filter=movies'
p2385
sg13
(dp2386
g542
F10
sg126
F8
ssg16
VNewsweek
p2387
sg18
NsbsVPremiere/Staff (Not credited)
p2388
g3
(g4
g5
NtRp2389
(dp2390
g8
g2388
sg9
VStaff (Not credited)
p2391
sg11
S'http://www.metacritic.com/critic?filter=movies'
p2392
sg13
(dp2393
g166
F8.8000000000000007
sg98
F8.8000000000000007
ssg16
VPremiere
p2394
sg18
NsbsVVillage Voice/April Wolfe
p2395
g3
(g4
g5
NtRp2396
(dp2397
g8
g2395
sg9
VApril Wolfe
p2398
sg11
S'http://www.metacritic.com/critic/april-wolfe?filter=movies'
p2399
sg13
(dp2400
g97
F10
ssg16
VVillage Voice
p2401
sg18
NsbsVThe Hollywood Reporter/Deborah Young
p2402
g3
(g4
g5
NtRp2403
(dp2404
g8
g2402
sg9
VDeborah Young
p2405
sg11
S'http://www.metacritic.com/critic/deborah-young?filter=movies'
p2406
sg13
(dp2407
g69
F9
sg290
F5
sg288
F7
sg72
F8
sg96
F8
sg78
F8
sg135
F10
sg79
F9
sg138
F9
ssg16
VThe Hollywood Reporter
p2408
sg18
NsbsVTheWrap/Inkoo Kang
p2409
g3
(g4
g5
NtRp2410
(dp2411
g8
g2409
sg9
VInkoo Kang
p2412
sg11
S'http://www.metacritic.com/critic/inkoo-kang?filter=movies'
p2413
sg13
(dp2414
g33
F9
sg100
F10
sg172
F5.5
sg204
F7.5
ssg16
VTheWrap
p2415
sg18
NsbsVHitfix/Drew McWeeny
p2416
g3
(g4
g5
NtRp2417
(dp2418
g8
g2416
sg9
VDrew McWeeny
p2419
sg11
S'http://www.metacritic.com/critic/drew-mcweeny?filter=movies'
p2420
sg13
(dp2421
g150
F5
sg71
F10
sg97
F10
sg156
F10
sg70
F8.3000000000000007
sg76
F10
sg229
F10
sg68
F10
ssg16
VHitfix
p2422
sg18
NsbsVEmpire/David Hughes
p2423
g3
(g4
g5
NtRp2424
(dp2425
g8
g2423
sg9
VDavid Hughes
p2426
sg11
S'http://www.metacritic.com/critic/david-hughes?filter=movies'
p2427
sg13
(dp2428
g244
F8
sg135
F10
sg78
F8
sg108
F10
sg293
F8
ssg16
VEmpire
p2429
sg18
NsbsVThe Playlist/Drew Taylor
p2430
g3
(g4
g5
NtRp2431
(dp2432
g8
g2430
sg9
VDrew Taylor
p2433
sg11
S'http://www.metacritic.com/critic/drew-taylor?filter=movies'
p2434
sg13
(dp2435
g169
F5
sg533
F7.5
ssg16
VThe Playlist
p2436
sg18
NsbsVChicago Reader/Dave Kehr
p2437
g3
(g4
g5
NtRp2438
(dp2439
g8
g2437
sg9
VDave Kehr
p2440
sg11
S'http://www.metacritic.com/critic/dave-kehr?filter=movies'
p2441
sg13
(dp2442
g219
F10
sg154
F2
ssg16
VChicago Reader
p2443
sg18
NsbsVSlant Magazine/Chris Cabin
p2444
g3
(g4
g5
NtRp2445
(dp2446
g8
g2444
sg9
VChris Cabin
p2447
sg11
S'http://www.metacritic.com/critic/chris-cabin?filter=movies'
p2448
sg13
(dp2449
g289
F6.2999999999999998
sg71
F10
sg77
F8.8000000000000007
sg293
F7.5
ssg16
VSlant Magazine
p2450
sg18
NsbsVThe Globe and Mail (Toronto)/Ray Conlogue
p2451
g3
(g4
g5
NtRp2452
(dp2453
g8
g2451
sg9
VRay Conlogue
p2454
sg11
S'http://www.metacritic.com/critic/ray-conlogue?filter=movies'
p2455
sg13
(dp2456
g132
F7.5
ssg16
VThe Globe and Mail (Toronto)
p2457
sg18
NsbsVEmpire/Liz Beardsworth
p2458
g3
(g4
g5
NtRp2459
(dp2460
g8
g2458
sg9
VLiz Beardsworth
p2461
sg11
S'http://www.metacritic.com/critic?filter=movies'
p2462
sg13
(dp2463
g482
F8
sg204
F10
ssg16
VEmpire
p2464
sg18
NsbsVChicago Tribune/Tasha Robinson
p2465
g3
(g4
g5
NtRp2466
(dp2467
g8
g2465
sg9
VTasha Robinson
p2468
sg11
S'http://www.metacritic.com/critic?filter=movies'
p2469
sg13
(dp2470
g302
F8.8000000000000007
ssg16
VChicago Tribune
p2471
sg18
NsbsVThe Playlist/Rodrigo Perez
p2472
g3
(g4
g5
NtRp2473
(dp2474
g8
g2472
sg9
VRodrigo Perez
p2475
sg11
S'http://www.metacritic.com/critic/rodrigo-perez?filter=movies'
p2476
sg13
(dp2477
g124
F8.3000000000000007
sg125
F4.2000000000000002
sg71
F8.3000000000000007
sg141
F9.0999999999999996
sg172
F9.0999999999999996
sg131
F8.3000000000000007
sg163
F10
sg79
F8.3000000000000007
sg108
F9.0999999999999996
sg525
F8.3000000000000007
sg68
F8.3000000000000007
ssg16
VThe Playlist
p2478
sg18
NsbsVTNT RoughCut/Christopher Brandon
p2479
g3
(g4
g5
NtRp2480
(dp2481
g8
g2479
sg9
VChristopher Brandon
p2482
sg11
S'http://www.metacritic.com/critic/christopher-brandon?filter=movies'
p2483
sg13
(dp2484
g301
F10
sg126
F7
ssg16
VTNT RoughCut
p2485
sg18
NsbsVThe Seattle Times/Michael Upchurch
p2486
g3
(g4
g5
NtRp2487
(dp2488
g8
g2486
sg9
VMichael Upchurch
p2489
sg11
S'http://www.metacritic.com/critic?filter=movies'
p2490
sg13
(dp2491
g99
F7.5
ssg16
VThe Seattle Times
p2492
sg18
NsbsVVillage Voice/Stephanie Zacharek
p2493
g3
(g4
g5
NtRp2494
(dp2495
g8
g2493
sg9
VStephanie Zacharek
p2496
sg11
S'http://www.metacritic.com/critic/stephanie-zacharek?filter=movies'
p2497
sg13
(dp2498
g71
F9
sg141
F4
sg172
F7
sg228
F9
sg74
F10
sg533
F8
sg80
F10
sg75
F7
sg15
F8
sg77
F10
sg167
F8
sg108
F9
sg289
F9
sg229
F9
ssg16
VVillage Voice
p2499
sg18
NsbsVThe Globe and Mail (Toronto)/Nathalie Atkinson 
p2500
g3
(g4
g5
NtRp2501
(dp2502
g8
g2500
sg9
VNathalie Atkinson 
p2503
sg11
S'http://www.metacritic.com/critic?filter=movies'
p2504
sg13
(dp2505
g533
F7.5
ssg16
VThe Globe and Mail (Toronto)
p2506
sg18
NsbsVPremiere/Eric Kohn
p2507
g3
(g4
g5
NtRp2508
(dp2509
g8
g2507
sg9
VEric Kohn
p2510
sg11
S'http://www.metacritic.com/critic?filter=movies'
p2511
sg13
(dp2512
g153
F7.5
ssg16
VPremiere
p2513
sg18
NsbsVEmpire/Staff (Not credited)
p2514
g3
(g4
g5
NtRp2515
(dp2516
g8
g2514
sg9
VStaff (Not credited)
p2517
sg11
S'http://www.metacritic.com/critic?filter=movies'
p2518
sg13
(dp2519
g179
F10
sg189
F8
ssg16
VEmpire
p2520
sg18
NsbsVLos Angeles Times/Michael Ordona
p2521
g3
(g4
g5
NtRp2522
(dp2523
g8
g2521
sg9
VMichael Ordona
p2524
sg11
S'http://www.metacritic.com/critic?filter=movies'
p2525
sg13
(dp2526
g127
F5
ssg16
VLos Angeles Times
p2527
sg18
NsbsVScreen International/Tim Grierson
p2528
g3
(g4
g5
NtRp2529
(dp2530
g8
g2528
sg9
VTim Grierson
p2531
sg11
S'http://www.metacritic.com/critic/tim-grierson?filter=movies'
p2532
sg13
(dp2533
g150
F7
sg172
F7
sg15
F8
sg80
F7
sg167
F9
ssg16
VScreen International
p2534
sg18
NsbsVThe A.V. Club/Scott Tobias
p2535
g3
(g4
g5
NtRp2536
(dp2537
g8
g2535
sg9
VScott Tobias
p2538
sg11
S'http://www.metacritic.com/critic/scott-tobias?filter=movies'
p2539
sg13
(dp2540
g244
F8
sg124
F10
sg291
F9.0999999999999996
sg155
F9
sg128
F10
sg180
F9
sg158
F9.0999999999999996
sg159
F7.5
sg288
F9.0999999999999996
sg176
F10
sg166
F9.0999999999999996
sg133
F7.5
sg164
F6
sg134
F5
sg135
F10
sg161
F9.0999999999999996
sg175
F7
sg138
F10
sg178
F5
ssg16
VThe A.V. Club
p2541
sg18
NsbsVFilm Threat/Zack Haddad
p2542
g3
(g4
g5
NtRp2543
(dp2544
g8
g2542
sg9
VZack Haddad
p2545
sg11
S'http://www.metacritic.com/critic?filter=movies'
p2546
sg13
(dp2547
g149
F10
ssg16
VFilm Threat
p2548
sg18
NsbsVChicago Sun-Times/Mary Houlihan
p2549
g3
(g4
g5
NtRp2550
(dp2551
g8
g2549
sg9
VMary Houlihan
p2552
sg11
S'http://www.metacritic.com/critic/mary-houlihan?filter=movies'
p2553
sg13
(dp2554
g33
F7.5
ssg16
VChicago Sun-Times
p2555
sg18
NsbsVFilm.com/John Hartl
p2556
g3
(g4
g5
NtRp2557
(dp2558
g8
g2556
sg9
VJohn Hartl
p2559
sg11
S'http://www.metacritic.com/critic/john-hartl?filter=movies'
p2560
sg13
(dp2561
g219
F10
sg140
F8
sg59
F10
ssg16
VFilm.com
p2562
sg18
NsbsVMTV News/Amy Nicholson
p2563
g3
(g4
g5
NtRp2564
(dp2565
g8
g2563
sg9
VAmy Nicholson
p2566
sg11
S'http://www.metacritic.com/critic/amy-nicholson?filter=movies'
p2567
sg13
(dp2568
g150
F5
sg137
F6.7000000000000002
sg97
F6.7000000000000002
ssg16
VMTV News
p2569
sg18
NsbsVVariety/Editor
p2570
g3
(g4
g5
NtRp2571
(dp2572
g8
g2570
sg9
VEditor
p2573
sg11
S'http://www.metacritic.com/critic?filter=movies'
p2574
sg13
(dp2575
g438
F2
ssg16
VVariety
p2576
sg18
NsbsVTotal Film/Kate Stables
p2577
g3
(g4
g5
NtRp2578
(dp2579
g8
g2577
sg9
VKate Stables
p2580
sg11
S'http://www.metacritic.com/critic?filter=movies'
p2581
sg13
(dp2582
g169
F8
ssg16
VTotal Film
p2583
sg18
NsbsVThe New York Times/Ken Jaworowski
p2584
g3
(g4
g5
NtRp2585
(dp2586
g8
g2584
sg9
VKen Jaworowski
p2587
sg11
S'http://www.metacritic.com/critic/ken-jaworowski?filter=movies'
p2588
sg13
(dp2589
g220
F7
ssg16
VThe New York Times
p2590
sg18
NsbsVPremiere/Jenni Miller
p2591
g3
(g4
g5
NtRp2592
(dp2593
g8
g2591
sg9
VJenni Miller
p2594
sg11
S'http://www.metacritic.com/critic?filter=movies'
p2595
sg13
(dp2596
g146
F7.5
sg170
F7.5
ssg16
VPremiere
p2597
sg18
NsbsVThe Film Stage/Zhuo-Ning Su
p2598
g3
(g4
g5
NtRp2599
(dp2600
g8
g2598
sg9
VZhuo-Ning Su
p2601
sg11
S'http://www.metacritic.com/critic/zhuo-ning-su?filter=movies'
p2602
sg13
(dp2603
g482
F9.0999999999999996
sg290
F8.3000000000000007
ssg16
VThe Film Stage
p2604
sg18
NsbsVFilm.com/Keith Simanton
p2605
g3
(g4
g5
NtRp2606
(dp2607
g8
g2605
sg9
VKeith Simanton
p2608
sg11
S'http://www.metacritic.com/critic?filter=movies'
p2609
sg13
(dp2610
g162
F7
ssg16
VFilm.com
p2611
sg18
NsbsVDallas Observer/Bill Gallo
p2612
g3
(g4
g5
NtRp2613
(dp2614
g8
g2612
sg9
VBill Gallo
p2615
sg11
S'http://www.metacritic.com/critic/bill-gallo?filter=movies'
p2616
sg13
(dp2617
g134
F7
sg179
F9
sg301
F10
sg140
F5
ssg16
VDallas Observer
p2618
sg18
NsbsVL.A. Weekly/Paul Malcolm
p2619
g3
(g4
g5
NtRp2620
(dp2621
g8
g2619
sg9
VPaul Malcolm
p2622
sg11
S'http://www.metacritic.com/critic/paul-malcolm?filter=movies'
p2623
sg13
(dp2624
g147
F3
ssg16
VL.A. Weekly
p2625
sg18
NsbsVWashington Post/Mark Jenkins
p2626
g3
(g4
g5
NtRp2627
(dp2628
g8
g2626
sg9
VMark Jenkins
p2629
sg11
S'http://www.metacritic.com/critic?filter=movies'
p2630
sg13
(dp2631
g244
F9
ssg16
VWashington Post
p2632
sg18
NsbsVThe A.V. Club/Ignatiy Vishnevetsky
p2633
g3
(g4
g5
NtRp2634
(dp2635
g8
g2633
sg9
VIgnatiy Vishnevetsky
p2636
sg11
S'http://www.metacritic.com/critic/ignatiy-vishnevetsky?filter=movies'
p2637
sg13
(dp2638
g150
F9.0999999999999996
sg69
F6.7000000000000002
sg70
F7.5
sg482
F5
sg172
F5.7999999999999998
ssg16
VThe A.V. Club
p2639
sg18
NsbsVRogerEbert.com/Simon Abrams
p2640
g3
(g4
g5
NtRp2641
(dp2642
g8
g2640
sg9
VSimon Abrams
p2643
sg11
S'http://www.metacritic.com/critic/simon-abrams?filter=movies'
p2644
sg13
(dp2645
g533
F8.8000000000000007
sg78
F7.5
ssg16
VRogerEbert.com
p2646
sg18
NsbsVL.A. Weekly/Kim Morgan
p2647
g3
(g4
g5
NtRp2648
(dp2649
g8
g2647
sg9
VKim Morgan
p2650
sg11
S'http://www.metacritic.com/critic?filter=movies'
p2651
sg13
(dp2652
g155
F9
sg139
F4
ssg16
VL.A. Weekly
p2653
sg18
NsbsVIndiewire/Sterlin Johnson
p2654
g3
(g4
g5
NtRp2655
(dp2656
g8
g2654
sg9
VSterlin Johnson
p2657
sg11
S'http://www.metacritic.com/critic?filter=movies'
p2658
sg13
(dp2659
g163
F6.7000000000000002
ssg16
VIndiewire
p2660
sg18
NsbsVNew Times (L.A.)/Bill Gallo
p2661
g3
(g4
g5
NtRp2662
(dp2663
g8
g2661
sg9
VBill Gallo
p2664
sg11
S'http://www.metacritic.com/critic/bill-gallo?filter=movies'
p2665
sg13
(dp2666
g303
F6
ssg16
VNew Times (L.A.)
p2667
sg18
NsbsVSalon.com/Charles Taylor
p2668
g3
(g4
g5
NtRp2669
(dp2670
g8
g2668
sg9
VCharles Taylor
p2671
sg11
S'http://www.metacritic.com/critic/charles-taylor?filter=movies'
p2672
sg13
(dp2673
g438
F4
sg126
F2
sg155
F6
sg116
F6
sg136
F9
sg140
F3
sg164
F9
sg303
F4
sg134
F1
sg175
F10
sg139
F10
ssg16
VSalon.com
p2674
sg18
NsbsVChicago Tribune/Katie Walsh
p2675
g3
(g4
g5
NtRp2676
(dp2677
g8
g2675
sg9
VKatie Walsh
p2678
sg11
S'http://www.metacritic.com/critic/katie-walsh?filter=movies'
p2679
sg13
(dp2680
g150
F8.8000000000000007
ssg16
VChicago Tribune
p2681
sg18
NsbsVTotal Film/Matt Glasby
p2682
g3
(g4
g5
NtRp2683
(dp2684
g8
g2682
sg9
VMatt Glasby
p2685
sg11
S'http://www.metacritic.com/critic?filter=movies'
p2686
sg13
(dp2687
g125
F8
sg289
F8
sg174
F10
ssg16
VTotal Film
p2688
sg18
NsbsVThe Guardian/Paul MacInnes
p2689
g3
(g4
g5
NtRp2690
(dp2691
g8
g2689
sg9
VPaul MacInnes
p2692
sg11
S'http://www.metacritic.com/critic?filter=movies'
p2693
sg13
(dp2694
g15
F10
ssg16
VThe Guardian
p2695
sg18
NsbsVDallas Observer/Hal Hinson
p2696
g3
(g4
g5
NtRp2697
(dp2698
g8
g2696
sg9
VHal Hinson
p2699
sg11
S'http://www.metacritic.com/critic?filter=movies'
p2700
sg13
(dp2701
g126
F5
ssg16
VDallas Observer
p2702
sg18
NsbsVTime Out New York/Geoff Andrew
p2703
g3
(g4
g5
NtRp2704
(dp2705
g8
g2703
sg9
VGeoff Andrew
p2706
sg11
S'http://www.metacritic.com/critic?filter=movies'
p2707
sg13
(dp2708
g229
F8
ssg16
VTime Out New York
p2709
sg18
NsbsVTime Out London/Wendy Ide
p2710
g3
(g4
g5
NtRp2711
(dp2712
g8
g2710
sg9
VWendy Ide
p2713
sg11
S'http://www.metacritic.com/critic?filter=movies'
p2714
sg13
(dp2715
g99
F8
ssg16
VTime Out London
p2716
sg18
NsbsVIndiewire/David Ehrlich
p2717
g3
(g4
g5
NtRp2718
(dp2719
g8
g2717
sg9
VDavid Ehrlich
p2720
sg11
S'http://www.metacritic.com/critic/david-ehrlich?filter=movies'
p2721
sg13
(dp2722
g69
F9.0999999999999996
sg482
F7.5
ssg16
VIndiewire
p2723
sg18
NsbsVTV Guide Magazine/Ken Fox
p2724
g3
(g4
g5
NtRp2725
(dp2726
g8
g2724
sg9
VKen Fox
p2727
sg11
S'http://www.metacritic.com/critic/ken-fox?filter=movies'
p2728
sg13
(dp2729
g143
F10
sg171
F8.8000000000000007
sg180
F8
sg302
F8.8000000000000007
sg176
F10
sg146
F10
sg161
F8.8000000000000007
sg164
F7
sg541
F8
sg165
F7
sg179
F8.8000000000000007
sg42
F10
sg175
F8
sg181
F6
ssg16
VTV Guide Magazine
p2730
sg18
NsbsVNew York Post/Rod Dreher
p2731
g3
(g4
g5
NtRp2732
(dp2733
g8
g2731
sg9
VRod Dreher
p2734
sg11
S'http://www.metacritic.com/critic?filter=movies'
p2735
sg13
(dp2736
g140
F8.8000000000000007
sg301
F10
sg126
F6.2999999999999998
ssg16
VNew York Post
p2737
sg18
NsbsVThe Film Stage/Dan Mecca
p2738
g3
(g4
g5
NtRp2739
(dp2740
g8
g2738
sg9
VDan Mecca
p2741
sg11
S'http://www.metacritic.com/critic?filter=movies'
p2742
sg13
(dp2743
g137
F8.3000000000000007
ssg16
VThe Film Stage
p2744
sg18
NsbsVThe Film Stage/Jordan Raup
p2745
g3
(g4
g5
NtRp2746
(dp2747
g8
g2745
sg9
VJordan Raup
p2748
sg11
S'http://www.metacritic.com/critic/jordan-raup?filter=movies'
p2749
sg13
(dp2750
g97
F9.0999999999999996
ssg16
VThe Film Stage
p2751
sg18
NsbsVTime Out New York/David Ehrlich
p2752
g3
(g4
g5
NtRp2753
(dp2754
g8
g2752
sg9
VDavid Ehrlich
p2755
sg11
S'http://www.metacritic.com/critic/david-ehrlich?filter=movies'
p2756
sg13
(dp2757
g172
F8
sg108
F6
sg533
F6
ssg16
VTime Out New York
p2758
sg18
NsbsVNew Orleans Times-Picayune/Mike Scott
p2759
g3
(g4
g5
NtRp2760
(dp2761
g8
g2759
sg9
VMike Scott
p2762
sg11
S'http://www.metacritic.com/critic/mike-scott?filter=movies'
p2763
sg13
(dp2764
g124
F10
sg125
F8
sg97
F10
sg128
F6
sg131
F6
sg133
F7.5
sg135
F8
sg138
F8
sg141
F6
sg74
F10
sg75
F10
sg144
F7.5
sg15
F10
sg156
F10
sg157
F8.8000000000000007
sg158
F6
sg163
F8
sg76
F10
sg77
F8
sg166
F8.8000000000000007
sg168
F10
sg169
F10
sg71
F4
sg98
F10
sg525
F4
sg177
F10
sg68
F8
sg80
F10
sg81
F8
sg293
F8
ssg16
VNew Orleans Times-Picayune
p2765
sg18
NsbsVFilm Threat/Ellen Marshall
p2766
g3
(g4
g5
NtRp2767
(dp2768
g8
g2766
sg9
VEllen Marshall
p2769
sg11
S'http://www.metacritic.com/critic?filter=movies'
p2770
sg13
(dp2771
g143
F10
ssg16
VFilm Threat
p2772
sg18
NsbsVThe Playlist/Charlie Schmidilin
p2773
g3
(g4
g5
NtRp2774
(dp2775
g8
g2773
sg9
VCharlie Schmidilin
p2776
sg11
S'http://www.metacritic.com/critic?filter=movies'
p2777
sg13
(dp2778
g128
F8.3000000000000007
ssg16
VThe Playlist
p2779
sg18
NsbsVSalon.com/Stephanie Zacharek
p2780
g3
(g4
g5
NtRp2781
(dp2782
g8
g2780
sg9
VStephanie Zacharek
p2783
sg11
S'http://www.metacritic.com/critic/stephanie-zacharek?filter=movies'
p2784
sg13
(dp2785
g130
F9
sg541
F9
sg132
F1
sg143
F6
sg144
F9
sg145
F9
sg312
F9
sg146
F7
sg42
F8
sg147
F4
sg149
F5
sg152
F6
sg153
F5
sg180
F7
sg159
F9
sg161
F6
sg148
F8
sg544
F10
sg304
F9
sg170
F4
sg171
F10
sg173
F4
sg98
F5
sg178
F5
sg179
F5
sg181
F10
ssg16
VSalon.com
p2786
sg18
NsbsVArizona Republic/Randy Cordova
p2787
g3
(g4
g5
NtRp2788
(dp2789
g8
g2787
sg9
VRandy Cordova
p2790
sg11
S'http://www.metacritic.com/critic?filter=movies'
p2791
sg13
(dp2792
g151
F5
ssg16
VArizona Republic
p2793
sg18
NsbsVFilm.com/Sean Means
p2794
g3
(g4
g5
NtRp2795
(dp2796
g8
g2794
sg9
VSean Means
p2797
sg11
S'http://www.metacritic.com/critic/sean-means?filter=movies'
p2798
sg13
(dp2799
g126
F9
ssg16
VFilm.com
p2800
sg18
NsbsVTime Out New York/David Fear
p2801
g3
(g4
g5
NtRp2802
(dp2803
g8
g2801
sg9
VDavid Fear
p2804
sg11
S'http://www.metacritic.com/critic/david-fear?filter=movies'
p2805
sg13
(dp2806
g288
F6
sg15
F10
sg73
F6
sg158
F6
sg141
F8
ssg16
VTime Out New York
p2807
sg18
NsbsVSt. Louis Post-Dispatch/Joe Williams
p2808
g3
(g4
g5
NtRp2809
(dp2810
g8
g2808
sg9
VJoe Williams
p2811
sg11
S'http://www.metacritic.com/critic/joe-williams?filter=movies'
p2812
sg13
(dp2813
g125
F10
sg169
F5
sg152
F8.8000000000000007
sg71
F8.8000000000000007
sg141
F10
sg151
F5
sg291
F7.5
sg156
F10
sg73
F8.8000000000000007
sg158
F10
sg74
F8.8000000000000007
sg131
F7.5
sg133
F6.2999999999999998
sg178
F7.5
sg273
F8.8000000000000007
sg166
F6.2999999999999998
sg157
F7.5
sg128
F10
sg138
F8.8000000000000007
sg168
F8.8000000000000007
ssg16
VSt. Louis Post-Dispatch
p2814
sg18
NsbsVBoxoffice Magazine/Ray Greene
p2815
g3
(g4
g5
NtRp2816
(dp2817
g8
g2815
sg9
VRay Greene
p2818
sg11
S'http://www.metacritic.com/critic/ray-greene?filter=movies'
p2819
sg13
(dp2820
g168
F6
ssg16
VBoxoffice Magazine
p2821
sg18
NsbsVTotal Film/Tom Dawson
p2822
g3
(g4
g5
NtRp2823
(dp2824
g8
g2822
sg9
VTom Dawson
p2825
sg11
S'http://www.metacritic.com/critic/tom-dawson?filter=movies'
p2826
sg13
(dp2827
g291
F8
sg288
F8
ssg16
VTotal Film
p2828
sg18
NsbsVHitfix/Gregory Ellwood
p2829
g3
(g4
g5
NtRp2830
(dp2831
g8
g2829
sg9
VGregory Ellwood
p2832
sg11
S'http://www.metacritic.com/critic?filter=movies'
p2833
sg13
(dp2834
g172
F10
sg174
F8.3000000000000007
sg100
F10
sg163
F9.0999999999999996
sg167
F8.3000000000000007
sg204
F10
sg80
F10
sg81
F8.3000000000000007
ssg16
VHitfix
p2835
sg18
NsbsVThe Globe and Mail (Toronto)/Kiva Reardon
p2836
g3
(g4
g5
NtRp2837
(dp2838
g8
g2836
sg9
VKiva Reardon
p2839
sg11
S'http://www.metacritic.com/critic?filter=movies'
p2840
sg13
(dp2841
g293
F10
ssg16
VThe Globe and Mail (Toronto)
p2842
sg18
NsbsVThe Dissolve/Scott Tobias
p2843
g3
(g4
g5
NtRp2844
(dp2845
g8
g2843
sg9
VScott Tobias
p2846
sg11
S'http://www.metacritic.com/critic/scott-tobias?filter=movies'
p2847
sg13
(dp2848
g156
F9
sg141
F10
sg72
F9
sg172
F3
sg228
F8
sg75
F3
sg73
F9
sg15
F9
sg79
F9
sg108
F8
sg289
F6
sg293
F8
ssg16
VThe Dissolve
p2849
sg18
NsbsVNew York Daily News/Joe Neumaier
p2850
g3
(g4
g5
NtRp2851
(dp2852
g8
g2850
sg9
VJoe Neumaier
p2853
sg11
S'http://www.metacritic.com/critic/joe-neumaier?filter=movies'
p2854
sg13
(dp2855
g124
F8
sg125
F8
sg288
F6
sg128
F8
sg135
F10
sg174
F8
sg138
F8
sg74
F10
sg144
F5
sg146
F8
sg15
F10
sg153
F10
sg156
F6
sg157
F8
sg158
F8
sg76
F10
sg168
F10
sg169
F8
sg291
F8
sg172
F8
sg73
F8
sg177
F10
sg178
F6
sg525
F10
sg293
F8
ssg16
VNew York Daily News
p2856
sg18
NsbsVThe Film Stage/Daniel Schindel
p2857
g3
(g4
g5
NtRp2858
(dp2859
g8
g2857
sg9
VDaniel Schindel
p2860
sg11
S'http://www.metacritic.com/critic/daniel-schindel?filter=movies'
p2861
sg13
(dp2862
g25
F6.7000000000000002
sg70
F9.0999999999999996
ssg16
VThe Film Stage
p2863
sg18
NsbsVThe New Republic/Stanley Kauffmann
p2864
g3
(g4
g5
NtRp2865
(dp2866
g8
g2864
sg9
VStanley Kauffmann
p2867
sg11
S'http://www.metacritic.com/critic/stanley-kauffmann?filter=movies'
p2868
sg13
(dp2869
g219
F4
sg244
F5
sg155
F8
sg180
F10
sg143
F7
sg162
F8
sg164
F7
sg59
F10
sg179
F10
sg542
F3
sg42
F9
sg43
F6
sg175
F8
sg543
F8
sg181
F9
ssg16
VThe New Republic
p2870
sg18
NsbsVPortland Oregonian/Stan Hall
p2871
g3
(g4
g5
NtRp2872
(dp2873
g8
g2871
sg9
VStan Hall
p2874
sg11
S'http://www.metacritic.com/critic/stan-hall?filter=movies'
p2875
sg13
(dp2876
g291
F8.3000000000000007
ssg16
VPortland Oregonian
p2877
sg18
NsbsVAustin Chronicle/Joey O'Bryan
p2878
g3
(g4
g5
NtRp2879
(dp2880
g8
g2878
sg9
VJoey O'Bryan
p2881
sg11
S'http://www.metacritic.com/critic?filter=movies'
p2882
sg13
(dp2883
g51
F8.9000000000000004
ssg16
VAustin Chronicle
p2884
sg18
NsbsVDallas Observer/Robert Wilonsky
p2885
g3
(g4
g5
NtRp2886
(dp2887
g8
g2885
sg9
VRobert Wilonsky
p2888
sg11
S'http://www.metacritic.com/critic/robert-wilonsky?filter=movies'
p2889
sg13
(dp2890
g438
F3
sg180
F10
sg116
F4
sg173
F4
sg159
F7
sg143
F10
sg147
F1
sg139
F5
ssg16
VDallas Observer
p2891
sg18
NsbsVFilm.com/Peter Brunette
p2892
g3
(g4
g5
NtRp2893
(dp2894
g8
g2892
sg9
VPeter Brunette
p2895
sg11
S'http://www.metacritic.com/critic/peter-brunette?filter=movies'
p2896
sg13
(dp2897
g140
F8
sg301
F9
sg126
F10
sg541
F9
ssg16
VFilm.com
p2898
sg18
NsbsVMr. Showbiz/Richard T. Jameson
p2899
g3
(g4
g5
NtRp2900
(dp2901
g8
g2899
sg9
VRichard T. Jameson
p2902
sg11
S'http://www.metacritic.com/critic?filter=movies'
p2903
sg13
(dp2904
g162
F9
ssg16
VMr. Showbiz
p2905
sg18
NsbsVFilm Threat/Chris Barsanti
p2906
g3
(g4
g5
NtRp2907
(dp2908
g8
g2906
sg9
VChris Barsanti
p2909
sg11
S'http://www.metacritic.com/critic?filter=movies'
p2910
sg13
(dp2911
g304
F10
ssg16
VFilm Threat
p2912
sg18
NsbsVTheWrap/Dave White
p2913
g3
(g4
g5
NtRp2914
(dp2915
g8
g2913
sg9
VDave White
p2916
sg11
S'http://www.metacritic.com/critic/dave-white?filter=movies'
p2917
sg13
(dp2918
g81
F9
ssg16
VTheWrap
p2919
sg18
NsbsVConsequence of Sound/Sarah Kurchak
p2920
g3
(g4
g5
NtRp2921
(dp2922
g8
g2920
sg9
VSarah Kurchak
p2923
sg11
S'http://www.metacritic.com/critic/sarah-kurchak?filter=movies'
p2924
sg13
(dp2925
g96
F6.7000000000000002
sg189
F9.0999999999999996
sg68
F10
ssg16
VConsequence of Sound
p2926
sg18
NsbsVCharlotte Observer/Lawrence Toppman
p2927
g3
(g4
g5
NtRp2928
(dp2929
g8
g2927
sg9
VLawrence Toppman
p2930
sg11
S'http://www.metacritic.com/critic/lawrence-toppman?filter=movies'
p2931
sg13
(dp2932
g124
F8.8000000000000007
sg128
F8.8000000000000007
sg130
F10
sg131
F7.5
sg132
F6.2999999999999998
sg134
F3.7999999999999998
sg135
F8.8000000000000007
sg136
F7.5
sg137
F8.8000000000000007
sg138
F8.8000000000000007
sg139
F8.8000000000000007
sg301
F8.8000000000000007
sg141
F10
sg116
F2.5
sg70
F7.5
sg74
F10
sg100
F8.8000000000000007
sg143
F7.5
sg75
F8.3000000000000007
sg41
F10
sg145
F7.5
sg312
F7.5
sg146
F8.8000000000000007
sg15
F10
sg147
F3.7999999999999998
sg108
F9.0999999999999996
sg149
F7.5
sg438
F3.7999999999999998
sg151
F6.2999999999999998
sg180
F7.5
sg153
F10
sg155
F10
sg156
F8.3000000000000007
sg157
F6.2999999999999998
sg158
F7.5
sg159
F7.5
sg160
F7.5
sg161
F8.8000000000000007
sg76
F10
sg189
F7.5
sg148
F8.8000000000000007
sg165
F10
sg166
F8.8000000000000007
sg544
F10
sg168
F8.8000000000000007
sg169
F10
sg170
F5
sg171
F10
sg172
F9.0999999999999996
sg173
F10
sg174
F6.2999999999999998
sg175
F8.8000000000000007
sg176
F6.2999999999999998
sg177
F10
sg68
F5
sg179
F10
sg474
F3.7999999999999998
sg80
F10
sg81
F8.8000000000000007
sg181
F6.2999999999999998
ssg16
VCharlotte Observer
p2933
sg18
NsbsVSt. Louis Post-Dispatch/Calvin Wilson
p2934
g3
(g4
g5
NtRp2935
(dp2936
g8
g2934
sg9
VCalvin Wilson
p2937
sg11
S'http://www.metacritic.com/critic/calvin-wilson?filter=movies'
p2938
sg13
(dp2939
g150
F8.8000000000000007
sg124
F10
sg96
F10
sg97
F10
sg172
F10
sg70
F8.8000000000000007
sg174
F8.8000000000000007
sg80
F8.8000000000000007
sg525
F8.8000000000000007
sg75
F10
sg163
F10
sg189
F8.8000000000000007
sg77
F10
sg68
F8.8000000000000007
sg15
F10
sg177
F10
sg167
F10
sg135
F10
sg137
F8.8000000000000007
sg81
F8.8000000000000007
ssg16
VSt. Louis Post-Dispatch
p2940
sg18
NsbsVTime/Mary Pols
p2941
g3
(g4
g5
NtRp2942
(dp2943
g8
g2941
sg9
VMary Pols
p2944
sg11
S'http://www.metacritic.com/critic/mary-pols?filter=movies'
p2945
sg13
(dp2946
g291
F8
sg151
F8
sg133
F8
sg76
F10
sg168
F8
ssg16
VTime
p2947
sg18
NsbsVSlant Magazine/Calum Marsh
p2948
g3
(g4
g5
NtRp2949
(dp2950
g8
g2948
sg9
VCalum Marsh
p2951
sg11
S'http://www.metacritic.com/critic?filter=movies'
p2952
sg13
(dp2953
g135
F5
sg128
F5
ssg16
VSlant Magazine
p2954
sg18
NsbsVVariety/Leonard Klady
p2955
g3
(g4
g5
NtRp2956
(dp2957
g8
g2955
sg9
VLeonard Klady
p2958
sg11
S'http://www.metacritic.com/critic?filter=movies'
p2959
sg13
(dp2960
g162
F9
ssg16
VVariety
p2961
sg18
NsbsVRogerEbert.com/Glenn Kenny
p2962
g3
(g4
g5
NtRp2963
(dp2964
g8
g2962
sg9
VGlenn Kenny
p2965
sg11
S'http://www.metacritic.com/critic/glenn-kenny?filter=movies'
p2966
sg13
(dp2967
g33
F10
sg141
F8.8000000000000007
sg72
F10
sg156
F10
sg163
F10
sg77
F10
sg289
F2.5
ssg16
VRogerEbert.com
p2968
sg18
NsbsVThe Guardian/Caspar Llewellyn Smith
p2969
g3
(g4
g5
NtRp2970
(dp2971
g8
g2969
sg9
VCaspar Llewellyn Smith
p2972
sg11
S'http://www.metacritic.com/critic?filter=movies'
p2973
sg13
(dp2974
g99
F6
ssg16
VThe Guardian
p2975
sg18
NsbsVWashington Post/Stephen Hunter
p2976
g3
(g4
g5
NtRp2977
(dp2978
g8
g2976
sg9
VStephen Hunter
p2979
sg11
S'http://www.metacritic.com/critic/stephen-hunter?filter=movies'
p2980
sg13
(dp2981
g438
F3
sg140
F7
sg126
F2
sg153
F7
sg159
F7
sg160
F5
sg143
F10
sg142
F1
sg304
F6
sg41
F9
sg164
F9
sg302
F8
sg312
F8
sg134
F2
sg136
F10
sg147
F2
sg175
F10
sg244
F9
sg181
F9
ssg16
VWashington Post
p2982
sg18
NsbsVLos Angeles Times/Justin Chang
p2983
g3
(g4
g5
NtRp2984
(dp2985
g8
g2983
sg9
VJustin Chang
p2986
sg11
S'http://www.metacritic.com/critic/justin-chang?filter=movies'
p2987
sg13
(dp2988
g69
F10
sg70
F6
sg96
F9
sg482
F6
sg137
F5
sg81
F8
ssg16
VLos Angeles Times
p2989
sg18
NsbsVArizona Republic/Kerry Lengel
p2990
g3
(g4
g5
NtRp2991
(dp2992
g8
g2990
sg9
VKerry Lengel
p2993
sg11
S'http://www.metacritic.com/critic/kerry-lengel?filter=movies'
p2994
sg13
(dp2995
g157
F8
ssg16
VArizona Republic
p2996
sg18
NsbsVThe Globe and Mail (Toronto)/Johanna Schneller
p2997
g3
(g4
g5
NtRp2998
(dp2999
g8
g2997
sg9
VJohanna Schneller
p3000
sg11
S'http://www.metacritic.com/critic?filter=movies'
p3001
sg13
(dp3002
g137
F6.2999999999999998
ssg16
VThe Globe and Mail (Toronto)
p3003
sg18
NsbsVRogerEbert.com/Peter Sobczynski
p3004
g3
(g4
g5
NtRp3005
(dp3006
g8
g3004
sg9
VPeter Sobczynski
p3007
sg11
S'http://www.metacritic.com/critic/peter-sobczynski?filter=movies'
p3008
sg13
(dp3009
g108
F8.8000000000000007
ssg16
VRogerEbert.com
p3010
sg18
NsbsVVariety/Brian Lowry
p3011
g3
(g4
g5
NtRp3012
(dp3013
g8
g3011
sg9
VBrian Lowry
p3014
sg11
S'http://www.metacritic.com/critic/brian-lowry?filter=movies'
p3015
sg13
(dp3016
g147
F6
ssg16
VVariety
p3017
sg18
NsbsVThe Hollywood Reporter/Michael Rechtshaffen
p3018
g3
(g4
g5
NtRp3019
(dp3020
g8
g3018
sg9
VMichael Rechtshaffen
p3021
sg11
S'http://www.metacritic.com/critic/michael-rechtshaffen?filter=movies'
p3022
sg13
(dp3023
g132
F6
sg147
F4
sg144
F9
sg98
F10
sg151
F8
ssg16
VThe Hollywood Reporter
p3024
sg18
NsbsVLos Angeles Times/Sam Adams
p3025
g3
(g4
g5
NtRp3026
(dp3027
g8
g3025
sg9
VSam Adams
p3028
sg11
S'http://www.metacritic.com/critic?filter=movies'
p3029
sg13
(dp3030
g170
F6
ssg16
VLos Angeles Times
p3031
sg18
NsbsVBoston Globe/Ty Burr
p3032
g3
(g4
g5
NtRp3033
(dp3034
g8
g3032
sg9
VTy Burr
p3035
sg11
S'http://www.metacritic.com/critic/ty-burr?filter=movies'
p3036
sg13
(dp3037
g244
F8.8000000000000007
sg124
F10
sg33
F8.8000000000000007
sg127
F3.7999999999999998
sg77
F8.8000000000000007
sg129
F10
sg131
F6.2999999999999998
sg525
F8.8000000000000007
sg99
F7.5
sg135
F10
sg41
F8.8000000000000007
sg174
F6.2999999999999998
sg139
F6.2999999999999998
sg141
F10
sg70
F6.2999999999999998
sg228
F10
sg74
F8.8000000000000007
sg100
F8.8000000000000007
sg143
F8.8000000000000007
sg75
F10
sg430
F8.8000000000000007
sg482
F7.5
sg145
F10
sg146
F10
sg144
F7.5
sg42
F8.8000000000000007
sg15
F10
sg150
F7.5
sg151
F3.7999999999999998
sg152
F6.2999999999999998
sg136
F10
sg153
F7.5
sg155
F10
sg156
F8.8000000000000007
sg157
F7.5
sg158
F8.8000000000000007
sg159
F7.5
sg160
F10
sg161
F7.5
sg302
F8.8000000000000007
sg163
F8.8000000000000007
sg76
F8.8000000000000007
sg189
F10
sg164
F8.8000000000000007
sg97
F10
sg165
F8.8000000000000007
sg167
F10
sg204
F7.5
sg229
F8.8000000000000007
sg169
F8.8000000000000007
sg71
F8.8000000000000007
sg291
F8.8000000000000007
sg172
F6.2999999999999998
sg173
F7.5
sg98
F10
sg175
F10
sg176
F10
sg73
F8.8000000000000007
sg177
F10
sg178
F8.8000000000000007
sg78
F8.8000000000000007
sg179
F8.8000000000000007
sg180
F7.5
sg293
F8.8000000000000007
sg80
F10
sg181
F10
ssg16
VBoston Globe
p3038
sg18
NsbsVThe Hollywood Reporter/Leslie Felperin
p3039
g3
(g4
g5
NtRp3040
(dp3041
g8
g3039
sg9
VLeslie Felperin
p3042
sg11
S'http://www.metacritic.com/critic/leslie-felperin?filter=movies'
p3043
sg13
(dp3044
g33
F10
sg228
F10
sg292
F8
sg273
F9
sg137
F5
sg81
F9
ssg16
VThe Hollywood Reporter
p3045
sg18
NsbsVLos Angeles Times/Michael Rechtshaffen
p3046
g3
(g4
g5
NtRp3047
(dp3048
g8
g3046
sg9
VMichael Rechtshaffen
p3049
sg11
S'http://www.metacritic.com/critic/michael-rechtshaffen?filter=movies'
p3050
sg13
(dp3051
g533
F8
ssg16
VLos Angeles Times
p3052
sg18
NsbsVSan Francisco Chronicle/Steve Rubenstein
p3053
g3
(g4
g5
NtRp3054
(dp3055
g8
g3053
sg9
VSteve Rubenstein
p3056
sg11
S'http://www.metacritic.com/critic?filter=movies'
p3057
sg13
(dp3058
g78
F5
ssg16
VSan Francisco Chronicle
p3059
sg18
NsbsVSan Francisco Chronicle/Peter Stack
p3060
g3
(g4
g5
NtRp3061
(dp3062
g8
g3060
sg9
VPeter Stack
p3063
sg11
S'http://www.metacritic.com/critic/peter-stack?filter=movies'
p3064
sg13
(dp3065
g162
F10
sg59
F10
ssg16
VSan Francisco Chronicle
p3066
sg18
NsbsVLos Angeles Times/Sheri Linden
p3067
g3
(g4
g5
NtRp3068
(dp3069
g8
g3067
sg9
VSheri Linden
p3070
sg11
S'http://www.metacritic.com/critic/sheri-linden?filter=movies'
p3071
sg13
(dp3072
g291
F8
sg525
F10
sg290
F7
ssg16
VLos Angeles Times
p3073
sg18
NsbsVThe Globe and Mail (Toronto)/Jeff Gray
p3074
g3
(g4
g5
NtRp3075
(dp3076
g8
g3074
sg9
VJeff Gray
p3077
sg11
S'http://www.metacritic.com/critic?filter=movies'
p3078
sg13
(dp3079
g140
F5
ssg16
VThe Globe and Mail (Toronto)
p3080
sg18
NsbsVNew York Post/Lou Lumenick
p3081
g3
(g4
g5
NtRp3082
(dp3083
g8
g3081
sg9
VLou Lumenick
p3084
sg11
S'http://www.metacritic.com/critic/lou-lumenick?filter=movies'
p3085
sg13
(dp3086
g124
F10
sg150
F8.8000000000000007
sg128
F8.8000000000000007
sg130
F10
sg131
F7.5
sg132
F5
sg134
F6.2999999999999998
sg137
F8.8000000000000007
sg139
F8.8000000000000007
sg141
F6.2999999999999998
sg116
F10
sg70
F7.5
sg74
F10
sg143
F8.8000000000000007
sg75
F8.8000000000000007
sg41
F10
sg145
F10
sg146
F10
sg15
F10
sg42
F8.8000000000000007
sg149
F8.8000000000000007
sg438
F6.2999999999999998
sg151
F5
sg152
F8.8000000000000007
sg157
F7.5
sg158
F10
sg159
F8.8000000000000007
sg160
F10
sg161
F7.5
sg76
F10
sg164
F7.5
sg166
F10
sg167
F8.8000000000000007
sg303
F7.5
sg544
F10
sg169
F7.5
sg304
F7.5
sg171
F10
sg172
F8.8000000000000007
sg98
F10
sg73
F7.5
sg177
F10
sg178
F8.8000000000000007
sg180
F10
sg80
F10
sg181
F10
ssg16
VNew York Post
p3087
sg18
NsbsVVariety/l
p3088
g3
(g4
g5
NtRp3089
(dp3090
g8
g3088
sg9
Vl
sg11
S'http://www.metacritic.com/critic?filter=movies'
p3091
sg13
(dp3092
g43
F5
ssg16
VVariety
p3093
sg18
NsbsVBoston Globe/Wesley Morris
p3094
g3
(g4
g5
NtRp3095
(dp3096
g8
g3094
sg9
VWesley Morris
p3097
sg11
S'http://www.metacritic.com/critic/wesley-morris?filter=movies'
p3098
sg13
(dp3099
g125
F8.8000000000000007
sg132
F5
sg170
F6.2999999999999998
sg171
F8.8000000000000007
sg288
F8.8000000000000007
sg128
F10
sg130
F10
sg166
F7.5
sg133
F7.5
sg148
F10
sg134
F6.2999999999999998
sg149
F10
sg147
F5
sg43
F6.2999999999999998
sg138
F10
sg168
F5
ssg16
VBoston Globe
p3100
sg18
NsbsVWashington Post/John Anderson
p3101
g3
(g4
g5
NtRp3102
(dp3103
g8
g3101
sg9
VJohn Anderson
p3104
sg11
S'http://www.metacritic.com/critic?filter=movies'
p3105
sg13
(dp3106
g146
F10
ssg16
VWashington Post
p3107
sg18
NsbsVSan Francisco Examiner/Wesley Morris
p3108
g3
(g4
g5
NtRp3109
(dp3110
g8
g3108
sg9
VWesley Morris
p3111
sg11
S'http://www.metacritic.com/critic/wesley-morris?filter=movies'
p3112
sg13
(dp3113
g219
F10
sg438
F7.5
sg126
F6.2999999999999998
sg116
F10
sg140
F7.5
sg301
F6.2999999999999998
ssg16
VSan Francisco Examiner
p3114
sg18
NsbsVCineVue/Patrick Gamble
p3115
g3
(g4
g5
NtRp3116
(dp3117
g8
g3115
sg9
VPatrick Gamble
p3118
sg11
S'http://www.metacritic.com/critic/patrick-gamble?filter=movies'
p3119
sg13
(dp3120
g204
F6
ssg16
VCineVue
p3121
sg18
NsbsVThe Hollywood Reporter/Stephen Dalton
p3122
g3
(g4
g5
NtRp3123
(dp3124
g8
g3122
sg9
VStephen Dalton
p3125
sg11
S'http://www.metacritic.com/critic?filter=movies'
p3126
sg13
(dp3127
g291
F7
sg289
F8
sg189
F7
sg204
F8
ssg16
VThe Hollywood Reporter
p3128
sg18
NsbsVConsequence of Sound/Michael Roffman
p3129
g3
(g4
g5
NtRp3130
(dp3131
g8
g3129
sg9
VMichael Roffman
p3132
sg11
S'http://www.metacritic.com/critic/michael-roffman?filter=movies'
p3133
sg13
(dp3134
g70
F8.3000000000000007
sg174
F10
sg81
F8.3000000000000007
ssg16
VConsequence of Sound
p3135
sg18
NsbsVVariety/Ella Taylor
p3136
g3
(g4
g5
NtRp3137
(dp3138
g8
g3136
sg9
VElla Taylor
p3139
sg11
S'http://www.metacritic.com/critic/ella-taylor?filter=movies'
p3140
sg13
(dp3141
g25
F8
ssg16
VVariety
p3142
sg18
NsbsVMiami Herald/Rene Rodriguez
p3143
g3
(g4
g5
NtRp3144
(dp3145
g8
g3143
sg9
VRene Rodriguez
p3146
sg11
S'http://www.metacritic.com/critic/rene-rodriguez?filter=movies'
p3147
sg13
(dp3148
g124
F8.8000000000000007
sg125
F7.5
sg77
F10
sg97
F10
sg15
F10
sg289
F8.8000000000000007
sg130
F10
sg131
F7.5
sg541
F6.2999999999999998
sg132
F5
sg134
F5
sg135
F10
sg79
F8.8000000000000007
sg43
F7.5
sg174
F8.8000000000000007
sg138
F10
sg139
F7.5
sg301
F8.8000000000000007
sg141
F10
sg116
F7.5
sg70
F6.2999999999999998
sg228
F10
sg74
F8.8000000000000007
sg136
F8.8000000000000007
sg143
F8.8000000000000007
sg75
F8.8000000000000007
sg148
F8.8000000000000007
sg144
F7.5
sg145
F8.8000000000000007
sg146
F10
sg41
F10
sg42
F8.8000000000000007
sg108
F8.8000000000000007
sg128
F5
sg544
F7.5
sg149
F10
sg151
F5
sg152
F10
sg178
F6.2999999999999998
sg153
F8.8000000000000007
sg155
F10
sg157
F7.5
sg158
F10
sg159
F7.5
sg160
F10
sg161
F6.2999999999999998
sg76
F7.5
sg189
F8.8000000000000007
sg164
F6.2999999999999998
sg165
F8.8000000000000007
sg166
F8.8000000000000007
sg167
F10
sg204
F7.5
sg303
F8.8000000000000007
sg229
F7.5
sg168
F8.8000000000000007
sg96
F7.5
sg304
F7.5
sg51
F7.5
sg170
F7.5
sg171
F7.5
sg173
F7.5
sg98
F10
sg175
F8.8000000000000007
sg176
F10
sg73
F8.8000000000000007
sg177
F10
sg68
F7.5
sg78
F8.8000000000000007
sg179
F10
sg180
F10
sg474
F5
sg80
F10
sg81
F8.8000000000000007
sg181
F8.8000000000000007
ssg16
VMiami Herald
p3149
sg18
NsbsVSlant Magazine/None
p3150
g3
(g4
g5
NtRp3151
(dp3152
g8
g3150
sg9
Nsg11
Nsg13
(dp3153
g291
F8.8000000000000007
ssg16
VSlant Magazine
p3154
sg18
NsbsVVariety/Leslie Felperin
p3155
g3
(g4
g5
NtRp3156
(dp3157
g8
g3155
sg9
VLeslie Felperin
p3158
sg11
S'http://www.metacritic.com/critic?filter=movies'
p3159
sg13
(dp3160
g145
F9
ssg16
VVariety
p3161
sg18
NsbsVVillage Voice/Karina Longworth
p3162
g3
(g4
g5
NtRp3163
(dp3164
g8
g3162
sg9
VKarina Longworth
p3165
sg11
S'http://www.metacritic.com/critic?filter=movies'
p3166
sg13
(dp3167
g128
F9
sg133
F7
sg157
F8
sg168
F5
ssg16
VVillage Voice
p3168
sg18
NsbsVThe Film Stage/Raphael Deutsch
p3169
g3
(g4
g5
NtRp3170
(dp3171
g8
g3169
sg9
VRaphael Deutsch
p3172
sg11
S'http://www.metacritic.com/critic?filter=movies'
p3173
sg13
(dp3174
g99
F7.5
ssg16
VThe Film Stage
p3175
sg18
NsbsVTime Out New York/Cath Clarke
p3176
g3
(g4
g5
NtRp3177
(dp3178
g8
g3176
sg9
VCath Clarke
p3179
sg11
S'http://www.metacritic.com/critic?filter=movies'
p3180
sg13
(dp3181
g78
F8
ssg16
VTime Out New York
p3182
sg18
NsbsVThe New Yorker/Richard Brody
p3183
g3
(g4
g5
NtRp3184
(dp3185
g8
g3183
sg9
VRichard Brody
p3186
sg11
S'http://www.metacritic.com/critic/richard-brody?filter=movies'
p3187
sg13
(dp3188
g163
F3
ssg16
VThe New Yorker
p3189
sg18
NsbsVHitfix/Guy Lodge
p3190
g3
(g4
g5
NtRp3191
(dp3192
g8
g3190
sg9
VGuy Lodge
p3193
sg11
S'http://www.metacritic.com/critic?filter=movies'
p3194
sg13
(dp3195
g289
F6.7000000000000002
ssg16
VHitfix
p3196
sg18
NsbsVEmpire/Helen O'Hara
p3197
g3
(g4
g5
NtRp3198
(dp3199
g8
g3197
sg9
VHelen O'Hara
p3200
sg11
S'http://www.metacritic.com/critic/helen-ohara?filter=movies'
p3201
sg13
(dp3202
g302
F8
sg137
F8
sg149
F10
ssg16
VEmpire
p3203
sg18
NsbsVThe Guardian/Catherine Shoard
p3204
g3
(g4
g5
NtRp3205
(dp3206
g8
g3204
sg9
VCatherine Shoard
p3207
sg11
S'http://www.metacritic.com/critic/catherine-shoard?filter=movies'
p3208
sg13
(dp3209
g68
F10
ssg16
VThe Guardian
p3210
sg18
NsbsVLos Angeles Times/Charles Solomon
p3211
g3
(g4
g5
NtRp3212
(dp3213
g8
g3211
sg9
VCharles Solomon
p3214
sg11
S'http://www.metacritic.com/critic/charles-solomon?filter=movies'
p3215
sg13
(dp3216
g229
F4
ssg16
VLos Angeles Times
p3217
sg18
NsbsVVariety/Justin Chang
p3218
g3
(g4
g5
NtRp3219
(dp3220
g8
g3218
sg9
VJustin Chang
p3221
sg11
S'http://www.metacritic.com/critic/justin-chang?filter=movies'
p3222
sg13
(dp3223
g130
F8
sg171
F10
sg291
F6
sg72
F10
sg156
F10
sg153
F10
sg158
F9
sg74
F10
sg100
F9
sg288
F8
sg177
F10
sg166
F10
sg167
F10
sg80
F9
sg128
F9
sg97
F10
ssg16
VVariety
p3224
sg18
NsbsVThe Globe and Mail (Toronto)/Liam Lacey
p3225
g3
(g4
g5
NtRp3226
(dp3227
g8
g3225
sg9
VLiam Lacey
p3228
sg11
S'http://www.metacritic.com/critic/liam-lacey?filter=movies'
p3229
sg13
(dp3230
g124
F7.5
sg125
F6.2999999999999998
sg127
F6.2999999999999998
sg288
F10
sg72
F10
sg128
F10
sg130
F10
sg131
F6.2999999999999998
sg134
F5
sg139
F6.2999999999999998
sg141
F8.8000000000000007
sg228
F8.8000000000000007
sg74
F10
sg136
F7.5
sg75
F7.5
sg144
F5
sg146
F10
sg41
F7.5
sg149
F8.8000000000000007
sg126
F10
sg153
F7.5
sg156
F8.8000000000000007
sg165
F6.2999999999999998
sg229
F7.5
sg171
F8.8000000000000007
sg173
F6.2999999999999998
sg176
F8.8000000000000007
sg73
F10
sg15
F10
sg175
F8.8000000000000007
sg181
F7.5
ssg16
VThe Globe and Mail (Toronto)
p3231
sg18
NsbsVTime Out London/Cath Clarke
p3232
g3
(g4
g5
NtRp3233
(dp3234
g8
g3232
sg9
VCath Clarke
p3235
sg11
S'http://www.metacritic.com/critic/cath-clarke?filter=movies'
p3236
sg13
(dp3237
g75
F10
sg141
F8
sg533
F8
sg78
F8
ssg16
VTime Out London
p3238
sg18
NsbsVLos Angeles Times/Sheila Benson
p3239
g3
(g4
g5
NtRp3240
(dp3241
g8
g3239
sg9
VSheila Benson
p3242
sg11
S'http://www.metacritic.com/critic/sheila-benson?filter=movies'
p3243
sg13
(dp3244
g542
F9
ssg16
VLos Angeles Times
p3245
sg18
NsbsVThe A.V. Club/Ben Kenigsberg
p3246
g3
(g4
g5
NtRp3247
(dp3248
g8
g3246
sg9
VBen Kenigsberg
p3249
sg11
S'http://www.metacritic.com/critic/ben-kenigsberg?filter=movies'
p3250
sg13
(dp3251
g71
F10
ssg16
VThe A.V. Club
p3252
sg18
NsbsVNew Times (L.A.)/Andy Klein
p3253
g3
(g4
g5
NtRp3254
(dp3255
g8
g3253
sg9
VAndy Klein
p3256
sg11
S'http://www.metacritic.com/critic/andy-klein?filter=movies'
p3257
sg13
(dp3258
g312
F9
ssg16
VNew Times (L.A.)
p3259
sg18
NsbsVSan Francisco Chronicle/Edward Guthmann
p3260
g3
(g4
g5
NtRp3261
(dp3262
g8
g3260
sg9
VEdward Guthmann
p3263
sg11
S'http://www.metacritic.com/critic/edward-guthmann?filter=movies'
p3264
sg13
(dp3265
g301
F10
sg541
F7.5
sg181
F10
ssg16
VSan Francisco Chronicle
p3266
sg18
NsbsVBaltimore Sun/Chris Kaltenbach
p3267
g3
(g4
g5
NtRp3268
(dp3269
g8
g3267
sg9
VChris Kaltenbach
p3270
sg11
S'http://www.metacritic.com/critic/chris-kaltenbach?filter=movies'
p3271
sg13
(dp3272
g302
F9.0999999999999996
sg155
F10
sg541
F8.8000000000000007
sg132
F5
sg148
F6.7000000000000002
sg165
F8.8000000000000007
sg134
F3.7999999999999998
sg147
F2.5
sg303
F6.2999999999999998
sg139
F6.2999999999999998
ssg16
VBaltimore Sun
p3273
sg18
NsbsVEmpire/David Eimer
p3274
g3
(g4
g5
NtRp3275
(dp3276
g8
g3274
sg9
VDavid Eimer
p3277
sg11
S'http://www.metacritic.com/critic?filter=movies'
p3278
sg13
(dp3279
g60
F4
ssg16
VEmpire
p3280
sg18
NsbsVTotal Film/Emma Dibdin
p3281
g3
(g4
g5
NtRp3282
(dp3283
g8
g3281
sg9
VEmma Dibdin
p3284
sg11
S'http://www.metacritic.com/critic/emma-dibdin?filter=movies'
p3285
sg13
(dp3286
g128
F10
sg15
F8
sg141
F8
ssg16
VTotal Film
p3287
sg18
NsbsVChicago Sun-Times/Bill Stamets
p3288
g3
(g4
g5
NtRp3289
(dp3290
g8
g3288
sg9
VBill Stamets
p3291
sg11
S'http://www.metacritic.com/critic/bill-stamets?filter=movies'
p3292
sg13
(dp3293
g228
F8.8000000000000007
sg108
F8.8000000000000007
sg293
F10
ssg16
VChicago Sun-Times
p3294
sg18
NsbsVThe Dissolve/Noel Murray
p3295
g3
(g4
g5
NtRp3296
(dp3297
g8
g3295
sg9
VNoel Murray
p3298
sg11
S'http://www.metacritic.com/critic/noel-murray?filter=movies'
p3299
sg13
(dp3300
g33
F8
sg273
F8
ssg16
VThe Dissolve
p3301
sg18
NsbsVTotal Film/Stephen Kelly
p3302
g3
(g4
g5
NtRp3303
(dp3304
g8
g3302
sg9
VStephen Kelly
p3305
sg11
S'http://www.metacritic.com/critic?filter=movies'
p3306
sg13
(dp3307
g96
F8
ssg16
VTotal Film
p3308
sg18
NsbsVAustin Chronicle/Marc Savlov
p3309
g3
(g4
g5
NtRp3310
(dp3311
g8
g3309
sg9
VMarc Savlov
p3312
sg11
S'http://www.metacritic.com/critic/marc-savlov?filter=movies'
p3313
sg13
(dp3314
g244
F8.9000000000000004
sg150
F7.7999999999999998
sg127
F3
sg132
F4
sg152
F6.7000000000000002
sg60
F2
sg134
F2
sg136
F8.9000000000000004
sg301
F8.9000000000000004
sg116
F6.7000000000000002
sg228
F8.9000000000000004
sg74
F8.9000000000000004
sg533
F7.7999999999999998
sg100
F8.9000000000000004
sg430
F8.9000000000000004
sg41
F7.7999999999999998
sg145
F8.9000000000000004
sg162
F8.9000000000000004
sg438
F3
sg151
F4
sg126
F7.7999999999999998
sg153
F5
sg158
F7.7999999999999998
sg146
F8.9000000000000004
sg544
F8.9000000000000004
sg171
F8.9000000000000004
sg173
F7.7999999999999998
sg140
F7.7999999999999998
sg178
F8.9000000000000004
sg175
F8.9000000000000004
ssg16
VAustin Chronicle
p3315
sg18
NsbsVThe Hollywood Reporter/Boyd van Hoeij
p3316
g3
(g4
g5
NtRp3317
(dp3318
g8
g3316
sg9
VBoyd van Hoeij
p3319
sg11
S'http://www.metacritic.com/critic/boyd-van-hoeij?filter=movies'
p3320
sg13
(dp3321
g220
F8
sg108
F8
sg100
F8
ssg16
VThe Hollywood Reporter
p3322
sg18
NsbsVSlant Magazine/Carson Lund
p3323
g3
(g4
g5
NtRp3324
(dp3325
g8
g3323
sg9
VCarson Lund
p3326
sg11
S'http://www.metacritic.com/critic/carson-lund?filter=movies'
p3327
sg13
(dp3328
g220
F6.2999999999999998
ssg16
VSlant Magazine
p3329
sg18
NsbsVThe Hollywood Reporter/David Rooney
p3330
g3
(g4
g5
NtRp3331
(dp3332
g8
g3330
sg9
VDavid Rooney
p3333
sg11
S'http://www.metacritic.com/critic/david-rooney?filter=movies'
p3334
sg13
(dp3335
g685
F10
sg482
F8
sg68
F10
sg229
F7
sg525
F9
ssg16
VThe Hollywood Reporter
p3336
sg18
NsbsVChicago Reader/Andrea Gronvall
p3337
g3
(g4
g5
NtRp3338
(dp3339
g8
g3337
sg9
VAndrea Gronvall
p3340
sg11
S'http://www.metacritic.com/critic/andrea-gronvall?filter=movies'
p3341
sg13
(dp3342
g146
F8
sg161
F5
sg41
F10
sg98
F9
sg170
F0
ssg16
VChicago Reader
p3343
sg18
NsbsVThe New Yorker/David Denby
p3344
g3
(g4
g5
NtRp3345
(dp3346
g8
g3344
sg9
VDavid Denby
p3347
sg11
S'http://www.metacritic.com/critic/david-denby?filter=movies'
p3348
sg13
(dp3349
g124
F9
sg133
F7
sg139
F8
sg74
F9
sg143
F10
sg15
F10
sg312
F10
sg146
F9
sg149
F10
sg151
F5
sg152
F5
sg153
F5
sg155
F9
sg156
F6
sg157
F7
sg161
F5
sg166
F5
sg544
F9
sg304
F8
sg171
F10
sg173
F5
sg98
F8
sg73
F7
sg177
F10
sg178
F9
sg181
F8
sg175
F7
sg293
F10
ssg16
VThe New Yorker
p3350
sg18
NsbsVThe Playlist/Kimber Myers
p3351
g3
(g4
g5
NtRp3352
(dp3353
g8
g3351
sg9
VKimber Myers
p3354
sg11
S'http://www.metacritic.com/critic/kimber-myers?filter=movies'
p3355
sg13
(dp3356
g430
F8.3000000000000007
ssg16
VThe Playlist
p3357
sg18
NsbsVFilm Threat/Rick Kisonak
p3358
g3
(g4
g5
NtRp3359
(dp3360
g8
g3358
sg9
VRick Kisonak
p3361
sg11
S'http://www.metacritic.com/critic/rick-kisonak?filter=movies'
p3362
sg13
(dp3363
g176
F8
sg302
F8
sg139
F6
sg144
F7
sg181
F8
ssg16
VFilm Threat
p3364
sg18
NsbsVBoxoffice Magazine/Wade Major
p3365
g3
(g4
g5
NtRp3366
(dp3367
g8
g3365
sg9
VWade Major
p3368
sg11
S'http://www.metacritic.com/critic/wade-major?filter=movies'
p3369
sg13
(dp3370
g138
F8
ssg16
VBoxoffice Magazine
p3371
sg18
NsbsVL.A. Weekly/Ella Taylor
p3372
g3
(g4
g5
NtRp3373
(dp3374
g8
g3372
sg9
VElla Taylor
p3375
sg11
S'http://www.metacritic.com/critic/ella-taylor?filter=movies'
p3376
sg13
(dp3377
g244
F9
sg143
F9
sg304
F7
sg130
F10
sg176
F10
sg164
F5
sg312
F10
sg179
F9
sg301
F8
sg474
F2
sg175
F8
sg181
F10
ssg16
VL.A. Weekly
p3378
sg18
NsbsVThe Film Stage/Nick Newman
p3379
g3
(g4
g5
NtRp3380
(dp3381
g8
g3379
sg9
VNick Newman
p3382
sg11
S'http://www.metacritic.com/critic/nick-newman?filter=movies'
p3383
sg13
(dp3384
g150
F7.5
ssg16
VThe Film Stage
p3385
sg18
NsbsVSlant Magazine/Elise Nakhnikian
p3386
g3
(g4
g5
NtRp3387
(dp3388
g8
g3386
sg9
VElise Nakhnikian
p3389
sg11
S'http://www.metacritic.com/critic/elise-nakhnikian?filter=movies'
p3390
sg13
(dp3391
g33
F8.8000000000000007
sg163
F6.2999999999999998
sg273
F8.8000000000000007
ssg16
VSlant Magazine
p3392
sg18
NsbsVSlant Magazine/Matt Noller
p3393
g3
(g4
g5
NtRp3394
(dp3395
g8
g3393
sg9
VMatt Noller
p3396
sg11
S'http://www.metacritic.com/critic?filter=movies'
p3397
sg13
(dp3398
g51
F8.8000000000000007
ssg16
VSlant Magazine
p3399
sg18
NsbsVSan Francisco Chronicle/Mick LaSalle
p3400
g3
(g4
g5
NtRp3401
(dp3402
g8
g3400
sg9
VMick LaSalle
p3403
sg11
S'http://www.metacritic.com/critic/mick-lasalle?filter=movies'
p3404
sg13
(dp3405
g124
F10
sg125
F10
sg525
F7.5
sg97
F7.5
sg288
F5
sg289
F7.5
sg131
F2.5
sg132
F2.5
sg133
F7.5
sg60
F2.5
sg135
F7.5
sg136
F7.5
sg43
F7.5
sg174
F7.5
sg139
F7.5
sg140
F7.5
sg141
F5
sg70
F7.5
sg74
F10
sg533
F7.5
sg100
F10
sg143
F10
sg75
F10
sg144
F7.5
sg145
F10
sg146
F7.5
sg41
F7.5
sg42
F10
sg147
F0
sg128
F5
sg149
F5
sg438
F5
sg152
F10
sg153
F7.5
sg156
F10
sg157
F10
sg158
F5
sg159
F5
sg160
F10
sg161
F7.5
sg302
F7.5
sg163
F10
sg76
F7.5
sg189
F10
sg77
F7.5
sg167
F10
sg204
F7.5
sg303
F7.5
sg229
F10
sg168
F10
sg169
F10
sg304
F5
sg51
F5
sg170
F2.5
sg172
F7.5
sg173
F7.5
sg98
F7.5
sg175
F10
sg176
F10
sg73
F7.5
sg177
F10
sg68
F10
sg15
F10
sg179
F10
sg180
F7.5
sg80
F10
sg544
F10
ssg16
VSan Francisco Chronicle
p3406
sg18
NsbsVThe Playlist/Oliver Lyttelton
p3407
g3
(g4
g5
NtRp3408
(dp3409
g8
g3407
sg9
VOliver Lyttelton
p3410
sg11
S'http://www.metacritic.com/critic/oliver-lyttelton?filter=movies'
p3411
sg13
(dp3412
g33
F9.0999999999999996
sg290
F4.2000000000000002
sg228
F10
sg74
F10
sg100
F8.3000000000000007
sg482
F9.0999999999999996
sg229
F7.5
sg81
F10
ssg16
VThe Playlist
p3413
sg18
NsbsVThe New York Times/Manohla Dargis
p3414
g3
(g4
g5
NtRp3415
(dp3416
g8
g3414
sg9
VManohla Dargis
p3417
sg11
S'http://www.metacritic.com/critic/manohla-dargis?filter=movies'
p3418
sg13
(dp3419
g124
F10
sg288
F9
sg72
F6
sg135
F10
sg137
F8
sg141
F10
sg228
F8
sg25
F7
sg75
F10
sg15
F10
sg145
F9
sg273
F10
sg148
F10
sg149
F10
sg150
F9
sg151
F4
sg152
F5
sg153
F9
sg155
F9
sg158
F8
sg159
F5
sg164
F6
sg229
F7
sg71
F10
sg170
F5
sg173
F9
sg98
F7
sg176
F10
sg177
F9
sg178
F10
sg68
F10
ssg16
VThe New York Times
p3420
sg18
NsbsVThe Hollywood Reporter/Sheri Linden
p3421
g3
(g4
g5
NtRp3422
(dp3423
g8
g3421
sg9
VSheri Linden
p3424
sg11
S'http://www.metacritic.com/critic/sheri-linden?filter=movies'
p3425
sg13
(dp3426
g244
F9
ssg16
VThe Hollywood Reporter
p3427
sg18
NsbsVVariety/Todd McCarthy
p3428
g3
(g4
g5
NtRp3429
(dp3430
g8
g3428
sg9
VTodd McCarthy
p3431
sg11
S'http://www.metacritic.com/critic/todd-mccarthy?filter=movies'
p3432
sg13
(dp3433
g126
F9
sg134
F6
sg139
F8
sg140
F6
sg136
F9
sg41
F10
sg312
F9
sg146
F8
sg149
F10
sg152
F8
sg155
F9
sg180
F9
sg159
F9
sg160
F10
sg544
F9
sg168
F8
sg304
F7
sg173
F7
sg98
F10
sg301
F9
sg178
F9
sg179
F8
sg175
F5
ssg16
VVariety
p3434
sg18
NsbsVWashington Post/Stephanie Merry
p3435
g3
(g4
g5
NtRp3436
(dp3437
g8
g3435
sg9
VStephanie Merry
p3438
sg11
S'http://www.metacritic.com/critic/stephanie-merry?filter=movies'
p3439
sg13
(dp3440
g430
F7.5
sg174
F7.5
sg81
F6.2999999999999998
sg204
F7.5
ssg16
VWashington Post
p3441
sg18
NsbsVThe Hollywood Reporter/Bernard Besserglik
p3442
g3
(g4
g5
NtRp3443
(dp3444
g8
g3442
sg9
VBernard Besserglik
p3445
sg11
S'http://www.metacritic.com/critic?filter=movies'
p3446
sg13
(dp3447
g164
F8
ssg16
VThe Hollywood Reporter
p3448
sg18
NsbsVCineVue/Matthew Anderson
p3449
g3
(g4
g5
NtRp3450
(dp3451
g8
g3449
sg9
VMatthew Anderson
p3452
sg11
S'http://www.metacritic.com/critic/matthew-anderson?filter=movies'
p3453
sg13
(dp3454
g70
F8
ssg16
VCineVue
p3455
sg18
NsbsVNew York Observer/Thelma Adams
p3456
g3
(g4
g5
NtRp3457
(dp3458
g8
g3456
sg9
VThelma Adams
p3459
sg11
S'http://www.metacritic.com/critic?filter=movies'
p3460
sg13
(dp3461
g96
F7.5
ssg16
VNew York Observer
p3462
sg18
NsbsVThe Hollywood Reporter/Duane Byrge
p3463
g3
(g4
g5
NtRp3464
(dp3465
g8
g3463
sg9
VDuane Byrge
p3466
sg11
S'http://www.metacritic.com/critic?filter=movies'
p3467
sg13
(dp3468
g168
F5
ssg16
VThe Hollywood Reporter
p3469
sg18
NsbsVThe Seattle Times/Moira Macdonald
p3470
g3
(g4
g5
NtRp3471
(dp3472
g8
g3470
sg9
VMoira Macdonald
p3473
sg11
S'http://www.metacritic.com/critic/moira-macdonald?filter=movies'
p3474
sg13
(dp3475
g150
F8.8000000000000007
sg97
F10
sg70
F6.2999999999999998
sg15
F10
sg167
F10
sg174
F8.8000000000000007
ssg16
VThe Seattle Times
p3476
sg18
NsbsVThe Playlist/Jessica Kiang
p3477
g3
(g4
g5
NtRp3478
(dp3479
g8
g3477
sg9
VJessica Kiang
p3480
sg11
S'http://www.metacritic.com/critic/jessica-kiang?filter=movies'
p3481
sg13
(dp3482
g69
F8.3000000000000007
sg156
F8.3000000000000007
sg685
F10
sg72
F5
sg289
F10
sg73
F6.7000000000000002
sg174
F7.5
sg96
F8.3000000000000007
sg292
F9.0999999999999996
sg204
F8.3000000000000007
sg75
F10
sg76
F8.3000000000000007
sg189
F10
sg78
F9.0999999999999996
sg167
F10
sg99
F7.5
sg80
F9.0999999999999996
sg293
F8.3000000000000007
ssg16
VThe Playlist
p3483
sg18
NsbsVThe Hollywood Reporter/Ray Bennett
p3484
g3
(g4
g5
NtRp3485
(dp3486
g8
g3484
sg9
VRay Bennett
p3487
sg11
S'http://www.metacritic.com/critic/ray-bennett?filter=movies'
p3488
sg13
(dp3489
g130
F8
sg160
F8
sg176
F8
sg148
F8
sg179
F10
sg43
F6
ssg16
VThe Hollywood Reporter
p3490
sg18
NsbsVSan Francisco Chronicle/Michael Ordoa
p3491
g3
(g4
g5
NtRp3492
(dp3493
g8
g3491
sg9
VMichael Ordoa
p3494
sg11
S'http://www.metacritic.com/critic?filter=movies'
p3495
sg13
(dp3496
g482
F7.5
ssg16
VSan Francisco Chronicle
p3497
sg18
NsbsVTheWrap/Dan Callahan
p3498
g3
(g4
g5
NtRp3499
(dp3500
g8
g3498
sg9
VDan Callahan
p3501
sg11
S'http://www.metacritic.com/critic?filter=movies'
p3502
sg13
(dp3503
g71
F5
ssg16
VTheWrap
p3504
sg18
NsbsVSlate/Dana Stevens
p3505
g3
(g4
g5
NtRp3506
(dp3507
g8
g3505
sg9
VDana Stevens
p3508
sg11
S'http://www.metacritic.com/critic?filter=movies'
p3509
sg13
(dp3510
g124
F9
sg125
F5
sg97
F10
sg128
F8
sg131
F4
sg135
F8
sg174
F8
sg138
F10
sg141
F9
sg74
F8
sg75
F8
sg144
F7
sg145
F10
sg146
F8
sg15
F9
sg42
F10
sg148
F10
sg149
F10
sg150
F6
sg151
F6
sg152
F7
sg96
F8
sg153
F10
sg156
F7
sg157
F7
sg158
F4
sg159
F6
sg160
F7
sg161
F5
sg76
F10
sg189
F10
sg77
F9
sg166
F7
sg167
F10
sg168
F9
sg169
F8
sg71
F7
sg291
F8
sg98
F10
sg525
F8
sg176
F9
sg73
F9
sg177
F8
sg178
F9
sg302
F10
sg80
F9
sg68
F10
sg293
F10
ssg16
VSlate
p3511
sg18
NsbsVVariety/Alissa Simon
p3512
g3
(g4
g5
NtRp3513
(dp3514
g8
g3512
sg9
VAlissa Simon
p3515
sg11
S'http://www.metacritic.com/critic/alissa-simon?filter=movies'
p3516
sg13
(dp3517
g79
F8
sg138
F9
sg99
F9
ssg16
VVariety
p3518
sg18
NsbsVFilm.com/David Ehrlich
p3519
g3
(g4
g5
NtRp3520
(dp3521
g8
g3519
sg9
VDavid Ehrlich
p3522
sg11
S'http://www.metacritic.com/critic/david-ehrlich?filter=movies'
p3523
sg13
(dp3524
g141
F8
ssg16
VFilm.com
p3525
sg18
NsbsVThe A.V. Club/A.A. Dowd 
p3526
g3
(g4
g5
NtRp3527
(dp3528
g8
g3526
sg9
VA.A. Dowd 
p3529
sg11
S'http://www.metacritic.com/critic/aa-dowd?filter=movies'
p3530
sg13
(dp3531
g293
F8.3000000000000007
sg97
F10
sg141
F10
sg74
F8.3000000000000007
sg156
F8.3000000000000007
sg73
F5.7999999999999998
sg100
F9.0999999999999996
sg80
F8.3000000000000007
sg525
F9.0999999999999996
sg75
F8.3000000000000007
sg76
F9.0999999999999996
sg189
F10
sg229
F7.5
sg78
F7.5
sg15
F9.0999999999999996
sg79
F9.0999999999999996
sg137
F5.7999999999999998
sg81
F8.3000000000000007
sg77
F8.3000000000000007
ssg16
VThe A.V. Club
p3532
sg18
NsbsVNew York Daily News/Joe Dziemianowicz
p3533
g3
(g4
g5
NtRp3534
(dp3535
g8
g3533
sg9
VJoe Dziemianowicz
p3536
sg11
S'http://www.metacritic.com/critic/joe-dziemianowicz?filter=movies'
p3537
sg13
(dp3538
g70
F8
ssg16
VNew York Daily News
p3539
sg18
NsbsVChicago Tribune/Mark Caro
p3540
g3
(g4
g5
NtRp3541
(dp3542
g8
g3540
sg9
VMark Caro
p3543
sg11
S'http://www.metacritic.com/critic/mark-caro?filter=movies'
p3544
sg13
(dp3545
g134
F5
sg474
F3.7999999999999998
sg180
F7.5
sg181
F8.8000000000000007
ssg16
VChicago Tribune
p3546
sg18
NsbsVSan Francisco Chronicle/Amy Biancolli
p3547
g3
(g4
g5
NtRp3548
(dp3549
g8
g3547
sg9
VAmy Biancolli
p3550
sg11
S'http://www.metacritic.com/critic/amy-biancolli?filter=movies'
p3551
sg13
(dp3552
g166
F10
sg151
F5
sg178
F7.5
sg138
F10
ssg16
VSan Francisco Chronicle
p3553
sg18
NsbsVTime/Mary Corliss
p3554
g3
(g4
g5
NtRp3555
(dp3556
g8
g3554
sg9
VMary Corliss
p3557
sg11
S'http://www.metacritic.com/critic?filter=movies'
p3558
sg13
(dp3559
g135
F10
ssg16
VTime
p3560
sg18
NsbsVSan Francisco Chronicle/Walter Addiego
p3561
g3
(g4
g5
NtRp3562
(dp3563
g8
g3561
sg9
VWalter Addiego
p3564
sg11
S'http://www.metacritic.com/critic/walter-addiego?filter=movies'
p3565
sg13
(dp3566
g291
F7.5
sg79
F7.5
sg81
F7.5
sg293
F10
ssg16
VSan Francisco Chronicle
p3567
sg18
NsbsVFilm Threat/Mark Bell
p3568
g3
(g4
g5
NtRp3569
(dp3570
g8
g3568
sg9
VMark Bell
p3571
sg11
S'http://www.metacritic.com/critic?filter=movies'
p3572
sg13
(dp3573
g170
F7
sg148
F7
ssg16
VFilm Threat
p3574
sg18
NsbsVThe Globe and Mail (Toronto)/Christopher Harris
p3575
g3
(g4
g5
NtRp3576
(dp3577
g8
g3575
sg9
VChristopher Harris
p3578
sg11
S'http://www.metacritic.com/critic?filter=movies'
p3579
sg13
(dp3580
g51
F7.5
ssg16
VThe Globe and Mail (Toronto)
p3581
sg18
NsbsVEmpire/William Thomas
p3582
g3
(g4
g5
NtRp3583
(dp3584
g8
g3582
sg9
VWilliam Thomas
p3585
sg11
S'http://www.metacritic.com/critic/william-thomas?filter=movies'
p3586
sg13
(dp3587
g127
F6
ssg16
VEmpire
p3588
sg18
NsbsVTime/Richard Corliss
p3589
g3
(g4
g5
NtRp3590
(dp3591
g8
g3589
sg9
VRichard Corliss
p3592
sg11
S'http://www.metacritic.com/critic/richard-corliss?filter=movies'
p3593
sg13
(dp3594
g124
F10
sg125
F8
sg77
F7
sg128
F7
sg131
F5
sg541
F9
sg542
F10
sg138
F10
sg139
F9
sg219
F10
sg141
F10
sg74
F10
sg136
F10
sg143
F9
sg41
F10
sg162
F4
sg144
F5
sg42
F10
sg438
F3
sg152
F10
sg153
F10
sg155
F10
sg180
F9
sg158
F10
sg159
F10
sg146
F10
sg164
F9
sg166
F10
sg303
F5
sg544
F10
sg169
F8
sg71
F7
sg170
F7
sg171
F10
sg98
F10
sg176
F10
sg177
F10
sg178
F9
sg15
F10
sg181
F9
ssg16
VTime
p3595
sg18
NsbsVSan Francisco Chronicle/Judy Stone
p3596
g3
(g4
g5
NtRp3597
(dp3598
g8
g3596
sg9
VJudy Stone
p3599
sg11
S'http://www.metacritic.com/critic?filter=movies'
p3600
sg13
(dp3601
g542
F7.5
ssg16
VSan Francisco Chronicle
p3602
sg18
NsbsVNewsweek/David Ansen
p3603
g3
(g4
g5
NtRp3604
(dp3605
g8
g3603
sg9
VDavid Ansen
p3606
sg11
S'http://www.metacritic.com/critic/david-ansen?filter=movies'
p3607
sg13
(dp3608
g130
F8
sg139
F6
sg116
F9
sg136
F10
sg41
F10
sg148
F7
sg312
F8
sg146
F10
sg42
F9
sg145
F10
sg153
F7
sg155
F10
sg159
F9
sg161
F5
sg179
F10
sg544
F10
sg171
F10
sg173
F7
sg302
F10
sg149
F10
sg175
F9
sg181
F9
ssg16
VNewsweek
p3609
sg18
NsbsVSlant Magazine/Kenji Fujishima
p3610
g3
(g4
g5
NtRp3611
(dp3612
g8
g3610
sg9
VKenji Fujishima
p3613
sg11
S'http://www.metacritic.com/critic/kenji-fujishima?filter=movies'
p3614
sg13
(dp3615
g292
F7.5
sg81
F6.2999999999999998
ssg16
VSlant Magazine
p3616
sg18
NsbsVPortland Oregonian/Marc Mohan
p3617
g3
(g4
g5
NtRp3618
(dp3619
g8
g3617
sg9
VMarc Mohan
p3620
sg11
S'http://www.metacritic.com/critic/marc-mohan?filter=movies'
p3621
sg13
(dp3622
g124
F8.3000000000000007
sg125
F9.0999999999999996
sg33
F9.0999999999999996
sg74
F10
sg141
F8.3000000000000007
sg72
F9.0999999999999996
sg156
F9.0999999999999996
sg73
F8.3000000000000007
sg169
F7.5
sg204
F5.7999999999999998
sg75
F10
sg76
F9.0999999999999996
sg15
F8.3000000000000007
sg77
F10
sg273
F8.3000000000000007
sg135
F9.0999999999999996
sg293
F8.3000000000000007
sg168
F5
ssg16
VPortland Oregonian
p3623
sg18
NsbsVUSA Today/Claudia Puig
p3624
g3
(g4
g5
NtRp3625
(dp3626
g8
g3624
sg9
VClaudia Puig
p3627
sg11
S'http://www.metacritic.com/critic/claudia-puig?filter=movies'
p3628
sg13
(dp3629
g124
F6.2999999999999998
sg125
F8.8000000000000007
sg128
F6.2999999999999998
sg130
F8.8000000000000007
sg131
F6.2999999999999998
sg133
F6.2999999999999998
sg43
F7.5
sg138
F10
sg141
F8.8000000000000007
sg74
F10
sg136
F8.8000000000000007
sg143
F10
sg75
F8.8000000000000007
sg144
F7.5
sg145
F8.8000000000000007
sg146
F10
sg41
F10
sg42
F10
sg148
F7.5
sg149
F8.8000000000000007
sg152
F8.8000000000000007
sg153
F10
sg156
F8.8000000000000007
sg157
F7.5
sg158
F7.5
sg159
F7.5
sg160
F8.8000000000000007
sg161
F8.8000000000000007
sg77
F7.5
sg166
F8.8000000000000007
sg303
F8.8000000000000007
sg544
F7.5
sg168
F10
sg169
F8.8000000000000007
sg71
F6.2999999999999998
sg170
F6.2999999999999998
sg171
F8.8000000000000007
sg98
F10
sg176
F8.8000000000000007
sg73
F10
sg177
F10
sg178
F7.5
sg15
F10
sg302
F10
sg180
F8.8000000000000007
ssg16
VUSA Today
p3630
sg18
NsbsVTV Guide Magazine/Maitland McDonagh
p3631
g3
(g4
g5
NtRp3632
(dp3633
g8
g3631
sg9
VMaitland McDonagh
p3634
sg11
S'http://www.metacritic.com/critic/maitland-mcdonagh?filter=movies'
p3635
sg13
(dp3636
g244
F7
sg127
F3.7999999999999998
sg130
F10
sg132
F6
sg134
F4
sg43
F7.5
sg140
F4
sg116
F8
sg136
F6
sg41
F7
sg145
F7.5
sg312
F5
sg147
F4
sg149
F7.5
sg438
F4
sg126
F8
sg153
F10
sg159
F6.2999999999999998
sg160
F7.5
sg148
F7.5
sg303
F6
sg544
F7
sg173
F6
sg301
F8
ssg16
VTV Guide Magazine
p3637
sg18
NsbsVThe Guardian/Lanre Bakare
p3638
g3
(g4
g5
NtRp3639
(dp3640
g8
g3638
sg9
VLanre Bakare
p3641
sg11
S'http://www.metacritic.com/critic/lanre-bakare?filter=movies'
p3642
sg13
(dp3643
g97
F6
ssg16
VThe Guardian
p3644
sg18
NsbsVThe New York Times/Stephen Holden
p3645
g3
(g4
g5
NtRp3646
(dp3647
g8
g3645
sg9
VStephen Holden
p3648
sg11
S'http://www.metacritic.com/critic/stephen-holden?filter=movies'
p3649
sg13
(dp3650
g304
F9
sg312
F10
sg204
F9
sg140
F2
sg60
F7
sg179
F10
sg79
F10
sg43
F6
ssg16
VThe New York Times
p3651
sg18
NsbsVVillage Voice/Michael Nordine
p3652
g3
(g4
g5
NtRp3653
(dp3654
g8
g3652
sg9
VMichael Nordine
p3655
sg11
S'http://www.metacritic.com/critic/michael-nordine?filter=movies'
p3656
sg13
(dp3657
g81
F9
ssg16
VVillage Voice
p3658
sg18
NsbsVLos Angeles Times/Robert Abele
p3659
g3
(g4
g5
NtRp3660
(dp3661
g8
g3659
sg9
VRobert Abele
p3662
sg11
S'http://www.metacritic.com/critic/robert-abele?filter=movies'
p3663
sg13
(dp3664
g289
F7
ssg16
VLos Angeles Times
p3665
sg18
NsbsVCineVue/Tom Graham
p3666
g3
(g4
g5
NtRp3667
(dp3668
g8
g3666
sg9
VTom Graham
p3669
sg11
S'http://www.metacritic.com/critic?filter=movies'
p3670
sg13
(dp3671
g163
F8
ssg16
VCineVue
p3672
sg18
NsbsVScreen International/Mark Adams
p3673
g3
(g4
g5
NtRp3674
(dp3675
g8
g3673
sg9
VMark Adams
p3676
sg11
S'http://www.metacritic.com/critic/mark-adams?filter=movies'
p3677
sg13
(dp3678
g189
F9
ssg16
VScreen International
p3679
sg18
NsbsVThe Globe and Mail (Toronto)/Jay Scott
p3680
g3
(g4
g5
NtRp3681
(dp3682
g8
g3680
sg9
VJay Scott
p3683
sg11
S'http://www.metacritic.com/critic/jay-scott?filter=movies'
p3684
sg13
(dp3685
g542
F10
ssg16
VThe Globe and Mail (Toronto)
p3686
sg18
NsbsVFilm Threat/Eric Campos
p3687
g3
(g4
g5
NtRp3688
(dp3689
g8
g3687
sg9
VEric Campos
p3690
sg11
S'http://www.metacritic.com/critic?filter=movies'
p3691
sg13
(dp3692
g136
F10
ssg16
VFilm Threat
p3693
sg18
NsbsVThe A.V. Club/Noel Murray
p3694
g3
(g4
g5
NtRp3695
(dp3696
g8
g3694
sg9
VNoel Murray
p3697
sg11
S'http://www.metacritic.com/critic/noel-murray?filter=movies'
p3698
sg13
(dp3699
g170
F6.7000000000000002
sg130
F9.0999999999999996
sg163
F9.0999999999999996
sg430
F9.0999999999999996
sg165
F7
sg302
F9.0999999999999996
sg42
F7.5
sg43
F6.7000000000000002
ssg16
VThe A.V. Club
p3700
sg18
NsbsVTotal Film/Jamie Graham
p3701
g3
(g4
g5
NtRp3702
(dp3703
g8
g3701
sg9
VJamie Graham
p3704
sg11
S'http://www.metacritic.com/critic/jamie-graham?filter=movies'
p3705
sg13
(dp3706
g33
F8
sg97
F10
sg75
F10
sg76
F10
sg229
F8
sg135
F10
sg80
F8
sg68
F8
ssg16
VTotal Film
p3707
sg18
NsbsVL.A. Weekly/Manohla Dargis
p3708
g3
(g4
g5
NtRp3709
(dp3710
g8
g3708
sg9
VManohla Dargis
p3711
sg11
S'http://www.metacritic.com/critic/manohla-dargis?filter=movies'
p3712
sg13
(dp3713
g541
F9
sg126
F6
sg303
F2
sg544
F10
ssg16
VL.A. Weekly
p3714
sg18
NsbsVScreen International/Jonathan Romney
p3715
g3
(g4
g5
NtRp3716
(dp3717
g8
g3715
sg9
VJonathan Romney
p3718
sg11
S'http://www.metacritic.com/critic?filter=movies'
p3719
sg13
(dp3720
g70
F6
sg100
F9
ssg16
VScreen International
p3721
sg18
NsbsVThe Hollywood Reporter/Kirk Honeycutt
p3722
g3
(g4
g5
NtRp3723
(dp3724
g8
g3722
sg9
VKirk Honeycutt
p3725
sg11
S'http://www.metacritic.com/critic/kirk-honeycutt?filter=movies'
p3726
sg13
(dp3727
g302
F9
sg152
F6
sg170
F8
sg180
F10
sg171
F10
sg155
F10
sg173
F9
sg159
F8
sg178
F10
sg143
F10
sg166
F9
sg133
F7
sg177
F10
sg145
F8
sg153
F10
sg165
F8
sg146
F10
sg181
F9
sg139
F6
ssg16
VThe Hollywood Reporter
p3728
sg18
NsbsVEmpire/Damon Wise
p3729
g3
(g4
g5
NtRp3730
(dp3731
g8
g3729
sg9
VDamon Wise
p3732
sg11
S'http://www.metacritic.com/critic/damon-wise?filter=movies'
p3733
sg13
(dp3734
g156
F8
sg176
F10
sg73
F10
sg177
F8
sg148
F8
sg128
F10
ssg16
VEmpire
p3735
sg18
NsbsVVillage Voice/Alan Scherstuhl
p3736
g3
(g4
g5
NtRp3737
(dp3738
g8
g3736
sg9
VAlan Scherstuhl
p3739
sg11
S'http://www.metacritic.com/critic/alan-scherstuhl?filter=movies'
p3740
sg13
(dp3741
g290
F8
sg72
F10
sg70
F7
sg99
F10
sg25
F8
sg78
F10
sg79
F9
sg525
F6
ssg16
VVillage Voice
p3742
sg18
NsbsVTampa Bay Times/Steve Persall
p3743
g3
(g4
g5
NtRp3744
(dp3745
g8
g3743
sg9
VSteve Persall
p3746
sg11
S'http://www.metacritic.com/critic/steve-persall?filter=movies'
p3747
sg13
(dp3748
g124
F10
sg97
F10
sg128
F10
sg133
F6.7000000000000002
sg135
F10
sg137
F9.0999999999999996
sg138
F10
sg141
F10
sg70
F6.7000000000000002
sg74
F10
sg174
F10
sg75
F10
sg15
F10
sg150
F5.7999999999999998
sg151
F8.3000000000000007
sg156
F10
sg157
F10
sg158
F7.5
sg163
F8.3000000000000007
sg76
F10
sg77
F10
sg166
F8.3000000000000007
sg167
F8.3000000000000007
sg168
F10
sg169
F7.5
sg51
F5.7999999999999998
sg172
F7.5
sg525
F10
sg73
F10
sg177
F10
sg68
F10
sg80
F10
sg81
F10
ssg16
VTampa Bay Times
p3749
sg18
NsbsVRolling Stone/Peter Travers
p3750
g3
(g4
g5
NtRp3751
(dp3752
g8
g3750
sg9
VPeter Travers
p3753
sg11
S'http://www.metacritic.com/critic/peter-travers?filter=movies'
p3754
sg13
(dp3755
g124
F10
sg125
F8.8000000000000007
sg77
F8.8000000000000007
sg525
F8.8000000000000007
sg150
F8.8000000000000007
sg127
F2.5
sg289
F8.8000000000000007
sg130
F10
sg131
F6.2999999999999998
sg541
F9
sg132
F2.5
sg133
F7.5
sg135
F8.8000000000000007
sg543
F10
sg136
F7.5
sg137
F8.8000000000000007
sg138
F8.8000000000000007
sg139
F8.8000000000000007
sg301
F10
sg141
F8.8000000000000007
sg116
F9
sg70
F6.2999999999999998
sg228
F8.8000000000000007
sg74
F10
sg533
F7.5
sg100
F8.8000000000000007
sg143
F8.8000000000000007
sg75
F10
sg178
F8.8000000000000007
sg148
F8.8000000000000007
sg144
F8.8000000000000007
sg145
F10
sg312
F10
sg146
F10
sg41
F8.8000000000000007
sg42
F8.8000000000000007
sg147
F0
sg128
F10
sg544
F10
sg149
F10
sg438
F4
sg151
F5
sg152
F7.5
sg96
F8.8000000000000007
sg153
F8.8000000000000007
sg155
F10
sg156
F8.8000000000000007
sg157
F8.8000000000000007
sg158
F8.8000000000000007
sg159
F7.5
sg160
F10
sg161
F8.8000000000000007
sg163
F8.8000000000000007
sg76
F10
sg189
F8.8000000000000007
sg164
F8.8000000000000007
sg97
F10
sg166
F8.8000000000000007
sg167
F10
sg229
F8.8000000000000007
sg168
F8.8000000000000007
sg169
F8.8000000000000007
sg304
F9
sg71
F7.5
sg170
F6.2999999999999998
sg171
F8.8000000000000007
sg291
F7.5
sg59
F8
sg172
F8.8000000000000007
sg173
F7.5
sg174
F8.8000000000000007
sg98
F10
sg175
F8.8000000000000007
sg176
F10
sg73
F8.8000000000000007
sg177
F10
sg68
F10
sg15
F10
sg179
F10
sg180
F8.8000000000000007
sg293
F10
sg80
F10
sg81
F8.8000000000000007
sg181
F8.8000000000000007
ssg16
VRolling Stone
p3756
sg18
NsbsVBoston Globe/Jay Carr
p3757
g3
(g4
g5
NtRp3758
(dp3759
g8
g3757
sg9
VJay Carr
p3760
sg11
S'http://www.metacritic.com/critic/jay-carr?filter=movies'
p3761
sg13
(dp3762
g438
F2.5
sg304
F10
sg116
F7.5
sg301
F10
sg312
F10
sg474
F6.2999999999999998
sg303
F8.8000000000000007
sg544
F10
ssg16
VBoston Globe
p3763
sg18
NsbsVNew York Daily News/Jami Bernard
p3764
g3
(g4
g5
NtRp3765
(dp3766
g8
g3764
sg9
VJami Bernard
p3767
sg11
S'http://www.metacritic.com/critic/jami-bernard?filter=movies'
p3768
sg13
(dp3769
g244
F8.8000000000000007
sg304
F8.8000000000000007
sg116
F5
sg301
F10
sg179
F10
sg312
F8.8000000000000007
sg134
F3.7999999999999998
sg175
F8.8000000000000007
ssg16
VNew York Daily News
p3770
sg18
NsbsVRogerEbert.com/Matt Zoller Seitz
p3771
g3
(g4
g5
NtRp3772
(dp3773
g8
g3771
sg9
VMatt Zoller Seitz
p3774
sg11
S'http://www.metacritic.com/critic/matt-zoller-seitz?filter=movies'
p3775
sg13
(dp3776
g71
F10
sg97
F10
sg74
F10
sg99
F7.5
sg76
F10
sg273
F10
sg525
F7.5
sg68
F8.8000000000000007
ssg16
VRogerEbert.com
p3777
sg18
NsbsVFilm Threat/Ron Wells
p3778
g3
(g4
g5
NtRp3779
(dp3780
g8
g3778
sg9
VRon Wells
p3781
sg11
S'http://www.metacritic.com/critic/ron-wells?filter=movies'
p3782
sg13
(dp3783
g544
F8
ssg16
VFilm Threat
p3784
sg18
NsbsVThe Hollywood Reporter/Frank Scheck
p3785
g3
(g4
g5
NtRp3786
(dp3787
g8
g3785
sg9
VFrank Scheck
p3788
sg11
S'http://www.metacritic.com/critic/frank-scheck?filter=movies'
p3789
sg13
(dp3790
g127
F3
ssg16
VThe Hollywood Reporter
p3791
sg18
NsbsVNPR/Ian Buckwalter
p3792
g3
(g4
g5
NtRp3793
(dp3794
g8
g3792
sg9
VIan Buckwalter
p3795
sg11
S'http://www.metacritic.com/critic/ian-buckwalter?filter=movies'
p3796
sg13
(dp3797
g151
F4.5
sg169
F8
sg77
F9.5
ssg16
VNPR
p3798
sg18
NsbsVSlate/David Edelstein
p3799
g3
(g4
g5
NtRp3800
(dp3801
g8
g3799
sg9
VDavid Edelstein
p3802
sg11
S'http://www.metacritic.com/critic/david-edelstein?filter=movies'
p3803
sg13
(dp3804
g140
F7
sg126
F3
sg180
F10
sg155
F9
sg116
F9
sg173
F7
sg136
F7
sg143
F9
sg304
F9
sg41
F10
sg164
F8
sg312
F10
sg179
F6
sg474
F5
sg147
F6
sg175
F10
sg544
F10
sg181
F9
ssg16
VSlate
p3805
sg18
NsbsVTotal Film/Emma Morgan
p3806
g3
(g4
g5
NtRp3807
(dp3808
g8
g3806
sg9
VEmma Morgan
p3809
sg11
S'http://www.metacritic.com/critic?filter=movies'
p3810
sg13
(dp3811
g156
F8
ssg16
VTotal Film
p3812
sg18
NsbsVNPR/Scott Tobias
p3813
g3
(g4
g5
NtRp3814
(dp3815
g8
g3813
sg9
VScott Tobias
p3816
sg11
S'http://www.metacritic.com/critic?filter=movies'
p3817
sg13
(dp3818
g152
F6.7000000000000002
sg168
F9
ssg16
VNPR
p3819
sg18
NsbsVVillage Voice/Dennis Lim
p3820
g3
(g4
g5
NtRp3821
(dp3822
g8
g3820
sg9
VDennis Lim
p3823
sg11
S'http://www.metacritic.com/critic/dennis-lim?filter=movies'
p3824
sg13
(dp3825
g438
F3
sg312
F8
ssg16
VVillage Voice
p3826
sg18
NsbsVAustin Chronicle/Kimberley Jones
p3827
g3
(g4
g5
NtRp3828
(dp3829
g8
g3827
sg9
VKimberley Jones
p3830
sg11
S'http://www.metacritic.com/critic/kimberley-jones?filter=movies'
p3831
sg13
(dp3832
g124
F8.9000000000000004
sg141
F8.9000000000000004
sg70
F6.7000000000000002
sg143
F7.7999999999999998
sg75
F10
sg144
F7.7999999999999998
sg312
F7.7999999999999998
sg156
F10
sg157
F7.7999999999999998
sg96
F8.9000000000000004
sg76
F8.9000000000000004
sg189
F10
sg77
F8.9000000000000004
sg166
F7.7999999999999998
sg303
F8.9000000000000004
sg168
F6.7000000000000002
sg169
F6.7000000000000002
sg304
F7.7999999999999998
sg172
F7.7999999999999998
sg177
F8.9000000000000004
sg474
F2
sg181
F8.9000000000000004
sg68
F6.7000000000000002
sg164
F5
ssg16
VAustin Chronicle
p3833
sg18
NsbsVArizona Republic/Bill Goodykoontz
p3834
g3
(g4
g5
NtRp3835
(dp3836
g8
g3834
sg9
VBill Goodykoontz
p3837
sg11
S'http://www.metacritic.com/critic/bill-goodykoontz?filter=movies'
p3838
sg13
(dp3839
g124
F10
sg125
F8
sg33
F8
sg97
F10
sg289
F8
sg131
F5
sg133
F7
sg135
F9
sg137
F8
sg138
F10
sg141
F10
sg70
F8
sg228
F9
sg74
F10
sg533
F9
sg100
F9
sg75
F10
sg430
F8
sg15
F10
sg108
F8
sg128
F9
sg150
F8
sg156
F9
sg158
F8
sg96
F9
sg204
F8
sg163
F9
sg76
F10
sg189
F9
sg77
F9
sg166
F10
sg167
F9
sg229
F8
sg168
F9
sg169
F9
sg71
F8
sg291
F9
sg172
F9
sg174
F8
sg525
F9
sg73
F8
sg177
F10
sg68
F9
sg80
F10
sg81
F8
sg293
F9
ssg16
VArizona Republic
p3840
sg18
NsbsVEntertainment Weekly/Chris Nashawaty
p3841
g3
(g4
g5
NtRp3842
(dp3843
g8
g3841
sg9
VChris Nashawaty
p3844
sg11
S'http://www.metacritic.com/critic/chris-nashawaty?filter=movies'
p3845
sg13
(dp3846
g150
F7.5
sg70
F7.5
sg71
F5
sg97
F10
sg141
F7.5
sg289
F10
sg73
F8.3000000000000007
sg174
F10
sg100
F10
sg525
F9.0999999999999996
sg75
F9.0999999999999996
sg163
F8.3000000000000007
sg76
F10
sg229
F7.5
sg68
F9.0999999999999996
sg167
F9.0999999999999996
sg108
F9.0999999999999996
sg80
F10
sg81
F10
sg293
F7.5
ssg16
VEntertainment Weekly
p3847
sg18
NsbsVChicago Tribune/Marc Caro
p3848
g3
(g4
g5
NtRp3849
(dp3850
g8
g3848
sg9
VMarc Caro
p3851
sg11
S'http://www.metacritic.com/critic?filter=movies'
p3852
sg13
(dp3853
g140
F8.8000000000000007
ssg16
VChicago Tribune
p3854
sg18
NsbsVPhiladelphia Inquirer/Carrie Rickey
p3855
g3
(g4
g5
NtRp3856
(dp3857
g8
g3855
sg9
VCarrie Rickey
p3858
sg11
S'http://www.metacritic.com/critic/carrie-rickey?filter=movies'
p3859
sg13
(dp3860
g130
F10
sg132
F5
sg133
F7.5
sg134
F5
sg301
F7.5
sg136
F7.5
sg143
F8.8000000000000007
sg312
F7.5
sg42
F10
sg438
F2.5
sg151
F5
sg153
F7.5
sg155
F10
sg157
F8.8000000000000007
sg161
F8.8000000000000007
sg302
F10
sg165
F8.8000000000000007
sg51
F7.5
sg173
F6.2999999999999998
sg98
F10
sg140
F8.8000000000000007
sg177
F10
sg179
F8.8000000000000007
sg474
F6.2999999999999998
sg175
F8.8000000000000007
sg181
F10
ssg16
VPhiladelphia Inquirer
p3861
sg18
NsbsVBoxoffice Magazine/Amy Nicholson
p3862
g3
(g4
g5
NtRp3863
(dp3864
g8
g3862
sg9
VAmy Nicholson
p3865
sg11
S'http://www.metacritic.com/critic?filter=movies'
p3866
sg13
(dp3867
g158
F7
ssg16
VBoxoffice Magazine
p3868
sg18
NsbsVChicago Sun-Times/Steven Boone
p3869
g3
(g4
g5
NtRp3870
(dp3871
g8
g3869
sg9
VSteven Boone
p3872
sg11
S'http://www.metacritic.com/critic?filter=movies'
p3873
sg13
(dp3874
g291
F8.8000000000000007
ssg16
VChicago Sun-Times
p3875
sg18
NsbsVRogerEbert.com/Brian Tallerico
p3876
g3
(g4
g5
NtRp3877
(dp3878
g8
g3876
sg9
VBrian Tallerico
p3879
sg11
S'http://www.metacritic.com/critic/brian-tallerico?filter=movies'
p3880
sg13
(dp3881
g70
F7.5
sg69
F8.8000000000000007
sg430
F8.8000000000000007
sg174
F7.5
sg204
F7.5
ssg16
VRogerEbert.com
p3882
sg18
NsbsVChicago Reader/Jonathan Rosenbaum
p3883
g3
(g4
g5
NtRp3884
(dp3885
g8
g3883
sg9
VJonathan Rosenbaum
p3886
sg11
S'http://www.metacritic.com/critic/jonathan-rosenbaum?filter=movies'
p3887
sg13
(dp3888
g244
F9
sg129
F8
sg130
F10
sg543
F2
sg60
F4
sg542
F10
sg43
F5
sg139
F5
sg116
F9
sg143
F7
sg142
F10
sg148
F7
sg312
F9
sg162
F8
sg42
F7
sg147
F6
sg149
F7
sg438
F6
sg126
F8
sg155
F7
sg180
F10
sg160
F3
sg164
F6
sg544
F6
sg304
F9
sg59
F8
sg301
F9
sg179
F7
sg474
F4
sg175
F9
sg181
F7
ssg16
VChicago Reader
p3889
sg18
NsbsVThe New York Times/Bosley Crowther
p3890
g3
(g4
g5
NtRp3891
(dp3892
g8
g3890
sg9
VBosley Crowther
p3893
sg11
S'http://www.metacritic.com/critic?filter=movies'
p3894
sg13
(dp3895
g129
F7
ssg16
VThe New York Times
p3896
sg18
NsbsVThe A.V. Club/David Ehrlich
p3897
g3
(g4
g5
NtRp3898
(dp3899
g8
g3897
sg9
VDavid Ehrlich
p3900
sg11
S'http://www.metacritic.com/critic/david-ehrlich?filter=movies'
p3901
sg13
(dp3902
g33
F10
ssg16
VThe A.V. Club
p3903
sg18
NsbsVThe Hollywood Reporter/Eric Hansen
p3904
g3
(g4
g5
NtRp3905
(dp3906
g8
g3904
sg9
VEric Hansen
p3907
sg11
S'http://www.metacritic.com/critic?filter=movies'
p3908
sg13
(dp3909
g42
F8
ssg16
VThe Hollywood Reporter
p3910
sg18
NsbsVThe Film Stage/Giovanni Marchini Camia
p3911
g3
(g4
g5
NtRp3912
(dp3913
g8
g3911
sg9
VGiovanni Marchini Camia
p3914
sg11
S'http://www.metacritic.com/critic/giovanni-marchini-camia?filter=movies'
p3915
sg13
(dp3916
g96
F6.7000000000000002
sg292
F7.5
sg81
F8.3000000000000007
sg174
F7.5
ssg16
VThe Film Stage
p3917
sg18
NsbsVChicago Sun-Times/Bruce Ingram
p3918
g3
(g4
g5
NtRp3919
(dp3920
g8
g3918
sg9
VBruce Ingram
p3921
sg11
S'http://www.metacritic.com/critic/bruce-ingram?filter=movies'
p3922
sg13
(dp3923
g156
F10
sg229
F7.5
ssg16
VChicago Sun-Times
p3924
sg18
NsbsVBoxoffice Magazine/John P. McCarthy
p3925
g3
(g4
g5
NtRp3926
(dp3927
g8
g3925
sg9
VJohn P. McCarthy
p3928
sg11
S'http://www.metacritic.com/critic/john-p-mccarthy?filter=movies'
p3929
sg13
(dp3930
g151
F5
ssg16
VBoxoffice Magazine
p3931
sg18
NsbsVFilm Threat/Clint Morris
p3932
g3
(g4
g5
NtRp3933
(dp3934
g8
g3932
sg9
VClint Morris
p3935
sg11
S'http://www.metacritic.com/critic?filter=movies'
p3936
sg13
(dp3937
g134
F4
ssg16
VFilm Threat
p3938
sg18
NsbsVVillage Voice/Alex Pappademas
p3939
g3
(g4
g5
NtRp3940
(dp3941
g8
g3939
sg9
VAlex Pappademas
p3942
sg11
S'http://www.metacritic.com/critic?filter=movies'
p3943
sg13
(dp3944
g134
F3
ssg16
VVillage Voice
p3945
sg18
NsbsVSan Francisco Examiner/G. Allen Johnson
p3946
g3
(g4
g5
NtRp3947
(dp3948
g8
g3946
sg9
VG. Allen Johnson
p3949
sg11
S'http://www.metacritic.com/critic/g-allen-johnson?filter=movies'
p3950
sg13
(dp3951
g162
F8.8000000000000007
sg60
F0
ssg16
VSan Francisco Examiner
p3952
sg18
NsbsVSlant Magazine/Nick Schager
p3953
g3
(g4
g5
NtRp3954
(dp3955
g8
g3953
sg9
VNick Schager
p3956
sg11
S'http://www.metacritic.com/critic/nick-schager?filter=movies'
p3957
sg13
(dp3958
g151
F2.5
sg158
F7.5
sg138
F8.8000000000000007
ssg16
VSlant Magazine
p3959
sg18
NsbsVPortland Oregonian/Kim Morgan
p3960
g3
(g4
g5
NtRp3961
(dp3962
g8
g3960
sg9
VKim Morgan
p3963
sg11
S'http://www.metacritic.com/critic/kim-morgan?filter=movies'
p3964
sg13
(dp3965
g438
F5
sg134
F4.2000000000000002
sg474
F4.2000000000000002
ssg16
VPortland Oregonian
p3966
sg18
NsbsVOrlando Sentinel/Roger Moore
p3967
g3
(g4
g5
NtRp3968
(dp3969
g8
g3967
sg9
VRoger Moore
p3970
sg11
S'http://www.metacritic.com/critic/roger-moore?filter=movies'
p3971
sg13
(dp3972
g151
F5
sg157
F7.5
sg133
F7.5
sg177
F10
sg166
F7.5
sg168
F7.5
ssg16
VOrlando Sentinel
p3973
sg18
NsbsVThe New York Times/A.O. Scott
p3974
g3
(g4
g5
NtRp3975
(dp3976
g8
g3974
sg9
VA.O. Scott
p3977
sg11
S'http://www.metacritic.com/critic/ao-scott?filter=movies'
p3978
sg13
(dp3979
g125
F10
sg97
F9
sg289
F7
sg130
F10
sg131
F5
sg541
F10
sg132
F1
sg133
F7
sg41
F10
sg174
F6
sg138
F8
sg70
F6
sg74
F9
sg100
F7
sg99
F10
sg482
F9
sg146
F10
sg144
F7
sg42
F10
sg108
F6
sg128
F10
sg438
F5
sg136
F9
sg156
F10
sg157
F9
sg96
F10
sg160
F10
sg161
F8
sg163
F9
sg76
F10
sg189
F9
sg77
F10
sg166
F6
sg167
F10
sg303
F9
sg168
F5
sg169
F10
sg171
F10
sg291
F10
sg172
F7
sg525
F10
sg73
F9
sg78
F8
sg302
F9
sg293
F10
sg80
F10
sg81
F10
sg181
F10
ssg16
VThe New York Times
p3980
sg18
NsbsVVariety/Guy Lodge
p3981
g3
(g4
g5
NtRp3982
(dp3983
g8
g3981
sg9
VGuy Lodge
p3984
sg11
S'http://www.metacritic.com/critic/guy-lodge?filter=movies'
p3985
sg13
(dp3986
g290
F6
sg81
F10
sg204
F8
ssg16
VVariety
p3987
sg18
NsbsVFilm Threat/Phil Hall
p3988
g3
(g4
g5
NtRp3989
(dp3990
g8
g3988
sg9
VPhil Hall
p3991
sg11
S'http://www.metacritic.com/critic/phil-hall?filter=movies'
p3992
sg13
(dp3993
g179
F4
sg175
F5
ssg16
VFilm Threat
p3994
sg18
NsbsVNew York Daily News/Jordan Hoffman
p3995
g3
(g4
g5
NtRp3996
(dp3997
g8
g3995
sg9
VJordan Hoffman
p3998
sg11
S'http://www.metacritic.com/critic?filter=movies'
p3999
sg13
(dp4000
g79
F8
sg229
F8
ssg16
VNew York Daily News
p4001
sg18
NsbsVLos Angeles Times/Carina Chocano
p4002
g3
(g4
g5
NtRp4003
(dp4004
g8
g4002
sg9
VCarina Chocano
p4005
sg11
S'http://www.metacritic.com/critic/carina-chocano?filter=movies'
p4006
sg13
(dp4007
g143
F9
sg302
F8
sg43
F7
sg164
F8
ssg16
VLos Angeles Times
p4008
sg18
NsbsVL.A. Weekly/John Patterson
p4009
g3
(g4
g5
NtRp4010
(dp4011
g8
g4009
sg9
VJohn Patterson
p4012
sg11
S'http://www.metacritic.com/critic/john-patterson?filter=movies'
p4013
sg13
(dp4014
g140
F8
ssg16
VL.A. Weekly
p4015
sg18
NsbsVEmpire/Colin Kennedy
p4016
g3
(g4
g5
NtRp4017
(dp4018
g8
g4016
sg9
VColin Kennedy
p4019
sg11
S'http://www.metacritic.com/critic?filter=movies'
p4020
sg13
(dp4021
g180
F8
ssg16
VEmpire
p4022
sg18
NsbsVVillage Voice/Chris Packham
p4023
g3
(g4
g5
NtRp4024
(dp4025
g8
g4023
sg9
VChris Packham
p4026
sg11
S'http://www.metacritic.com/critic?filter=movies'
p4027
sg13
(dp4028
g169
F9
ssg16
VVillage Voice
p4029
sg18
NsbsVNew York Daily News/Jack Mathews
p4030
g3
(g4
g5
NtRp4031
(dp4032
g8
g4030
sg9
VJack Mathews
p4033
sg11
S'http://www.metacritic.com/critic/jack-mathews?filter=movies'
p4034
sg13
(dp4035
g127
F5
sg130
F10
sg541
F8.8000000000000007
sg132
F5
sg43
F7.5
sg139
F8.8000000000000007
sg140
F6.2999999999999998
sg136
F10
sg143
F7.5
sg41
F10
sg145
F10
sg42
F8.8000000000000007
sg147
F3.7999999999999998
sg148
F7.5
sg149
F8.8000000000000007
sg438
F2.5
sg126
F7.5
sg155
F10
sg180
F10
sg159
F10
sg160
F8.8000000000000007
sg161
F6.2999999999999998
sg164
F7.5
sg303
F6.2999999999999998
sg544
F8.8000000000000007
sg171
F10
sg173
F7.5
sg176
F10
sg302
F8.8000000000000007
sg474
F3.7999999999999998
sg181
F8.8000000000000007
ssg16
VNew York Daily News
p4036
sg18
NsbsVFilm.com/Stephanie Zacharek
p4037
g3
(g4
g5
NtRp4038
(dp4039
g8
g4037
sg9
VStephanie Zacharek
p4040
sg11
S'http://www.metacritic.com/critic/stephanie-zacharek?filter=movies'
p4041
sg13
(dp4042
g124
F10
ssg16
VFilm.com
p4043
sg18
NsbsVThe New York Times/Dana Stevens
p4044
g3
(g4
g5
NtRp4045
(dp4046
g8
g4044
sg9
VDana Stevens
p4047
sg11
S'http://www.metacritic.com/critic/dana-stevens?filter=movies'
p4048
sg13
(dp4049
g143
F9
sg165
F9
sg134
F2
sg474
F3
sg147
F4
sg175
F9
sg139
F7
ssg16
VThe New York Times
p4050
sg18
NsbsVTNT RoughCut/Matt Kelsey
p4051
g3
(g4
g5
NtRp4052
(dp4053
g8
g4051
sg9
VMatt Kelsey
p4054
sg11
S'http://www.metacritic.com/critic?filter=movies'
p4055
sg13
(dp4056
g140
F8.5
ssg16
VTNT RoughCut
p4057
sg18
NsbsVEmpire/Nev Pierce
p4058
g3
(g4
g5
NtRp4059
(dp4060
g8
g4058
sg9
VNev Pierce
p4061
sg11
S'http://www.metacritic.com/critic?filter=movies'
p4062
sg13
(dp4063
g166
F10
sg167
F8
sg158
F10
sg168
F8
ssg16
VEmpire
p4064
sg18
NsbsVMovieline/Stephanie Zacharek
p4065
g3
(g4
g5
NtRp4066
(dp4067
g8
g4065
sg9
VStephanie Zacharek
p4068
sg11
S'http://www.metacritic.com/critic/stephanie-zacharek?filter=movies'
p4069
sg13
(dp4070
g151
F4
sg157
F9
sg133
F7.5
sg177
F9.5
sg166
F3
sg138
F8.5
sg168
F8.5
ssg16
VMovieline
p4071
sg18
NsbsVIndiewire/Eric Kohn
p4072
g3
(g4
g5
NtRp4073
(dp4074
g8
g4072
sg9
VEric Kohn
p4075
sg11
S'http://www.metacritic.com/critic/eric-kohn?filter=movies'
p4076
sg13
(dp4077
g124
F10
sg125
F7.5
sg97
F8.3000000000000007
sg288
F9.0999999999999996
sg72
F9.0999999999999996
sg289
F8.3000000000000007
sg131
F7.5
sg220
F10
sg133
F6.7000000000000002
sg135
F9.0999999999999996
sg137
F8.3000000000000007
sg138
F10
sg141
F9.0999999999999996
sg70
F7.5
sg228
F10
sg74
F9.0999999999999996
sg100
F9.0999999999999996
sg25
F7.5
sg75
F9.0999999999999996
sg15
F10
sg150
F6.7000000000000002
sg156
F9.0999999999999996
sg158
F7.5
sg76
F9.0999999999999996
sg189
F9.0999999999999996
sg77
F9.0999999999999996
sg167
F10
sg229
F10
sg169
F7.5
sg71
F8.3000000000000007
sg291
F7.5
sg174
F6.7000000000000002
sg73
F6.7000000000000002
sg68
F9.0999999999999996
sg78
F10
sg80
F7.5
sg81
F9.0999999999999996
ssg16
VIndiewire
p4078
sg18
NsbsVTime Out New York/Tomris Laffly
p4079
g3
(g4
g5
NtRp4080
(dp4081
g8
g4079
sg9
VTomris Laffly
p4082
sg11
S'http://www.metacritic.com/critic?filter=movies'
p4083
sg13
(dp4084
g70
F10
ssg16
VTime Out New York
p4085
sg18
NsbsVSlant Magazine/James Lattimer
p4086
g3
(g4
g5
NtRp4087
(dp4088
g8
g4086
sg9
VJames Lattimer
p4089
sg11
S'http://www.metacritic.com/critic/james-lattimer?filter=movies'
p4090
sg13
(dp4091
g69
F5
ssg16
VSlant Magazine
p4092
sg18
NsbsVPortland Oregonian/Diana Abu-Jaber
p4093
g3
(g4
g5
NtRp4094
(dp4095
g8
g4093
sg9
VDiana Abu-Jaber
p4096
sg11
S'http://www.metacritic.com/critic/diana-abu-jaber?filter=movies'
p4097
sg13
(dp4098
g140
F7.5
ssg16
VPortland Oregonian
p4099
sg18
NsbsVVariety/Rob Nelson
p4100
g3
(g4
g5
NtRp4101
(dp4102
g8
g4100
sg9
VRob Nelson
p4103
sg11
S'http://www.metacritic.com/critic/rob-nelson?filter=movies'
p4104
sg13
(dp4105
g533
F4
ssg16
VVariety
p4106
sg18
NsbsVChicago Tribune/Gene Siskel
p4107
g3
(g4
g5
NtRp4108
(dp4109
g8
g4107
sg9
VGene Siskel
p4110
sg11
S'http://www.metacritic.com/critic/gene-siskel?filter=movies'
p4111
sg13
(dp4112
g154
F10
sg162
F10
sg59
F10
ssg16
VChicago Tribune
p4113
sg18
NsbsVL.A. Weekly/Scott Foundas
p4114
g3
(g4
g5
NtRp4115
(dp4116
g8
g4114
sg9
VScott Foundas
p4117
sg11
S'http://www.metacritic.com/critic/scott-foundas?filter=movies'
p4118
sg13
(dp4119
g127
F5
sg173
F8
sg98
F9
sg178
F10
sg159
F10
sg132
F8
sg41
F10
sg145
F8
sg165
F9
sg42
F5
sg43
F5
sg148
F9
sg149
F10
ssg16
VL.A. Weekly
p4120
sg18
NsbsVThe Guardian/Brian Moylan
p4121
g3
(g4
g5
NtRp4122
(dp4123
g8
g4121
sg9
VBrian Moylan
p4124
sg11
S'http://www.metacritic.com/critic?filter=movies'
p4125
sg13
(dp4126
g137
F8
ssg16
VThe Guardian
p4127
sg18
NsbsVNew York Post/Jonathan Foreman
p4128
g3
(g4
g5
NtRp4129
(dp4130
g8
g4128
sg9
VJonathan Foreman
p4131
sg11
S'http://www.metacritic.com/critic/jonathan-foreman?filter=movies'
p4132
sg13
(dp4133
g541
F10
sg312
F10
sg474
F5
sg126
F5
sg136
F7.5
ssg16
VNew York Post
p4134
sg18
NsbsVWashington Post/Michael O'Sullivan
p4135
g3
(g4
g5
NtRp4136
(dp4137
g8
g4135
sg9
VMichael O'Sullivan
p4138
sg11
S'http://www.metacritic.com/critic/michael-osullivan?filter=movies'
p4139
sg13
(dp4140
g229
F8.8000000000000007
sg33
F8.8000000000000007
sg180
F9
sg273
F8.8000000000000007
sg533
F7.5
ssg16
VWashington Post
p4141
sg18
NsbsVThe New York Times/Vincent Canby
p4142
g3
(g4
g5
NtRp4143
(dp4144
g8
g4142
sg9
VVincent Canby
p4145
sg11
S'http://www.metacritic.com/critic/vincent-canby?filter=movies'
p4146
sg13
(dp4147
g154
F9
sg542
F10
sg543
F10
ssg16
VThe New York Times
p4148
sg18
NsbsVFilm Threat/Harry Hartoonian
p4149
g3
(g4
g5
NtRp4150
(dp4151
g8
g4149
sg9
VHarry Hartoonian
p4152
sg11
S'http://www.metacritic.com/critic?filter=movies'
p4153
sg13
(dp4154
g60
F2
ssg16
VFilm Threat
p4155
sg18
NsbsVBoxoffice Magazine/Sara Maria Vizcarrondo
p4156
g3
(g4
g5
NtRp4157
(dp4158
g8
g4156
sg9
VSara Maria Vizcarrondo
p4159
sg11
S'http://www.metacritic.com/critic/sara-maria-vizcarrondo?filter=movies'
p4160
sg13
(dp4161
g128
F7
ssg16
VBoxoffice Magazine
p4162
sg18
NsbsVScreenCrush/Matt Singer
p4163
g3
(g4
g5
NtRp4164
(dp4165
g8
g4163
sg9
VMatt Singer
p4166
sg11
S'http://www.metacritic.com/critic/matt-singer?filter=movies'
p4167
sg13
(dp4168
g150
F7
sg70
F8
sg174
F8
ssg16
VScreenCrush
p4169
sg18
NsbsVFilm Threat/Mariko McDonald
p4170
g3
(g4
g5
NtRp4171
(dp4172
g8
g4170
sg9
VMariko McDonald
p4173
sg11
S'http://www.metacritic.com/critic?filter=movies'
p4174
sg13
(dp4175
g180
F10
ssg16
VFilm Threat
p4176
sg18
NsbsVThe Guardian/Ed Gibbs
p4177
g3
(g4
g5
NtRp4178
(dp4179
g8
g4177
sg9
VEd Gibbs
p4180
sg11
S'http://www.metacritic.com/critic?filter=movies'
p4181
sg13
(dp4182
g172
F8
ssg16
VThe Guardian
p4183
sg18
NsbsVChicago Tribune/Allison Benedikt
p4184
g3
(g4
g5
NtRp4185
(dp4186
g8
g4184
sg9
VAllison Benedikt
p4187
sg11
S'http://www.metacritic.com/critic/allison-benedikt?filter=movies'
p4188
sg13
(dp4189
g147
F1.2
ssg16
VChicago Tribune
p4190
sg18
NsbsVWall Street Journal/Joanne Kaufman
p4191
g3
(g4
g5
NtRp4192
(dp4193
g8
g4191
sg9
VJoanne Kaufman
p4194
sg11
S'http://www.metacritic.com/critic?filter=movies'
p4195
sg13
(dp4196
g152
F5
ssg16
VWall Street Journal
p4197
sg18
NsbsVMcClatchy-Tribune News Service/Roger Moore
p4198
g3
(g4
g5
NtRp4199
(dp4200
g8
g4198
sg9
VRoger Moore
p4201
sg11
S'http://www.metacritic.com/critic/roger-moore?filter=movies'
p4202
sg13
(dp4203
g33
F7.5
sg71
F6.2999999999999998
sg141
F8.8000000000000007
sg156
F8.8000000000000007
sg74
F8.8000000000000007
sg75
F10
sg73
F10
sg15
F10
sg77
F6.2999999999999998
ssg16
VMcClatchy-Tribune News Service
p4204
sg18
NsbsVSan Francisco Chronicle/David Lewis
p4205
g3
(g4
g5
NtRp4206
(dp4207
g8
g4205
sg9
VDavid Lewis
p4208
sg11
S'http://www.metacritic.com/critic?filter=movies'
p4209
sg13
(dp4210
g273
F7.5
ssg16
VSan Francisco Chronicle
p4211
sg18
NsbsVScreen International/Dan Fainaru
p4212
g3
(g4
g5
NtRp4213
(dp4214
g8
g4212
sg9
VDan Fainaru
p4215
sg11
S'http://www.metacritic.com/critic/dan-fainaru?filter=movies'
p4216
sg13
(dp4217
g290
F5
ssg16
VScreen International
p4218
sg18
NsbsVSlant Magazine/Matt Brennan
p4219
g3
(g4
g5
NtRp4220
(dp4221
g8
g4219
sg9
VMatt Brennan
p4222
sg11
S'http://www.metacritic.com/critic/matt-brennan?filter=movies'
p4223
sg13
(dp4224
g189
F10
ssg16
VSlant Magazine
p4225
sg18
NsbsVNew York Post/V.A. Musetto
p4226
g3
(g4
g5
NtRp4227
(dp4228
g8
g4226
sg9
VV.A. Musetto
p4229
sg11
S'http://www.metacritic.com/critic/va-musetto?filter=movies'
p4230
sg13
(dp4231
g244
F8.8000000000000007
sg288
F7.5
sg176
F8.8000000000000007
sg165
F7.5
sg302
F7.5
sg43
F5
sg175
F7.5
ssg16
VNew York Post
p4232
sg18
NsbsVSlant Magazine/Jake Cole
p4233
g3
(g4
g5
NtRp4234
(dp4235
g8
g4233
sg9
VJake Cole
p4236
sg11
S'http://www.metacritic.com/critic/jake-cole?filter=movies'
p4237
sg13
(dp4238
g70
F7.5
ssg16
VSlant Magazine
p4239
sg18
NsbsVWall Street Journal/Julie Salamon
p4240
g3
(g4
g5
NtRp4241
(dp4242
g8
g4240
sg9
VJulie Salamon
p4243
sg11
S'http://www.metacritic.com/critic/julie-salamon?filter=movies'
p4244
sg13
(dp4245
g542
F3
sg59
F10
ssg16
VWall Street Journal
p4246
sg18
Nsbs.