(dp1
VThe Playlist/Nick Schager
p2
ccopy_reg
_reconstructor
p3
(ccritic
Critic
p4
c__builtin__
object
p5
NtRp6
(dp7
S'ident'
p8
g2
sS'name'
p9
VNick Schager
p10
sS'url'
p11
S'http://www.metacritic.com/critic/nick-schager?filter=movies'
p12
sS'reviews'
p13
(dp14
S'sand-storm'
p15
F7.5
ssS'source'
p16
VThe Playlist
p17
sS'correlation'
p18
NsbsVThe New York Times/Nicolas Rapold
p19
g3
(g4
g5
NtRp20
(dp21
g8
g19
sg9
VNicolas Rapold
p22
sg11
S'http://www.metacritic.com/critic/nicolas-rapold?filter=movies'
p23
sg13
(dp24
S'the-tale-of-the-princess-kaguya'
p25
F8
ssg16
VThe New York Times
p26
sg18
NsbsVEmpire/Alan Morrison
p27
g3
(g4
g5
NtRp28
(dp29
g8
g27
sg9
VAlan Morrison
p30
sg11
S'http://www.metacritic.com/critic/alan-morrison?filter=movies'
p31
sg13
(dp32
S'the-lord-of-the-rings-the-return-of-the-king'
p33
F10
sS'the-lives-of-others'
p34
F10
sS'paris-je-taime'
p35
F8
ssg16
VEmpire
p36
sg18
NsbsVSan Francisco Examiner/Walter Addiego
p37
g3
(g4
g5
NtRp38
(dp39
g8
g37
sg9
VWalter Addiego
p40
sg11
S'http://www.metacritic.com/critic/walter-addiego?filter=movies'
p41
sg13
(dp42
S'chungking-express'
p43
F8.8000000000000007
ssg16
VSan Francisco Examiner
p44
sg18
NsbsVThe New Yorker/Terrence Rafferty
p45
g3
(g4
g5
NtRp46
(dp47
g8
g45
sg9
VTerrence Rafferty
p48
sg11
S'http://www.metacritic.com/critic?filter=movies'
p49
sg13
(dp50
S'schindlers-list'
p51
F10
sS'anaconda'
p52
F3
ssg16
VThe New Yorker
p53
sg18
NsbsVThe Telegraph/Robbie Collin
p54
g3
(g4
g5
NtRp55
(dp56
g8
g54
sg9
VRobbie Collin
p57
sg11
S'http://www.metacritic.com/critic/robbie-collin?filter=movies'
p58
sg13
(dp59
S'anomalisa'
p60
F10
sg25
F10
sS'moonlight-2016'
p61
F10
sS'inherent-vice'
p62
F10
sS'winter-sleep'
p63
F8
sS'the-nice-guys'
p64
F8
sS'nebraska'
p65
F8
sS'after-the-storm-2016'
p66
F8
sS'gravity'
p67
F10
sS'birdman-or-the-unexpected-virtue-of-ignorance'
p68
F10
sS'toni-erdmann'
p69
F10
sS'inside-out-2015'
p70
F10
sS'inside-llewyn-davis'
p71
F10
sS'a-pigeon-sat-on-a-branch-reflecting-on-existence'
p72
F10
sS'about-elly-2009'
p73
F8
sS'spotlight'
p74
F8
sS'the-lobster'
p75
F8
ssg16
VThe Telegraph
p76
sg18
NsbsVEmpire/James White
p77
g3
(g4
g5
NtRp78
(dp79
g8
g77
sg9
VJames White
p80
sg11
S'http://www.metacritic.com/critic/james-white?filter=movies'
p81
sg13
(dp82
g64
F8
ssg16
VEmpire
p83
sg18
NsbsVThe Globe and Mail (Toronto)/Kate Taylor
p84
g3
(g4
g5
NtRp85
(dp86
g8
g84
sg9
VKate Taylor
p87
sg11
S'http://www.metacritic.com/critic?filter=movies'
p88
sg13
(dp89
S'the-salesman'
p90
F10
sg61
F10
sS'manchester-by-the-sea'
p91
F10
sS'up'
p92
F7.5
sS'son-of-saul'
p93
F10
sg69
F7.5
sS'paterson'
p94
F7.5
sS'rams'
p95
F7.5
sg75
F7.5
ssg16
VThe Globe and Mail (Toronto)
p96
sg18
NsbsVL.A. Weekly/F. X. Feeney
p97
g3
(g4
g5
NtRp98
(dp99
g8
g97
sg9
VF. X. Feeney
p100
sg11
S'http://www.metacritic.com/critic/f-x-feeney?filter=movies'
p101
sg13
(dp102
S'magnolia'
p103
F10
ssg16
VL.A. Weekly
p104
sg18
NsbsVReelViews/James Berardinelli
p105
g3
(g4
g5
NtRp106
(dp107
g8
g105
sg9
VJames Berardinelli
p108
sg11
S'http://www.metacritic.com/critic/james-berardinelli?filter=movies'
p109
sg13
(dp110
S'zero-dark-thirty'
p111
F8.8000000000000007
sS'django-unchained'
p112
F8.8000000000000007
sS'inglourious-basterds'
p113
F10
sS'ghost-rider'
p114
F5
sS'the-master'
p115
F7.5
sS'dr-strangelove-or-how-i-learned-to-stop-worrying-and-love-the-bomb'
p116
F10
sS'pans-labyrinth'
p117
F8.8000000000000007
sg67
F10
sS'american-wedding'
p118
F6.2999999999999998
sS'eyes-wide-shut'
p119
F8.8000000000000007
sg52
F5
sS'2-fast-2-furious'
p120
F1.2
sS'amour'
p121
F8.8000000000000007
sg93
F8.8000000000000007
sS'sicario'
p122
F8.8000000000000007
sS'a-separation'
p123
F8.8000000000000007
sS'ray'
p124
F5
sS'the-sixth-sense'
p125
F3.7999999999999998
sS'the-hangover'
p126
F7.5
sS'her'
p127
F8.8000000000000007
sg68
F7.5
sg64
F7.5
sg91
F8.8000000000000007
sS'the-hobbit-an-unexpected-journey'
p128
F7.5
sS'the-lord-of-the-rings-the-two-towers'
p129
F10
sS'capote'
p130
F8.8000000000000007
sS'2001-a-space-odyssey'
p131
F10
sg65
F8.8000000000000007
sS'12-years-a-slave'
p132
F8.8000000000000007
sS'children-of-men'
p133
F7.5
sS'wall-e'
p134
F8.8000000000000007
sg33
F10
sg34
F8.8000000000000007
sg61
F8.8000000000000007
sS'borat-cultural-learnings-of-america-for-make-benefit-glorious-nation-of-kazakhstan'
p135
F7.5
sS'sully'
p136
F7.5
sS'the-hangover-part-ii'
p137
F7.5
sS'midnight-in-paris'
p138
F7.5
sS'the-dark-knight'
p139
F10
sS'a-clockwork-orange'
p140
F10
sS'sideways'
p141
F8.8000000000000007
sS'the-grand-budapest-hotel'
p142
F7.5
sS'eternal-sunshine-of-the-spotless-mind'
p143
F8.8000000000000007
sS'the-dark-knight-rises'
p144
F8.8000000000000007
sS'superman-returns'
p145
F8.8000000000000007
sS'no-country-for-old-men'
p146
F8.8000000000000007
sS'into-the-wild'
p147
F8.8000000000000007
sS'fargo'
p148
F7.5
sS'brooklyn'
p149
F8.8000000000000007
sg70
F8.8000000000000007
sg71
F7.5
sS'spring-summer-fall-winter-and-spring'
p150
F8.8000000000000007
sS'inception'
p151
F8.8000000000000007
sg62
F7.5
sS'carol'
p152
F8.8000000000000007
sS'blue-valentine'
p153
F8.8000000000000007
sS'lincoln'
p154
F8.8000000000000007
sS'the-dukes-of-hazzard'
p155
F1.2
sg43
F8.8000000000000007
sS'rocknrolla'
p156
F5
sS'ratatouille'
p157
F7.5
sg51
F10
sS'me-and-earl-and-the-dying-girl'
p158
F8.8000000000000007
sS'batman-begins'
p159
F8.8000000000000007
sg92
F7.5
sg74
F8.8000000000000007
sS'4-months-3-weeks-and-2-days'
p160
F8.8000000000000007
sS'there-will-be-blood'
p161
F7.5
sS'crazy-stupid-love'
p162
F7.5
sS'the-social-network'
p163
F8.8000000000000007
sS'avatar'
p164
F10
sS'captain-fantastic'
p165
F7.5
sS'brokeback-mountain'
p166
F7.5
sS'lost-in-translation'
p167
F10
sS'the-pianist'
p168
F8.8000000000000007
sg60
F7.5
sS'a-very-long-engagement'
p169
F7.5
ssg16
VReelViews
p170
sg18
NsbsVRogerEbert.com/Susan Wloszczyna
p171
g3
(g4
g5
NtRp172
(dp173
g8
g171
sg9
VSusan Wloszczyna
p174
sg11
S'http://www.metacritic.com/critic/susan-wloszczyna?filter=movies'
p175
sg13
(dp176
g136
F7.5
sS'45-years'
p177
F10
sg69
F10
sg132
F8.8000000000000007
ssg16
VRogerEbert.com
p178
sg18
NsbsVAustin Chronicle/Josh Rosenblatt
p179
g3
(g4
g5
NtRp180
(dp181
g8
g179
sg9
VJosh Rosenblatt
p182
sg11
S'http://www.metacritic.com/critic?filter=movies'
p183
sg13
(dp184
g147
F6.7000000000000002
sg160
F7.7999999999999998
sg34
F8.9000000000000004
sg156
F6.7000000000000002
ssg16
VAustin Chronicle
p185
sg18
NsbsVNew York Daily News/Dave Kehr
p186
g3
(g4
g5
NtRp187
(dp188
g8
g186
sg9
VDave Kehr
p189
sg11
S'http://www.metacritic.com/critic/dave-kehr?filter=movies'
p190
sg13
(dp191
g43
F9
ssg16
VNew York Daily News
p192
sg18
NsbsVThe Playlist/Todd Gilchrist
p193
g3
(g4
g5
NtRp194
(dp195
g8
g193
sg9
VTodd Gilchrist
p196
sg11
S'http://www.metacritic.com/critic/todd-gilchrist?filter=movies'
p197
sg13
(dp198
g144
F10
ssg16
VThe Playlist
p199
sg18
NsbsVVillage Voice/Michael Atkinson
p200
g3
(g4
g5
NtRp201
(dp202
g8
g200
sg9
VMichael Atkinson
p203
sg11
S'http://www.metacritic.com/critic/michael-atkinson?filter=movies'
p204
sg13
(dp205
S'brazil'
p206
F10
sg125
F5
sg159
F6
sg140
F8
sg116
F10
sS'the-academy-of-muses'
p207
F9
sg150
F8
sg124
F5
ssg16
VVillage Voice
p208
sg18
NsbsVSlant Magazine/Chuck Bowen
p209
g3
(g4
g5
NtRp210
(dp211
g8
g209
sg9
VChuck Bowen
p212
sg11
S'http://www.metacritic.com/critic/chuck-bowen?filter=movies'
p213
sg13
(dp214
g90
F10
sS'leviathan-2014'
p215
F8.8000000000000007
sS'victoria'
p216
F5
sg95
F7.5
sS'wild-tales'
p217
F7.5
sg73
F8.8000000000000007
sg60
F7.5
ssg16
VSlant Magazine
p218
sg18
NsbsVThe Dissolve/Tasha Robinson
p219
g3
(g4
g5
NtRp220
(dp221
g8
g219
sg9
VTasha Robinson
p222
sg11
S'http://www.metacritic.com/critic/tasha-robinson?filter=movies'
p223
sg13
(dp224
g70
F10
sg217
F7
ssg16
VThe Dissolve
p225
sg18
NsbsVThe Film Stage/Christopher Schobert
p226
g3
(g4
g5
NtRp227
(dp228
g8
g226
sg9
VChristopher Schobert
p229
sg11
S'http://www.metacritic.com/critic/christopher-schobert?filter=movies'
p230
sg13
(dp231
g132
F10
ssg16
VThe Film Stage
p232
sg18
NsbsVWe Got This Covered/ Darren Ruecker
p233
g3
(g4
g5
NtRp234
(dp235
g8
g233
sg9
V Darren Ruecker
p236
sg11
S'http://www.metacritic.com/critic/darren-ruecker?filter=movies'
p237
sg13
(dp238
g61
F10
sg91
F10
ssg16
VWe Got This Covered
p239
sg18
NsbsVNew York Post/Megan Lehmann
p240
g3
(g4
g5
NtRp241
(dp242
g8
g240
sg9
VMegan Lehmann
p243
sg11
S'http://www.metacritic.com/critic/megan-lehmann?filter=movies'
p244
sg13
(dp245
g141
F10
ssg16
VNew York Post
p246
sg18
NsbsVTV Guide Magazine/Frank Lovece
p247
g3
(g4
g5
NtRp248
(dp249
g8
g247
sg9
VFrank Lovece
p250
sg11
S'http://www.metacritic.com/critic/frank-lovece?filter=movies'
p251
sg13
(dp252
g148
F6
sS'the-wedding-planner'
p253
F2
sS'waking-life'
p254
F4
ssg16
VTV Guide Magazine
p255
sg18
NsbsVDallas Observer/Gregory Weinkauf
p256
g3
(g4
g5
NtRp257
(dp258
g8
g256
sg9
VGregory Weinkauf
p259
sg11
S'http://www.metacritic.com/critic/gregory-weinkauf?filter=movies'
p260
sg13
(dp261
g116
F10
sg33
F10
sg167
F4
sg129
F9
ssg16
VDallas Observer
p262
sg18
NsbsVVariety/Charles Gant
p263
g3
(g4
g5
NtRp264
(dp265
g8
g263
sg9
VCharles Gant
p266
sg11
S'http://www.metacritic.com/critic/charles-gant?filter=movies'
p267
sg13
(dp268
g177
F8
ssg16
VVariety
p269
sg18
NsbsVThe Guardian/Peter Bradshaw
p270
g3
(g4
g5
NtRp271
(dp272
g8
g270
sg9
VPeter Bradshaw
p273
sg11
S'http://www.metacritic.com/critic/peter-bradshaw?filter=movies'
p274
sg13
(dp275
g112
F10
sS'once-upon-a-time-in-anatolia'
p276
F10
sS'mommy'
p277
F8
sg121
F10
sg73
F8
sg122
F8
sg127
F6
sg64
F8
sg215
F10
sg128
F6
sg93
F10
sg94
F8
sS'sweet-bean'
p278
F4
sg69
F8
sg70
F8
sg177
F10
sg71
F10
sg152
F10
sg90
F6
sS'beyond-the-hills'
p279
F8
sg149
F8
sS'graduation'
p280
F10
sg65
F8
sg74
F6
sg75
F6
sS'ida'
p281
F8
ssg16
VThe Guardian
p282
sg18
NsbsVPortland Oregonian/Shawn Levy
p283
g3
(g4
g5
NtRp284
(dp285
g8
g283
sg9
VShawn Levy
p286
sg11
S'http://www.metacritic.com/critic/shawn-levy?filter=movies'
p287
sg13
(dp288
g113
F7.5
sg276
F8.3000000000000007
sg115
F8.3000000000000007
sg117
F10
sg162
F5.7999999999999998
sg123
F9.0999999999999996
sg124
F8.3000000000000007
sg160
F8.3000000000000007
sg103
F8.3000000000000007
sg129
F9.0999999999999996
sg130
F10
sg33
F10
sg133
F7.5
sg134
F8.3000000000000007
sg126
F7.5
sg34
F10
sg155
F5
sg135
F8.3000000000000007
sg137
F6.7000000000000002
sg143
F9.0999999999999996
sg139
F8.3000000000000007
sg141
F9.0999999999999996
sg138
F8.3000000000000007
sg144
F7.5
sg145
F5.7999999999999998
sg146
F9.0999999999999996
sg147
F8.3000000000000007
sS'persepolis'
p289
F8.3000000000000007
sg169
F9.0999999999999996
sg151
F10
sS'amelie'
p290
F8.3000000000000007
sg254
F10
sg157
F9.0999999999999996
sg159
F9.0999999999999996
sg92
F8.3000000000000007
sS'american-beauty'
p291
F8.3000000000000007
sg163
F10
sg164
F8.3000000000000007
sg166
F9.0999999999999996
sg161
F9.0999999999999996
sg168
F9.0999999999999996
sg167
F10
ssg16
VPortland Oregonian
p292
sg18
NsbsVChicago Tribune/Allison Benedikt
p293
g3
(g4
g5
NtRp294
(dp295
g8
g293
sg9
VAllison Benedikt
p296
sg11
S'http://www.metacritic.com/critic/allison-benedikt?filter=movies'
p297
sg13
(dp298
g155
F1.2
ssg16
VChicago Tribune
p299
sg18
NsbsVSan Francisco Chronicle/Carla Meyer
p300
g3
(g4
g5
NtRp301
(dp302
g8
g300
sg9
VCarla Meyer
p303
sg11
S'http://www.metacritic.com/critic/carla-meyer?filter=movies'
p304
sg13
(dp305
S'the-return-2004'
p306
F5
sg141
F10
sS'gosford-park'
p307
F7.5
sg150
F10
ssg16
VSan Francisco Chronicle
p308
sg18
NsbsVVariety/Emanuel Levy
p309
g3
(g4
g5
NtRp310
(dp311
g8
g309
sg9
VEmanuel Levy
p312
sg11
S'http://www.metacritic.com/critic/emanuel-levy?filter=movies'
p313
sg13
(dp314
g103
F7
ssg16
VVariety
p315
sg18
NsbsVNPR/Bob Mondello
p316
g3
(g4
g5
NtRp317
(dp318
g8
g316
sg9
VBob Mondello
p319
sg11
S'http://www.metacritic.com/critic/bob-mondello?filter=movies'
p320
sg13
(dp321
g111
F9.5
sg67
F9
sg62
F7.5
sg139
F9.5
sg215
F9
sg158
F8
sg65
F9.5
sg144
F8.5
sg128
F7.5
sg93
F10
sg68
F9
sg162
F7
sg132
F10
sg123
F10
sg134
F9
sg163
F10
sg73
F9
sS'the-salt-of-the-earth'
p322
F9
sg75
F9
ssg16
VNPR
p323
sg18
NsbsVSalon.com/Laura Miller
p324
g3
(g4
g5
NtRp325
(dp326
g8
g324
sg9
VLaura Miller
p327
sg11
S'http://www.metacritic.com/critic?filter=movies'
p328
sg13
(dp329
g148
F5
ssg16
VSalon.com
p330
sg18
NsbsVPremiere/Stephen Saito
p331
g3
(g4
g5
NtRp332
(dp333
g8
g331
sg9
VStephen Saito
p334
sg11
S'http://www.metacritic.com/critic?filter=movies'
p335
sg13
(dp336
g133
F8.8000000000000007
ssg16
VPremiere
p337
sg18
NsbsVSlant Magazine/Clayton Dillard
p338
g3
(g4
g5
NtRp339
(dp340
g8
g338
sg9
VClayton Dillard
p341
sg11
S'http://www.metacritic.com/critic/clayton-dillard?filter=movies'
p342
sg13
(dp343
g15
F6.2999999999999998
sg322
F7.5
ssg16
VSlant Magazine
p344
sg18
NsbsVL.A. Weekly/John Powers
p345
g3
(g4
g5
NtRp346
(dp347
g8
g345
sg9
VJohn Powers
p348
sg11
S'http://www.metacritic.com/critic/john-powers?filter=movies'
p349
sg13
(dp350
g143
F7
ssg16
VL.A. Weekly
p351
sg18
NsbsVNPR/Stephanie Zacharek
p352
g3
(g4
g5
NtRp353
(dp354
g8
g352
sg9
VStephanie Zacharek
p355
sg11
S'http://www.metacritic.com/critic?filter=movies'
p356
sg13
(dp357
g112
F9
ssg16
VNPR
p358
sg18
NsbsVNew York Magazine (Vulture)/Bilge Ebiri
p359
g3
(g4
g5
NtRp360
(dp361
g8
g359
sg9
VBilge Ebiri
p362
sg11
S'http://www.metacritic.com/critic/bilge-ebiri?filter=movies'
p363
sg13
(dp364
g25
F10
sg91
F10
sg63
F7
sg215
F8
sg15
F9
sg322
F8
ssg16
VNew York Magazine (Vulture)
p365
sg18
NsbsVChicago Tribune/Mark Caro
p366
g3
(g4
g5
NtRp367
(dp368
g8
g366
sg9
VMark Caro
p369
sg11
S'http://www.metacritic.com/critic/mark-caro?filter=movies'
p370
sg13
(dp371
g120
F5
sg253
F3.7999999999999998
sg143
F7.5
sg167
F8.8000000000000007
ssg16
VChicago Tribune
p372
sg18
NsbsVVillage Voice/Peter L'Official
p373
g3
(g4
g5
NtRp374
(dp375
g8
g373
sg9
VPeter L'Official
p376
sg11
S'http://www.metacritic.com/critic?filter=movies'
p377
sg13
(dp378
g155
F3
ssg16
VVillage Voice
p379
sg18
NsbsVConsequence of Sound/None
p380
g3
(g4
g5
NtRp381
(dp382
g8
g380
sg9
Nsg11
Nsg13
(dp383
g91
F10
ssg16
VConsequence of Sound
p384
sg18
NsbsVMovieline/Michelle Orange
p385
g3
(g4
g5
NtRp386
(dp387
g8
g385
sg9
VMichelle Orange
p388
sg11
S'http://www.metacritic.com/critic/michelle-orange?filter=movies'
p389
sg13
(dp390
g276
F8.5
sg144
F7.5
ssg16
VMovieline
p391
sg18
NsbsVSlant Magazine/Keith Watson
p392
g3
(g4
g5
NtRp393
(dp394
g8
g392
sg9
VKeith Watson
p395
sg11
S'http://www.metacritic.com/critic/keith-watson?filter=movies'
p396
sg13
(dp397
g165
F2.5
ssg16
VSlant Magazine
p398
sg18
NsbsVThe Guardian/Katey Rich
p399
g3
(g4
g5
NtRp400
(dp401
g8
g399
sg9
VKatey Rich
p402
sg11
S'http://www.metacritic.com/critic?filter=movies'
p403
sg13
(dp404
g111
F10
sg154
F8
ssg16
VThe Guardian
p405
sg18
NsbsVSlate/Michael Agger
p406
g3
(g4
g5
NtRp407
(dp408
g8
g406
sg9
VMichael Agger
p409
sg11
S'http://www.metacritic.com/critic?filter=movies'
p410
sg13
(dp411
g120
F3
ssg16
VSlate
p412
sg18
NsbsVThe New York Times/Glenn Kenny
p413
g3
(g4
g5
NtRp414
(dp415
g8
g413
sg9
VGlenn Kenny
p416
sg11
S'http://www.metacritic.com/critic/glenn-kenny?filter=movies'
p417
sg13
(dp418
S'april-and-the-extraordinary-world'
p419
F10
sg278
F9
ssg16
VThe New York Times
p420
sg18
NsbsVMiami Herald/Charles Savage
p421
g3
(g4
g5
NtRp422
(dp423
g8
g421
sg9
VCharles Savage
p424
sg11
S'http://www.metacritic.com/critic/charles-savage?filter=movies'
p425
sg13
(dp426
S'gone-in-sixty-seconds'
p427
F5
ssg16
VMiami Herald
p428
sg18
NsbsVEmpire/Mark Dinning
p429
g3
(g4
g5
NtRp430
(dp431
g8
g429
sg9
VMark Dinning
p432
sg11
S'http://www.metacritic.com/critic?filter=movies'
p433
sg13
(dp434
g139
F10
ssg16
VEmpire
p435
sg18
NsbsVL.A. Weekly/David Chute
p436
g3
(g4
g5
NtRp437
(dp438
g8
g436
sg9
VDavid Chute
p439
sg11
S'http://www.metacritic.com/critic/david-chute?filter=movies'
p440
sg13
(dp441
g120
F6
ssg16
VL.A. Weekly
p442
sg18
NsbsVVariety/Andrew Barker
p443
g3
(g4
g5
NtRp444
(dp445
g8
g443
sg9
VAndrew Barker
p446
sg11
S'http://www.metacritic.com/critic?filter=movies'
p447
sg13
(dp448
g137
F5
ssg16
VVariety
p449
sg18
NsbsVChicago Reader/J.R. Jones
p450
g3
(g4
g5
NtRp451
(dp452
g8
g450
sg9
VJ.R. Jones
p453
sg11
S'http://www.metacritic.com/critic/jr-jones?filter=movies'
p454
sg13
(dp455
g137
F7
sg160
F10
sg159
F5
sg114
F5
sg139
F8
sg120
F4
sg138
F8
sg144
F3
sg145
F6
sg129
F9
sg135
F10
sg118
F5
sg113
F7
sg163
F10
sg164
F10
sg289
F10
sg150
F8
sg151
F5
sg126
F9
sg123
F10
sg153
F8
ssg16
VChicago Reader
p456
sg18
NsbsVDallas Observer/Luke Y. Thompson
p457
g3
(g4
g5
NtRp458
(dp459
g8
g457
sg9
VLuke Y. Thompson
p460
sg11
S'http://www.metacritic.com/critic/luke-y-thompson?filter=movies'
p461
sg13
(dp462
g118
F5
sg253
F2
ssg16
VDallas Observer
p463
sg18
NsbsVArizona Republic/Barbara VanDenburgh
p464
g3
(g4
g5
NtRp465
(dp466
g8
g464
sg9
VBarbara VanDenburgh
p467
sg11
S'http://www.metacritic.com/critic/barbara-vandenburgh?filter=movies'
p468
sg13
(dp469
S'dheepan'
p470
F7
ssg16
VArizona Republic
p471
sg18
NsbsVTheWrap/Ben Croll
p472
g3
(g4
g5
NtRp473
(dp474
g8
g472
sg9
VBen Croll
p475
sg11
S'http://www.metacritic.com/critic/ben-croll?filter=movies'
p476
sg13
(dp477
g90
F8
sg94
F8.5
ssg16
VTheWrap
p478
sg18
NsbsVL.A. Weekly/Ernest Hardy
p479
g3
(g4
g5
NtRp480
(dp481
g8
g479
sg9
VErnest Hardy
p482
sg11
S'http://www.metacritic.com/critic/ernest-hardy?filter=movies'
p483
sg13
(dp484
g52
F3
ssg16
VL.A. Weekly
p485
sg18
NsbsVScreen International/Allan Hunter
p486
g3
(g4
g5
NtRp487
(dp488
g8
g486
sg9
VAllan Hunter
p489
sg11
S'http://www.metacritic.com/critic/allan-hunter?filter=movies'
p490
sg13
(dp491
g90
F8
sg470
F9
sg95
F8
ssg16
VScreen International
p492
sg18
NsbsVRogerEbert.com/Christy Lemire
p493
g3
(g4
g5
NtRp494
(dp495
g8
g493
sg9
VChristy Lemire
p496
sg11
S'http://www.metacritic.com/critic/christy-lemire?filter=movies'
p497
sg13
(dp498
g68
F10
sg65
F8.8000000000000007
sg93
F8.8000000000000007
ssg16
VRogerEbert.com
p499
sg18
NsbsVWashington Post/Phillip Kennicott
p500
g3
(g4
g5
NtRp501
(dp502
g8
g500
sg9
VPhillip Kennicott
p503
sg11
S'http://www.metacritic.com/critic?filter=movies'
p504
sg13
(dp505
g150
F6
ssg16
VWashington Post
p506
sg18
NsbsVThe Guardian/Jordan Hoffman
p507
g3
(g4
g5
NtRp508
(dp509
g8
g507
sg9
VJordan Hoffman
p510
sg11
S'http://www.metacritic.com/critic/jordan-hoffman?filter=movies'
p511
sg13
(dp512
S'the-end-of-the-tour'
p513
F8
ssg16
VThe Guardian
p514
sg18
NsbsVTotal Film/Rosie Fletcher
p515
g3
(g4
g5
NtRp516
(dp517
g8
g515
sg9
VRosie Fletcher
p518
sg11
S'http://www.metacritic.com/critic?filter=movies'
p519
sg13
(dp520
S'what-we-do-in-the-shadows'
p521
F8
ssg16
VTotal Film
p522
sg18
NsbsVRogerEbert.com/Glenn Kenny
p523
g3
(g4
g5
NtRp524
(dp525
g8
g523
sg9
VGlenn Kenny
p526
sg11
S'http://www.metacritic.com/critic?filter=movies'
p527
sg13
(dp528
g25
F10
sg127
F8.8000000000000007
sg63
F10
sg142
F10
sg149
F10
sg71
F10
sg94
F10
sg277
F2.5
ssg16
VRogerEbert.com
p529
sg18
NsbsVPremiere/Eric Kohn
p530
g3
(g4
g5
NtRp531
(dp532
g8
g530
sg9
VEric Kohn
p533
sg11
S'http://www.metacritic.com/critic?filter=movies'
p534
sg13
(dp535
g139
F7.5
ssg16
VPremiere
p536
sg18
NsbsVFilm.com/Kate Erbland
p537
g3
(g4
g5
NtRp538
(dp539
g8
g537
sg9
VKate Erbland
p540
sg11
S'http://www.metacritic.com/critic?filter=movies'
p541
sg13
(dp542
g142
F8.1999999999999993
ssg16
VFilm.com
p543
sg18
NsbsVEmpire/Kim Newman
p544
g3
(g4
g5
NtRp545
(dp546
g8
g544
sg9
VKim Newman
p547
sg11
S'http://www.metacritic.com/critic/kim-newman?filter=movies'
p548
sg13
(dp549
g111
F10
sg140
F10
sg51
F10
sg159
F8
sg117
F10
sg130
F10
ssg16
VEmpire
p550
sg18
NsbsVNew York Post/Farran Smith Nehme
p551
g3
(g4
g5
NtRp552
(dp553
g8
g551
sg9
VFarran Smith Nehme
p554
sg11
S'http://www.metacritic.com/critic/farran-smith-nehme?filter=movies'
p555
sg13
(dp556
g177
F8.8000000000000007
sg216
F6.2999999999999998
sg279
F8.8000000000000007
sg63
F7.5
sg277
F6.2999999999999998
sg215
F10
sg93
F6.2999999999999998
sg95
F8.8000000000000007
sg470
F7.5
sS'gett-the-trial-of-viviane-amsalem'
p557
F8.8000000000000007
sg72
F7.5
sg121
F10
sg73
F10
sg217
F7.5
sg281
F8.8000000000000007
ssg16
VNew York Post
p558
sg18
NsbsVTotal Film/James Mottram
p559
g3
(g4
g5
NtRp560
(dp561
g8
g559
sg9
VJames Mottram
p562
sg11
S'http://www.metacritic.com/critic/james-mottram?filter=movies'
p563
sg13
(dp564
g63
F8
sg64
F8
sg62
F8
sg67
F10
sg72
F6
ssg16
VTotal Film
p565
sg18
NsbsVBoxoffice Magazine/James Rocchi
p566
g3
(g4
g5
NtRp567
(dp568
g8
g566
sg9
VJames Rocchi
p569
sg11
S'http://www.metacritic.com/critic?filter=movies'
p570
sg13
(dp571
g111
F9
sg121
F8
sg128
F4
sg112
F10
ssg16
VBoxoffice Magazine
p572
sg18
NsbsVEmpire/Rob Fraser
p573
g3
(g4
g5
NtRp574
(dp575
g8
g573
sg9
VRob Fraser
p576
sg11
S'http://www.metacritic.com/critic?filter=movies'
p577
sg13
(dp578
g167
F10
ssg16
VEmpire
p579
sg18
NsbsVEntertainment Weekly/Staff (Not Credited)
p580
g3
(g4
g5
NtRp581
(dp582
g8
g580
sg9
VStaff (Not Credited)
p583
sg11
S'http://www.metacritic.com/critic?filter=movies'
p584
sg13
(dp585
g206
F10
ssg16
VEntertainment Weekly
p586
sg18
NsbsVVariety/Joe Leydon
p587
g3
(g4
g5
NtRp588
(dp589
g8
g587
sg9
VJoe Leydon
p590
sg11
S'http://www.metacritic.com/critic/joe-leydon?filter=movies'
p591
sg13
(dp592
g126
F9
sg156
F8
sg52
F5
ssg16
VVariety
p593
sg18
NsbsVVariety/Robert Koehler
p594
g3
(g4
g5
NtRp595
(dp596
g8
g594
sg9
VRobert Koehler
p597
sg11
S'http://www.metacritic.com/critic/robert-koehler?filter=movies'
p598
sg13
(dp599
g118
F8
sg253
F3
sg114
F2
ssg16
VVariety
p600
sg18
NsbsVNew York Daily News/Elizabeth Weitzman
p601
g3
(g4
g5
NtRp602
(dp603
g8
g601
sg9
VElizabeth Weitzman
p604
sg11
S'http://www.metacritic.com/critic/elizabeth-weitzman?filter=movies'
p605
sg13
(dp606
g137
F4
sg113
F8
sg62
F8
sg156
F5
sg127
F10
sg92
F8
sg128
F6
sg68
F8
sg162
F6
sg71
F10
sg150
F7.5
sg151
F10
ssg16
VNew York Daily News
p607
sg18
NsbsVThe New Yorker/Anthony Lane
p608
g3
(g4
g5
NtRp609
(dp610
g8
g608
sg9
VAnthony Lane
p611
sg11
S'http://www.metacritic.com/critic/anthony-lane?filter=movies'
p612
sg13
(dp613
g306
F9
sg112
F5
sg91
F9
sg115
F9
sg117
F9
sg121
F9
sg73
F8
sg122
F8
sg123
F9
sg127
F9
sg64
F7
sg215
F8
sg128
F6
sg521
F7
sg129
F9
sg68
F9
sg33
F8
sg133
F8
sg94
F7
sg34
F10
sg135
F8
sg145
F5
sg143
F8
sg144
F7
sg90
F8
sg146
F7
sg289
F7
sg70
F9
sg71
F8
sg152
F9
sg290
F4
sg153
F8
sg154
F7
sg62
F8
sg156
F5
sg279
F8
sg93
F9
sg513
F7
sg160
F8
sg60
F8
sg166
F9
sg74
F9
sg75
F7
ssg16
VThe New Yorker
p614
sg18
NsbsVNPR/Ella Taylor
p615
g3
(g4
g5
NtRp616
(dp617
g8
g615
sg9
VElla Taylor
p618
sg11
S'http://www.metacritic.com/critic/ella-taylor?filter=movies'
p619
sg13
(dp620
g121
F9
sg115
F9.5
sg138
F7.5
ssg16
VNPR
p621
sg18
NsbsVFilm.com/William Goss
p622
g3
(g4
g5
NtRp623
(dp624
g8
g622
sg9
VWilliam Goss
p625
sg11
S'http://www.metacritic.com/critic/william-goss?filter=movies'
p626
sg13
(dp627
g132
F8.5999999999999996
sg67
F9.4000000000000004
ssg16
VFilm.com
p628
sg18
NsbsVAustin Chronicle/Josh Kupecki
p629
g3
(g4
g5
NtRp630
(dp631
g8
g629
sg9
VJosh Kupecki
p632
sg11
S'http://www.metacritic.com/critic?filter=movies'
p633
sg13
(dp634
g62
F7.7999999999999998
sg322
F7.7999999999999998
sg75
F7.7999999999999998
ssg16
VAustin Chronicle
p635
sg18
NsbsVFilm Threat/Kevin Carr
p636
g3
(g4
g5
NtRp637
(dp638
g8
g636
sg9
VKevin Carr
p639
sg11
S'http://www.metacritic.com/critic?filter=movies'
p640
sg13
(dp641
g33
F7
ssg16
VFilm Threat
p642
sg18
NsbsVThe Playlist/Noel Murray
p643
g3
(g4
g5
NtRp644
(dp645
g8
g643
sg9
VNoel Murray
p646
sg11
S'http://www.metacritic.com/critic/noel-murray?filter=movies'
p647
sg13
(dp648
g91
F9.0999999999999996
ssg16
VThe Playlist
p649
sg18
NsbsVThe A.V. Club/Keith Phipps
p650
g3
(g4
g5
NtRp651
(dp652
g8
g650
sg9
VKeith Phipps
p653
sg11
S'http://www.metacritic.com/critic/keith-phipps?filter=movies'
p654
sg13
(dp655
g154
F7.5
sg155
F5
sg114
F3.2999999999999998
sg139
F10
sg138
F6.7000000000000002
sg146
F10
sg125
F8
sg113
F6.7000000000000002
sg163
F9.0999999999999996
sg133
F10
sg126
F5.7999999999999998
sg166
F8
sg33
F9
sg129
F10
sg159
F10
ssg16
VThe A.V. Club
p656
sg18
NsbsVCineVue/John Bleasdale
p657
g3
(g4
g5
NtRp658
(dp659
g8
g657
sg9
VJohn Bleasdale
p660
sg11
S'http://www.metacritic.com/critic/john-bleasdale?filter=movies'
p661
sg13
(dp662
g90
F8
sg278
F6
sS'the-postmans-white-nights'
p663
F8
sg63
F8
sg215
F10
sg122
F8
sg95
F8
sg277
F10
sg68
F10
sg69
F6
sg165
F6
sg470
F6
sg217
F6
sg94
F10
sg72
F8
sg93
F10
sg75
F8
sg60
F10
ssg16
VCineVue
p664
sg18
NsbsVThe New York Times/Vincent Canby
p665
g3
(g4
g5
NtRp666
(dp667
g8
g665
sg9
VVincent Canby
p668
sg11
S'http://www.metacritic.com/critic?filter=movies'
p669
sg13
(dp670
g140
F9
sS'full-metal-jacket'
p671
F10
sS'crimes-and-misdemeanors'
p672
F10
ssg16
VThe New York Times
p673
sg18
NsbsVSeattle Post-Intelligencer/Sean Axmaker
p674
g3
(g4
g5
NtRp675
(dp676
g8
g674
sg9
VSean Axmaker
p677
sg11
S'http://www.metacritic.com/critic/sean-axmaker?filter=movies'
p678
sg13
(dp679
g160
F10
sg254
F6.7000000000000002
sg139
F10
sg157
F9.0999999999999996
sg117
F10
sg146
F10
sS'in-the-mood-for-love'
p680
F10
sg118
F6.7000000000000002
sg289
F10
sg307
F10
sg134
F9.0999999999999996
sg34
F8.3000000000000007
sg35
F9.0999999999999996
sg167
F10
ssg16
VSeattle Post-Intelligencer
p681
sg18
NsbsVThe Film Stage/Raphael Deutsch
p682
g3
(g4
g5
NtRp683
(dp684
g8
g682
sg9
VRaphael Deutsch
p685
sg11
S'http://www.metacritic.com/critic?filter=movies'
p686
sg13
(dp687
g95
F7.5
ssg16
VThe Film Stage
p688
sg18
NsbsVMovieline/Alison Willmore
p689
g3
(g4
g5
NtRp690
(dp691
g8
g689
sg9
VAlison Willmore
p692
sg11
S'http://www.metacritic.com/critic?filter=movies'
p693
sg13
(dp694
g111
F9
sg121
F7
sg154
F9
sg115
F9
sg112
F6
ssg16
VMovieline
p695
sg18
NsbsVWashington Post/Rita Kempley
p696
g3
(g4
g5
NtRp697
(dp698
g8
g696
sg9
VRita Kempley
p699
sg11
S'http://www.metacritic.com/critic/rita-kempley?filter=movies'
p700
sg13
(dp701
g51
F6
sg103
F8
sS'the-lord-of-the-rings-the-fellowship-of-the-ring'
p702
F10
sg52
F3
sg148
F9
sg671
F9
sg290
F9
sg672
F7
ssg16
VWashington Post
p703
sg18
NsbsVMovie Nation/Roger Moore
p704
g3
(g4
g5
NtRp705
(dp706
g8
g704
sg9
VRoger Moore
p707
sg11
S'http://www.metacritic.com/critic/roger-moore?filter=movies'
p708
sg13
(dp709
g91
F8.8000000000000007
sg277
F7.5
sg122
F8.8000000000000007
sg64
F6.2999999999999998
sg215
F7.5
sg521
F6.2999999999999998
sg165
F6.2999999999999998
sg94
F5
sg61
F8.8000000000000007
sg136
F7.5
sg557
F7.5
sg216
F7.5
sg69
F6.2999999999999998
sg70
F8.8000000000000007
sg152
F7.5
sg90
F7.5
sg158
F8.8000000000000007
sg149
F7.5
sg74
F10
sg60
F5
sg72
F5
sg513
F8.8000000000000007
sg75
F5
ssg16
VMovie Nation
p710
sg18
NsbsVFilm.com/Jordan Hoffman
p711
g3
(g4
g5
NtRp712
(dp713
g8
g711
sg9
VJordan Hoffman
p714
sg11
S'http://www.metacritic.com/critic/jordan-hoffman?filter=movies'
p715
sg13
(dp716
g65
F6.9000000000000004
sg71
F9.5
ssg16
VFilm.com
p717
sg18
NsbsVSan Francisco Chronicle/Bob Graham
p718
g3
(g4
g5
NtRp719
(dp720
g8
g718
sg9
VBob Graham
p721
sg11
S'http://www.metacritic.com/critic/bob-graham?filter=movies'
p722
sg13
(dp723
g253
F5
sg119
F7.5
sg103
F7.5
ssg16
VSan Francisco Chronicle
p724
sg18
NsbsVTime/Stephanie Zacharek
p725
g3
(g4
g5
NtRp726
(dp727
g8
g725
sg9
VStephanie Zacharek
p728
sg11
S'http://www.metacritic.com/critic/stephanie-zacharek?filter=movies'
p729
sg13
(dp730
g91
F9
sg64
F7
sg93
F10
sg69
F9
sg177
F9
sg60
F6
sg94
F10
sg61
F10
sg165
F7
sg75
F8
ssg16
VTime
p731
sg18
NsbsVFilm Threat/Michael Dequina
p732
g3
(g4
g5
NtRp733
(dp734
g8
g732
sg9
VMichael Dequina
p735
sg11
S'http://www.metacritic.com/critic/michael-dequina?filter=movies'
p736
sg13
(dp737
g120
F7
ssg16
VFilm Threat
p738
sg18
NsbsVLos Angeles Times/Kevin Thomas
p739
g3
(g4
g5
NtRp740
(dp741
g8
g739
sg9
VKevin Thomas
p742
sg11
S'http://www.metacritic.com/critic/kevin-thomas?filter=movies'
p743
sg13
(dp744
g253
F6
sg254
F8
sg43
F10
ssg16
VLos Angeles Times
p745
sg18
NsbsVSalon.com/Scott Rosenberg
p746
g3
(g4
g5
NtRp747
(dp748
g8
g746
sg9
VScott Rosenberg
p749
sg11
S'http://www.metacritic.com/critic?filter=movies'
p750
sg13
(dp751
g131
F10
ssg16
VSalon.com
p752
sg18
NsbsVTV Guide Magazine/Staff (Not Credited)
p753
g3
(g4
g5
NtRp754
(dp755
g8
g753
sg9
VStaff (Not Credited)
p756
sg11
S'http://www.metacritic.com/critic?filter=movies'
p757
sg13
(dp758
g206
F7
sg140
F10
sg51
F10
sg116
F10
sg131
F9
sg52
F5
sg671
F8
sg672
F7
ssg16
VTV Guide Magazine
p759
sg18
NsbsVVillage Voice/Eric Hynes
p760
g3
(g4
g5
NtRp761
(dp762
g8
g760
sg9
VEric Hynes
p763
sg11
S'http://www.metacritic.com/critic?filter=movies'
p764
sg13
(dp765
g137
F2
ssg16
VVillage Voice
p766
sg18
NsbsVPhiladelphia Inquirer/Steven Rea
p767
g3
(g4
g5
NtRp768
(dp769
g8
g767
sg9
VSteven Rea
p770
sg11
S'http://www.metacritic.com/critic/steven-rea?filter=movies'
p771
sg13
(dp772
g111
F10
sg112
F6.2999999999999998
sg277
F7.5
sg67
F10
sg680
F10
sg121
F10
sg33
F7.5
sg35
F6.2999999999999998
sg75
F10
sg123
F8.8000000000000007
sg124
F6.2999999999999998
sg127
F10
sg103
F7.5
sg64
F7.5
sg215
F8.8000000000000007
sg128
F5
sg521
F7.5
sg93
F8.8000000000000007
sg68
F10
sg132
F10
sg133
F8.8000000000000007
sg557
F8.8000000000000007
sg134
F7.5
sg470
F8.8000000000000007
sg155
F5
sg115
F7.5
sg702
F6.2999999999999998
sg135
F8.8000000000000007
sg136
F8.8000000000000007
sg113
F5
sg142
F10
sg143
F10
sg144
F7.5
sg145
F8.8000000000000007
sg146
F8.8000000000000007
sg149
F10
sg70
F10
sg177
F10
sg169
F7.5
sg126
F7.5
sg151
F6.2999999999999998
sg161
F8.8000000000000007
sg152
F10
sg290
F10
sg217
F8.8000000000000007
sg153
F6.2999999999999998
sg154
F8.8000000000000007
sg254
F8.8000000000000007
sg62
F6.2999999999999998
sg156
F5
sg157
F8.8000000000000007
sg279
F7.5
sg122
F7.5
sg95
F8.8000000000000007
sg513
F8.8000000000000007
sg65
F10
sg164
F8.8000000000000007
sg281
F10
sg74
F10
sg60
F8.8000000000000007
sg71
F10
ssg16
VPhiladelphia Inquirer
p773
sg18
NsbsVTime/John Anderson
p774
g3
(g4
g5
NtRp775
(dp776
g8
g774
sg9
VJohn Anderson
p777
sg11
S'http://www.metacritic.com/critic?filter=movies'
p778
sg13
(dp779
g74
F9
ssg16
VTime
p780
sg18
NsbsVWe Got This Covered/Joseph Falcone
p781
g3
(g4
g5
NtRp782
(dp783
g8
g781
sg9
VJoseph Falcone
p784
sg11
S'http://www.metacritic.com/critic/joseph-falcone?filter=movies'
p785
sg13
(dp786
g94
F8
ssg16
VWe Got This Covered
p787
sg18
NsbsVVariety/Scott Foundas
p788
g3
(g4
g5
NtRp789
(dp790
g8
g788
sg9
VScott Foundas
p791
sg11
S'http://www.metacritic.com/critic/scott-foundas?filter=movies'
p792
sg13
(dp793
g62
F10
sg127
F10
sg65
F10
sg470
F7
sg71
F10
sg122
F10
ssg16
VVariety
p794
sg18
NsbsVEntertainment Weekly/Bruce Fretts
p795
g3
(g4
g5
NtRp796
(dp797
g8
g795
sg9
VBruce Fretts
p798
sg11
S'http://www.metacritic.com/critic/bruce-fretts?filter=movies'
p799
sg13
(dp800
g118
F1.6000000000000001
ssg16
VEntertainment Weekly
p801
sg18
NsbsVTime Out London/Guy Lodge
p802
g3
(g4
g5
NtRp803
(dp804
g8
g802
sg9
VGuy Lodge
p805
sg11
S'http://www.metacritic.com/critic/guy-lodge?filter=movies'
p806
sg13
(dp807
g122
F6
ssg16
VTime Out London
p808
sg18
NsbsVWashington Post/Mark Jenkins
p809
g3
(g4
g5
NtRp810
(dp811
g8
g809
sg9
VMark Jenkins
p812
sg11
S'http://www.metacritic.com/critic?filter=movies'
p813
sg13
(dp814
g306
F9
ssg16
VWashington Post
p815
sg18
NsbsVThe New York Times/Bosley Crowther
p816
g3
(g4
g5
NtRp817
(dp818
g8
g816
sg9
VBosley Crowther
p819
sg11
S'http://www.metacritic.com/critic?filter=movies'
p820
sg13
(dp821
g116
F7
ssg16
VThe New York Times
p822
sg18
NsbsVNew York Daily News/Stephen Whitty 
p823
g3
(g4
g5
NtRp824
(dp825
g8
g823
sg9
VStephen Whitty 
p826
sg11
S'http://www.metacritic.com/critic/stephen-whitty?filter=movies'
p827
sg13
(dp828
g136
F6
sg91
F10
sg149
F8
sg152
F10
sg61
F8
sg165
F8
sg75
F7
ssg16
VNew York Daily News
p829
sg18
NsbsVUSA Today/Scott Bowles
p830
g3
(g4
g5
NtRp831
(dp832
g8
g830
sg9
VScott Bowles
p833
sg11
S'http://www.metacritic.com/critic/scott-bowles?filter=movies'
p834
sg13
(dp835
g137
F5
ssg16
VUSA Today
p836
sg18
NsbsVTotal Film/Rob James
p837
g3
(g4
g5
NtRp838
(dp839
g8
g837
sg9
VRob James
p840
sg11
S'http://www.metacritic.com/critic?filter=movies'
p841
sg13
(dp842
g61
F10
ssg16
VTotal Film
p843
sg18
NsbsVMr. Showbiz/Kevin Maynard
p844
g3
(g4
g5
NtRp845
(dp846
g8
g844
sg9
VKevin Maynard
p847
sg11
S'http://www.metacritic.com/critic/kevin-maynard?filter=movies'
p848
sg13
(dp849
g125
F3
sg253
F3.5
sg103
F8.5
ssg16
VMr. Showbiz
p850
sg18
NsbsVVariety/David Rooney
p851
g3
(g4
g5
NtRp852
(dp853
g8
g851
sg9
VDavid Rooney
p854
sg11
S'http://www.metacritic.com/critic/david-rooney?filter=movies'
p855
sg13
(dp856
g130
F10
sg167
F8
ssg16
VVariety
p857
sg18
NsbsVIndiewire/Anisha Jhaveri
p858
g3
(g4
g5
NtRp859
(dp860
g8
g858
sg9
VAnisha Jhaveri
p861
sg11
S'http://www.metacritic.com/critic?filter=movies'
p862
sg13
(dp863
g158
F10
ssg16
VIndiewire
p864
sg18
NsbsVChristian Science Monitor/David Sterritt
p865
g3
(g4
g5
NtRp866
(dp867
g8
g865
sg9
VDavid Sterritt
p868
sg11
S'http://www.metacritic.com/critic/david-sterritt?filter=movies'
p869
sg13
(dp870
g306
F10
sg680
F7.5
sg118
F2.5
sg52
F7.5
sg120
F2.5
sg671
F10
sg124
F7.5
sg125
F5
sg103
F5
sg129
F7.5
sg33
F5
sg307
F10
sg427
F2.5
sg119
F7.5
sg141
F10
sg143
F10
sg169
F7.5
sg150
F10
sg290
F7.5
sg702
F6.2999999999999998
sg254
F7.5
sg51
F8.8000000000000007
sg159
F5
sg291
F7.5
sg253
F0
sg168
F7.5
sg167
F10
ssg16
VChristian Science Monitor
p871
sg18
NsbsVCineVue/Rory O'Connor
p872
g3
(g4
g5
NtRp873
(dp874
g8
g872
sg9
VRory O'Connor
p875
sg11
S'http://www.metacritic.com/critic?filter=movies'
p876
sg13
(dp877
g152
F8
ssg16
VCineVue
p878
sg18
NsbsVThe Seattle Times/Soren Andersen
p879
g3
(g4
g5
NtRp880
(dp881
g8
g879
sg9
VSoren Andersen
p882
sg11
S'http://www.metacritic.com/critic/soren-andersen?filter=movies'
p883
sg13
(dp884
g60
F8.8000000000000007
ssg16
VThe Seattle Times
p885
sg18
NsbsVVillage Voice/Amy Nicholson
p886
g3
(g4
g5
NtRp887
(dp888
g8
g886
sg9
VAmy Nicholson
p889
sg11
S'http://www.metacritic.com/critic/amy-nicholson?filter=movies'
p890
sg13
(dp891
g142
F9
sg65
F9
sg216
F10
sg70
F8
sg122
F6
sg60
F10
ssg16
VVillage Voice
p892
sg18
NsbsVScreen International/Charles Gant
p893
g3
(g4
g5
NtRp894
(dp895
g8
g893
sg9
VCharles Gant
p896
sg11
S'http://www.metacritic.com/critic?filter=movies'
p897
sg13
(dp898
g70
F8
ssg16
VScreen International
p899
sg18
NsbsVVillage Voice/Simon Abrams
p900
g3
(g4
g5
NtRp901
(dp902
g8
g900
sg9
VSimon Abrams
p903
sg11
S'http://www.metacritic.com/critic/simon-abrams?filter=movies'
p904
sg13
(dp905
g557
F9
ssg16
VVillage Voice
p906
sg18
NsbsVPortland Oregonian/Roger Moore
p907
g3
(g4
g5
NtRp908
(dp909
g8
g907
sg9
VRoger Moore
p910
sg11
S'http://www.metacritic.com/critic?filter=movies'
p911
sg13
(dp912
g118
F5
ssg16
VPortland Oregonian
p913
sg18
NsbsVSlant Magazine/Eric Henderson
p914
g3
(g4
g5
NtRp915
(dp916
g8
g914
sg9
VEric Henderson
p917
sg11
S'http://www.metacritic.com/critic/eric-henderson?filter=movies'
p918
sg13
(dp919
g136
F6.2999999999999998
sg67
F8.8000000000000007
ssg16
VSlant Magazine
p920
sg18
NsbsVThe Globe and Mail (Toronto)/Simon Houpt
p921
g3
(g4
g5
NtRp922
(dp923
g8
g921
sg9
VSimon Houpt
p924
sg11
S'http://www.metacritic.com/critic?filter=movies'
p925
sg13
(dp926
g136
F6.2999999999999998
ssg16
VThe Globe and Mail (Toronto)
p927
sg18
NsbsVPremiere/Peter Debruge
p928
g3
(g4
g5
NtRp929
(dp930
g8
g928
sg9
VPeter Debruge
p931
sg11
S'http://www.metacritic.com/critic/peter-debruge?filter=movies'
p932
sg13
(dp933
g155
F5
sg124
F7.5
ssg16
VPremiere
p934
sg18
NsbsVThe New York Times/Janet Maslin
p935
g3
(g4
g5
NtRp936
(dp937
g8
g935
sg9
VJanet Maslin
p938
sg11
S'http://www.metacritic.com/critic/janet-maslin?filter=movies'
p939
sg13
(dp940
g291
F9
sg206
F10
sg103
F8
sg43
F6
ssg16
VThe New York Times
p941
sg18
NsbsVVillage Voice/Nick Schager
p942
g3
(g4
g5
NtRp943
(dp944
g8
g942
sg9
VNick Schager
p945
sg11
S'http://www.metacritic.com/critic/nick-schager?filter=movies'
p946
sg13
(dp947
g149
F10
ssg16
VVillage Voice
p948
sg18
NsbsVSlant Magazine/Ed Gonzalez
p949
g3
(g4
g5
NtRp950
(dp951
g8
g949
sg9
VEd Gonzalez
p952
sg11
S'http://www.metacritic.com/critic/ed-gonzalez?filter=movies'
p953
sg13
(dp954
g127
F10
sg128
F7.5
sg93
F5
sg680
F10
sg132
F5
sg122
F7.5
ssg16
VSlant Magazine
p955
sg18
NsbsVNew York Daily News/Allen Salkin
p956
g3
(g4
g5
NtRp957
(dp958
g8
g956
sg9
VAllen Salkin
p959
sg11
S'http://www.metacritic.com/critic?filter=movies'
p960
sg13
(dp961
g60
F10
ssg16
VNew York Daily News
p962
sg18
NsbsVTampa Bay Times/Steve Persall
p963
g3
(g4
g5
NtRp964
(dp965
g8
g963
sg9
VSteve Persall
p966
sg11
S'http://www.metacritic.com/critic/steve-persall?filter=movies'
p967
sg13
(dp968
g111
F10
sg91
F10
sg115
F10
sg162
F6.7000000000000002
sg121
F10
sg122
F10
sg123
F10
sg127
F10
sg64
F6.7000000000000002
sg67
F10
sg165
F9.0999999999999996
sg68
F10
sg132
F10
sg61
F10
sg136
F5.7999999999999998
sg137
F8.3000000000000007
sg142
F10
sg138
F10
sg144
F7.5
sg149
F8.3000000000000007
sg70
F10
sg71
F10
sg151
F8.3000000000000007
sg152
F8.3000000000000007
sg153
F10
sg154
F7.5
sg43
F5.7999999999999998
sg158
F7.5
sg513
F10
sg65
F10
sg163
F10
sg60
F10
sg74
F10
sg75
F10
ssg16
VTampa Bay Times
p969
sg18
NsbsVLos Angeles Times/Betsy Sharkey
p970
g3
(g4
g5
NtRp971
(dp972
g8
g970
sg9
VBetsy Sharkey
p973
sg11
S'http://www.metacritic.com/critic/betsy-sharkey?filter=movies'
p974
sg13
(dp975
g137
F5
sg62
F10
sg112
F10
sg63
F9
sg68
F10
sg162
F8
sg126
F8
sg557
F9
sg153
F8
ssg16
VLos Angeles Times
p976
sg18
NsbsVThe Playlist/Kevin Jagernauth
p977
g3
(g4
g5
NtRp978
(dp979
g8
g977
sg9
VKevin Jagernauth
p980
sg11
S'http://www.metacritic.com/critic/kevin-jagernauth?filter=movies'
p981
sg13
(dp982
g279
F8.3000000000000007
sg121
F8.3000000000000007
sg71
F10
ssg16
VThe Playlist
p983
sg18
NsbsVChicago Tribune/Michael Wilmington
p984
g3
(g4
g5
NtRp985
(dp986
g8
g984
sg9
VMichael Wilmington
p987
sg11
S'http://www.metacritic.com/critic/michael-wilmington?filter=movies'
p988
sg13
(dp989
g306
F10
sg116
F10
sg117
F10
sg680
F7.5
sg118
F3.7999999999999998
sg35
F8.8000000000000007
sg124
F10
sg103
F10
sg129
F10
sg131
F10
sg33
F10
sg307
F10
sg34
F8.8000000000000007
sg427
F8.8000000000000007
sg119
F10
sg141
F10
sg169
F10
sg150
F8.8000000000000007
sg290
F10
sg702
F10
sg254
F10
sg43
F8.8000000000000007
sg159
F7.5
sg291
F8.8000000000000007
sg168
F10
ssg16
VChicago Tribune
p990
sg18
NsbsVVillage Voice/Nathan Lee
p991
g3
(g4
g5
NtRp992
(dp993
g8
g991
sg9
VNathan Lee
p994
sg11
S'http://www.metacritic.com/critic?filter=movies'
p995
sg13
(dp996
g114
F4
ssg16
VVillage Voice
p997
sg18
NsbsVUSA Today/Mike Clark
p998
g3
(g4
g5
NtRp999
(dp1000
g8
g998
sg9
VMike Clark
p1001
sg11
S'http://www.metacritic.com/critic/mike-clark?filter=movies'
p1002
sg13
(dp1003
g291
F10
sg119
F10
sg159
F6.2999999999999998
sg166
F10
sg155
F6.2999999999999998
sg51
F10
sg141
F10
sg148
F7.5
sg680
F5
sg118
F6.2999999999999998
sg125
F8.8000000000000007
sg169
F8.8000000000000007
sg120
F5
sg307
F10
sg103
F8.8000000000000007
sg671
F10
sg253
F3.7999999999999998
sg124
F8.8000000000000007
sg52
F7.5
sg168
F8.8000000000000007
sg167
F8.8000000000000007
ssg16
VUSA Today
p1004
sg18
NsbsVRogerEbert.com/Godfrey Cheshire
p1005
g3
(g4
g5
NtRp1006
(dp1007
g8
g1005
sg9
VGodfrey Cheshire
p1008
sg11
S'http://www.metacritic.com/critic/godfrey-cheshire?filter=movies'
p1009
sg13
(dp1010
g90
F8.8000000000000007
sg215
F8.8000000000000007
sg15
F6.2999999999999998
sg73
F10
sg217
F10
sg281
F10
ssg16
VRogerEbert.com
p1011
sg18
NsbsVSlant Magazine/Jesse Cataldo
p1012
g3
(g4
g5
NtRp1013
(dp1014
g8
g1012
sg9
VJesse Cataldo
p1015
sg11
S'http://www.metacritic.com/critic/jesse-cataldo?filter=movies'
p1016
sg13
(dp1017
g63
F8.8000000000000007
sg142
F8.8000000000000007
sg74
F6.2999999999999998
sg470
F6.2999999999999998
sg72
F7.5
sg513
F6.2999999999999998
ssg16
VSlant Magazine
p1018
sg18
NsbsVSlant Magazine/Oleg Ivanov
p1019
g3
(g4
g5
NtRp1020
(dp1021
g8
g1019
sg9
VOleg Ivanov
p1022
sg11
S'http://www.metacritic.com/critic/oleg-ivanov?filter=movies'
p1023
sg13
(dp1024
g419
F7.5
sg521
F8.8000000000000007
ssg16
VSlant Magazine
p1025
sg18
NsbsVThe A.V. Club/Tasha Robinson
p1026
g3
(g4
g5
NtRp1027
(dp1028
g8
g1026
sg9
VTasha Robinson
p1029
sg11
S'http://www.metacritic.com/critic/tasha-robinson?filter=movies'
p1030
sg13
(dp1031
g134
F10
sg157
F9.0999999999999996
sg92
F8.3000000000000007
sg128
F6.7000000000000002
ssg16
VThe A.V. Club
p1032
sg18
NsbsVMiami Herald/Connie Ogle
p1033
g3
(g4
g5
NtRp1034
(dp1035
g8
g1033
sg9
VConnie Ogle
p1036
sg11
S'http://www.metacritic.com/critic/connie-ogle?filter=movies'
p1037
sg13
(dp1038
g158
F6.2999999999999998
sg155
F2.5
sg149
F10
sg307
F8.8000000000000007
ssg16
VMiami Herald
p1039
sg18
NsbsVEmpire/Liz Beardsworth
p1040
g3
(g4
g5
NtRp1041
(dp1042
g8
g1040
sg9
VLiz Beardsworth
p1043
sg11
S'http://www.metacritic.com/critic?filter=movies'
p1044
sg13
(dp1045
g470
F8
sg216
F10
ssg16
VEmpire
p1046
sg18
NsbsVVariety/Derek Elley
p1047
g3
(g4
g5
NtRp1048
(dp1049
g8
g1047
sg9
VDerek Elley
p1050
sg11
S'http://www.metacritic.com/critic/derek-elley?filter=movies'
p1051
sg13
(dp1052
g34
F8
sg43
F7
sg133
F8
sg150
F8
ssg16
VVariety
p1053
sg18
NsbsVEmpire/Ian Freer
p1054
g3
(g4
g5
NtRp1055
(dp1056
g8
g1054
sg9
VIan Freer
p1057
sg11
S'http://www.metacritic.com/critic?filter=movies'
p1058
sg13
(dp1059
g63
F8
sg277
F8
sg92
F8
sg68
F10
sg69
F10
sg70
F10
sg132
F8
sg60
F10
ssg16
VEmpire
p1060
sg18
NsbsVDallas Observer/Melissa Levine
p1061
g3
(g4
g5
NtRp1062
(dp1063
g8
g1061
sg9
VMelissa Levine
p1064
sg11
S'http://www.metacritic.com/critic?filter=movies'
p1065
sg13
(dp1066
g141
F9
sg169
F5
ssg16
VDallas Observer
p1067
sg18
NsbsVTime Out London/Dave Calhoun
p1068
g3
(g4
g5
NtRp1069
(dp1070
g8
g1068
sg9
VDave Calhoun
p1071
sg11
S'http://www.metacritic.com/critic/dave-calhoun?filter=movies'
p1072
sg13
(dp1073
g90
F6
sg63
F8
sg142
F8
sg65
F8
sg215
F8
sg280
F10
sg74
F10
sg277
F8
sg69
F10
sg70
F8
sg470
F8
sg71
F10
sg177
F10
sg152
F10
sg73
F6
sg75
F6
sg60
F10
ssg16
VTime Out London
p1074
sg18
NsbsVVillage Voice/Bilge Ebiri
p1075
g3
(g4
g5
NtRp1076
(dp1077
g8
g1075
sg9
VBilge Ebiri
p1078
sg11
S'http://www.metacritic.com/critic/bilge-ebiri?filter=movies'
p1079
sg13
(dp1080
g90
F6
sg470
F8
sg94
F10
ssg16
VVillage Voice
p1081
sg18
NsbsVFilm Threat/Tim Merrill
p1082
g3
(g4
g5
NtRp1083
(dp1084
g8
g1082
sg9
VTim Merrill
p1085
sg11
S'http://www.metacritic.com/critic/tim-merrill?filter=movies'
p1086
sg13
(dp1087
g307
F8
ssg16
VFilm Threat
p1088
sg18
NsbsVThe Playlist/Rodrigo Perez
p1089
g3
(g4
g5
NtRp1090
(dp1091
g8
g1089
sg9
VRodrigo Perez
p1092
sg11
S'http://www.metacritic.com/critic/rodrigo-perez?filter=movies'
p1093
sg13
(dp1094
g111
F8.3000000000000007
sg112
F4.2000000000000002
sg62
F8.3000000000000007
sg127
F9.0999999999999996
sg158
F9.0999999999999996
sg128
F8.3000000000000007
sg149
F10
sg73
F8.3000000000000007
sg322
F9.0999999999999996
sg513
F8.3000000000000007
sg60
F8.3000000000000007
ssg16
VThe Playlist
p1095
sg18
NsbsVFilm.com/Eric D. Snider
p1096
g3
(g4
g5
NtRp1097
(dp1098
g8
g1096
sg9
VEric D. Snider
p1099
sg11
S'http://www.metacritic.com/critic?filter=movies'
p1100
sg13
(dp1101
g279
F2.5
ssg16
VFilm.com
p1102
sg18
NsbsVTNT RoughCut/J. Rentilly
p1103
g3
(g4
g5
NtRp1104
(dp1105
g8
g1103
sg9
VJ. Rentilly
p1106
sg11
S'http://www.metacritic.com/critic/j-rentilly?filter=movies'
p1107
sg13
(dp1108
g427
F3
ssg16
VTNT RoughCut
p1109
sg18
NsbsVDallas Observer/Arnold Wayne Jones
p1110
g3
(g4
g5
NtRp1111
(dp1112
g8
g1110
sg9
VArnold Wayne Jones
p1113
sg11
S'http://www.metacritic.com/critic?filter=movies'
p1114
sg13
(dp1115
g148
F10
ssg16
VDallas Observer
p1116
sg18
NsbsVVillage Voice/Jessica Winter
p1117
g3
(g4
g5
NtRp1118
(dp1119
g8
g1117
sg9
VJessica Winter
p1120
sg11
S'http://www.metacritic.com/critic/jessica-winter?filter=movies'
p1121
sg13
(dp1122
g253
F4
sg169
F6
ssg16
VVillage Voice
p1123
sg18
NsbsVEmpire/Ian Nathan
p1124
g3
(g4
g5
NtRp1125
(dp1126
g8
g1124
sg9
VIan Nathan
p1127
sg11
S'http://www.metacritic.com/critic?filter=movies'
p1128
sg13
(dp1129
g154
F10
sg62
F8
sg127
F8
sg157
F10
sg67
F10
sg145
F10
sg146
F10
sg169
F8
ssg16
VEmpire
p1130
sg18
NsbsVVillage Voice/Sherilyn Connelly
p1131
g3
(g4
g5
NtRp1132
(dp1133
g8
g1131
sg9
VSherilyn Connelly
p1134
sg11
S'http://www.metacritic.com/critic/sherilyn-connelly?filter=movies'
p1135
sg13
(dp1136
g25
F7
sg419
F8
ssg16
VVillage Voice
p1137
sg18
NsbsVEmpire/Dan Jolin
p1138
g3
(g4
g5
NtRp1139
(dp1140
g8
g1138
sg9
VDan Jolin
p1141
sg11
S'http://www.metacritic.com/critic/dan-jolin?filter=movies'
p1142
sg13
(dp1143
g112
F8
sg25
F8
sg141
F10
sg128
F8
sg521
F8
sg147
F8
sg135
F10
sg61
F10
sg122
F10
sg71
F10
ssg16
VEmpire
p1144
sg18
NsbsVEmpire/Nick de Semlyen
p1145
g3
(g4
g5
NtRp1146
(dp1147
g8
g1145
sg9
VNick de Semlyen
p1148
sg11
S'http://www.metacritic.com/critic?filter=movies'
p1149
sg13
(dp1150
g137
F4
ssg16
VEmpire
p1151
sg18
NsbsVNewsweek/Ann-Rebecca Laschever
p1152
g3
(g4
g5
NtRp1153
(dp1154
g8
g1152
sg9
VAnn-Rebecca Laschever
p1155
sg11
S'http://www.metacritic.com/critic?filter=movies'
p1156
sg13
(dp1157
g291
F4
ssg16
VNewsweek
p1158
sg18
NsbsVPremiere/Glenn Kenny
p1159
g3
(g4
g5
NtRp1160
(dp1161
g8
g1159
sg9
VGlenn Kenny
p1162
sg11
S'http://www.metacritic.com/critic/glenn-kenny?filter=movies'
p1163
sg13
(dp1164
g306
F6.2999999999999998
sg147
F7.5
sg160
F10
sg157
F10
sg141
F10
sg143
F10
sg117
F10
sg146
F10
sg130
F8.8000000000000007
sg166
F10
sg33
F10
sg169
F8.8000000000000007
sg289
F10
sg150
F8.8000000000000007
sg120
F6.2999999999999998
sg34
F8.8000000000000007
sg161
F10
sg167
F10
ssg16
VPremiere
p1165
sg18
NsbsVLos Angeles Times/Manohla Dargis
p1166
g3
(g4
g5
NtRp1167
(dp1168
g8
g1166
sg9
VManohla Dargis
p1169
sg11
S'http://www.metacritic.com/critic/manohla-dargis?filter=movies'
p1170
sg13
(dp1171
g120
F3
sg118
F3
sg143
F9
sg168
F9
sg129
F7
ssg16
VLos Angeles Times
p1172
sg18
NsbsVThe Hollywood Reporter/David Hunter
p1173
g3
(g4
g5
NtRp1174
(dp1175
g8
g1173
sg9
VDavid Hunter
p1176
sg11
S'http://www.metacritic.com/critic?filter=movies'
p1177
sg13
(dp1178
g33
F10
sg43
F9
ssg16
VThe Hollywood Reporter
p1179
sg18
NsbsVDallas Observer/Andy Klein
p1180
g3
(g4
g5
NtRp1181
(dp1182
g8
g1180
sg9
VAndy Klein
p1183
sg11
S'http://www.metacritic.com/critic/andy-klein?filter=movies'
p1184
sg13
(dp1185
g680
F8
sg168
F9
ssg16
VDallas Observer
p1186
sg18
NsbsVTV Guide Magazine/Ethan Alter
p1187
g3
(g4
g5
NtRp1188
(dp1189
g8
g1187
sg9
VEthan Alter
p1190
sg11
S'http://www.metacritic.com/critic?filter=movies'
p1191
sg13
(dp1192
g141
F8
sg124
F6
ssg16
VTV Guide Magazine
p1193
sg18
NsbsVPremiere/Jessica Letkemann
p1194
g3
(g4
g5
NtRp1195
(dp1196
g8
g1194
sg9
VJessica Letkemann
p1197
sg11
S'http://www.metacritic.com/critic/jessica-letkemann?filter=movies'
p1198
sg13
(dp1199
g135
F7.5
ssg16
VPremiere
p1200
sg18
NsbsVFilm.com/Elizabeth Weitzman
p1201
g3
(g4
g5
NtRp1202
(dp1203
g8
g1201
sg9
VElizabeth Weitzman
p1204
sg11
S'http://www.metacritic.com/critic/elizabeth-weitzman?filter=movies'
p1205
sg13
(dp1206
g148
F8
ssg16
VFilm.com
p1207
sg18
NsbsVPremiere/Rob Calvert
p1208
g3
(g4
g5
NtRp1209
(dp1210
g8
g1208
sg9
VRob Calvert
p1211
sg11
S'http://www.metacritic.com/critic?filter=movies'
p1212
sg13
(dp1213
g126
F10
ssg16
VPremiere
p1214
sg18
NsbsVThe New York Times/Jeannette Catsoulis
p1215
g3
(g4
g5
NtRp1216
(dp1217
g8
g1215
sg9
VJeannette Catsoulis
p1218
sg11
S'http://www.metacritic.com/critic/jeannette-catsoulis?filter=movies'
p1219
sg13
(dp1220
g114
F3
sg521
F8
ssg16
VThe New York Times
p1221
sg18
NsbsVBoston Globe/Wesley Morris
p1222
g3
(g4
g5
NtRp1223
(dp1224
g8
g1222
sg9
VWesley Morris
p1225
sg11
S'http://www.metacritic.com/critic/wesley-morris?filter=movies'
p1226
sg13
(dp1227
g112
F8.8000000000000007
sg155
F5
sg156
F6.2999999999999998
sg157
F8.8000000000000007
sg276
F8.8000000000000007
sg120
F6.2999999999999998
sg117
F10
sg118
F5
sg162
F7.5
sg133
F10
sg151
F7.5
sg161
F10
sg35
F6.2999999999999998
sg115
F10
sg123
F10
sg153
F5
ssg16
VBoston Globe
p1228
sg18
NsbsVTotal Film/Phillip Kemp
p1229
g3
(g4
g5
NtRp1230
(dp1231
g8
g1229
sg9
VPhillip Kemp
p1232
sg11
S'http://www.metacritic.com/critic?filter=movies'
p1233
sg13
(dp1234
g149
F10
ssg16
VTotal Film
p1235
sg18
NsbsVFilm Threat/Stina Chyn
p1236
g3
(g4
g5
NtRp1237
(dp1238
g8
g1236
sg9
VStina Chyn
p1239
sg11
S'http://www.metacritic.com/critic/stina-chyn?filter=movies'
p1240
sg13
(dp1241
g35
F8
sg167
F8
ssg16
VFilm Threat
p1242
sg18
NsbsVTotal Film/Neil Smith
p1243
g3
(g4
g5
NtRp1244
(dp1245
g8
g1243
sg9
VNeil Smith
p1246
sg11
S'http://www.metacritic.com/critic/neil-smith?filter=movies'
p1247
sg13
(dp1248
g111
F8
sg165
F8
ssg16
VTotal Film
p1249
sg18
NsbsVVillage Voice/Scott Tobias
p1250
g3
(g4
g5
NtRp1251
(dp1252
g8
g1250
sg9
VScott Tobias
p1253
sg11
S'http://www.metacritic.com/critic/scott-tobias?filter=movies'
p1254
sg13
(dp1255
g93
F8
ssg16
VVillage Voice
p1256
sg18
NsbsVNew York Post/Kyle Smith
p1257
g3
(g4
g5
NtRp1258
(dp1259
g8
g1257
sg9
VKyle Smith
p1260
sg11
S'http://www.metacritic.com/critic/kyle-smith?filter=movies'
p1261
sg13
(dp1262
g112
F7.5
sg114
F2.5
sg162
F7.5
sg122
F8.8000000000000007
sg123
F7.5
sg91
F10
sg521
F5
sg126
F7.5
sg133
F6.2999999999999998
sg155
F7.5
sg139
F8.8000000000000007
sg142
F5
sg149
F7.5
sg71
F7.5
sg153
F8.8000000000000007
sg62
F3.7999999999999998
sg156
F7.5
sg159
F10
sg75
F6.2999999999999998
sg166
F7.5
sg513
F10
sg60
F8.8000000000000007
ssg16
VNew York Post
p1263
sg18
NsbsVEmpire/Staff (Not credited)
p1264
g3
(g4
g5
NtRp1265
(dp1266
g8
g1264
sg9
VStaff (Not credited)
p1267
sg11
S'http://www.metacritic.com/critic?filter=movies'
p1268
sg13
(dp1269
g166
F10
sg177
F8
ssg16
VEmpire
p1270
sg18
NsbsVThe Telegraph/Tim Robey
p1271
g3
(g4
g5
NtRp1272
(dp1273
g8
g1271
sg9
VTim Robey
p1274
sg11
S'http://www.metacritic.com/critic/tim-robey?filter=movies'
p1275
sg13
(dp1276
g177
F10
sg90
F6
sg91
F8
sg142
F10
sg215
F8
sg280
F8
sg93
F8
sg277
F6
sg149
F8
sg470
F8
sg94
F10
sg132
F10
sg152
F10
sg122
F6
ssg16
VThe Telegraph
p1277
sg18
NsbsVThe New York Times/Renata Adler
p1278
g3
(g4
g5
NtRp1279
(dp1280
g8
g1278
sg9
VRenata Adler
p1281
sg11
S'http://www.metacritic.com/critic?filter=movies'
p1282
sg13
(dp1283
g131
F6
ssg16
VThe New York Times
p1284
sg18
NsbsVEntertainment Weekly/Owen Gleiberman
p1285
g3
(g4
g5
NtRp1286
(dp1287
g8
g1285
sg9
VOwen Gleiberman
p1288
sg11
S'http://www.metacritic.com/critic/owen-gleiberman?filter=movies'
p1289
sg13
(dp1290
g111
F10
sg112
F6.7000000000000002
sg114
F4.2000000000000002
sg162
F10
sg121
F10
sg35
F9.0999999999999996
sg123
F10
sg124
F9.0999999999999996
sg67
F10
sg129
F7.5
sg130
F9.0999999999999996
sg131
F10
sg132
F10
sg135
F9.0999999999999996
sg307
F9.0999999999999996
sg134
F10
sg126
F7.5
sg155
F8.3000000000000007
sg137
F8.3000000000000007
sg119
F5
sg139
F9.0999999999999996
sg142
F9.0999999999999996
sg143
F10
sg145
F7.5
sg147
F9.0999999999999996
sg71
F9.0999999999999996
sg150
F9.0999999999999996
sg153
F10
sg154
F10
sg156
F8.3000000000000007
sg157
F7.5
sg51
F10
sg291
F8.3000000000000007
sg163
F10
sg164
F7.5
sg166
F10
ssg16
VEntertainment Weekly
p1291
sg18
NsbsVPhiladelphia Inquirer/Tirdad Derakhshani
p1292
g3
(g4
g5
NtRp1293
(dp1294
g8
g1292
sg9
VTirdad Derakhshani
p1295
sg11
S'http://www.metacritic.com/critic/tirdad-derakhshani?filter=movies'
p1296
sg13
(dp1297
g73
F8.8000000000000007
sg91
F8.8000000000000007
sg69
F10
sg419
F8.8000000000000007
sg94
F10
sg61
F10
sg322
F10
ssg16
VPhiladelphia Inquirer
p1298
sg18
NsbsVWashington Post/Teresa Wiltz
p1299
g3
(g4
g5
NtRp1300
(dp1301
g8
g1299
sg9
VTeresa Wiltz
p1302
sg11
S'http://www.metacritic.com/critic?filter=movies'
p1303
sg13
(dp1304
g141
F10
sg124
F7
ssg16
VWashington Post
p1305
sg18
NsbsVAustin Chronicle/Marrit Ingman
p1306
g3
(g4
g5
NtRp1307
(dp1308
g8
g1306
sg9
VMarrit Ingman
p1309
sg11
S'http://www.metacritic.com/critic/marrit-ingman?filter=movies'
p1310
sg13
(dp1311
g155
F3
sg35
F7.7999999999999998
sg150
F8.9000000000000004
ssg16
VAustin Chronicle
p1312
sg18
NsbsVCineVue/Ben Nicholson
p1313
g3
(g4
g5
NtRp1314
(dp1315
g8
g1313
sg9
VBen Nicholson
p1316
sg11
S'http://www.metacritic.com/critic/ben-nicholson?filter=movies'
p1317
sg13
(dp1318
g142
F8
sg61
F10
sg91
F8
sg25
F6
ssg16
VCineVue
p1319
sg18
NsbsVVillage Voice/Nick Pinkerton
p1320
g3
(g4
g5
NtRp1321
(dp1322
g8
g1320
sg9
VNick Pinkerton
p1323
sg11
S'http://www.metacritic.com/critic/nick-pinkerton?filter=movies'
p1324
sg13
(dp1325
g151
F3
sg121
F5
sg144
F4
sg156
F1
sg289
F9
ssg16
VVillage Voice
p1326
sg18
NsbsVWall Street Journal/Joe Morgenstern
p1327
g3
(g4
g5
NtRp1328
(dp1329
g8
g1327
sg9
VJoe Morgenstern
p1330
sg11
S'http://www.metacritic.com/critic/joe-morgenstern?filter=movies'
p1331
sg13
(dp1332
g306
F9
sg111
F10
sg91
F10
sg112
F10
sg277
F7
sg117
F10
sg67
F10
sg680
F10
sg118
F1
sg162
F8
sg120
F1
sg121
F10
sg93
F10
sg165
F9
sg123
F10
sg124
F9
sg127
F10
sg169
F10
sg64
F7
sg128
F7
sg521
F8
sg129
F10
sg130
F10
sg68
F10
sg69
F10
sg132
F10
sg133
F5
sg307
F9
sg134
F10
sg470
F10
sg34
F10
sg33
F10
sg322
F10
sg115
F9
sg702
F10
sg135
F9
sg136
F9
sg137
F2
sg145
F8
sg143
F10
sg278
F6
sg139
F6
sg141
F10
sg142
F9
sg138
F9
sg144
F8
sg90
F10
sg146
F10
sg147
F8
sg289
F9
sg149
F9
sg70
F10
sg177
F9
sg71
F9
sg150
F9
sg161
F10
sg152
F9
sg216
F9
sg290
F8
sg217
F5
sg153
F9
sg154
F10
sg155
F3
sg62
F7
sg157
F10
sg279
F8
sg158
F9
sg159
F7
sg92
F5
sg74
F10
sg160
F10
sg65
F10
sg163
F10
sg164
F9
sg166
F10
sg253
F2
sg167
F10
sg168
F6
sg60
F8
sg281
F10
ssg16
VWall Street Journal
p1333
sg18
NsbsVFilm Threat/Michael Ferraro
p1334
g3
(g4
g5
NtRp1335
(dp1336
g8
g1334
sg9
VMichael Ferraro
p1337
sg11
S'http://www.metacritic.com/critic?filter=movies'
p1338
sg13
(dp1339
g141
F9
sg169
F9
ssg16
VFilm Threat
p1340
sg18
NsbsVChicago Tribune/Michael Phillips
p1341
g3
(g4
g5
NtRp1342
(dp1343
g8
g1341
sg9
VMichael Phillips
p1344
sg11
S'http://www.metacritic.com/critic?filter=movies'
p1345
sg13
(dp1346
g111
F10
sg112
F5
sg25
F8.8000000000000007
sg91
F10
sg276
F10
sg63
F10
sg277
F7.5
sg67
F8.8000000000000007
sg135
F10
sg162
F5
sg121
F10
sg73
F7.5
sg122
F7.5
sg123
F10
sg127
F10
sg64
F6.2999999999999998
sg215
F8.8000000000000007
sg128
F6.2999999999999998
sg93
F10
sg130
F10
sg68
F7.5
sg69
F10
sg132
F10
sg133
F8.8000000000000007
sg134
F10
sg61
F10
sg322
F7.5
sg115
F10
sg164
F7.5
sg137
F3.7999999999999998
sg145
F6.2999999999999998
sg113
F6.2999999999999998
sg139
F10
sg142
F8.8000000000000007
sg138
F8.8000000000000007
sg144
F6.2999999999999998
sg90
F8.8000000000000007
sg146
F8.8000000000000007
sg147
F7.5
sg149
F8.8000000000000007
sg70
F8.8000000000000007
sg177
F10
sg71
F8.8000000000000007
sg151
F7.5
sg152
F10
sg153
F7.5
sg154
F10
sg62
F8.8000000000000007
sg156
F3.7999999999999998
sg157
F10
sg279
F8.8000000000000007
sg158
F7.5
sg92
F10
sg513
F7.5
sg160
F10
sg65
F7.5
sg163
F8.8000000000000007
sg75
F8.8000000000000007
sg166
F8.8000000000000007
sg161
F10
sg74
F10
sg60
F10
sg281
F10
ssg16
VChicago Tribune
p1347
sg18
NsbsVThe Verge/Tasha Robinson
p1348
g3
(g4
g5
NtRp1349
(dp1350
g8
g1348
sg9
VTasha Robinson
p1351
sg11
S'http://www.metacritic.com/critic/tasha-robinson?filter=movies'
p1352
sg13
(dp1353
g136
F7.2999999999999998
sg64
F7.7000000000000002
sg93
F10
sg419
F8.8000000000000007
sg61
F8.6999999999999993
sg75
F8.4000000000000004
ssg16
VThe Verge
p1354
sg18
NsbsVNewsweek/Walaika Haskins
p1355
g3
(g4
g5
NtRp1356
(dp1357
g8
g1355
sg9
VWalaika Haskins
p1358
sg11
S'http://www.metacritic.com/critic?filter=movies'
p1359
sg13
(dp1360
g125
F7
ssg16
VNewsweek
p1361
sg18
NsbsVTime Out London/Geoff Andrew
p1362
g3
(g4
g5
NtRp1363
(dp1364
g8
g1362
sg9
VGeoff Andrew
p1365
sg11
S'http://www.metacritic.com/critic/geoff-andrew?filter=movies'
p1366
sg13
(dp1367
g94
F8
ssg16
VTime Out London
p1368
sg18
NsbsVVillage Voice/Jim Ridley
p1369
g3
(g4
g5
NtRp1370
(dp1371
g8
g1369
sg9
VJim Ridley
p1372
sg11
S'http://www.metacritic.com/critic?filter=movies'
p1373
sg13
(dp1374
g126
F7
ssg16
VVillage Voice
p1375
sg18
NsbsVEmpire/Olly Richards
p1376
g3
(g4
g5
NtRp1377
(dp1378
g8
g1376
sg9
VOlly Richards
p1379
sg11
S'http://www.metacritic.com/critic/olly-richards?filter=movies'
p1380
sg13
(dp1381
g136
F6
sg134
F10
sg162
F8
ssg16
VEmpire
p1382
sg18
NsbsVChicago Sun-Times/Richard Roeper
p1383
g3
(g4
g5
NtRp1384
(dp1385
g8
g1383
sg9
VRichard Roeper
p1386
sg11
S'http://www.metacritic.com/critic/richard-roeper?filter=movies'
p1387
sg13
(dp1388
g136
F10
sg65
F10
sg91
F10
sg127
F8.8000000000000007
sg158
F10
sg64
F7.5
sg122
F10
sg67
F8.8000000000000007
sg93
F10
sg513
F10
sg68
F10
sg70
F10
sg132
F10
sg71
F8.8000000000000007
sg94
F8.8000000000000007
sg74
F8.8000000000000007
sg152
F8.8000000000000007
sg61
F10
sg75
F7.5
sg60
F10
ssg16
VChicago Sun-Times
p1389
sg18
NsbsVThe Hollywood Reporter/Jordan Mintzer
p1390
g3
(g4
g5
NtRp1391
(dp1392
g8
g1390
sg9
VJordan Mintzer
p1393
sg11
S'http://www.metacritic.com/critic/jordan-mintzer?filter=movies'
p1394
sg13
(dp1395
g419
F7
ssg16
VThe Hollywood Reporter
p1396
sg18
NsbsVL.A. Weekly/Hazel-Dawn Dumpert
p1397
g3
(g4
g5
NtRp1398
(dp1399
g8
g1397
sg9
VHazel-Dawn Dumpert
p1400
sg11
S'http://www.metacritic.com/critic/hazel-dawn-dumpert?filter=movies'
p1401
sg13
(dp1402
g427
F3
ssg16
VL.A. Weekly
p1403
sg18
NsbsVTotal Film/Matthew Leyland
p1404
g3
(g4
g5
NtRp1405
(dp1406
g8
g1404
sg9
VMatthew Leyland
p1407
sg11
S'http://www.metacritic.com/critic/matthew-leyland?filter=movies'
p1408
sg13
(dp1409
g144
F10
sg128
F10
ssg16
VTotal Film
p1410
sg18
NsbsVTime Out New York/Joshua Rothkopf
p1411
g3
(g4
g5
NtRp1412
(dp1413
g8
g1411
sg9
VJoshua Rothkopf
p1414
sg11
S'http://www.metacritic.com/critic/joshua-rothkopf?filter=movies'
p1415
sg13
(dp1416
g136
F6
sg111
F10
sg154
F10
sg62
F8
sg91
F10
sg137
F8
sg115
F6
sg142
F10
sg67
F8
sg165
F6
sg112
F8
sg149
F10
sg163
F10
sg71
F10
sg557
F10
sg151
F8
sg121
F8
sg61
F10
sg513
F8
sg123
F10
sg153
F10
ssg16
VTime Out New York
p1417
sg18
NsbsVNew York Daily News/Graham Fuller
p1418
g3
(g4
g5
NtRp1419
(dp1420
g8
g1418
sg9
VGraham Fuller
p1421
sg11
S'http://www.metacritic.com/critic?filter=movies'
p1422
sg13
(dp1423
g63
F10
sg25
F8
sg215
F10
sg277
F8
ssg16
VNew York Daily News
p1424
sg18
NsbsVSalon.com/Andrew O'Hehir
p1425
g3
(g4
g5
NtRp1426
(dp1427
g8
g1425
sg9
VAndrew O'Hehir
p1428
sg11
S'http://www.metacritic.com/critic/andrew-ohehir?filter=movies'
p1429
sg13
(dp1430
g111
F10
sg276
F9
sg63
F10
sg277
F10
sg67
F9
sg162
F7
sg121
F10
sg73
F10
sg122
F8
sg123
F10
sg160
F10
sg127
F9
sg64
F9
sg215
F10
sg128
F5
sg521
F9
sg93
F10
sg132
F10
sg33
F9
sg115
F9
sg137
F1
sg142
F9
sg138
F8
sg144
F10
sg216
F9
sg70
F7
sg71
F10
sg151
F4
sg152
F10
sg146
F9
sg153
F9
sg154
F10
sg62
F9
sg291
F6
sg65
F9
sg163
F9
sg72
F8
sg253
F6
sg281
F9
ssg16
VSalon.com
p1431
sg18
NsbsVUSA Today/Susan Wloszczyna
p1432
g3
(g4
g5
NtRp1433
(dp1434
g8
g1432
sg9
VSusan Wloszczyna
p1435
sg11
S'http://www.metacritic.com/critic/susan-wloszczyna?filter=movies'
p1436
sg13
(dp1437
g427
F6.2999999999999998
ssg16
VUSA Today
p1438
sg18
NsbsVEntertainment Weekly/Lisa Schwarzbaum
p1439
g3
(g4
g5
NtRp1440
(dp1441
g8
g1439
sg9
VLisa Schwarzbaum
p1442
sg11
S'http://www.metacritic.com/critic/lisa-schwarzbaum?filter=movies'
p1443
sg13
(dp1444
g306
F10
sg115
F10
sg117
F10
sg680
F8.3000000000000007
sg52
F6.7000000000000002
sg120
F5.7999999999999998
sg125
F8.3000000000000007
sg103
F8.3000000000000007
sg128
F8.3000000000000007
sg33
F10
sg133
F10
sg148
F10
sg34
F9.0999999999999996
sg161
F10
sg427
F2.5
sg113
F7.5
sg141
F10
sg138
F7.5
sg144
F7.5
sg146
F9.0999999999999996
sg169
F9.0999999999999996
sg151
F8.3000000000000007
sg290
F9.0999999999999996
sg702
F10
sg254
F10
sg159
F10
sg92
F10
sg160
F10
sg289
F10
sg253
F5
sg168
F9.0999999999999996
sg167
F10
ssg16
VEntertainment Weekly
p1445
sg18
NsbsVFilm Threat/Darrin Keene
p1446
g3
(g4
g5
NtRp1447
(dp1448
g8
g1446
sg9
VDarrin Keene
p1449
sg11
S'http://www.metacritic.com/critic?filter=movies'
p1450
sg13
(dp1451
g168
F8
ssg16
VFilm Threat
p1452
sg18
NsbsVTheWrap/Sam Fragoso
p1453
g3
(g4
g5
NtRp1454
(dp1455
g8
g1453
sg9
VSam Fragoso
p1456
sg11
S'http://www.metacritic.com/critic/sam-fragoso?filter=movies'
p1457
sg13
(dp1458
g61
F9.5
ssg16
VTheWrap
p1459
sg18
NsbsVL.A. Weekly/Russel Swensen
p1460
g3
(g4
g5
NtRp1461
(dp1462
g8
g1460
sg9
VRussel Swensen
p1463
sg11
S'http://www.metacritic.com/critic?filter=movies'
p1464
sg13
(dp1465
g129
F7
ssg16
VL.A. Weekly
p1466
sg18
NsbsVScreenCrush/Erin Whitney
p1467
g3
(g4
g5
NtRp1468
(dp1469
g8
g1467
sg9
VErin Whitney
p1470
sg11
S'http://www.metacritic.com/critic/erin-whitney?filter=movies'
p1471
sg13
(dp1472
g61
F9
ssg16
VScreenCrush
p1473
sg18
NsbsVNew York Observer/Rex Reed
p1474
g3
(g4
g5
NtRp1475
(dp1476
g8
g1474
sg9
VRex Reed
p1477
sg11
S'http://www.metacritic.com/critic/rex-reed?filter=movies'
p1478
sg13
(dp1479
g111
F5
sg112
F10
sg91
F10
sg115
F2.5
sg162
F2.5
sg121
F10
sg165
F8.8000000000000007
sg64
F0
sg67
F7.5
sg521
F7.5
sg68
F2.5
sg132
F10
sg136
F7.5
sg142
F7.5
sg138
F10
sg144
F2.5
sg149
F10
sg151
F2.5
sg152
F10
sg153
F10
sg154
F5
sg158
F7.5
sg65
F8.8000000000000007
sg163
F7.5
sg74
F10
ssg16
VNew York Observer
p1480
sg18
NsbsVPremiere/Aaron Hillis
p1481
g3
(g4
g5
NtRp1482
(dp1483
g8
g1481
sg9
VAaron Hillis
p1484
sg11
S'http://www.metacritic.com/critic/aaron-hillis?filter=movies'
p1485
sg13
(dp1486
g159
F6.2999999999999998
ssg16
VPremiere
p1487
sg18
NsbsVThe Guardian/Nigel M Smith
p1488
g3
(g4
g5
NtRp1489
(dp1490
g8
g1488
sg9
VNigel M Smith
p1491
sg11
S'http://www.metacritic.com/critic/nigel-m-smith?filter=movies'
p1492
sg13
(dp1493
g136
F6
sg216
F10
ssg16
VThe Guardian
p1494
sg18
NsbsVTheWrap/Robert Abele
p1495
g3
(g4
g5
NtRp1496
(dp1497
g8
g1495
sg9
VRobert Abele
p1498
sg11
S'http://www.metacritic.com/critic/robert-abele?filter=movies'
p1499
sg13
(dp1500
g136
F8.5
sg470
F9
sg91
F7
ssg16
VTheWrap
p1501
sg18
NsbsVVariety/Peter Debruge
p1502
g3
(g4
g5
NtRp1503
(dp1504
g8
g1502
sg9
VPeter Debruge
p1505
sg11
S'http://www.metacritic.com/critic/peter-debruge?filter=movies'
p1506
sg13
(dp1507
g136
F7
sg111
F9
sg154
F7
sg112
F10
sg162
F8
sg158
F9
sg138
F8
sg215
F10
sg128
F6
sg70
F10
sg165
F8
sg68
F10
sg149
F7
sg419
F10
sg132
F10
sg72
F10
sg121
F9
sg61
F10
sg277
F9
sg60
F10
sg281
F6
ssg16
VVariety
p1508
sg18
NsbsVFilm Threat/Matthew Sorrento
p1509
g3
(g4
g5
NtRp1510
(dp1511
g8
g1509
sg9
VMatthew Sorrento
p1512
sg11
S'http://www.metacritic.com/critic?filter=movies'
p1513
sg13
(dp1514
g34
F10
sg92
F5
ssg16
VFilm Threat
p1515
sg18
NsbsVTotal Film/Philip Kemp
p1516
g3
(g4
g5
NtRp1517
(dp1518
g8
g1516
sg9
VPhilip Kemp
p1519
sg11
S'http://www.metacritic.com/critic?filter=movies'
p1520
sg13
(dp1521
g136
F6
sg73
F8
sg65
F8
sg71
F10
ssg16
VTotal Film
p1522
sg18
NsbsVSlant Magazine/Andrew Schenker
p1523
g3
(g4
g5
NtRp1524
(dp1525
g8
g1523
sg9
VAndrew Schenker
p1526
sg11
S'http://www.metacritic.com/critic/andrew-schenker?filter=movies'
p1527
sg13
(dp1528
g276
F3.7999999999999998
sg162
F5
ssg16
VSlant Magazine
p1529
sg18
NsbsVNew York Magazine (Vulture)/Ken Tucker
p1530
g3
(g4
g5
NtRp1531
(dp1532
g8
g1530
sg9
VKen Tucker
p1533
sg11
S'http://www.metacritic.com/critic/ken-tucker?filter=movies'
p1534
sg13
(dp1535
g130
F6
sg166
F9
sg159
F5
sg169
F9
sg124
F6
ssg16
VNew York Magazine (Vulture)
p1536
sg18
NsbsVFilm.com/Robert Horton
p1537
g3
(g4
g5
NtRp1538
(dp1539
g8
g1537
sg9
VRobert Horton
p1540
sg11
S'http://www.metacritic.com/critic/robert-horton?filter=movies'
p1541
sg13
(dp1542
g427
F4
sg291
F7
sg253
F4
sg119
F9
ssg16
VFilm.com
p1543
sg18
NsbsVThe Seattle Times/Tom Keogh
p1544
g3
(g4
g5
NtRp1545
(dp1546
g8
g1544
sg9
VTom Keogh
p1547
sg11
S'http://www.metacritic.com/critic/tom-keogh?filter=movies'
p1548
sg13
(dp1549
g94
F7.5
ssg16
VThe Seattle Times
p1550
sg18
NsbsVThe New York Times/Dave Kehr
p1551
g3
(g4
g5
NtRp1552
(dp1553
g8
g1551
sg9
VDave Kehr
p1554
sg11
S'http://www.metacritic.com/critic/dave-kehr?filter=movies'
p1555
sg13
(dp1556
g306
F9
ssg16
VThe New York Times
p1557
sg18
NsbsVTime/Staff (Not Credited)
p1558
g3
(g4
g5
NtRp1559
(dp1560
g8
g1558
sg9
VStaff (Not Credited)
p1561
sg11
S'http://www.metacritic.com/critic?filter=movies'
p1562
sg13
(dp1563
g51
F10
ssg16
VTime
p1564
sg18
NsbsVEmpire/David Parkinson
p1565
g3
(g4
g5
NtRp1566
(dp1567
g8
g1565
sg9
VDavid Parkinson
p1568
sg11
S'http://www.metacritic.com/critic/david-parkinson?filter=movies'
p1569
sg13
(dp1570
g278
F6
sg279
F8
sg95
F8
sg276
F8
sg73
F6
sg123
F8
ssg16
VEmpire
p1571
sg18
NsbsVEntertainment Weekly/Leah Greenblatt
p1572
g3
(g4
g5
NtRp1573
(dp1574
g8
g1572
sg9
VLeah Greenblatt
p1575
sg11
S'http://www.metacritic.com/critic/leah-greenblatt?filter=movies'
p1576
sg13
(dp1577
g158
F8.3000000000000007
sg177
F9.0999999999999996
sg165
F8.3000000000000007
ssg16
VEntertainment Weekly
p1578
sg18
NsbsVThe Dissolve/Mike D'Angelo
p1579
g3
(g4
g5
NtRp1580
(dp1581
g8
g1579
sg9
VMike D'Angelo
p1582
sg11
S'http://www.metacritic.com/critic/mike-dangelo?filter=movies'
p1583
sg13
(dp1584
g72
F6
ssg16
VThe Dissolve
p1585
sg18
NsbsVBaltimore Sun/Michael Sragow
p1586
g3
(g4
g5
NtRp1587
(dp1588
g8
g1586
sg9
VMichael Sragow
p1589
sg11
S'http://www.metacritic.com/critic/michael-sragow?filter=movies'
p1590
sg13
(dp1591
g306
F5
sg117
F10
sg129
F10
sg130
F10
sg33
F10
sg135
F10
sg307
F8.8000000000000007
sg134
F10
sg126
F3.7999999999999998
sg34
F10
sg161
F4.2000000000000002
sg113
F3.7999999999999998
sg139
F5
sg143
F5
sg145
F5.7999999999999998
sg146
F10
sg147
F10
sg169
F10
sg702
F10
sg254
F10
sg156
F6.2999999999999998
sg157
F10
sg159
F5
sg92
F10
sg160
F10
sg166
F5
sg168
F10
sg167
F6.2999999999999998
ssg16
VBaltimore Sun
p1592
sg18
NsbsVVariety/Deborah Young
p1593
g3
(g4
g5
NtRp1594
(dp1595
g8
g1593
sg9
VDeborah Young
p1596
sg11
S'http://www.metacritic.com/critic/deborah-young?filter=movies'
p1597
sg13
(dp1598
g306
F8
ssg16
VVariety
p1599
sg18
NsbsVPremiere/Sara Brady
p1600
g3
(g4
g5
NtRp1601
(dp1602
g8
g1600
sg9
VSara Brady
p1603
sg11
S'http://www.metacritic.com/critic?filter=movies'
p1604
sg13
(dp1605
g145
F7.5
ssg16
VPremiere
p1606
sg18
NsbsVThe New York Times/Elvis Mitchell
p1607
g3
(g4
g5
NtRp1608
(dp1609
g8
g1607
sg9
VElvis Mitchell
p1610
sg11
S'http://www.metacritic.com/critic/elvis-mitchell?filter=movies'
p1611
sg13
(dp1612
g148
F9
sg51
F10
sg119
F9
sg143
F7
sg702
F9
ssg16
VThe New York Times
p1613
sg18
NsbsVSan Francisco Chronicle/David Wiegand
p1614
g3
(g4
g5
NtRp1615
(dp1616
g8
g1614
sg9
VDavid Wiegand
p1617
sg11
S'http://www.metacritic.com/critic/david-wiegand?filter=movies'
p1618
sg13
(dp1619
g94
F10
ssg16
VSan Francisco Chronicle
p1620
sg18
NsbsVVariety/Staff (Not Credited)
p1621
g3
(g4
g5
NtRp1622
(dp1623
g8
g1621
sg9
VStaff (Not Credited)
p1624
sg11
S'http://www.metacritic.com/critic?filter=movies'
p1625
sg13
(dp1626
g206
F9
sg140
F8
sg51
F10
sg116
F9
sg131
F4
sg671
F9
sg672
F7
ssg16
VVariety
p1627
sg18
NsbsVTime/Richard Schickel
p1628
g3
(g4
g5
NtRp1629
(dp1630
g8
g1628
sg9
VRichard Schickel
p1631
sg11
S'http://www.metacritic.com/critic/richard-schickel?filter=movies'
p1632
sg13
(dp1633
g291
F8
sg103
F6
sg159
F5
sg146
F10
sg147
F5
sg125
F7
sg307
F3
sg166
F7
sg35
F6
sg168
F8
sg672
F8
sg161
F10
ssg16
VTime
p1634
sg18
NsbsVVillage Voice/David Ng
p1635
g3
(g4
g5
NtRp1636
(dp1637
g8
g1635
sg9
VDavid Ng
p1638
sg11
S'http://www.metacritic.com/critic?filter=movies'
p1639
sg13
(dp1640
g118
F5
ssg16
VVillage Voice
p1641
sg18
NsbsVVariety/Jay Weissberg
p1642
g3
(g4
g5
NtRp1643
(dp1644
g8
g1642
sg9
VJay Weissberg
p1645
sg11
S'http://www.metacritic.com/critic/jay-weissberg?filter=movies'
p1646
sg13
(dp1647
g663
F6
sg280
F7
sg160
F10
sg557
F9
sg322
F9
sg217
F8
ssg16
VVariety
p1648
sg18
NsbsVVariety/Dennis Harvey
p1649
g3
(g4
g5
NtRp1650
(dp1651
g8
g1649
sg9
VDennis Harvey
p1652
sg11
S'http://www.metacritic.com/critic/dennis-harvey?filter=movies'
p1653
sg13
(dp1654
g147
F7
sg513
F5
ssg16
VVariety
p1655
sg18
NsbsVVillage Voice/Scott Foundas
p1656
g3
(g4
g5
NtRp1657
(dp1658
g8
g1656
sg9
VScott Foundas
p1659
sg11
S'http://www.metacritic.com/critic/scott-foundas?filter=movies'
p1660
sg13
(dp1661
g111
F10
sg112
F9
sg139
F10
sg279
F9
sg157
F9
sg128
F5
sg146
F10
sg147
F9
ssg16
VVillage Voice
p1662
sg18
NsbsVNew York Magazine (Vulture)/David Edelstein
p1663
g3
(g4
g5
NtRp1664
(dp1665
g8
g1663
sg9
VDavid Edelstein
p1666
sg11
S'http://www.metacritic.com/critic/david-edelstein?filter=movies'
p1667
sg13
(dp1668
g111
F10
sg112
F8
sg115
F8
sg65
F9
sg117
F8
sg67
F10
sg162
F7
sg121
F10
sg73
F10
sg122
F9
sg123
F9
sg127
F9
sg64
F7
sg128
F5
sg521
F8
sg93
F4
sg68
F6
sg69
F9
sg132
F7
sg133
F8
sg557
F9
sg134
F10
sg34
F9
sg61
F10
sg135
F5
sg136
F6
sg145
F4
sg113
F8
sg94
F9
sg139
F5
sg142
F9
sg138
F9
sg90
F9
sg146
F9
sg147
F5
sg149
F8
sg70
F10
sg177
F9
sg71
F9
sg151
F4
sg152
F8
sg217
F7
sg153
F8
sg154
F9
sg62
F7
sg157
F10
sg158
F4
sg92
F9
sg513
F10
sg160
F9
sg165
F8
sg163
F6
sg164
F10
sg289
F9
sg161
F10
sg74
F10
sg60
F6
sg281
F8
ssg16
VNew York Magazine (Vulture)
p1669
sg18
NsbsVBaltimore Sun/Ann Hornaday
p1670
g3
(g4
g5
NtRp1671
(dp1672
g8
g1670
sg9
VAnn Hornaday
p1673
sg11
S'http://www.metacritic.com/critic/ann-hornaday?filter=movies'
p1674
sg13
(dp1675
g427
F3.7999999999999998
sg291
F10
sg103
F7.5
sg148
F10
ssg16
VBaltimore Sun
p1676
sg18
NsbsVHitfix/Daniel Fienberg
p1677
g3
(g4
g5
NtRp1678
(dp1679
g8
g1677
sg9
VDaniel Fienberg
p1680
sg11
S'http://www.metacritic.com/critic?filter=movies'
p1681
sg13
(dp1682
g513
F8.3000000000000007
ssg16
VHitfix
p1683
sg18
NsbsVTV Guide Magazine/Cammila Albertson
p1684
g3
(g4
g5
NtRp1685
(dp1686
g8
g1684
sg9
VCammila Albertson
p1687
sg11
S'http://www.metacritic.com/critic?filter=movies'
p1688
sg13
(dp1689
g126
F8.8000000000000007
ssg16
VTV Guide Magazine
p1690
sg18
NsbsVEntertainment Weekly/Kevin P. Sullivan
p1691
g3
(g4
g5
NtRp1692
(dp1693
g8
g1691
sg9
VKevin P. Sullivan
p1694
sg11
S'http://www.metacritic.com/critic?filter=movies'
p1695
sg13
(dp1696
g521
F8.3000000000000007
ssg16
VEntertainment Weekly
p1697
sg18
NsbsVSlant Magazine/R. Kurt Osenlund
p1698
g3
(g4
g5
NtRp1699
(dp1700
g8
g1698
sg9
VR. Kurt Osenlund
p1701
sg11
S'http://www.metacritic.com/critic/r-kurt-osenlund?filter=movies'
p1702
sg13
(dp1703
g68
F5
sg154
F8.8000000000000007
sg65
F7.5
ssg16
VSlant Magazine
p1704
sg18
NsbsVThe Playlist/Gregory Ellwood
p1705
g3
(g4
g5
NtRp1706
(dp1707
g8
g1705
sg9
VGregory Ellwood
p1708
sg11
S'http://www.metacritic.com/critic/gregory-ellwood?filter=movies'
p1709
sg13
(dp1710
g136
F7.5
sg61
F10
ssg16
VThe Playlist
p1711
sg18
NsbsVThe Film Stage/Jared Mobarak
p1712
g3
(g4
g5
NtRp1713
(dp1714
g8
g1712
sg9
VJared Mobarak
p1715
sg11
S'http://www.metacritic.com/critic/jared-mobarak?filter=movies'
p1716
sg13
(dp1717
g61
F10
sg419
F8.3000000000000007
ssg16
VThe Film Stage
p1718
sg18
NsbsVSan Francisco Chronicle/G. Allen Johnson
p1719
g3
(g4
g5
NtRp1720
(dp1721
g8
g1719
sg9
VG. Allen Johnson
p1722
sg11
S'http://www.metacritic.com/critic?filter=movies'
p1723
sg13
(dp1724
g419
F5
sg278
F7.5
sg95
F5
ssg16
VSan Francisco Chronicle
p1725
sg18
NsbsVVillage Voice/Melissa Anderson
p1726
g3
(g4
g5
NtRp1727
(dp1728
g8
g1726
sg9
VMelissa Anderson
p1729
sg11
S'http://www.metacritic.com/critic/melissa-anderson?filter=movies'
p1730
sg13
(dp1731
g69
F10
sg61
F10
sg177
F10
ssg16
VVillage Voice
p1732
sg18
NsbsVSan Francisco Chronicle/Ruthe Stein
p1733
g3
(g4
g5
NtRp1734
(dp1735
g8
g1733
sg9
VRuthe Stein
p1736
sg11
S'http://www.metacritic.com/critic/ruthe-stein?filter=movies'
p1737
sg13
(dp1738
g117
F10
sg169
F10
ssg16
VSan Francisco Chronicle
p1739
sg18
NsbsVThe Globe and Mail (Toronto)/James Adams
p1740
g3
(g4
g5
NtRp1741
(dp1742
g8
g1740
sg9
VJames Adams
p1743
sg11
S'http://www.metacritic.com/critic/james-adams?filter=movies'
p1744
sg13
(dp1745
g71
F7.5
ssg16
VThe Globe and Mail (Toronto)
p1746
sg18
NsbsVVillage Voice/Robert Wilonsky
p1747
g3
(g4
g5
NtRp1748
(dp1749
g8
g1747
sg9
VRobert Wilonsky
p1750
sg11
S'http://www.metacritic.com/critic?filter=movies'
p1751
sg13
(dp1752
g134
F10
sg92
F10
ssg16
VVillage Voice
p1753
sg18
NsbsVSlant Magazine/Christopher Gray
p1754
g3
(g4
g5
NtRp1755
(dp1756
g8
g1754
sg9
VChristopher Gray
p1757
sg11
S'http://www.metacritic.com/critic?filter=movies'
p1758
sg13
(dp1759
g69
F8.8000000000000007
sg158
F3.7999999999999998
sg70
F7.5
sg91
F8.8000000000000007
ssg16
VSlant Magazine
p1760
sg18
NsbsVMr. Showbiz/Michael Atkinson
p1761
g3
(g4
g5
NtRp1762
(dp1763
g8
g1761
sg9
VMichael Atkinson
p1764
sg11
S'http://www.metacritic.com/critic/michael-atkinson?filter=movies'
p1765
sg13
(dp1766
g680
F9
sg119
F3
sg254
F8
ssg16
VMr. Showbiz
p1767
sg18
NsbsVFilm Threat/Nick Antosca
p1768
g3
(g4
g5
NtRp1769
(dp1770
g8
g1768
sg9
VNick Antosca
p1771
sg11
S'http://www.metacritic.com/critic?filter=movies'
p1772
sg13
(dp1773
g113
F7
ssg16
VFilm Threat
p1774
sg18
NsbsVIndiewire/Greg Cwick
p1775
g3
(g4
g5
NtRp1776
(dp1777
g8
g1775
sg9
VGreg Cwick
p1778
sg11
S'http://www.metacritic.com/critic?filter=movies'
p1779
sg13
(dp1780
g281
F10
ssg16
VIndiewire
p1781
sg18
NsbsVPremiere/Staff (Not Credited)
p1782
g3
(g4
g5
NtRp1783
(dp1784
g8
g1782
sg9
VStaff (Not Credited)
p1785
sg11
S'http://www.metacritic.com/critic?filter=movies'
p1786
sg13
(dp1787
g131
F10
ssg16
VPremiere
p1788
sg18
NsbsVScreen International/Fionnuala Halligan
p1789
g3
(g4
g5
NtRp1790
(dp1791
g8
g1789
sg9
VFionnuala Halligan
p1792
sg11
S'http://www.metacritic.com/critic/fionnuala-halligan?filter=movies'
p1793
sg13
(dp1794
g122
F9
sg91
F10
ssg16
VScreen International
p1795
sg18
NsbsVAustin Chronicle/Marjorie Baumgarten
p1796
g3
(g4
g5
NtRp1797
(dp1798
g8
g1796
sg9
VMarjorie Baumgarten
p1799
sg11
S'http://www.metacritic.com/critic/marjorie-baumgarten?filter=movies'
p1800
sg13
(dp1801
g112
F7.7999999999999998
sg25
F8.9000000000000004
sg91
F10
sg277
F5
sg116
F10
sg117
F10
sg680
F7.7999999999999998
sg162
F6.7000000000000002
sg121
F8.9000000000000004
sg122
F7.7999999999999998
sg123
F10
sg124
F6.7000000000000002
sg206
F10
sg128
F5
sg131
F10
sg470
F7.7999999999999998
sg133
F7.7999999999999998
sg94
F10
sg161
F10
sg557
F8.9000000000000004
sg140
F10
sg141
F7.7999999999999998
sg143
F10
sg145
F6.7000000000000002
sg146
F8.9000000000000004
sg289
F8.9000000000000004
sg152
F10
sg216
F8.9000000000000004
sg51
F8.9000000000000004
sg92
F8.9000000000000004
sg513
F7.7999999999999998
sg166
F8.9000000000000004
sg74
F8.9000000000000004
sg281
F8.9000000000000004
ssg16
VAustin Chronicle
p1802
sg18
NsbsVVillage Voice/Aaron Cutler
p1803
g3
(g4
g5
NtRp1804
(dp1805
g8
g1803
sg9
VAaron Cutler
p1806
sg11
S'http://www.metacritic.com/critic/aaron-cutler?filter=movies'
p1807
sg13
(dp1808
g281
F9
ssg16
VVillage Voice
p1809
sg18
NsbsVScreenCrush/Britt Hayes
p1810
g3
(g4
g5
NtRp1811
(dp1812
g8
g1810
sg9
VBritt Hayes
p1813
sg11
S'http://www.metacritic.com/critic?filter=movies'
p1814
sg13
(dp1815
g75
F9
ssg16
VScreenCrush
p1816
sg18
NsbsVSan Francisco Chronicle/Peter Hartlaub
p1817
g3
(g4
g5
NtRp1818
(dp1819
g8
g1817
sg9
VPeter Hartlaub
p1820
sg11
S'http://www.metacritic.com/critic/peter-hartlaub?filter=movies'
p1821
sg13
(dp1822
g136
F7.5
sg157
F10
sg133
F10
sg114
F2.5
ssg16
VSan Francisco Chronicle
p1823
sg18
NsbsVThe Guardian/Benjamin Lee
p1824
g3
(g4
g5
NtRp1825
(dp1826
g8
g1824
sg9
VBenjamin Lee
p1827
sg11
S'http://www.metacritic.com/critic/benjamin-lee?filter=movies'
p1828
sg13
(dp1829
g61
F10
ssg16
VThe Guardian
p1830
sg18
NsbsVTime Out London/Alex Dudok de Wit
p1831
g3
(g4
g5
NtRp1832
(dp1833
g8
g1831
sg9
VAlex Dudok de Wit
p1834
sg11
S'http://www.metacritic.com/critic?filter=movies'
p1835
sg13
(dp1836
g25
F8
ssg16
VTime Out London
p1837
sg18
NsbsVScreen International/Anthony Kaufman
p1838
g3
(g4
g5
NtRp1839
(dp1840
g8
g1838
sg9
VAnthony Kaufman
p1841
sg11
S'http://www.metacritic.com/critic?filter=movies'
p1842
sg13
(dp1843
g149
F7
sg165
F5
ssg16
VScreen International
p1844
sg18
NsbsVThe Globe and Mail (Toronto)/Brad Wheeler
p1845
g3
(g4
g5
NtRp1846
(dp1847
g8
g1845
sg9
VBrad Wheeler
p1848
sg11
S'http://www.metacritic.com/critic?filter=movies'
p1849
sg13
(dp1850
g144
F8.8000000000000007
sg216
F8.8000000000000007
ssg16
VThe Globe and Mail (Toronto)
p1851
sg18
NsbsVTV Guide Magazine/Perry Seibert
p1852
g3
(g4
g5
NtRp1853
(dp1854
g8
g1852
sg9
VPerry Seibert
p1855
sg11
S'http://www.metacritic.com/critic?filter=movies'
p1856
sg13
(dp1857
g92
F10
ssg16
VTV Guide Magazine
p1858
sg18
NsbsVFilm Threat/Pete Vonder Haar
p1859
g3
(g4
g5
NtRp1860
(dp1861
g8
g1859
sg9
VPete Vonder Haar
p1862
sg11
S'http://www.metacritic.com/critic/pete-vonder-haar?filter=movies'
p1863
sg13
(dp1864
g159
F8
sg157
F8
sg139
F9
sg145
F5
sg147
F9
sg135
F10
sg134
F9
sg155
F3
ssg16
VFilm Threat
p1865
sg18
NsbsVThe Film Stage/Zhuo-Ning Su
p1866
g3
(g4
g5
NtRp1867
(dp1868
g8
g1866
sg9
VZhuo-Ning Su
p1869
sg11
S'http://www.metacritic.com/critic/zhuo-ning-su?filter=movies'
p1870
sg13
(dp1871
g470
F9.0999999999999996
sg278
F8.3000000000000007
ssg16
VThe Film Stage
p1872
sg18
NsbsVChristian Science Monitor/Peter Rainer
p1873
g3
(g4
g5
NtRp1874
(dp1875
g8
g1873
sg9
VPeter Rainer
p1876
sg11
S'http://www.metacritic.com/critic/peter-rainer?filter=movies'
p1877
sg13
(dp1878
g111
F5.7999999999999998
sg112
F7.5
sg25
F10
sg91
F10
sg63
F10
sg277
F5.7999999999999998
sg117
F10
sg67
F8.3000000000000007
sg135
F10
sg121
F6.7000000000000002
sg73
F7.5
sg35
F8.3000000000000007
sg513
F8.3000000000000007
sg123
F10
sg127
F10
sg64
F5
sg215
F10
sg128
F5.7999999999999998
sg93
F7.5
sg130
F10
sg68
F5.7999999999999998
sg69
F6.7000000000000002
sg132
F7.5
sg133
F10
sg94
F6.7000000000000002
sg134
F9.0999999999999996
sg470
F8.3000000000000007
sg34
F8.3000000000000007
sg61
F7.5
sg322
F9.0999999999999996
sg115
F10
sg164
F8.3000000000000007
sg136
F7.5
sg137
F3.2999999999999998
sg145
F7.5
sg113
F6.7000000000000002
sg278
F9.0999999999999996
sg139
F9.0999999999999996
sg142
F8.3000000000000007
sg138
F7.5
sg144
F5.7999999999999998
sg90
F8.3000000000000007
sg146
F10
sg147
F7.5
sg149
F10
sg70
F8.3000000000000007
sg177
F9.0999999999999996
sg71
F9.0999999999999996
sg151
F7.5
sg217
F7.5
sg153
F5
sg154
F7.5
sg62
F7.5
sg157
F8.3000000000000007
sg279
F7.5
sg158
F8.3000000000000007
sg92
F8.3000000000000007
sg95
F9.0999999999999996
sg160
F10
sg65
F7.5
sg163
F8.3000000000000007
sg75
F5.7999999999999998
sg166
F10
sg161
F9.0999999999999996
sg74
F7.5
sg60
F9.0999999999999996
sg281
F9.0999999999999996
ssg16
VChristian Science Monitor
p1879
sg18
NsbsVBoston Globe/Peter Keough
p1880
g3
(g4
g5
NtRp1881
(dp1882
g8
g1880
sg9
VPeter Keough
p1883
sg11
S'http://www.metacritic.com/critic/peter-keough?filter=movies'
p1884
sg13
(dp1885
g90
F10
sg63
F10
sg521
F7.5
sg60
F10
sg557
F8.8000000000000007
sg73
F8.8000000000000007
sg75
F8.8000000000000007
ssg16
VBoston Globe
p1886
sg18
NsbsVNew York Magazine (Vulture)/Peter Rainer
p1887
g3
(g4
g5
NtRp1888
(dp1889
g8
g1887
sg9
VPeter Rainer
p1890
sg11
S'http://www.metacritic.com/critic/peter-rainer?filter=movies'
p1891
sg13
(dp1892
g306
F8
sg254
F10
sg141
F10
sg143
F8
sg290
F7
sg680
F5
sg33
F10
sg307
F10
sg150
F9
sg129
F10
sg168
F9
sg702
F8
sg167
F9
ssg16
VNew York Magazine (Vulture)
p1893
sg18
NsbsVFilm Threat/David Grove
p1894
g3
(g4
g5
NtRp1895
(dp1896
g8
g1894
sg9
VDavid Grove
p1897
sg11
S'http://www.metacritic.com/critic/david-grove?filter=movies'
p1898
sg13
(dp1899
g118
F6
ssg16
VFilm Threat
p1900
sg18
NsbsVLos Angeles Times/Kenneth Turan
p1901
g3
(g4
g5
NtRp1902
(dp1903
g8
g1901
sg9
VKenneth Turan
p1904
sg11
S'http://www.metacritic.com/critic/kenneth-turan?filter=movies'
p1905
sg13
(dp1906
g306
F10
sg136
F8
sg25
F10
sg91
F10
sg115
F10
sg117
F9
sg67
F10
sg680
F9
sg113
F5
sg52
F3
sg121
F10
sg73
F9
sg123
F10
sg124
F7
sg160
F10
sg127
F10
sg103
F8
sg128
F5
sg93
F10
sg15
F10
sg419
F9
sg132
F10
sg133
F10
sg307
F9
sg134
F10
sg33
F10
sg34
F9
sg61
F10
sg322
F9
sg135
F8
sg427
F3
sg119
F8
sg139
F10
sg141
F10
sg142
F10
sg138
F8
sg144
F10
sg145
F6
sg146
F10
sg147
F8
sg148
F8
sg149
F10
sg70
F10
sg177
F10
sg71
F10
sg150
F9
sg151
F10
sg161
F9
sg152
F10
sg216
F6
sg290
F4
sg702
F10
sg154
F9
sg155
F2
sg157
F10
sg51
F9
sg159
F9
sg92
F10
sg95
F8
sg291
F9
sg111
F10
sg65
F10
sg163
F10
sg164
F10
sg166
F10
sg167
F10
sg74
F10
sg281
F10
ssg16
VLos Angeles Times
p1907
sg18
NsbsVSt. Louis Post-Dispatch/Gail Pennington
p1908
g3
(g4
g5
NtRp1909
(dp1910
g8
g1908
sg9
VGail Pennington
p1911
sg11
S'http://www.metacritic.com/critic/gail-pennington?filter=movies'
p1912
sg13
(dp1913
g70
F7.5
ssg16
VSt. Louis Post-Dispatch
p1914
sg18
NsbsVDallas Observer/Staff (Not credited)
p1915
g3
(g4
g5
NtRp1916
(dp1917
g8
g1915
sg9
VStaff (Not credited)
p1918
sg11
S'http://www.metacritic.com/critic?filter=movies'
p1919
sg13
(dp1920
g150
F8
ssg16
VDallas Observer
p1921
sg18
NsbsVThe New Yorker/Pauline Kael
p1922
g3
(g4
g5
NtRp1923
(dp1924
g8
g1922
sg9
VPauline Kael
p1925
sg11
S'http://www.metacritic.com/critic/pauline-kael?filter=movies'
p1926
sg13
(dp1927
g671
F3
ssg16
VThe New Yorker
p1928
sg18
NsbsVThe Globe and Mail (Toronto)/Gayle MacDonald
p1929
g3
(g4
g5
NtRp1930
(dp1931
g8
g1929
sg9
VGayle MacDonald
p1932
sg11
S'http://www.metacritic.com/critic?filter=movies'
p1933
sg13
(dp1934
g137
F5
ssg16
VThe Globe and Mail (Toronto)
p1935
sg18
NsbsVMiami Herald/Marta Barber
p1936
g3
(g4
g5
NtRp1937
(dp1938
g8
g1936
sg9
VMarta Barber
p1939
sg11
S'http://www.metacritic.com/critic/marta-barber?filter=movies'
p1940
sg13
(dp1941
g306
F8.8000000000000007
ssg16
VMiami Herald
p1942
sg18
NsbsVThe Globe and Mail (Toronto)/Staff (Not Credited)
p1943
g3
(g4
g5
NtRp1944
(dp1945
g8
g1943
sg9
VStaff (Not Credited)
p1946
sg11
S'http://www.metacritic.com/critic?filter=movies'
p1947
sg13
(dp1948
g672
F8.8000000000000007
ssg16
VThe Globe and Mail (Toronto)
p1949
sg18
NsbsVFilm.com/Ernest Hardy
p1950
g3
(g4
g5
NtRp1951
(dp1952
g8
g1950
sg9
VErnest Hardy
p1953
sg11
S'http://www.metacritic.com/critic/ernest-hardy?filter=movies'
p1954
sg13
(dp1955
g103
F9
ssg16
VFilm.com
p1956
sg18
NsbsVChicago Reader/Ronnie Scheib
p1957
g3
(g4
g5
NtRp1958
(dp1959
g8
g1957
sg9
VRonnie Scheib
p1960
sg11
S'http://www.metacritic.com/critic/ronnie-scheib?filter=movies'
p1961
sg13
(dp1962
g290
F5
ssg16
VChicago Reader
p1963
sg18
NsbsVTime Out New York/Keith Uhlich
p1964
g3
(g4
g5
NtRp1965
(dp1966
g8
g1964
sg9
VKeith Uhlich
p1967
sg11
S'http://www.metacritic.com/critic/keith-uhlich?filter=movies'
p1968
sg13
(dp1969
g113
F8
sg279
F8
sg138
F8
sg128
F8
sg162
F6
sg164
F6
ssg16
VTime Out New York
p1970
sg18
NsbsVVillage Voice/Ed Gonzalez
p1971
g3
(g4
g5
NtRp1972
(dp1973
g8
g1971
sg9
VEd Gonzalez
p1974
sg11
S'http://www.metacritic.com/critic?filter=movies'
p1975
sg13
(dp1976
g35
F5
ssg16
VVillage Voice
p1977
sg18
NsbsVAustin Chronicle/Steve Davis
p1978
g3
(g4
g5
NtRp1979
(dp1980
g8
g1978
sg9
VSteve Davis
p1981
sg11
S'http://www.metacritic.com/critic/steve-davis?filter=movies'
p1982
sg13
(dp1983
g149
F8.9000000000000004
sg61
F10
sg132
F10
sg165
F6.7000000000000002
sg217
F8.9000000000000004
ssg16
VAustin Chronicle
p1984
sg18
NsbsVFilm Threat/Don R. Lewis
p1985
g3
(g4
g5
NtRp1986
(dp1987
g8
g1985
sg9
VDon R. Lewis
p1988
sg11
S'http://www.metacritic.com/critic?filter=movies'
p1989
sg13
(dp1990
g117
F9
sg146
F10
ssg16
VFilm Threat
p1991
sg18
NsbsVLos Angeles Times/John Anderson
p1992
g3
(g4
g5
NtRp1993
(dp1994
g8
g1992
sg9
VJohn Anderson
p1995
sg11
S'http://www.metacritic.com/critic?filter=movies'
p1996
sg13
(dp1997
g125
F8
ssg16
VLos Angeles Times
p1998
sg18
NsbsVThe Globe and Mail (Toronto)/Barry Hertz
p1999
g3
(g4
g5
NtRp2000
(dp2001
g8
g1999
sg9
VBarry Hertz
p2002
sg11
S'http://www.metacritic.com/critic/barry-hertz?filter=movies'
p2003
sg13
(dp2004
g64
F8.8000000000000007
sg470
F6.2999999999999998
sg74
F8.8000000000000007
sg60
F5
sg122
F8.8000000000000007
ssg16
VThe Globe and Mail (Toronto)
p2005
sg18
NsbsVFilm.com/James Rocchi
p2006
g3
(g4
g5
NtRp2007
(dp2008
g8
g2006
sg9
VJames Rocchi
p2009
sg11
S'http://www.metacritic.com/critic/james-rocchi?filter=movies'
p2010
sg13
(dp2011
g68
F6.2999999999999998
ssg16
VFilm.com
p2012
sg18
NsbsVFilm.com/Tom Keogh
p2013
g3
(g4
g5
NtRp2014
(dp2015
g8
g2013
sg9
VTom Keogh
p2016
sg11
S'http://www.metacritic.com/critic/tom-keogh?filter=movies'
p2017
sg13
(dp2018
g427
F4
sg125
F8
ssg16
VFilm.com
p2019
sg18
NsbsVChicago Sun-Times/Patrick Z. McGavin
p2020
g3
(g4
g5
NtRp2021
(dp2022
g8
g2020
sg9
VPatrick Z. McGavin
p2023
sg11
S'http://www.metacritic.com/critic?filter=movies'
p2024
sg13
(dp2025
g521
F7.5
ssg16
VChicago Sun-Times
p2026
sg18
NsbsVPremiere/Nick Starkey
p2027
g3
(g4
g5
NtRp2028
(dp2029
g8
g2027
sg9
VNick Starkey
p2030
sg11
S'http://www.metacritic.com/critic?filter=movies'
p2031
sg13
(dp2032
g164
F10
ssg16
VPremiere
p2033
sg18
NsbsVVillage Voice/Danny King
p2034
g3
(g4
g5
NtRp2035
(dp2036
g8
g2034
sg9
VDanny King
p2037
sg11
S'http://www.metacritic.com/critic/danny-king?filter=movies'
p2038
sg13
(dp2039
g136
F8
ssg16
VVillage Voice
p2040
sg18
NsbsVChicago Reader/Lisa Alspector
p2041
g3
(g4
g5
NtRp2042
(dp2043
g8
g2041
sg9
VLisa Alspector
p2044
sg11
S'http://www.metacritic.com/critic/lisa-alspector?filter=movies'
p2045
sg13
(dp2046
g125
F8
ssg16
VChicago Reader
p2047
sg18
NsbsVUSA Today/Brian Truitt
p2048
g3
(g4
g5
NtRp2049
(dp2050
g8
g2048
sg9
VBrian Truitt
p2051
sg11
S'http://www.metacritic.com/critic/brian-truitt?filter=movies'
p2052
sg13
(dp2053
g136
F6.2999999999999998
sg91
F10
sg158
F8.8000000000000007
sg64
F7.5
sg70
F8.8000000000000007
sg74
F10
sg60
F7.5
ssg16
VUSA Today
p2054
sg18
NsbsVThe Dissolve/Nathan Rabin
p2055
g3
(g4
g5
NtRp2056
(dp2057
g8
g2055
sg9
VNathan Rabin
p2058
sg11
S'http://www.metacritic.com/critic/nathan-rabin?filter=movies'
p2059
sg13
(dp2060
g521
F8
ssg16
VThe Dissolve
p2061
sg18
NsbsVThe Guardian/Andrew Pulver
p2062
g3
(g4
g5
NtRp2063
(dp2064
g8
g2062
sg9
VAndrew Pulver
p2065
sg11
S'http://www.metacritic.com/critic/andrew-pulver?filter=movies'
p2066
sg13
(dp2067
g470
F8
sg142
F8
sg322
F8
ssg16
VThe Guardian
p2068
sg18
NsbsVThe Verge/Chris Plante
p2069
g3
(g4
g5
NtRp2070
(dp2071
g8
g2069
sg9
VChris Plante
p2072
sg11
S'http://www.metacritic.com/critic?filter=movies'
p2073
sg13
(dp2074
g91
F9.5
ssg16
VThe Verge
p2075
sg18
NsbsVThe Hollywood Reporter/Sura Wood
p2076
g3
(g4
g5
NtRp2077
(dp2078
g8
g2076
sg9
VSura Wood
p2079
sg11
S'http://www.metacritic.com/critic?filter=movies'
p2080
sg13
(dp2081
g147
F6
ssg16
VThe Hollywood Reporter
p2082
sg18
NsbsVHitfix/Catherine Bray
p2083
g3
(g4
g5
NtRp2084
(dp2085
g8
g2083
sg9
VCatherine Bray
p2086
sg11
S'http://www.metacritic.com/critic?filter=movies'
p2087
sg13
(dp2088
g68
F9.0999999999999996
ssg16
VHitfix
p2089
sg18
NsbsVTotal Film/Kevin Harley
p2090
g3
(g4
g5
NtRp2091
(dp2092
g8
g2090
sg9
VKevin Harley
p2093
sg11
S'http://www.metacritic.com/critic/kevin-harley?filter=movies'
p2094
sg13
(dp2095
g152
F10
sg158
F8
ssg16
VTotal Film
p2096
sg18
NsbsVThe Guardian/Xan Brooks
p2097
g3
(g4
g5
NtRp2098
(dp2099
g8
g2097
sg9
VXan Brooks
p2100
sg11
S'http://www.metacritic.com/critic/xan-brooks?filter=movies'
p2101
sg13
(dp2102
g62
F8
sg63
F8
sg115
F10
sg144
F8
sg67
F8
sg68
F6
sg72
F10
ssg16
VThe Guardian
p2103
sg18
NsbsVWashington Post/Ann Hornaday
p2104
g3
(g4
g5
NtRp2105
(dp2106
g8
g2104
sg9
VAnn Hornaday
p2107
sg11
S'http://www.metacritic.com/critic/ann-hornaday?filter=movies'
p2108
sg13
(dp2109
g111
F10
sg112
F6.2999999999999998
sg113
F5
sg91
F10
sg63
F10
sg277
F7.5
sg117
F10
sg67
F10
sg162
F5
sg121
F10
sg73
F7.5
sg35
F7
sg165
F10
sg127
F10
sg64
F6.2999999999999998
sg215
F10
sg128
F3.7999999999999998
sg93
F10
sg68
F10
sg69
F8.8000000000000007
sg132
F10
sg133
F10
sg94
F10
sg470
F8.8000000000000007
sg61
F10
sg322
F6.2999999999999998
sg115
F6.2999999999999998
sg135
F10
sg136
F8.8000000000000007
sg137
F2.5
sg143
F9
sg142
F7.5
sg138
F7.5
sg144
F8.8000000000000007
sg90
F8.8000000000000007
sg147
F9
sg149
F10
sg70
F10
sg177
F10
sg71
F10
sg151
F8.8000000000000007
sg152
F10
sg153
F7.5
sg154
F10
sg62
F10
sg279
F7.5
sg158
F6.2999999999999998
sg159
F5
sg92
F10
sg513
F10
sg160
F9
sg65
F10
sg163
F10
sg164
F7.5
sg166
F7
sg161
F10
sg74
F10
sg60
F7.5
sg281
F7.5
ssg16
VWashington Post
p2110
sg18
NsbsVSlant Magazine/Sam C. Mac
p2111
g3
(g4
g5
NtRp2112
(dp2113
g8
g2111
sg9
VSam C. Mac
p2114
sg11
S'http://www.metacritic.com/critic/sam-c-mac?filter=movies'
p2115
sg13
(dp2116
g61
F6.2999999999999998
ssg16
VSlant Magazine
p2117
sg18
NsbsVNPR/Mark Jenkins
p2118
g3
(g4
g5
NtRp2119
(dp2120
g8
g2118
sg9
VMark Jenkins
p2121
sg11
S'http://www.metacritic.com/critic/mark-jenkins?filter=movies'
p2122
sg13
(dp2123
g279
F7
ssg16
VNPR
p2124
sg18
NsbsVIndiewire/Adam Cook
p2125
g3
(g4
g5
NtRp2126
(dp2127
g8
g2125
sg9
VAdam Cook
p2128
sg11
S'http://www.metacritic.com/critic?filter=movies'
p2129
sg13
(dp2130
g278
F4.2000000000000002
ssg16
VIndiewire
p2131
sg18
NsbsVTNT RoughCut/Graham Verdon
p2132
g3
(g4
g5
NtRp2133
(dp2134
g8
g2132
sg9
VGraham Verdon
p2135
sg11
S'http://www.metacritic.com/critic?filter=movies'
p2136
sg13
(dp2137
g103
F4
ssg16
VTNT RoughCut
p2138
sg18
NsbsVTime Out New York/Cath Clarke
p2139
g3
(g4
g5
NtRp2140
(dp2141
g8
g2139
sg9
VCath Clarke
p2142
sg11
S'http://www.metacritic.com/critic?filter=movies'
p2143
sg13
(dp2144
g72
F8
ssg16
VTime Out New York
p2145
sg18
NsbsVConsequence of Sound/Dominick Suzanne-Mayer
p2146
g3
(g4
g5
NtRp2147
(dp2148
g8
g2146
sg9
VDominick Suzanne-Mayer
p2149
sg11
S'http://www.metacritic.com/critic/dominick-suzanne-mayer?filter=movies'
p2150
sg13
(dp2151
g136
F5.7999999999999998
sg132
F10
sg165
F4.2000000000000002
sg93
F9.0999999999999996
ssg16
VConsequence of Sound
p2152
sg18
NsbsVNew Times (L.A.)/Gregory Weinkauf
p2153
g3
(g4
g5
NtRp2154
(dp2155
g8
g2153
sg9
VGregory Weinkauf
p2156
sg11
S'http://www.metacritic.com/critic/gregory-weinkauf?filter=movies'
p2157
sg13
(dp2158
g254
F7
sg702
F9
ssg16
VNew Times (L.A.)
p2159
sg18
NsbsVEmpire/Phil de Semlyen
p2160
g3
(g4
g5
NtRp2161
(dp2162
g8
g2160
sg9
VPhil de Semlyen
p2163
sg11
S'http://www.metacritic.com/critic/phil-de-semlyen?filter=movies'
p2164
sg13
(dp2165
g215
F10
sg91
F10
ssg16
VEmpire
p2166
sg18
NsbsVChicago Tribune/Dave Kehr
p2167
g3
(g4
g5
NtRp2168
(dp2169
g8
g2167
sg9
VDave Kehr
p2170
sg11
S'http://www.metacritic.com/critic/dave-kehr?filter=movies'
p2171
sg13
(dp2172
g671
F8.8000000000000007
ssg16
VChicago Tribune
p2173
sg18
NsbsVSlant Magazine/Steve Macfarlane
p2174
g3
(g4
g5
NtRp2175
(dp2176
g8
g2174
sg9
VSteve Macfarlane
p2177
sg11
S'http://www.metacritic.com/critic/steve-macfarlane?filter=movies'
p2178
sg13
(dp2179
g152
F7.5
ssg16
VSlant Magazine
p2180
sg18
NsbsVWe Got This Covered/Sam Woolf
p2181
g3
(g4
g5
NtRp2182
(dp2183
g8
g2181
sg9
VSam Woolf
p2184
sg11
S'http://www.metacritic.com/critic?filter=movies'
p2185
sg13
(dp2186
g122
F8
ssg16
VWe Got This Covered
p2187
sg18
NsbsVWashington Post/Desson Thomson
p2188
g3
(g4
g5
NtRp2189
(dp2190
g8
g2188
sg9
VDesson Thomson
p2191
sg11
S'http://www.metacritic.com/critic/desson-thomson?filter=movies'
p2192
sg13
(dp2193
g680
F9
sg118
F8
sg52
F4
sg120
F6
sg671
F10
sg124
F8
sg125
F9
sg129
F10
sg131
F10
sg33
F10
sg307
F9
sg148
F9
sg126
F7
sg34
F10
sg155
F8
sg427
F3
sg119
F8
sg141
F10
sg169
F6
sg150
F9
sg290
F10
sg702
F10
sg254
F9
sg43
F8
sg157
F9
sg51
F7
sg159
F9
sg291
F9
sg253
F4
sg168
F10
sg167
F8
ssg16
VWashington Post
p2194
sg18
NsbsVPortland Oregonian/Jeff Baker
p2195
g3
(g4
g5
NtRp2196
(dp2197
g8
g2195
sg9
VJeff Baker
p2198
sg11
S'http://www.metacritic.com/critic/jeff-baker?filter=movies'
p2199
sg13
(dp2200
g62
F8.3000000000000007
sg158
F6.7000000000000002
sg521
F9.0999999999999996
sg122
F9.0999999999999996
sg513
F9.0999999999999996
sg149
F8.3000000000000007
sg152
F10
sg322
F9.0999999999999996
sg74
F10
ssg16
VPortland Oregonian
p2201
sg18
NsbsVSlant Magazine/John Semley
p2202
g3
(g4
g5
NtRp2203
(dp2204
g8
g2202
sg9
VJohn Semley
p2205
sg11
S'http://www.metacritic.com/critic?filter=movies'
p2206
sg13
(dp2207
g111
F7.5
sg112
F6.2999999999999998
ssg16
VSlant Magazine
p2208
sg18
NsbsVVariety/Lisa Nesselson
p2209
g3
(g4
g5
NtRp2210
(dp2211
g8
g2209
sg9
VLisa Nesselson
p2212
sg11
S'http://www.metacritic.com/critic/lisa-nesselson?filter=movies'
p2213
sg13
(dp2214
g289
F9
sg169
F9
sg290
F8
ssg16
VVariety
p2215
sg18
NsbsVCineVue/Craig Williams
p2216
g3
(g4
g5
NtRp2217
(dp2218
g8
g2216
sg9
VCraig Williams
p2219
sg11
S'http://www.metacritic.com/critic?filter=movies'
p2220
sg13
(dp2221
g62
F10
ssg16
VCineVue
p2222
sg18
NsbsVThe Globe and Mail (Toronto)/Rick Groen
p2223
g3
(g4
g5
NtRp2224
(dp2225
g8
g2223
sg9
VRick Groen
p2226
sg11
S'http://www.metacritic.com/critic/rick-groen?filter=movies'
p2227
sg13
(dp2228
g306
F6.2999999999999998
sg113
F5
sg162
F7.5
sg52
F3.7999999999999998
sg121
F10
sg35
F6.2999999999999998
sg123
F8.8000000000000007
sg130
F8.8000000000000007
sg135
F7.5
sg34
F8.8000000000000007
sg155
F3.7999999999999998
sg133
F10
sg143
F7.5
sg141
F7.5
sg138
F7.5
sg145
F7.5
sg146
F10
sg147
F6.2999999999999998
sg289
F8.8000000000000007
sg169
F7.5
sg151
F7.5
sg153
F8.8000000000000007
sg154
F8.8000000000000007
sg279
F7.5
sg51
F8.8000000000000007
sg163
F8.8000000000000007
sg164
F7.5
sg166
F7.5
ssg16
VThe Globe and Mail (Toronto)
p2229
sg18
NsbsVRogerEbert.com/Sheila O'Malley
p2230
g3
(g4
g5
NtRp2231
(dp2232
g8
g2230
sg9
VSheila O'Malley
p2233
sg11
S'http://www.metacritic.com/critic/sheila-omalley?filter=movies'
p2234
sg13
(dp2235
g158
F3.7999999999999998
sg74
F8.8000000000000007
sg470
F7.5
sg152
F8.8000000000000007
sg165
F3.7999999999999998
sg75
F8.8000000000000007
ssg16
VRogerEbert.com
p2236
sg18
NsbsVThe A.V. Club/Nathan Rabin
p2237
g3
(g4
g5
NtRp2238
(dp2239
g8
g2237
sg9
VNathan Rabin
p2240
sg11
S'http://www.metacritic.com/critic/nathan-rabin?filter=movies'
p2241
sg13
(dp2242
g137
F7.5
sg119
F10
sg124
F5
sg112
F9.0999999999999996
sg130
F8
sg118
F7
sg135
F8.3000000000000007
sg161
F10
sg153
F10
sg167
F9
ssg16
VThe A.V. Club
p2243
sg18
NsbsVThe A.V. Club/Ben Kenigsberg
p2244
g3
(g4
g5
NtRp2245
(dp2246
g8
g2244
sg9
VBen Kenigsberg
p2247
sg11
S'http://www.metacritic.com/critic/ben-kenigsberg?filter=movies'
p2248
sg13
(dp2249
g62
F10
ssg16
VThe A.V. Club
p2250
sg18
NsbsVThe A.V. Club/Mike D'Angelo
p2251
g3
(g4
g5
NtRp2252
(dp2253
g8
g2251
sg9
VMike D'Angelo
p2254
sg11
S'http://www.metacritic.com/critic/mike-dangelo?filter=movies'
p2255
sg13
(dp2256
g90
F8.3000000000000007
sg278
F5
sg63
F7.5
sg277
F6.7000000000000002
sg215
F8.3000000000000007
sg521
F7.5
sg216
F5
sg69
F10
sg152
F9.0999999999999996
sg95
F8.3000000000000007
sg122
F10
sg60
F9.0999999999999996
ssg16
VThe A.V. Club
p2257
sg18
NsbsVFilm Threat/Staff (Not credited)
p2258
g3
(g4
g5
NtRp2259
(dp2260
g8
g2258
sg9
VStaff (Not credited)
p2261
sg11
S'http://www.metacritic.com/critic?filter=movies'
p2262
sg13
(dp2263
g306
F6
ssg16
VFilm Threat
p2264
sg18
NsbsVThe Playlist/Chris Willman
p2265
g3
(g4
g5
NtRp2266
(dp2267
g8
g2265
sg9
VChris Willman
p2268
sg11
S'http://www.metacritic.com/critic?filter=movies'
p2269
sg13
(dp2270
g132
F9.0999999999999996
ssg16
VThe Playlist
p2271
sg18
NsbsVCineVue/Joe Walsh
p2272
g3
(g4
g5
NtRp2273
(dp2274
g8
g2272
sg9
VJoe Walsh
p2275
sg11
S'http://www.metacritic.com/critic/joe-walsh?filter=movies'
p2276
sg13
(dp2277
g70
F8
sg132
F10
ssg16
VCineVue
p2278
sg18
NsbsVChicago Reader/Staff (not credited)
p2279
g3
(g4
g5
NtRp2280
(dp2281
g8
g2279
sg9
VStaff (not credited)
p2282
sg11
S'http://www.metacritic.com/critic?filter=movies'
p2283
sg13
(dp2284
g157
F10
ssg16
VChicago Reader
p2285
sg18
NsbsVVillage Voice/J. Hoberman
p2286
g3
(g4
g5
NtRp2287
(dp2288
g8
g2286
sg9
VJ. Hoberman
p2289
sg11
S'http://www.metacritic.com/critic/j-hoberman?filter=movies'
p2290
sg13
(dp2291
g306
F7
sg276
F8
sg117
F10
sg680
F9
sg113
F9
sg123
F8
sg291
F4
sg103
F8
sg129
F7
sg130
F7
sg33
F8
sg135
F9
sg34
F7
sg161
F10
sg119
F4
sg141
F9
sg143
F9
sg145
F8
sg133
F9
sg290
F7
sg702
F8
sg254
F4
sg160
F10
sg163
F7
sg164
F7
sg166
F7
sg168
F7
sg167
F9
ssg16
VVillage Voice
p2292
sg18
NsbsVScreen International/David D'Arcy
p2293
g3
(g4
g5
NtRp2294
(dp2295
g8
g2293
sg9
VDavid D'Arcy
p2296
sg11
S'http://www.metacritic.com/critic/david-darcy?filter=movies'
p2297
sg13
(dp2298
g15
F7
ssg16
VScreen International
p2299
sg18
NsbsVThe Film Stage/Rory O'Connor
p2300
g3
(g4
g5
NtRp2301
(dp2302
g8
g2300
sg9
VRory O'Connor
p2303
sg11
S'http://www.metacritic.com/critic/rory-oconnor?filter=movies'
p2304
sg13
(dp2305
g66
F10
ssg16
VThe Film Stage
p2306
sg18
NsbsVFilm Threat/Zach Haddad
p2307
g3
(g4
g5
NtRp2308
(dp2309
g8
g2307
sg9
VZach Haddad
p2310
sg11
S'http://www.metacritic.com/critic?filter=movies'
p2311
sg13
(dp2312
g114
F6
ssg16
VFilm Threat
p2313
sg18
NsbsVConsequence of Sound/Collin Brennan
p2314
g3
(g4
g5
NtRp2315
(dp2316
g8
g2314
sg9
VCollin Brennan
p2317
sg11
S'http://www.metacritic.com/critic/collin-brennan?filter=movies'
p2318
sg13
(dp2319
g470
F5
ssg16
VConsequence of Sound
p2320
sg18
NsbsVThe Globe and Mail (Toronto)/Geoff Pevere
p2321
g3
(g4
g5
NtRp2322
(dp2323
g8
g2321
sg9
VGeoff Pevere
p2324
sg11
S'http://www.metacritic.com/critic?filter=movies'
p2325
sg13
(dp2326
g322
F7.5
ssg16
VThe Globe and Mail (Toronto)
p2327
sg18
NsbsVBoxoffice Magazine/Pete Hammond
p2328
g3
(g4
g5
NtRp2329
(dp2330
g8
g2328
sg9
VPete Hammond
p2331
sg11
S'http://www.metacritic.com/critic/pete-hammond?filter=movies'
p2332
sg13
(dp2333
g151
F10
sg162
F9
sg154
F8
sg138
F9
sg163
F10
ssg16
VBoxoffice Magazine
p2334
sg18
NsbsVThe Hollywood Reporter/John DeFore
p2335
g3
(g4
g5
NtRp2336
(dp2337
g8
g2335
sg9
VJohn DeFore
p2338
sg11
S'http://www.metacritic.com/critic/john-defore?filter=movies'
p2339
sg13
(dp2340
g158
F10
sg521
F8
sg161
F10
ssg16
VThe Hollywood Reporter
p2341
sg18
NsbsVEntertainment Weekly/Joe McGovern
p2342
g3
(g4
g5
NtRp2343
(dp2344
g8
g2342
sg9
VJoe McGovern
p2345
sg11
S'http://www.metacritic.com/critic/joe-mcgovern?filter=movies'
p2346
sg13
(dp2347
g90
F10
sg215
F8.3000000000000007
sg25
F9.0999999999999996
sg95
F9.0999999999999996
ssg16
VEntertainment Weekly
p2348
sg18
NsbsVScreenCrush/Jordan Hoffman
p2349
g3
(g4
g5
NtRp2350
(dp2351
g8
g2349
sg9
VJordan Hoffman
p2352
sg11
S'http://www.metacritic.com/critic?filter=movies'
p2353
sg13
(dp2354
g132
F10
ssg16
VScreenCrush
p2355
sg18
NsbsVThe Hollywood Reporter/Todd McCarthy
p2356
g3
(g4
g5
NtRp2357
(dp2358
g8
g2356
sg9
VTodd McCarthy
p2359
sg11
S'http://www.metacritic.com/critic/todd-mccarthy?filter=movies'
p2360
sg13
(dp2361
g111
F10
sg112
F8
sg91
F9
sg115
F10
sg67
F10
sg122
F10
sg127
F9
sg64
F5
sg128
F6
sg15
F6
sg68
F10
sg132
F9
sg94
F7
sg136
F9
sg142
F9
sg138
F9
sg144
F10
sg149
F10
sg70
F9
sg71
F10
sg152
F9
sg154
F8
sg62
F7
sg95
F8
sg65
F8
sg74
F6
sg281
F10
ssg16
VThe Hollywood Reporter
p2362
sg18
NsbsVWall Street Journal/John Anderson
p2363
g3
(g4
g5
NtRp2364
(dp2365
g8
g2363
sg9
VJohn Anderson
p2366
sg11
S'http://www.metacritic.com/critic/john-anderson?filter=movies'
p2367
sg13
(dp2368
g151
F5
sg61
F10
sg95
F8
ssg16
VWall Street Journal
p2369
sg18
NsbsVEmpire/Chris Hewitt (1)
p2370
g3
(g4
g5
NtRp2371
(dp2372
g8
g2370
sg9
VChris Hewitt (1)
p2373
sg11
S'http://www.metacritic.com/critic/chris-hewitt-1?filter=movies'
p2374
sg13
(dp2375
g113
F8
sg164
F10
ssg16
VEmpire
p2376
sg18
NsbsVThe A.V. Club/Keith Uhlich
p2377
g3
(g4
g5
NtRp2378
(dp2379
g8
g2377
sg9
VKeith Uhlich
p2380
sg11
S'http://www.metacritic.com/critic?filter=movies'
p2381
sg13
(dp2382
g322
F7.5
sg557
F9.0999999999999996
ssg16
VThe A.V. Club
p2383
sg18
NsbsVThe Globe and Mail (Toronto)/John Semley
p2384
g3
(g4
g5
NtRp2385
(dp2386
g8
g2384
sg9
VJohn Semley
p2387
sg11
S'http://www.metacritic.com/critic/john-semley?filter=movies'
p2388
sg13
(dp2389
g513
F2.5
ssg16
VThe Globe and Mail (Toronto)
p2390
sg18
NsbsVVariety/Owen Gleiberman
p2391
g3
(g4
g5
NtRp2392
(dp2393
g8
g2391
sg9
VOwen Gleiberman
p2394
sg11
S'http://www.metacritic.com/critic/owen-gleiberman?filter=movies'
p2395
sg13
(dp2396
g90
F10
sg64
F9
sg94
F6
ssg16
VVariety
p2397
sg18
NsbsVLos Angeles Times/Mark Olsen
p2398
g3
(g4
g5
NtRp2399
(dp2400
g8
g2398
sg9
VMark Olsen
p2401
sg11
S'http://www.metacritic.com/critic/mark-olsen?filter=movies'
p2402
sg13
(dp2403
g122
F9
ssg16
VLos Angeles Times
p2404
sg18
NsbsVEmpire/Simon Braund
p2405
g3
(g4
g5
NtRp2406
(dp2407
g8
g2405
sg9
VSimon Braund
p2408
sg11
S'http://www.metacritic.com/critic?filter=movies'
p2409
sg13
(dp2410
g155
F4
sg126
F8
ssg16
VEmpire
p2411
sg18
NsbsVSan Francisco Chronicle/Michael Ordoa
p2412
g3
(g4
g5
NtRp2413
(dp2414
g8
g2412
sg9
VMichael Ordoa
p2415
sg11
S'http://www.metacritic.com/critic?filter=movies'
p2416
sg13
(dp2417
g470
F7.5
ssg16
VSan Francisco Chronicle
p2418
sg18
NsbsVThe Playlist/Russ Fischer
p2419
g3
(g4
g5
NtRp2420
(dp2421
g8
g2419
sg9
VRuss Fischer
p2422
sg11
S'http://www.metacritic.com/critic/russ-fischer?filter=movies'
p2423
sg13
(dp2424
g64
F9.0999999999999996
sg165
F5
ssg16
VThe Playlist
p2425
sg18
NsbsVTheWrap/Alonso Duralde
p2426
g3
(g4
g5
NtRp2427
(dp2428
g8
g2426
sg9
VAlonso Duralde
p2429
sg11
S'http://www.metacritic.com/critic/alonso-duralde?filter=movies'
p2430
sg13
(dp2431
g277
F6.5999999999999996
sg64
F7.2000000000000002
sg521
F9
sg122
F8.5
sg513
F8
sg68
F9
sg149
F8.5
sg70
F8.9000000000000004
sg177
F8.5
sg165
F9
sg152
F9.5
sg74
F9.5
sg217
F9.1999999999999993
ssg16
VTheWrap
p2432
sg18
NsbsVNewsweek/Jack Kroll
p2433
g3
(g4
g5
NtRp2434
(dp2435
g8
g2433
sg9
VJack Kroll
p2436
sg11
S'http://www.metacritic.com/critic?filter=movies'
p2437
sg13
(dp2438
g671
F10
sg119
F8
ssg16
VNewsweek
p2439
sg18
NsbsVPremiere/Staff (Not credited)
p2440
g3
(g4
g5
NtRp2441
(dp2442
g8
g2440
sg9
VStaff (Not credited)
p2443
sg11
S'http://www.metacritic.com/critic?filter=movies'
p2444
sg13
(dp2445
g151
F8.8000000000000007
sg92
F8.8000000000000007
ssg16
VPremiere
p2446
sg18
NsbsVVillage Voice/April Wolfe
p2447
g3
(g4
g5
NtRp2448
(dp2449
g8
g2447
sg9
VApril Wolfe
p2450
sg11
S'http://www.metacritic.com/critic/april-wolfe?filter=movies'
p2451
sg13
(dp2452
g91
F10
ssg16
VVillage Voice
p2453
sg18
NsbsVThe Hollywood Reporter/Deborah Young
p2454
g3
(g4
g5
NtRp2455
(dp2456
g8
g2454
sg9
VDeborah Young
p2457
sg11
S'http://www.metacritic.com/critic/deborah-young?filter=movies'
p2458
sg13
(dp2459
g90
F8
sg278
F5
sg276
F7
sg63
F8
sg66
F9
sg72
F8
sg121
F10
sg73
F9
sg123
F9
ssg16
VThe Hollywood Reporter
p2460
sg18
NsbsVTheWrap/Inkoo Kang
p2461
g3
(g4
g5
NtRp2462
(dp2463
g8
g2461
sg9
VInkoo Kang
p2464
sg11
S'http://www.metacritic.com/critic/inkoo-kang?filter=movies'
p2465
sg13
(dp2466
g158
F5.5
sg93
F10
sg25
F9
sg216
F7.5
ssg16
VTheWrap
p2467
sg18
NsbsVHitfix/Drew McWeeny
p2468
g3
(g4
g5
NtRp2469
(dp2470
g8
g2468
sg9
VDrew McWeeny
p2471
sg11
S'http://www.metacritic.com/critic/drew-mcweeny?filter=movies'
p2472
sg13
(dp2473
g136
F5
sg62
F10
sg91
F10
sg142
F10
sg64
F8.3000000000000007
sg70
F10
sg217
F10
sg60
F10
ssg16
VHitfix
p2474
sg18
NsbsVEmpire/David Hughes
p2475
g3
(g4
g5
NtRp2476
(dp2477
g8
g2475
sg9
VDavid Hughes
p2478
sg11
S'http://www.metacritic.com/critic/david-hughes?filter=movies'
p2479
sg13
(dp2480
g306
F8
sg121
F10
sg72
F8
sg322
F10
sg281
F8
ssg16
VEmpire
p2481
sg18
NsbsVThe Playlist/Drew Taylor
p2482
g3
(g4
g5
NtRp2483
(dp2484
g8
g2482
sg9
VDrew Taylor
p2485
sg11
S'http://www.metacritic.com/critic/drew-taylor?filter=movies'
p2486
sg13
(dp2487
g154
F5
sg521
F7.5
ssg16
VThe Playlist
p2488
sg18
NsbsVChicago Reader/Dave Kehr
p2489
g3
(g4
g5
NtRp2490
(dp2491
g8
g2489
sg9
VDave Kehr
p2492
sg11
S'http://www.metacritic.com/critic/dave-kehr?filter=movies'
p2493
sg13
(dp2494
g206
F10
sg140
F2
ssg16
VChicago Reader
p2495
sg18
NsbsVSlant Magazine/Chris Cabin
p2496
g3
(g4
g5
NtRp2497
(dp2498
g8
g2496
sg9
VChris Cabin
p2499
sg11
S'http://www.metacritic.com/critic/chris-cabin?filter=movies'
p2500
sg13
(dp2501
g277
F6.2999999999999998
sg62
F10
sg71
F8.8000000000000007
sg281
F7.5
ssg16
VSlant Magazine
p2502
sg18
NsbsVChicago Sun-Times/Roger Ebert
p2503
g3
(g4
g5
NtRp2504
(dp2505
g8
g2503
sg9
VRoger Ebert
p2506
sg11
S'http://www.metacritic.com/critic/roger-ebert?filter=movies'
p2507
sg13
(dp2508
g306
F7.5
sg111
F7.5
sg113
F10
sg112
F10
sg276
F8.8000000000000007
sg115
F6.2999999999999998
sg116
F10
sg117
F10
sg289
F10
sg680
F7.5
sg118
F7.5
sg119
F8.8000000000000007
sg121
F10
sg120
F7.5
sg671
F6.2999999999999998
sg123
F10
sg124
F10
sg206
F5
sg160
F10
sg103
F10
sg129
F7.5
sg130
F10
sg131
F10
sg33
F8.8000000000000007
sg133
F10
sg307
F10
sg134
F8.8000000000000007
sg126
F8.8000000000000007
sg34
F10
sg155
F2.5
sg135
F10
sg427
F5
sg137
F5
sg138
F8.8000000000000007
sg139
F10
sg140
F5
sg141
F10
sg143
F8.8000000000000007
sg144
F7.5
sg145
F5
sg146
F10
sg147
F10
sg148
F10
sg125
F7.5
sg169
F8.8000000000000007
sg151
F10
sg290
F8.8000000000000007
sg672
F10
sg153
F8.8000000000000007
sg154
F10
sg254
F10
sg43
F7.5
sg156
F7.5
sg157
F10
sg51
F10
sg159
F10
sg92
F10
sg291
F10
sg162
F7.5
sg163
F10
sg164
F10
sg166
F10
sg253
F5
sg161
F8.8000000000000007
sg52
F8.8000000000000007
sg168
F8.8000000000000007
sg702
F7.5
sg167
F10
ssg16
VChicago Sun-Times
p2509
sg18
NsbsVScreen International/Wendy Ide
p2510
g3
(g4
g5
NtRp2511
(dp2512
g8
g2510
sg9
VWendy Ide
p2513
sg11
S'http://www.metacritic.com/critic/wendy-ide?filter=movies'
p2514
sg13
(dp2515
g66
F8
ssg16
VScreen International
p2516
sg18
NsbsVChicago Tribune/Tasha Robinson
p2517
g3
(g4
g5
NtRp2518
(dp2519
g8
g2517
sg9
VTasha Robinson
p2520
sg11
S'http://www.metacritic.com/critic?filter=movies'
p2521
sg13
(dp2522
g289
F8.8000000000000007
ssg16
VChicago Tribune
p2523
sg18
NsbsVThe Telegraph/Mike McCahill
p2524
g3
(g4
g5
NtRp2525
(dp2526
g8
g2524
sg9
VMike McCahill
p2527
sg11
S'http://www.metacritic.com/critic/mike-mccahill?filter=movies'
p2528
sg13
(dp2529
g217
F6
ssg16
VThe Telegraph
p2530
sg18
NsbsVTNT RoughCut/Christopher Brandon
p2531
g3
(g4
g5
NtRp2532
(dp2533
g8
g2531
sg9
VChristopher Brandon
p2534
sg11
S'http://www.metacritic.com/critic/christopher-brandon?filter=movies'
p2535
sg13
(dp2536
g291
F10
sg119
F7
ssg16
VTNT RoughCut
p2537
sg18
NsbsVSan Francisco Examiner/G. Allen Johnson
p2538
g3
(g4
g5
NtRp2539
(dp2540
g8
g2538
sg9
VG. Allen Johnson
p2541
sg11
S'http://www.metacritic.com/critic/g-allen-johnson?filter=movies'
p2542
sg13
(dp2543
g148
F8.8000000000000007
sg52
F0
ssg16
VSan Francisco Examiner
p2544
sg18
NsbsVThe Seattle Times/Michael Upchurch
p2545
g3
(g4
g5
NtRp2546
(dp2547
g8
g2545
sg9
VMichael Upchurch
p2548
sg11
S'http://www.metacritic.com/critic?filter=movies'
p2549
sg13
(dp2550
g95
F7.5
ssg16
VThe Seattle Times
p2551
sg18
NsbsVVillage Voice/Stephanie Zacharek
p2552
g3
(g4
g5
NtRp2553
(dp2554
g8
g2552
sg9
VStephanie Zacharek
p2555
sg11
S'http://www.metacritic.com/critic/stephanie-zacharek?filter=movies'
p2556
sg13
(dp2557
g62
F9
sg127
F4
sg158
F7
sg215
F9
sg67
F10
sg521
F8
sg277
F9
sg68
F7
sg132
F8
sg71
F10
sg152
F8
sg322
F9
sg74
F10
sg217
F9
ssg16
VVillage Voice
p2558
sg18
NsbsVThe Globe and Mail (Toronto)/Nathalie Atkinson 
p2559
g3
(g4
g5
NtRp2560
(dp2561
g8
g2559
sg9
VNathalie Atkinson 
p2562
sg11
S'http://www.metacritic.com/critic?filter=movies'
p2563
sg13
(dp2564
g521
F7.5
ssg16
VThe Globe and Mail (Toronto)
p2565
sg18
NsbsVSan Francisco Chronicle/C.W. Nevius
p2566
g3
(g4
g5
NtRp2567
(dp2568
g8
g2566
sg9
VC.W. Nevius
p2569
sg11
S'http://www.metacritic.com/critic/cw-nevius?filter=movies'
p2570
sg13
(dp2571
g120
F7.5
ssg16
VSan Francisco Chronicle
p2572
sg18
NsbsVTNT RoughCut/Gabriel J.P. Goldberg
p2573
g3
(g4
g5
NtRp2574
(dp2575
g8
g2573
sg9
VGabriel J.P. Goldberg
p2576
sg11
S'http://www.metacritic.com/critic?filter=movies'
p2577
sg13
(dp2578
g148
F10
ssg16
VTNT RoughCut
p2579
sg18
NsbsVLos Angeles Times/Michael Ordona
p2580
g3
(g4
g5
NtRp2581
(dp2582
g8
g2580
sg9
VMichael Ordona
p2583
sg11
S'http://www.metacritic.com/critic?filter=movies'
p2584
sg13
(dp2585
g114
F5
ssg16
VLos Angeles Times
p2586
sg18
NsbsVTotal Film/Matt Glasby
p2587
g3
(g4
g5
NtRp2588
(dp2589
g8
g2587
sg9
VMatt Glasby
p2590
sg11
S'http://www.metacritic.com/critic/matt-glasby?filter=movies'
p2591
sg13
(dp2592
g112
F8
sg277
F8
sg122
F10
ssg16
VTotal Film
p2593
sg18
NsbsVThe A.V. Club/Scott Tobias
p2594
g3
(g4
g5
NtRp2595
(dp2596
g8
g2594
sg9
VScott Tobias
p2597
sg11
S'http://www.metacritic.com/critic/scott-tobias?filter=movies'
p2598
sg13
(dp2599
g306
F8
sg111
F10
sg160
F10
sg115
F10
sg279
F9.0999999999999996
sg141
F9
sg120
F5
sg143
F9
sg144
F9.0999999999999996
sg145
F7.5
sg147
F9.0999999999999996
sg276
F9.0999999999999996
sg162
F7.5
sg164
F5
sg151
F9.0999999999999996
sg121
F10
sg168
F7
sg123
F10
sg169
F6
ssg16
VThe A.V. Club
p2600
sg18
NsbsVFilm Threat/Zack Haddad
p2601
g3
(g4
g5
NtRp2602
(dp2603
g8
g2601
sg9
VZack Haddad
p2604
sg11
S'http://www.metacritic.com/critic?filter=movies'
p2605
sg13
(dp2606
g161
F10
ssg16
VFilm Threat
p2607
sg18
NsbsVChicago Sun-Times/Mary Houlihan
p2608
g3
(g4
g5
NtRp2609
(dp2610
g8
g2608
sg9
VMary Houlihan
p2611
sg11
S'http://www.metacritic.com/critic/mary-houlihan?filter=movies'
p2612
sg13
(dp2613
g25
F7.5
ssg16
VChicago Sun-Times
p2614
sg18
NsbsVFilm.com/John Hartl
p2615
g3
(g4
g5
NtRp2616
(dp2617
g8
g2615
sg9
VJohn Hartl
p2618
sg11
S'http://www.metacritic.com/critic/john-hartl?filter=movies'
p2619
sg13
(dp2620
g125
F8
sg51
F10
sg206
F10
ssg16
VFilm.com
p2621
sg18
NsbsVMTV News/Amy Nicholson
p2622
g3
(g4
g5
NtRp2623
(dp2624
g8
g2622
sg9
VAmy Nicholson
p2625
sg11
S'http://www.metacritic.com/critic/amy-nicholson?filter=movies'
p2626
sg13
(dp2627
g136
F5
sg61
F10
sg91
F6.7000000000000002
sg165
F6.7000000000000002
ssg16
VMTV News
p2628
sg18
NsbsVVariety/Editor
p2629
g3
(g4
g5
NtRp2630
(dp2631
g8
g2629
sg9
VEditor
p2632
sg11
S'http://www.metacritic.com/critic?filter=movies'
p2633
sg13
(dp2634
g427
F2
ssg16
VVariety
p2635
sg18
NsbsVTotal Film/Kate Stables
p2636
g3
(g4
g5
NtRp2637
(dp2638
g8
g2636
sg9
VKate Stables
p2639
sg11
S'http://www.metacritic.com/critic?filter=movies'
p2640
sg13
(dp2641
g154
F8
ssg16
VTotal Film
p2642
sg18
NsbsVThe New York Times/Ken Jaworowski
p2643
g3
(g4
g5
NtRp2644
(dp2645
g8
g2643
sg9
VKen Jaworowski
p2646
sg11
S'http://www.metacritic.com/critic/ken-jaworowski?filter=movies'
p2647
sg13
(dp2648
g207
F7
ssg16
VThe New York Times
p2649
sg18
NsbsVPremiere/Jenni Miller
p2650
g3
(g4
g5
NtRp2651
(dp2652
g8
g2650
sg9
VJenni Miller
p2653
sg11
S'http://www.metacritic.com/critic?filter=movies'
p2654
sg13
(dp2655
g134
F7.5
sg156
F7.5
ssg16
VPremiere
p2656
sg18
NsbsVMr. Showbiz/Larry Terenzi
p2657
g3
(g4
g5
NtRp2658
(dp2659
g8
g2657
sg9
VLarry Terenzi
p2660
sg11
S'http://www.metacritic.com/critic/larry-terenzi?filter=movies'
p2661
sg13
(dp2662
g427
F6
ssg16
VMr. Showbiz
p2663
sg18
NsbsVFilm.com/Keith Simanton
p2664
g3
(g4
g5
NtRp2665
(dp2666
g8
g2664
sg9
VKeith Simanton
p2667
sg11
S'http://www.metacritic.com/critic?filter=movies'
p2668
sg13
(dp2669
g148
F7
ssg16
VFilm.com
p2670
sg18
NsbsVDallas Observer/Bill Gallo
p2671
g3
(g4
g5
NtRp2672
(dp2673
g8
g2671
sg9
VBill Gallo
p2674
sg11
S'http://www.metacritic.com/critic/bill-gallo?filter=movies'
p2675
sg13
(dp2676
g291
F10
sg120
F7
sg125
F5
sg166
F9
ssg16
VDallas Observer
p2677
sg18
NsbsVL.A. Weekly/Paul Malcolm
p2678
g3
(g4
g5
NtRp2679
(dp2680
g8
g2678
sg9
VPaul Malcolm
p2681
sg11
S'http://www.metacritic.com/critic/paul-malcolm?filter=movies'
p2682
sg13
(dp2683
g155
F3
ssg16
VL.A. Weekly
p2684
sg18
NsbsVThe A.V. Club/Ignatiy Vishnevetsky
p2685
g3
(g4
g5
NtRp2686
(dp2687
g8
g2685
sg9
VIgnatiy Vishnevetsky
p2688
sg11
S'http://www.metacritic.com/critic/ignatiy-vishnevetsky?filter=movies'
p2689
sg13
(dp2690
g136
F9.0999999999999996
sg158
F5.7999999999999998
sg64
F7.5
sg470
F5
ssg16
VThe A.V. Club
p2691
sg18
NsbsVRogerEbert.com/Simon Abrams
p2692
g3
(g4
g5
NtRp2693
(dp2694
g8
g2692
sg9
VSimon Abrams
p2695
sg11
S'http://www.metacritic.com/critic/simon-abrams?filter=movies'
p2696
sg13
(dp2697
g521
F8.8000000000000007
sg72
F7.5
ssg16
VRogerEbert.com
p2698
sg18
NsbsVL.A. Weekly/Kim Morgan
p2699
g3
(g4
g5
NtRp2700
(dp2701
g8
g2699
sg9
VKim Morgan
p2702
sg11
S'http://www.metacritic.com/critic?filter=movies'
p2703
sg13
(dp2704
g141
F9
sg124
F4
ssg16
VL.A. Weekly
p2705
sg18
NsbsVIndiewire/Sterlin Johnson
p2706
g3
(g4
g5
NtRp2707
(dp2708
g8
g2706
sg9
VSterlin Johnson
p2709
sg11
S'http://www.metacritic.com/critic?filter=movies'
p2710
sg13
(dp2711
g149
F6.7000000000000002
ssg16
VIndiewire
p2712
sg18
NsbsVNew Times (L.A.)/Bill Gallo
p2713
g3
(g4
g5
NtRp2714
(dp2715
g8
g2713
sg9
VBill Gallo
p2716
sg11
S'http://www.metacritic.com/critic/bill-gallo?filter=movies'
p2717
sg13
(dp2718
g290
F6
ssg16
VNew Times (L.A.)
p2719
sg18
NsbsVSalon.com/Charles Taylor
p2720
g3
(g4
g5
NtRp2721
(dp2722
g8
g2720
sg9
VCharles Taylor
p2723
sg11
S'http://www.metacritic.com/critic/charles-taylor?filter=movies'
p2724
sg13
(dp2725
g427
F4
sg119
F2
sg141
F6
sg103
F6
sg129
F9
sg125
F3
sg169
F9
sg290
F4
sg120
F1
sg168
F10
sg124
F10
ssg16
VSalon.com
p2726
sg18
NsbsVChicago Tribune/Katie Walsh
p2727
g3
(g4
g5
NtRp2728
(dp2729
g8
g2727
sg9
VKatie Walsh
p2730
sg11
S'http://www.metacritic.com/critic/katie-walsh?filter=movies'
p2731
sg13
(dp2732
g136
F8.8000000000000007
ssg16
VChicago Tribune
p2733
sg18
NsbsVScreen International/Tim Grierson
p2734
g3
(g4
g5
NtRp2735
(dp2736
g8
g2734
sg9
VTim Grierson
p2737
sg11
S'http://www.metacritic.com/critic/tim-grierson?filter=movies'
p2738
sg13
(dp2739
g136
F7
sg158
F7
sg132
F8
sg94
F10
sg152
F9
sg61
F10
sg74
F7
ssg16
VScreen International
p2740
sg18
NsbsVThe Guardian/Paul MacInnes
p2741
g3
(g4
g5
NtRp2742
(dp2743
g8
g2741
sg9
VPaul MacInnes
p2744
sg11
S'http://www.metacritic.com/critic?filter=movies'
p2745
sg13
(dp2746
g132
F10
ssg16
VThe Guardian
p2747
sg18
NsbsVDallas Observer/Hal Hinson
p2748
g3
(g4
g5
NtRp2749
(dp2750
g8
g2748
sg9
VHal Hinson
p2751
sg11
S'http://www.metacritic.com/critic?filter=movies'
p2752
sg13
(dp2753
g119
F5
ssg16
VDallas Observer
p2754
sg18
NsbsVTime Out New York/Geoff Andrew
p2755
g3
(g4
g5
NtRp2756
(dp2757
g8
g2755
sg9
VGeoff Andrew
p2758
sg11
S'http://www.metacritic.com/critic?filter=movies'
p2759
sg13
(dp2760
g217
F8
ssg16
VTime Out New York
p2761
sg18
NsbsVIndiewire/David Ehrlich
p2762
g3
(g4
g5
NtRp2763
(dp2764
g8
g2762
sg9
VDavid Ehrlich
p2765
sg11
S'http://www.metacritic.com/critic/david-ehrlich?filter=movies'
p2766
sg13
(dp2767
g470
F7.5
ssg16
VIndiewire
p2768
sg18
NsbsVTV Guide Magazine/Ken Fox
p2769
g3
(g4
g5
NtRp2770
(dp2771
g8
g2769
sg9
VKen Fox
p2772
sg11
S'http://www.metacritic.com/critic/ken-fox?filter=movies'
p2773
sg13
(dp2774
g680
F8
sg160
F10
sg157
F8.8000000000000007
sg143
F8
sg289
F8.8000000000000007
sg130
F10
sg166
F8.8000000000000007
sg169
F7
sg150
F7
sg134
F10
sg147
F8.8000000000000007
sg34
F10
sg168
F8
sg167
F6
ssg16
VTV Guide Magazine
p2775
sg18
NsbsVNew York Post/Rod Dreher
p2776
g3
(g4
g5
NtRp2777
(dp2778
g8
g2776
sg9
VRod Dreher
p2779
sg11
S'http://www.metacritic.com/critic?filter=movies'
p2780
sg13
(dp2781
g291
F10
sg125
F8.8000000000000007
sg119
F6.2999999999999998
ssg16
VNew York Post
p2782
sg18
NsbsVThe Film Stage/Dan Mecca
p2783
g3
(g4
g5
NtRp2784
(dp2785
g8
g2783
sg9
VDan Mecca
p2786
sg11
S'http://www.metacritic.com/critic?filter=movies'
p2787
sg13
(dp2788
g165
F8.3000000000000007
ssg16
VThe Film Stage
p2789
sg18
NsbsVThe Film Stage/Jordan Raup
p2790
g3
(g4
g5
NtRp2791
(dp2792
g8
g2790
sg9
VJordan Raup
p2793
sg11
S'http://www.metacritic.com/critic/jordan-raup?filter=movies'
p2794
sg13
(dp2795
g91
F9.0999999999999996
ssg16
VThe Film Stage
p2796
sg18
NsbsVTime Out New York/David Ehrlich
p2797
g3
(g4
g5
NtRp2798
(dp2799
g8
g2797
sg9
VDavid Ehrlich
p2800
sg11
S'http://www.metacritic.com/critic/david-ehrlich?filter=movies'
p2801
sg13
(dp2802
g158
F8
sg322
F6
sg521
F6
ssg16
VTime Out New York
p2803
sg18
NsbsVNew Orleans Times-Picayune/Mike Scott
p2804
g3
(g4
g5
NtRp2805
(dp2806
g8
g2804
sg9
VMike Scott
p2807
sg11
S'http://www.metacritic.com/critic/mike-scott?filter=movies'
p2808
sg13
(dp2809
g111
F10
sg112
F8
sg91
F10
sg115
F6
sg67
F10
sg162
F7.5
sg121
F8
sg123
F8
sg127
F6
sg128
F6
sg68
F10
sg132
F10
sg126
F7.5
sg61
F10
sg142
F10
sg138
F8.8000000000000007
sg144
F6
sg149
F8
sg70
F10
sg71
F8
sg151
F8.8000000000000007
sg153
F10
sg154
F10
sg62
F4
sg92
F10
sg513
F4
sg163
F10
sg60
F8
sg74
F10
sg75
F8
sg281
F8
ssg16
VNew Orleans Times-Picayune
p2810
sg18
NsbsVFilm Threat/Ellen Marshall
p2811
g3
(g4
g5
NtRp2812
(dp2813
g8
g2811
sg9
VEllen Marshall
p2814
sg11
S'http://www.metacritic.com/critic?filter=movies'
p2815
sg13
(dp2816
g130
F10
ssg16
VFilm Threat
p2817
sg18
NsbsVThe Playlist/Charlie Schmidilin
p2818
g3
(g4
g5
NtRp2819
(dp2820
g8
g2818
sg9
VCharlie Schmidilin
p2821
sg11
S'http://www.metacritic.com/critic?filter=movies'
p2822
sg13
(dp2823
g115
F8.3000000000000007
ssg16
VThe Playlist
p2824
sg18
NsbsVSalon.com/Stephanie Zacharek
p2825
g3
(g4
g5
NtRp2826
(dp2827
g8
g2825
sg9
VStephanie Zacharek
p2828
sg11
S'http://www.metacritic.com/critic/stephanie-zacharek?filter=movies'
p2829
sg13
(dp2830
g117
F9
sg680
F9
sg118
F1
sg130
F6
sg126
F9
sg135
F9
sg307
F9
sg134
F7
sg34
F8
sg155
F4
sg161
F5
sg113
F6
sg139
F5
sg143
F7
sg145
F9
sg147
F6
sg133
F8
sg702
F10
sg254
F9
sg156
F4
sg157
F10
sg159
F4
sg92
F5
sg164
F5
sg166
F5
sg167
F10
ssg16
VSalon.com
p2831
sg18
NsbsVArizona Republic/Randy Cordova
p2832
g3
(g4
g5
NtRp2833
(dp2834
g8
g2832
sg9
VRandy Cordova
p2835
sg11
S'http://www.metacritic.com/critic?filter=movies'
p2836
sg13
(dp2837
g137
F5
ssg16
VArizona Republic
p2838
sg18
NsbsVFilm.com/Sean Means
p2839
g3
(g4
g5
NtRp2840
(dp2841
g8
g2839
sg9
VSean Means
p2842
sg11
S'http://www.metacritic.com/critic/sean-means?filter=movies'
p2843
sg13
(dp2844
g119
F9
ssg16
VFilm.com
p2845
sg18
NsbsVTime Out New York/David Fear
p2846
g3
(g4
g5
NtRp2847
(dp2848
g8
g2846
sg9
VDavid Fear
p2849
sg11
S'http://www.metacritic.com/critic/david-fear?filter=movies'
p2850
sg13
(dp2851
g276
F6
sg144
F6
sg65
F6
sg132
F10
sg127
F8
ssg16
VTime Out New York
p2852
sg18
NsbsVSt. Louis Post-Dispatch/Joe Williams
p2853
g3
(g4
g5
NtRp2854
(dp2855
g8
g2853
sg9
VJoe Williams
p2856
sg11
S'http://www.metacritic.com/critic/joe-williams?filter=movies'
p2857
sg13
(dp2858
g137
F5
sg154
F5
sg113
F8.8000000000000007
sg62
F8.8000000000000007
sg127
F10
sg112
F10
sg279
F7.5
sg142
F10
sg138
F7.5
sg144
F10
sg128
F7.5
sg67
F8.8000000000000007
sg162
F6.2999999999999998
sg65
F8.8000000000000007
sg164
F7.5
sg557
F8.8000000000000007
sg151
F6.2999999999999998
sg115
F10
sg123
F8.8000000000000007
sg153
F8.8000000000000007
ssg16
VSt. Louis Post-Dispatch
p2859
sg18
NsbsVBoxoffice Magazine/Ray Greene
p2860
g3
(g4
g5
NtRp2861
(dp2862
g8
g2860
sg9
VRay Greene
p2863
sg11
S'http://www.metacritic.com/critic/ray-greene?filter=movies'
p2864
sg13
(dp2865
g153
F6
ssg16
VBoxoffice Magazine
p2866
sg18
NsbsVTotal Film/Tom Dawson
p2867
g3
(g4
g5
NtRp2868
(dp2869
g8
g2867
sg9
VTom Dawson
p2870
sg11
S'http://www.metacritic.com/critic/tom-dawson?filter=movies'
p2871
sg13
(dp2872
g279
F8
sg276
F8
ssg16
VTotal Film
p2873
sg18
NsbsVHitfix/Gregory Ellwood
p2874
g3
(g4
g5
NtRp2875
(dp2876
g8
g2874
sg9
VGregory Ellwood
p2877
sg11
S'http://www.metacritic.com/critic/gregory-ellwood?filter=movies'
p2878
sg13
(dp2879
g158
F10
sg122
F8.3000000000000007
sg93
F10
sg149
F9.0999999999999996
sg152
F8.3000000000000007
sg216
F10
sg74
F10
sg75
F8.3000000000000007
ssg16
VHitfix
p2880
sg18
NsbsVThe Globe and Mail (Toronto)/Kiva Reardon
p2881
g3
(g4
g5
NtRp2882
(dp2883
g8
g2881
sg9
VKiva Reardon
p2884
sg11
S'http://www.metacritic.com/critic?filter=movies'
p2885
sg13
(dp2886
g281
F10
ssg16
VThe Globe and Mail (Toronto)
p2887
sg18
NsbsVThe Dissolve/Scott Tobias
p2888
g3
(g4
g5
NtRp2889
(dp2890
g8
g2888
sg9
VScott Tobias
p2891
sg11
S'http://www.metacritic.com/critic/scott-tobias?filter=movies'
p2892
sg13
(dp2893
g127
F10
sg63
F9
sg142
F9
sg215
F8
sg277
F6
sg68
F3
sg65
F9
sg132
F9
sg73
F9
sg322
F8
sg158
F3
sg281
F8
ssg16
VThe Dissolve
p2894
sg18
NsbsVNew York Daily News/Joe Neumaier
p2895
g3
(g4
g5
NtRp2896
(dp2897
g8
g2895
sg9
VJoe Neumaier
p2898
sg11
S'http://www.metacritic.com/critic/joe-neumaier?filter=movies'
p2899
sg13
(dp2900
g111
F8
sg112
F8
sg276
F6
sg115
F8
sg121
F10
sg122
F8
sg123
F8
sg67
F10
sg132
F10
sg134
F8
sg126
F5
sg139
F10
sg142
F6
sg138
F8
sg144
F8
sg70
F10
sg153
F10
sg154
F8
sg279
F8
sg158
F8
sg65
F8
sg163
F10
sg164
F6
sg513
F10
sg281
F8
ssg16
VNew York Daily News
p2901
sg18
NsbsVThe Film Stage/Daniel Schindel
p2902
g3
(g4
g5
NtRp2903
(dp2904
g8
g2902
sg9
VDaniel Schindel
p2905
sg11
S'http://www.metacritic.com/critic/daniel-schindel?filter=movies'
p2906
sg13
(dp2907
g15
F6.7000000000000002
sg64
F9.0999999999999996
ssg16
VThe Film Stage
p2908
sg18
NsbsVThe New Republic/Stanley Kauffmann
p2909
g3
(g4
g5
NtRp2910
(dp2911
g8
g2909
sg9
VStanley Kauffmann
p2912
sg11
S'http://www.metacritic.com/critic/stanley-kauffmann?filter=movies'
p2913
sg13
(dp2914
g306
F5
sg206
F4
sg51
F10
sg143
F10
sg130
F7
sg166
F10
sg169
F7
sg141
F8
sg148
F8
sg671
F3
sg34
F9
sg35
F6
sg168
F8
sg672
F8
sg167
F9
ssg16
VThe New Republic
p2915
sg18
NsbsVPortland Oregonian/Stan Hall
p2916
g3
(g4
g5
NtRp2917
(dp2918
g8
g2916
sg9
VStan Hall
p2919
sg11
S'http://www.metacritic.com/critic/stan-hall?filter=movies'
p2920
sg13
(dp2921
g279
F8.3000000000000007
ssg16
VPortland Oregonian
p2922
sg18
NsbsVAustin Chronicle/Joey O'Bryan
p2923
g3
(g4
g5
NtRp2924
(dp2925
g8
g2923
sg9
VJoey O'Bryan
p2926
sg11
S'http://www.metacritic.com/critic?filter=movies'
p2927
sg13
(dp2928
g43
F8.9000000000000004
ssg16
VAustin Chronicle
p2929
sg18
NsbsVDallas Observer/Robert Wilonsky
p2930
g3
(g4
g5
NtRp2931
(dp2932
g8
g2930
sg9
VRobert Wilonsky
p2933
sg11
S'http://www.metacritic.com/critic/robert-wilonsky?filter=movies'
p2934
sg13
(dp2935
g427
F3
sg159
F4
sg103
F4
sg143
F10
sg145
F7
sg130
F10
sg155
F1
sg124
F5
ssg16
VDallas Observer
p2936
sg18
NsbsVFilm.com/Peter Brunette
p2937
g3
(g4
g5
NtRp2938
(dp2939
g8
g2937
sg9
VPeter Brunette
p2940
sg11
S'http://www.metacritic.com/critic/peter-brunette?filter=movies'
p2941
sg13
(dp2942
g680
F9
sg291
F9
sg119
F10
sg125
F8
ssg16
VFilm.com
p2943
sg18
NsbsVMr. Showbiz/Richard T. Jameson
p2944
g3
(g4
g5
NtRp2945
(dp2946
g8
g2944
sg9
VRichard T. Jameson
p2947
sg11
S'http://www.metacritic.com/critic?filter=movies'
p2948
sg13
(dp2949
g148
F9
ssg16
VMr. Showbiz
p2950
sg18
NsbsVFilm Threat/Chris Barsanti
p2951
g3
(g4
g5
NtRp2952
(dp2953
g8
g2951
sg9
VChris Barsanti
p2954
sg11
S'http://www.metacritic.com/critic?filter=movies'
p2955
sg13
(dp2956
g254
F10
ssg16
VFilm Threat
p2957
sg18
NsbsVTheWrap/Dave White
p2958
g3
(g4
g5
NtRp2959
(dp2960
g8
g2958
sg9
VDave White
p2961
sg11
S'http://www.metacritic.com/critic/dave-white?filter=movies'
p2962
sg13
(dp2963
g69
F9.5
sg75
F9
ssg16
VTheWrap
p2964
sg18
NsbsVConsequence of Sound/Sarah Kurchak
p2965
g3
(g4
g5
NtRp2966
(dp2967
g8
g2965
sg9
VSarah Kurchak
p2968
sg11
S'http://www.metacritic.com/critic/sarah-kurchak?filter=movies'
p2969
sg13
(dp2970
g90
F6.7000000000000002
sg177
F9.0999999999999996
sg60
F10
ssg16
VConsequence of Sound
p2971
sg18
NsbsVCharlotte Observer/Lawrence Toppman
p2972
g3
(g4
g5
NtRp2973
(dp2974
g8
g2972
sg9
VLawrence Toppman
p2975
sg11
S'http://www.metacritic.com/critic/lawrence-toppman?filter=movies'
p2976
sg13
(dp2977
g111
F8.8000000000000007
sg115
F8.8000000000000007
sg117
F10
sg67
F10
sg118
F6.2999999999999998
sg120
F3.7999999999999998
sg121
F8.8000000000000007
sg93
F8.8000000000000007
sg122
F6.2999999999999998
sg123
F8.8000000000000007
sg124
F8.8000000000000007
sg160
F6.2999999999999998
sg127
F10
sg103
F2.5
sg64
F7.5
sg128
F7.5
sg129
F7.5
sg130
F7.5
sg68
F8.3000000000000007
sg132
F10
sg133
F8.8000000000000007
sg307
F7.5
sg134
F8.8000000000000007
sg33
F10
sg61
F8.8000000000000007
sg322
F9.0999999999999996
sg135
F7.5
sg427
F3.7999999999999998
sg137
F6.2999999999999998
sg143
F7.5
sg139
F10
sg141
F10
sg142
F8.3000000000000007
sg138
F6.2999999999999998
sg144
F7.5
sg145
F7.5
sg146
F7.5
sg147
F8.8000000000000007
sg70
F10
sg177
F7.5
sg165
F8.8000000000000007
sg150
F10
sg151
F8.8000000000000007
sg702
F10
sg153
F8.8000000000000007
sg154
F10
sg155
F3.7999999999999998
sg156
F5
sg157
F10
sg158
F9.0999999999999996
sg159
F10
sg74
F10
sg291
F8.8000000000000007
sg163
F10
sg60
F5
sg166
F10
sg253
F3.7999999999999998
sg161
F7.5
sg168
F8.8000000000000007
sg75
F8.8000000000000007
sg167
F6.2999999999999998
ssg16
VCharlotte Observer
p2978
sg18
NsbsVSt. Louis Post-Dispatch/Calvin Wilson
p2979
g3
(g4
g5
NtRp2980
(dp2981
g8
g2979
sg9
VCalvin Wilson
p2982
sg11
S'http://www.metacritic.com/critic/calvin-wilson?filter=movies'
p2983
sg13
(dp2984
g111
F10
sg91
F10
sg121
F10
sg122
F8.8000000000000007
sg64
F8.8000000000000007
sg165
F8.8000000000000007
sg68
F10
sg132
F10
sg94
F10
sg61
F8.8000000000000007
sg136
F8.8000000000000007
sg69
F8.8000000000000007
sg177
F8.8000000000000007
sg71
F10
sg152
F10
sg90
F10
sg158
F10
sg149
F10
sg513
F8.8000000000000007
sg163
F10
sg60
F8.8000000000000007
sg74
F8.8000000000000007
sg75
F8.8000000000000007
ssg16
VSt. Louis Post-Dispatch
p2985
sg18
NsbsVEmpire/Nev Pierce
p2986
g3
(g4
g5
NtRp2987
(dp2988
g8
g2986
sg9
VNev Pierce
p2989
sg11
S'http://www.metacritic.com/critic?filter=movies'
p2990
sg13
(dp2991
g151
F10
sg152
F8
sg144
F10
sg153
F8
ssg16
VEmpire
p2992
sg18
NsbsVSlant Magazine/Calum Marsh
p2993
g3
(g4
g5
NtRp2994
(dp2995
g8
g2993
sg9
VCalum Marsh
p2996
sg11
S'http://www.metacritic.com/critic?filter=movies'
p2997
sg13
(dp2998
g121
F5
sg115
F5
ssg16
VSlant Magazine
p2999
sg18
NsbsVVariety/Leonard Klady
p3000
g3
(g4
g5
NtRp3001
(dp3002
g8
g3000
sg9
VLeonard Klady
p3003
sg11
S'http://www.metacritic.com/critic?filter=movies'
p3004
sg13
(dp3005
g148
F9
ssg16
VVariety
p3006
sg18
NsbsVThe Guardian/Caspar Llewellyn Smith
p3007
g3
(g4
g5
NtRp3008
(dp3009
g8
g3007
sg9
VCaspar Llewellyn Smith
p3010
sg11
S'http://www.metacritic.com/critic?filter=movies'
p3011
sg13
(dp3012
g95
F6
ssg16
VThe Guardian
p3013
sg18
NsbsVWashington Post/Stephen Hunter
p3014
g3
(g4
g5
NtRp3015
(dp3016
g8
g3014
sg9
VStephen Hunter
p3017
sg11
S'http://www.metacritic.com/critic/stephen-hunter?filter=movies'
p3018
sg13
(dp3019
g427
F3
sg306
F9
sg119
F2
sg139
F7
sg155
F2
sg145
F7
sg125
F7
sg146
F5
sg130
F10
sg131
F1
sg254
F6
sg33
F9
sg169
F9
sg289
F8
sg307
F8
sg120
F2
sg129
F10
sg168
F10
sg167
F9
ssg16
VWashington Post
p3020
sg18
NsbsVLos Angeles Times/Justin Chang
p3021
g3
(g4
g5
NtRp3022
(dp3023
g8
g3021
sg9
VJustin Chang
p3024
sg11
S'http://www.metacritic.com/critic/justin-chang?filter=movies'
p3025
sg13
(dp3026
g90
F9
sg64
F6
sg69
F10
sg470
F6
sg94
F10
sg165
F5
sg75
F8
ssg16
VLos Angeles Times
p3027
sg18
NsbsVWe Got This Covered/Josh Cabrita
p3028
g3
(g4
g5
NtRp3029
(dp3030
g8
g3028
sg9
VJosh Cabrita
p3031
sg11
S'http://www.metacritic.com/critic/josh-cabrita?filter=movies'
p3032
sg13
(dp3033
g69
F10
ssg16
VWe Got This Covered
p3034
sg18
NsbsVArizona Republic/Kerry Lengel
p3035
g3
(g4
g5
NtRp3036
(dp3037
g8
g3035
sg9
VKerry Lengel
p3038
sg11
S'http://www.metacritic.com/critic/kerry-lengel?filter=movies'
p3039
sg13
(dp3040
g138
F8
ssg16
VArizona Republic
p3041
sg18
NsbsVThe Globe and Mail (Toronto)/Johanna Schneller
p3042
g3
(g4
g5
NtRp3043
(dp3044
g8
g3042
sg9
VJohanna Schneller
p3045
sg11
S'http://www.metacritic.com/critic?filter=movies'
p3046
sg13
(dp3047
g165
F6.2999999999999998
ssg16
VThe Globe and Mail (Toronto)
p3048
sg18
NsbsVRogerEbert.com/Peter Sobczynski
p3049
g3
(g4
g5
NtRp3050
(dp3051
g8
g3049
sg9
VPeter Sobczynski
p3052
sg11
S'http://www.metacritic.com/critic/peter-sobczynski?filter=movies'
p3053
sg13
(dp3054
g322
F8.8000000000000007
ssg16
VRogerEbert.com
p3055
sg18
NsbsVVariety/Brian Lowry
p3056
g3
(g4
g5
NtRp3057
(dp3058
g8
g3056
sg9
VBrian Lowry
p3059
sg11
S'http://www.metacritic.com/critic/brian-lowry?filter=movies'
p3060
sg13
(dp3061
g155
F6
ssg16
VVariety
p3062
sg18
NsbsVThe Hollywood Reporter/Michael Rechtshaffen
p3063
g3
(g4
g5
NtRp3064
(dp3065
g8
g3063
sg9
VMichael Rechtshaffen
p3066
sg11
S'http://www.metacritic.com/critic/michael-rechtshaffen?filter=movies'
p3067
sg13
(dp3068
g118
F6
sg155
F4
sg126
F9
sg92
F10
sg137
F8
ssg16
VThe Hollywood Reporter
p3069
sg18
NsbsVLos Angeles Times/Sam Adams
p3070
g3
(g4
g5
NtRp3071
(dp3072
g8
g3070
sg9
VSam Adams
p3073
sg11
S'http://www.metacritic.com/critic?filter=movies'
p3074
sg13
(dp3075
g156
F6
ssg16
VLos Angeles Times
p3076
sg18
NsbsVBoston Globe/Ty Burr
p3077
g3
(g4
g5
NtRp3078
(dp3079
g8
g3077
sg9
VTy Burr
p3080
sg11
S'http://www.metacritic.com/critic/ty-burr?filter=movies'
p3081
sg13
(dp3082
g306
F8.8000000000000007
sg111
F10
sg25
F8.8000000000000007
sg114
F3.7999999999999998
sg33
F8.8000000000000007
sg116
F10
sg67
F8.8000000000000007
sg113
F6.2999999999999998
sg74
F10
sg121
F10
sg93
F8.8000000000000007
sg122
F6.2999999999999998
sg124
F6.2999999999999998
sg126
F7.5
sg127
F10
sg169
F8.8000000000000007
sg64
F6.2999999999999998
sg215
F10
sg128
F6.2999999999999998
sg129
F10
sg130
F8.8000000000000007
sg68
F10
sg419
F8.8000000000000007
sg132
F10
sg135
F10
sg94
F10
sg134
F10
sg470
F7.5
sg34
F8.8000000000000007
sg61
F10
sg136
F7.5
sg137
F3.7999999999999998
sg138
F7.5
sg69
F8.8000000000000007
sg139
F7.5
sg141
F10
sg142
F8.8000000000000007
sg143
F7.5
sg144
F8.8000000000000007
sg145
F7.5
sg146
F10
sg147
F7.5
sg289
F8.8000000000000007
sg149
F8.8000000000000007
sg70
F8.8000000000000007
sg177
F10
sg71
F8.8000000000000007
sg91
F10
sg150
F8.8000000000000007
sg152
F10
sg216
F7.5
sg217
F8.8000000000000007
sg154
F8.8000000000000007
sg62
F8.8000000000000007
sg279
F8.8000000000000007
sg158
F6.2999999999999998
sg159
F7.5
sg92
F10
sg95
F7.5
sg160
F10
sg65
F8.8000000000000007
sg163
F10
sg164
F8.8000000000000007
sg72
F8.8000000000000007
sg166
F8.8000000000000007
sg513
F8.8000000000000007
sg167
F10
sg168
F10
sg281
F8.8000000000000007
ssg16
VBoston Globe
p3083
sg18
NsbsVThe Hollywood Reporter/Leslie Felperin
p3084
g3
(g4
g5
NtRp3085
(dp3086
g8
g3084
sg9
VLeslie Felperin
p3087
sg11
S'http://www.metacritic.com/critic/leslie-felperin?filter=movies'
p3088
sg13
(dp3089
g25
F10
sg215
F10
sg280
F8
sg69
F10
sg557
F9
sg165
F5
sg75
F9
ssg16
VThe Hollywood Reporter
p3090
sg18
NsbsVLos Angeles Times/Michael Rechtshaffen
p3091
g3
(g4
g5
NtRp3092
(dp3093
g8
g3091
sg9
VMichael Rechtshaffen
p3094
sg11
S'http://www.metacritic.com/critic/michael-rechtshaffen?filter=movies'
p3095
sg13
(dp3096
g521
F8
ssg16
VLos Angeles Times
p3097
sg18
NsbsVSan Francisco Chronicle/Steve Rubenstein
p3098
g3
(g4
g5
NtRp3099
(dp3100
g8
g3098
sg9
VSteve Rubenstein
p3101
sg11
S'http://www.metacritic.com/critic?filter=movies'
p3102
sg13
(dp3103
g72
F5
ssg16
VSan Francisco Chronicle
p3104
sg18
NsbsVSan Francisco Chronicle/Peter Stack
p3105
g3
(g4
g5
NtRp3106
(dp3107
g8
g3105
sg9
VPeter Stack
p3108
sg11
S'http://www.metacritic.com/critic/peter-stack?filter=movies'
p3109
sg13
(dp3110
g148
F10
sg51
F10
ssg16
VSan Francisco Chronicle
p3111
sg18
NsbsVLos Angeles Times/Sheri Linden
p3112
g3
(g4
g5
NtRp3113
(dp3114
g8
g3112
sg9
VSheri Linden
p3115
sg11
S'http://www.metacritic.com/critic/sheri-linden?filter=movies'
p3116
sg13
(dp3117
g279
F8
sg278
F7
sg513
F10
ssg16
VLos Angeles Times
p3118
sg18
NsbsVThe Globe and Mail (Toronto)/Jeff Gray
p3119
g3
(g4
g5
NtRp3120
(dp3121
g8
g3119
sg9
VJeff Gray
p3122
sg11
S'http://www.metacritic.com/critic?filter=movies'
p3123
sg13
(dp3124
g125
F5
ssg16
VThe Globe and Mail (Toronto)
p3125
sg18
NsbsVNew York Post/Lou Lumenick
p3126
g3
(g4
g5
NtRp3127
(dp3128
g8
g3126
sg9
VLou Lumenick
p3129
sg11
S'http://www.metacritic.com/critic/lou-lumenick?filter=movies'
p3130
sg13
(dp3131
g111
F10
sg136
F8.8000000000000007
sg115
F8.8000000000000007
sg117
F10
sg67
F10
sg118
F5
sg113
F8.8000000000000007
sg120
F6.2999999999999998
sg165
F8.8000000000000007
sg124
F8.8000000000000007
sg127
F6.2999999999999998
sg103
F10
sg64
F7.5
sg128
F7.5
sg130
F8.8000000000000007
sg68
F8.8000000000000007
sg132
F10
sg135
F10
sg134
F10
sg33
F10
sg34
F8.8000000000000007
sg161
F8.8000000000000007
sg427
F6.2999999999999998
sg137
F5
sg143
F10
sg138
F7.5
sg144
F10
sg145
F8.8000000000000007
sg146
F10
sg147
F7.5
sg70
F10
sg169
F7.5
sg151
F10
sg152
F8.8000000000000007
sg290
F7.5
sg702
F10
sg154
F7.5
sg254
F7.5
sg157
F10
sg158
F8.8000000000000007
sg92
F10
sg65
F7.5
sg163
F10
sg164
F8.8000000000000007
sg74
F10
sg167
F10
ssg16
VNew York Post
p3132
sg18
NsbsVVariety/l
p3133
g3
(g4
g5
NtRp3134
(dp3135
g8
g3133
sg9
Vl
sg11
S'http://www.metacritic.com/critic?filter=movies'
p3136
sg13
(dp3137
g35
F5
ssg16
VVariety
p3138
sg18
NsbsVTime Out London/Tom Huddleston
p3139
g3
(g4
g5
NtRp3140
(dp3141
g8
g3139
sg9
VTom Huddleston
p3142
sg11
S'http://www.metacritic.com/critic/tom-huddleston?filter=movies'
p3143
sg13
(dp3144
g132
F10
sg67
F8
sg281
F8
ssg16
VTime Out London
p3145
sg18
NsbsVWashington Post/John Anderson
p3146
g3
(g4
g5
NtRp3147
(dp3148
g8
g3146
sg9
VJohn Anderson
p3149
sg11
S'http://www.metacritic.com/critic?filter=movies'
p3150
sg13
(dp3151
g134
F10
ssg16
VWashington Post
p3152
sg18
NsbsVSan Francisco Examiner/Wesley Morris
p3153
g3
(g4
g5
NtRp3154
(dp3155
g8
g3153
sg9
VWesley Morris
p3156
sg11
S'http://www.metacritic.com/critic/wesley-morris?filter=movies'
p3157
sg13
(dp3158
g427
F7.5
sg125
F7.5
sg119
F6.2999999999999998
sg103
F10
sg206
F10
sg291
F6.2999999999999998
ssg16
VSan Francisco Examiner
p3159
sg18
NsbsVCineVue/Patrick Gamble
p3160
g3
(g4
g5
NtRp3161
(dp3162
g8
g3160
sg9
VPatrick Gamble
p3163
sg11
S'http://www.metacritic.com/critic/patrick-gamble?filter=movies'
p3164
sg13
(dp3165
g216
F6
ssg16
VCineVue
p3166
sg18
NsbsVThe Hollywood Reporter/Stephen Dalton
p3167
g3
(g4
g5
NtRp3168
(dp3169
g8
g3167
sg9
VStephen Dalton
p3170
sg11
S'http://www.metacritic.com/critic?filter=movies'
p3171
sg13
(dp3172
g279
F7
sg277
F8
sg177
F7
sg216
F8
ssg16
VThe Hollywood Reporter
p3173
sg18
NsbsVConsequence of Sound/Michael Roffman
p3174
g3
(g4
g5
NtRp3175
(dp3176
g8
g3174
sg9
VMichael Roffman
p3177
sg11
S'http://www.metacritic.com/critic/michael-roffman?filter=movies'
p3178
sg13
(dp3179
g64
F8.3000000000000007
sg122
F10
sg75
F8.3000000000000007
ssg16
VConsequence of Sound
p3180
sg18
NsbsVVariety/Ella Taylor
p3181
g3
(g4
g5
NtRp3182
(dp3183
g8
g3181
sg9
VElla Taylor
p3184
sg11
S'http://www.metacritic.com/critic/ella-taylor?filter=movies'
p3185
sg13
(dp3186
g15
F8
ssg16
VVariety
p3187
sg18
NsbsVMiami Herald/Rene Rodriguez
p3188
g3
(g4
g5
NtRp3189
(dp3190
g8
g3188
sg9
VRene Rodriguez
p3191
sg11
S'http://www.metacritic.com/critic/rene-rodriguez?filter=movies'
p3192
sg13
(dp3193
g111
F8.8000000000000007
sg112
F7.5
sg91
F10
sg277
F8.8000000000000007
sg117
F10
sg67
F8.8000000000000007
sg680
F6.2999999999999998
sg118
F5
sg113
F10
sg120
F5
sg121
F10
sg73
F8.8000000000000007
sg35
F7.5
sg122
F8.8000000000000007
sg123
F10
sg124
F7.5
sg160
F10
sg126
F7.5
sg127
F10
sg135
F8.8000000000000007
sg103
F7.5
sg64
F6.2999999999999998
sg215
F10
sg128
F7.5
sg129
F8.8000000000000007
sg130
F8.8000000000000007
sg68
F8.8000000000000007
sg132
F10
sg133
F8.8000000000000007
sg94
F10
sg134
F10
sg33
F10
sg34
F8.8000000000000007
sg61
F10
sg322
F8.8000000000000007
sg115
F5
sg702
F7.5
sg164
F6.2999999999999998
sg137
F5
sg143
F10
sg139
F8.8000000000000007
sg141
F10
sg138
F7.5
sg144
F10
sg145
F7.5
sg146
F10
sg147
F6.2999999999999998
sg70
F7.5
sg177
F8.8000000000000007
sg71
F10
sg150
F8.8000000000000007
sg151
F8.8000000000000007
sg161
F10
sg152
F10
sg216
F7.5
sg290
F8.8000000000000007
sg217
F7.5
sg153
F8.8000000000000007
sg90
F7.5
sg254
F7.5
sg43
F7.5
sg156
F7.5
sg157
F7.5
sg159
F7.5
sg92
F10
sg74
F10
sg291
F8.8000000000000007
sg65
F8.8000000000000007
sg163
F10
sg75
F8.8000000000000007
sg72
F8.8000000000000007
sg166
F10
sg253
F5
sg167
F8.8000000000000007
sg168
F8.8000000000000007
sg60
F7.5
sg169
F6.2999999999999998
ssg16
VMiami Herald
p3194
sg18
NsbsVSlant Magazine/None
p3195
g3
(g4
g5
NtRp3196
(dp3197
g8
g3195
sg9
Nsg11
Nsg13
(dp3198
g279
F8.8000000000000007
ssg16
VSlant Magazine
p3199
sg18
NsbsVVariety/Leslie Felperin
p3200
g3
(g4
g5
NtRp3201
(dp3202
g8
g3200
sg9
VLeslie Felperin
p3203
sg11
S'http://www.metacritic.com/critic?filter=movies'
p3204
sg13
(dp3205
g135
F9
ssg16
VVariety
p3206
sg18
NsbsVVillage Voice/Karina Longworth
p3207
g3
(g4
g5
NtRp3208
(dp3209
g8
g3207
sg9
VKarina Longworth
p3210
sg11
S'http://www.metacritic.com/critic?filter=movies'
p3211
sg13
(dp3212
g162
F7
sg115
F9
sg138
F8
sg153
F5
ssg16
VVillage Voice
p3213
sg18
NsbsVPremiere/Kelly Borgeson
p3214
g3
(g4
g5
NtRp3215
(dp3216
g8
g3214
sg9
VKelly Borgeson
p3217
sg11
S'http://www.metacritic.com/critic/kelly-borgeson?filter=movies'
p3218
sg13
(dp3219
g118
F7.5
ssg16
VPremiere
p3220
sg18
NsbsVEmpire/Angie Errigo
p3221
g3
(g4
g5
NtRp3222
(dp3223
g8
g3221
sg9
VAngie Errigo
p3224
sg11
S'http://www.metacritic.com/critic/angie-errigo?filter=movies'
p3225
sg13
(dp3226
g131
F10
sg149
F8
sg124
F8
ssg16
VEmpire
p3227
sg18
NsbsVThe New Yorker/Richard Brody
p3228
g3
(g4
g5
NtRp3229
(dp3230
g8
g3228
sg9
VRichard Brody
p3231
sg11
S'http://www.metacritic.com/critic/richard-brody?filter=movies'
p3232
sg13
(dp3233
g149
F3
sg61
F10
ssg16
VThe New Yorker
p3234
sg18
NsbsVHitfix/Guy Lodge
p3235
g3
(g4
g5
NtRp3236
(dp3237
g8
g3235
sg9
VGuy Lodge
p3238
sg11
S'http://www.metacritic.com/critic?filter=movies'
p3239
sg13
(dp3240
g277
F6.7000000000000002
ssg16
VHitfix
p3241
sg18
NsbsVEmpire/Helen O'Hara
p3242
g3
(g4
g5
NtRp3243
(dp3244
g8
g3242
sg9
VHelen O'Hara
p3245
sg11
S'http://www.metacritic.com/critic/helen-ohara?filter=movies'
p3246
sg13
(dp3247
g289
F8
sg165
F8
sg94
F8
sg161
F10
ssg16
VEmpire
p3248
sg18
NsbsVThe Guardian/Catherine Shoard
p3249
g3
(g4
g5
NtRp3250
(dp3251
g8
g3249
sg9
VCatherine Shoard
p3252
sg11
S'http://www.metacritic.com/critic/catherine-shoard?filter=movies'
p3253
sg13
(dp3254
g60
F10
ssg16
VThe Guardian
p3255
sg18
NsbsVLos Angeles Times/Charles Solomon
p3256
g3
(g4
g5
NtRp3257
(dp3258
g8
g3256
sg9
VCharles Solomon
p3259
sg11
S'http://www.metacritic.com/critic/charles-solomon?filter=movies'
p3260
sg13
(dp3261
g217
F4
ssg16
VLos Angeles Times
p3262
sg18
NsbsVVariety/Justin Chang
p3263
g3
(g4
g5
NtRp3264
(dp3265
g8
g3263
sg9
VJustin Chang
p3266
sg11
S'http://www.metacritic.com/critic/justin-chang?filter=movies'
p3267
sg13
(dp3268
g91
F10
sg139
F10
sg279
F6
sg144
F9
sg142
F10
sg157
F10
sg117
F8
sg67
F10
sg93
F9
sg276
F8
sg163
F10
sg63
F10
sg151
F10
sg152
F10
sg74
F9
sg115
F9
ssg16
VVariety
p3269
sg18
NsbsVThe Globe and Mail (Toronto)/Liam Lacey
p3270
g3
(g4
g5
NtRp3271
(dp3272
g8
g3270
sg9
VLiam Lacey
p3273
sg11
S'http://www.metacritic.com/critic/liam-lacey?filter=movies'
p3274
sg13
(dp3275
g111
F7.5
sg112
F6.2999999999999998
sg114
F6.2999999999999998
sg276
F10
sg63
F10
sg115
F10
sg117
F10
sg67
F10
sg120
F5
sg124
F6.2999999999999998
sg127
F8.8000000000000007
sg215
F8.8000000000000007
sg128
F6.2999999999999998
sg129
F7.5
sg68
F7.5
sg132
F10
sg134
F10
sg33
F7.5
sg161
F8.8000000000000007
sg119
F10
sg139
F7.5
sg142
F8.8000000000000007
sg150
F6.2999999999999998
sg217
F7.5
sg126
F5
sg157
F8.8000000000000007
sg159
F6.2999999999999998
sg160
F8.8000000000000007
sg65
F10
sg168
F8.8000000000000007
sg167
F7.5
ssg16
VThe Globe and Mail (Toronto)
p3276
sg18
NsbsVTime Out London/Cath Clarke
p3277
g3
(g4
g5
NtRp3278
(dp3279
g8
g3277
sg9
VCath Clarke
p3280
sg11
S'http://www.metacritic.com/critic/cath-clarke?filter=movies'
p3281
sg13
(dp3282
g68
F10
sg127
F8
sg521
F8
sg72
F8
ssg16
VTime Out London
p3283
sg18
NsbsVLos Angeles Times/Sheila Benson
p3284
g3
(g4
g5
NtRp3285
(dp3286
g8
g3284
sg9
VSheila Benson
p3287
sg11
S'http://www.metacritic.com/critic/sheila-benson?filter=movies'
p3288
sg13
(dp3289
g671
F9
ssg16
VLos Angeles Times
p3290
sg18
NsbsVThe Dissolve/Keith Phipps
p3291
g3
(g4
g5
NtRp3292
(dp3293
g8
g3291
sg9
VKeith Phipps
p3294
sg11
S'http://www.metacritic.com/critic/keith-phipps?filter=movies'
p3295
sg13
(dp3296
g62
F9
sg71
F9
sg67
F9
ssg16
VThe Dissolve
p3297
sg18
NsbsVNew Times (L.A.)/Andy Klein
p3298
g3
(g4
g5
NtRp3299
(dp3300
g8
g3298
sg9
VAndy Klein
p3301
sg11
S'http://www.metacritic.com/critic/andy-klein?filter=movies'
p3302
sg13
(dp3303
g307
F9
ssg16
VNew Times (L.A.)
p3304
sg18
NsbsVSan Francisco Chronicle/Edward Guthmann
p3305
g3
(g4
g5
NtRp3306
(dp3307
g8
g3305
sg9
VEdward Guthmann
p3308
sg11
S'http://www.metacritic.com/critic/edward-guthmann?filter=movies'
p3309
sg13
(dp3310
g680
F7.5
sg291
F10
sg167
F10
ssg16
VSan Francisco Chronicle
p3311
sg18
NsbsVBaltimore Sun/Chris Kaltenbach
p3312
g3
(g4
g5
NtRp3313
(dp3314
g8
g3312
sg9
VChris Kaltenbach
p3315
sg11
S'http://www.metacritic.com/critic/chris-kaltenbach?filter=movies'
p3316
sg13
(dp3317
g289
F9.0999999999999996
sg141
F10
sg680
F8.8000000000000007
sg118
F5
sg133
F6.7000000000000002
sg150
F8.8000000000000007
sg120
F3.7999999999999998
sg155
F2.5
sg290
F6.2999999999999998
sg124
F6.2999999999999998
ssg16
VBaltimore Sun
p3318
sg18
NsbsVEmpire/David Eimer
p3319
g3
(g4
g5
NtRp3320
(dp3321
g8
g3319
sg9
VDavid Eimer
p3322
sg11
S'http://www.metacritic.com/critic?filter=movies'
p3323
sg13
(dp3324
g52
F4
ssg16
VEmpire
p3325
sg18
NsbsVTotal Film/Emma Dibdin
p3326
g3
(g4
g5
NtRp3327
(dp3328
g8
g3326
sg9
VEmma Dibdin
p3329
sg11
S'http://www.metacritic.com/critic/emma-dibdin?filter=movies'
p3330
sg13
(dp3331
g115
F10
sg132
F8
sg127
F8
ssg16
VTotal Film
p3332
sg18
NsbsVChicago Sun-Times/Bill Stamets
p3333
g3
(g4
g5
NtRp3334
(dp3335
g8
g3333
sg9
VBill Stamets
p3336
sg11
S'http://www.metacritic.com/critic/bill-stamets?filter=movies'
p3337
sg13
(dp3338
g215
F8.8000000000000007
sg322
F8.8000000000000007
sg281
F10
ssg16
VChicago Sun-Times
p3339
sg18
NsbsVThe Dissolve/Noel Murray
p3340
g3
(g4
g5
NtRp3341
(dp3342
g8
g3340
sg9
VNoel Murray
p3343
sg11
S'http://www.metacritic.com/critic/noel-murray?filter=movies'
p3344
sg13
(dp3345
g25
F8
sg557
F8
ssg16
VThe Dissolve
p3346
sg18
NsbsVConsequence of Sound/Nico Lang
p3347
g3
(g4
g5
NtRp3348
(dp3349
g8
g3347
sg9
VNico Lang
p3350
sg11
S'http://www.metacritic.com/critic/nico-lang?filter=movies'
p3351
sg13
(dp3352
g69
F10
sg61
F10
sg94
F9.0999999999999996
ssg16
VConsequence of Sound
p3353
sg18
NsbsVAustin Chronicle/Marc Savlov
p3354
g3
(g4
g5
NtRp3355
(dp3356
g8
g3354
sg9
VMarc Savlov
p3357
sg11
S'http://www.metacritic.com/critic/marc-savlov?filter=movies'
p3358
sg13
(dp3359
g306
F8.9000000000000004
sg136
F7.7999999999999998
sg114
F3
sg118
F4
sg113
F6.7000000000000002
sg52
F2
sg120
F2
sg93
F8.9000000000000004
sg125
F7.7999999999999998
sg103
F6.7000000000000002
sg215
F8.9000000000000004
sg67
F8.9000000000000004
sg521
F7.7999999999999998
sg129
F8.9000000000000004
sg419
F8.9000000000000004
sg33
F7.7999999999999998
sg135
F8.9000000000000004
sg148
F8.9000000000000004
sg427
F3
sg137
F4
sg119
F7.7999999999999998
sg139
F5
sg144
F7.7999999999999998
sg134
F8.9000000000000004
sg69
F8.9000000000000004
sg702
F8.9000000000000004
sg157
F8.9000000000000004
sg159
F7.7999999999999998
sg291
F8.9000000000000004
sg164
F8.9000000000000004
sg168
F8.9000000000000004
ssg16
VAustin Chronicle
p3360
sg18
NsbsVThe Hollywood Reporter/Boyd van Hoeij
p3361
g3
(g4
g5
NtRp3362
(dp3363
g8
g3361
sg9
VBoyd van Hoeij
p3364
sg11
S'http://www.metacritic.com/critic/boyd-van-hoeij?filter=movies'
p3365
sg13
(dp3366
g207
F8
sg322
F8
sg93
F8
ssg16
VThe Hollywood Reporter
p3367
sg18
NsbsVSlant Magazine/Carson Lund
p3368
g3
(g4
g5
NtRp3369
(dp3370
g8
g3368
sg9
VCarson Lund
p3371
sg11
S'http://www.metacritic.com/critic/carson-lund?filter=movies'
p3372
sg13
(dp3373
g207
F6.2999999999999998
ssg16
VSlant Magazine
p3374
sg18
NsbsVThe Hollywood Reporter/David Rooney
p3375
g3
(g4
g5
NtRp3376
(dp3377
g8
g3375
sg9
VDavid Rooney
p3378
sg11
S'http://www.metacritic.com/critic/david-rooney?filter=movies'
p3379
sg13
(dp3380
g663
F10
sg470
F8
sg217
F7
sg61
F10
sg513
F9
sg60
F10
ssg16
VThe Hollywood Reporter
p3381
sg18
NsbsVChicago Reader/Andrea Gronvall
p3382
g3
(g4
g5
NtRp3383
(dp3384
g8
g3382
sg9
VAndrea Gronvall
p3385
sg11
S'http://www.metacritic.com/critic/andrea-gronvall?filter=movies'
p3386
sg13
(dp3387
g134
F8
sg147
F5
sg33
F10
sg92
F9
sg156
F0
ssg16
VChicago Reader
p3388
sg18
NsbsVThe New Yorker/David Denby
p3389
g3
(g4
g5
NtRp3390
(dp3391
g8
g3389
sg9
VDavid Denby
p3392
sg11
S'http://www.metacritic.com/critic/david-denby?filter=movies'
p3393
sg13
(dp3394
g111
F9
sg162
F7
sg124
F8
sg67
F9
sg130
F10
sg132
F10
sg307
F10
sg134
F9
sg161
F10
sg137
F5
sg113
F5
sg139
F5
sg141
F9
sg142
F6
sg138
F7
sg147
F5
sg151
F5
sg702
F9
sg254
F8
sg157
F10
sg159
F5
sg92
F8
sg65
F7
sg163
F10
sg164
F9
sg281
F10
sg168
F7
sg167
F8
ssg16
VThe New Yorker
p3395
sg18
NsbsVThe Playlist/Kimber Myers
p3396
g3
(g4
g5
NtRp3397
(dp3398
g8
g3396
sg9
VKimber Myers
p3399
sg11
S'http://www.metacritic.com/critic/kimber-myers?filter=movies'
p3400
sg13
(dp3401
g419
F8.3000000000000007
ssg16
VThe Playlist
p3402
sg18
NsbsVFilm Threat/Rick Kisonak
p3403
g3
(g4
g5
NtRp3404
(dp3405
g8
g3403
sg9
VRick Kisonak
p3406
sg11
S'http://www.metacritic.com/critic/rick-kisonak?filter=movies'
p3407
sg13
(dp3408
g160
F8
sg289
F8
sg124
F6
sg126
F7
sg167
F8
ssg16
VFilm Threat
p3409
sg18
NsbsVBoxoffice Magazine/Wade Major
p3410
g3
(g4
g5
NtRp3411
(dp3412
g8
g3410
sg9
VWade Major
p3413
sg11
S'http://www.metacritic.com/critic/wade-major?filter=movies'
p3414
sg13
(dp3415
g123
F8
ssg16
VBoxoffice Magazine
p3416
sg18
NsbsVL.A. Weekly/Ella Taylor
p3417
g3
(g4
g5
NtRp3418
(dp3419
g8
g3417
sg9
VElla Taylor
p3420
sg11
S'http://www.metacritic.com/critic/ella-taylor?filter=movies'
p3421
sg13
(dp3422
g306
F9
sg291
F8
sg160
F10
sg254
F7
sg117
F10
sg130
F9
sg169
F5
sg307
F10
sg166
F9
sg253
F2
sg168
F8
sg167
F10
ssg16
VL.A. Weekly
p3423
sg18
NsbsVThe Film Stage/Nick Newman
p3424
g3
(g4
g5
NtRp3425
(dp3426
g8
g3424
sg9
VNick Newman
p3427
sg11
S'http://www.metacritic.com/critic/nick-newman?filter=movies'
p3428
sg13
(dp3429
g136
F7.5
ssg16
VThe Film Stage
p3430
sg18
NsbsVSlant Magazine/Elise Nakhnikian
p3431
g3
(g4
g5
NtRp3432
(dp3433
g8
g3431
sg9
VElise Nakhnikian
p3434
sg11
S'http://www.metacritic.com/critic/elise-nakhnikian?filter=movies'
p3435
sg13
(dp3436
g149
F6.2999999999999998
sg25
F8.8000000000000007
sg557
F8.8000000000000007
ssg16
VSlant Magazine
p3437
sg18
NsbsVSlant Magazine/Matt Noller
p3438
g3
(g4
g5
NtRp3439
(dp3440
g8
g3438
sg9
VMatt Noller
p3441
sg11
S'http://www.metacritic.com/critic?filter=movies'
p3442
sg13
(dp3443
g43
F8.8000000000000007
ssg16
VSlant Magazine
p3444
sg18
NsbsVSan Francisco Chronicle/Mick LaSalle
p3445
g3
(g4
g5
NtRp3446
(dp3447
g8
g3445
sg9
VMick LaSalle
p3448
sg11
S'http://www.metacritic.com/critic/mick-lasalle?filter=movies'
p3449
sg13
(dp3450
g111
F10
sg112
F10
sg113
F10
sg91
F7.5
sg276
F5
sg277
F7.5
sg67
F10
sg118
F2.5
sg162
F7.5
sg52
F2.5
sg121
F7.5
sg93
F10
sg35
F7.5
sg122
F7.5
sg124
F7.5
sg125
F7.5
sg127
F5
sg155
F0
sg64
F7.5
sg128
F2.5
sg521
F7.5
sg129
F7.5
sg130
F10
sg68
F10
sg132
F10
sg135
F10
sg134
F7.5
sg33
F7.5
sg34
F10
sg61
F10
sg115
F5
sg702
F10
sg161
F5
sg427
F5
sg143
F7.5
sg139
F7.5
sg142
F10
sg138
F10
sg144
F5
sg145
F5
sg146
F10
sg147
F7.5
sg289
F7.5
sg149
F10
sg70
F7.5
sg177
F10
sg71
F7.5
sg126
F7.5
sg152
F10
sg216
F7.5
sg290
F7.5
sg217
F10
sg153
F10
sg154
F10
sg254
F5
sg43
F5
sg156
F2.5
sg158
F7.5
sg159
F7.5
sg92
F7.5
sg74
F10
sg160
F10
sg65
F7.5
sg163
F10
sg166
F10
sg513
F7.5
sg168
F10
sg60
F10
ssg16
VSan Francisco Chronicle
p3451
sg18
NsbsVThe Playlist/Oliver Lyttelton
p3452
g3
(g4
g5
NtRp3453
(dp3454
g8
g3452
sg9
VOliver Lyttelton
p3455
sg11
S'http://www.metacritic.com/critic/oliver-lyttelton?filter=movies'
p3456
sg13
(dp3457
g25
F9.0999999999999996
sg278
F4.2000000000000002
sg215
F10
sg67
F10
sg93
F8.3000000000000007
sg470
F9.0999999999999996
sg217
F7.5
sg75
F10
ssg16
VThe Playlist
p3458
sg18
NsbsVWashington Post/Stephanie Merry
p3459
g3
(g4
g5
NtRp3460
(dp3461
g8
g3459
sg9
VStephanie Merry
p3462
sg11
S'http://www.metacritic.com/critic/stephanie-merry?filter=movies'
p3463
sg13
(dp3464
g419
F7.5
sg122
F7.5
sg75
F6.2999999999999998
sg216
F7.5
ssg16
VWashington Post
p3465
sg18
NsbsVThe Hollywood Reporter/Sheri Linden
p3466
g3
(g4
g5
NtRp3467
(dp3468
g8
g3466
sg9
VSheri Linden
p3469
sg11
S'http://www.metacritic.com/critic/sheri-linden?filter=movies'
p3470
sg13
(dp3471
g306
F9
ssg16
VThe Hollywood Reporter
p3472
sg18
NsbsVVariety/Todd McCarthy
p3473
g3
(g4
g5
NtRp3474
(dp3475
g8
g3473
sg9
VTodd McCarthy
p3476
sg11
S'http://www.metacritic.com/critic/todd-mccarthy?filter=movies'
p3477
sg13
(dp3478
g113
F8
sg120
F6
sg124
F8
sg291
F9
sg129
F9
sg33
F10
sg307
F9
sg134
F8
sg161
F10
sg119
F9
sg141
F9
sg143
F9
sg145
F9
sg146
F10
sg702
F9
sg153
F8
sg254
F7
sg159
F7
sg92
F10
sg125
F6
sg164
F9
sg166
F8
sg168
F5
ssg16
VVariety
p3479
sg18
NsbsVThe New York Times/Manohla Dargis
p3480
g3
(g4
g5
NtRp3481
(dp3482
g8
g3480
sg9
VManohla Dargis
p3483
sg11
S'http://www.metacritic.com/critic/manohla-dargis?filter=movies'
p3484
sg13
(dp3485
g111
F10
sg276
F9
sg63
F6
sg121
F10
sg165
F8
sg127
F10
sg215
F8
sg15
F7
sg68
F10
sg132
F10
sg133
F10
sg94
F9
sg135
F9
sg136
F9
sg137
F4
sg113
F5
sg557
F10
sg139
F9
sg141
F9
sg144
F8
sg145
F5
sg169
F6
sg217
F7
sg62
F10
sg156
F5
sg159
F9
sg92
F7
sg160
F10
sg163
F9
sg164
F10
sg161
F10
sg60
F10
ssg16
VThe New York Times
p3486
sg18
NsbsVThe Hollywood Reporter/Bernard Besserglik
p3487
g3
(g4
g5
NtRp3488
(dp3489
g8
g3487
sg9
VBernard Besserglik
p3490
sg11
S'http://www.metacritic.com/critic?filter=movies'
p3491
sg13
(dp3492
g169
F8
ssg16
VThe Hollywood Reporter
p3493
sg18
NsbsVCineVue/Matthew Anderson
p3494
g3
(g4
g5
NtRp3495
(dp3496
g8
g3494
sg9
VMatthew Anderson
p3497
sg11
S'http://www.metacritic.com/critic/matthew-anderson?filter=movies'
p3498
sg13
(dp3499
g64
F8
ssg16
VCineVue
p3500
sg18
NsbsVNew York Observer/Thelma Adams
p3501
g3
(g4
g5
NtRp3502
(dp3503
g8
g3501
sg9
VThelma Adams
p3504
sg11
S'http://www.metacritic.com/critic?filter=movies'
p3505
sg13
(dp3506
g90
F7.5
ssg16
VNew York Observer
p3507
sg18
NsbsVThe Hollywood Reporter/Duane Byrge
p3508
g3
(g4
g5
NtRp3509
(dp3510
g8
g3508
sg9
VDuane Byrge
p3511
sg11
S'http://www.metacritic.com/critic?filter=movies'
p3512
sg13
(dp3513
g153
F5
ssg16
VThe Hollywood Reporter
p3514
sg18
NsbsVThe Seattle Times/Moira Macdonald
p3515
g3
(g4
g5
NtRp3516
(dp3517
g8
g3515
sg9
VMoira Macdonald
p3518
sg11
S'http://www.metacritic.com/critic/moira-macdonald?filter=movies'
p3519
sg13
(dp3520
g136
F8.8000000000000007
sg91
F10
sg64
F6.2999999999999998
sg132
F10
sg152
F10
sg61
F8.8000000000000007
sg122
F8.8000000000000007
ssg16
VThe Seattle Times
p3521
sg18
NsbsVThe Playlist/Jessica Kiang
p3522
g3
(g4
g5
NtRp3523
(dp3524
g8
g3522
sg9
VJessica Kiang
p3525
sg11
S'http://www.metacritic.com/critic/jessica-kiang?filter=movies'
p3526
sg13
(dp3527
g90
F8.3000000000000007
sg663
F10
sg63
F5
sg142
F8.3000000000000007
sg65
F6.7000000000000002
sg122
F7.5
sg66
F8.3000000000000007
sg280
F9.0999999999999996
sg95
F7.5
sg277
F10
sg68
F10
sg69
F9.0999999999999996
sg70
F8.3000000000000007
sg177
F10
sg94
F9.0999999999999996
sg72
F9.0999999999999996
sg152
F10
sg216
F8.3000000000000007
sg74
F9.0999999999999996
sg281
F8.3000000000000007
ssg16
VThe Playlist
p3528
sg18
NsbsVThe Hollywood Reporter/Ray Bennett
p3529
g3
(g4
g5
NtRp3530
(dp3531
g8
g3529
sg9
VRay Bennett
p3532
sg11
S'http://www.metacritic.com/critic/ray-bennett?filter=movies'
p3533
sg13
(dp3534
g117
F8
sg146
F8
sg160
F8
sg133
F8
sg166
F10
sg35
F6
ssg16
VThe Hollywood Reporter
p3535
sg18
NsbsVNew York Post/Sara Stewart
p3536
g3
(g4
g5
NtRp3537
(dp3538
g8
g3536
sg9
VSara Stewart
p3539
sg11
S'http://www.metacritic.com/critic/sara-stewart?filter=movies'
p3540
sg13
(dp3541
g90
F7.5
sg61
F8.8000000000000007
sg322
F10
sg94
F7.5
ssg16
VNew York Post
p3542
sg18
NsbsVTheWrap/Dan Callahan
p3543
g3
(g4
g5
NtRp3544
(dp3545
g8
g3543
sg9
VDan Callahan
p3546
sg11
S'http://www.metacritic.com/critic?filter=movies'
p3547
sg13
(dp3548
g62
F5
ssg16
VTheWrap
p3549
sg18
NsbsVSlate/Dana Stevens
p3550
g3
(g4
g5
NtRp3551
(dp3552
g8
g3550
sg9
VDana Stevens
p3553
sg11
S'http://www.metacritic.com/critic/dana-stevens?filter=movies'
p3554
sg13
(dp3555
g111
F9
sg112
F5
sg91
F10
sg115
F8
sg67
F8
sg121
F8
sg122
F8
sg123
F10
sg127
F9
sg128
F4
sg68
F8
sg132
F9
sg133
F10
sg134
F8
sg126
F7
sg34
F10
sg61
F10
sg135
F10
sg136
F6
sg137
F6
sg145
F6
sg113
F7
sg139
F10
sg142
F7
sg138
F7
sg144
F4
sg90
F8
sg146
F7
sg147
F5
sg70
F10
sg177
F10
sg71
F9
sg151
F7
sg152
F10
sg153
F9
sg154
F8
sg62
F7
sg279
F8
sg92
F10
sg513
F8
sg160
F9
sg65
F9
sg163
F8
sg164
F9
sg289
F10
sg161
F10
sg74
F9
sg60
F10
sg281
F10
ssg16
VSlate
p3556
sg18
NsbsVVariety/Alissa Simon
p3557
g3
(g4
g5
NtRp3558
(dp3559
g8
g3557
sg9
VAlissa Simon
p3560
sg11
S'http://www.metacritic.com/critic/alissa-simon?filter=movies'
p3561
sg13
(dp3562
g73
F8
sg123
F9
sg95
F9
ssg16
VVariety
p3563
sg18
NsbsVFilm.com/David Ehrlich
p3564
g3
(g4
g5
NtRp3565
(dp3566
g8
g3564
sg9
VDavid Ehrlich
p3567
sg11
S'http://www.metacritic.com/critic/david-ehrlich?filter=movies'
p3568
sg13
(dp3569
g127
F8
ssg16
VFilm.com
p3570
sg18
NsbsVThe A.V. Club/A.A. Dowd 
p3571
g3
(g4
g5
NtRp3572
(dp3573
g8
g3571
sg9
VA.A. Dowd 
p3574
sg11
S'http://www.metacritic.com/critic/aa-dowd?filter=movies'
p3575
sg13
(dp3576
g61
F10
sg91
F10
sg127
F10
sg165
F5.7999999999999998
sg142
F8.3000000000000007
sg65
F5.7999999999999998
sg67
F8.3000000000000007
sg74
F8.3000000000000007
sg93
F9.0999999999999996
sg513
F9.0999999999999996
sg68
F8.3000000000000007
sg70
F9.0999999999999996
sg132
F9.0999999999999996
sg71
F8.3000000000000007
sg94
F10
sg72
F7.5
sg177
F10
sg73
F9.0999999999999996
sg75
F8.3000000000000007
sg217
F7.5
sg281
F8.3000000000000007
ssg16
VThe A.V. Club
p3577
sg18
NsbsVNew York Daily News/Joe Dziemianowicz
p3578
g3
(g4
g5
NtRp3579
(dp3580
g8
g3578
sg9
VJoe Dziemianowicz
p3581
sg11
S'http://www.metacritic.com/critic/joe-dziemianowicz?filter=movies'
p3582
sg13
(dp3583
g64
F8
ssg16
VNew York Daily News
p3584
sg18
NsbsVWe Got This Covered/Matt Donato
p3585
g3
(g4
g5
NtRp3586
(dp3587
g8
g3585
sg9
VMatt Donato
p3588
sg11
S'http://www.metacritic.com/critic/matt-donato?filter=movies'
p3589
sg13
(dp3590
g132
F9
ssg16
VWe Got This Covered
p3591
sg18
NsbsVSan Francisco Chronicle/Amy Biancolli
p3592
g3
(g4
g5
NtRp3593
(dp3594
g8
g3592
sg9
VAmy Biancolli
p3595
sg11
S'http://www.metacritic.com/critic?filter=movies'
p3596
sg13
(dp3597
g151
F10
sg137
F5
sg164
F7.5
sg123
F10
ssg16
VSan Francisco Chronicle
p3598
sg18
NsbsVTime/Mary Corliss
p3599
g3
(g4
g5
NtRp3600
(dp3601
g8
g3599
sg9
VMary Corliss
p3602
sg11
S'http://www.metacritic.com/critic?filter=movies'
p3603
sg13
(dp3604
g121
F10
ssg16
VTime
p3605
sg18
NsbsVSan Francisco Chronicle/Walter Addiego
p3606
g3
(g4
g5
NtRp3607
(dp3608
g8
g3606
sg9
VWalter Addiego
p3609
sg11
S'http://www.metacritic.com/critic/walter-addiego?filter=movies'
p3610
sg13
(dp3611
g279
F7.5
sg69
F7.5
sg73
F7.5
sg75
F7.5
sg281
F10
ssg16
VSan Francisco Chronicle
p3612
sg18
NsbsVFilm Threat/Mark Bell
p3613
g3
(g4
g5
NtRp3614
(dp3615
g8
g3613
sg9
VMark Bell
p3616
sg11
S'http://www.metacritic.com/critic?filter=movies'
p3617
sg13
(dp3618
g133
F7
sg156
F7
ssg16
VFilm Threat
p3619
sg18
NsbsVThe Globe and Mail (Toronto)/Christopher Harris
p3620
g3
(g4
g5
NtRp3621
(dp3622
g8
g3620
sg9
VChristopher Harris
p3623
sg11
S'http://www.metacritic.com/critic?filter=movies'
p3624
sg13
(dp3625
g43
F7.5
ssg16
VThe Globe and Mail (Toronto)
p3626
sg18
NsbsVEmpire/William Thomas
p3627
g3
(g4
g5
NtRp3628
(dp3629
g8
g3627
sg9
VWilliam Thomas
p3630
sg11
S'http://www.metacritic.com/critic/william-thomas?filter=movies'
p3631
sg13
(dp3632
g114
F6
ssg16
VEmpire
p3633
sg18
NsbsVTime/Richard Corliss
p3634
g3
(g4
g5
NtRp3635
(dp3636
g8
g3634
sg9
VRichard Corliss
p3637
sg11
S'http://www.metacritic.com/critic/richard-corliss?filter=movies'
p3638
sg13
(dp3639
g111
F10
sg112
F8
sg115
F7
sg67
F10
sg680
F9
sg671
F10
sg123
F10
sg124
F9
sg206
F10
sg127
F10
sg128
F5
sg129
F10
sg130
F9
sg132
F10
sg134
F10
sg33
F10
sg34
F10
sg427
F3
sg113
F10
sg139
F10
sg141
F10
sg143
F9
sg144
F10
sg145
F10
sg148
F4
sg169
F9
sg126
F5
sg151
F10
sg290
F5
sg702
F10
sg154
F8
sg62
F7
sg156
F7
sg157
F10
sg92
F10
sg160
F10
sg163
F10
sg164
F9
sg167
F9
sg71
F7
ssg16
VTime
p3640
sg18
NsbsVFilm Threat/Mariko McDonald
p3641
g3
(g4
g5
NtRp3642
(dp3643
g8
g3641
sg9
VMariko McDonald
p3644
sg11
S'http://www.metacritic.com/critic?filter=movies'
p3645
sg13
(dp3646
g143
F10
ssg16
VFilm Threat
p3647
sg18
NsbsVSan Francisco Chronicle/David Lewis
p3648
g3
(g4
g5
NtRp3649
(dp3650
g8
g3648
sg9
VDavid Lewis
p3651
sg11
S'http://www.metacritic.com/critic?filter=movies'
p3652
sg13
(dp3653
g557
F7.5
ssg16
VSan Francisco Chronicle
p3654
sg18
NsbsVSlant Magazine/Kenji Fujishima
p3655
g3
(g4
g5
NtRp3656
(dp3657
g8
g3655
sg9
VKenji Fujishima
p3658
sg11
S'http://www.metacritic.com/critic/kenji-fujishima?filter=movies'
p3659
sg13
(dp3660
g280
F7.5
sg75
F6.2999999999999998
ssg16
VSlant Magazine
p3661
sg18
NsbsVPortland Oregonian/Marc Mohan
p3662
g3
(g4
g5
NtRp3663
(dp3664
g8
g3662
sg9
VMarc Mohan
p3665
sg11
S'http://www.metacritic.com/critic/marc-mohan?filter=movies'
p3666
sg13
(dp3667
g111
F8.3000000000000007
sg112
F9.0999999999999996
sg154
F7.5
sg67
F10
sg127
F8.3000000000000007
sg63
F9.0999999999999996
sg142
F9.0999999999999996
sg65
F8.3000000000000007
sg25
F9.0999999999999996
sg216
F5.7999999999999998
sg68
F10
sg70
F9.0999999999999996
sg132
F8.3000000000000007
sg71
F10
sg557
F8.3000000000000007
sg121
F9.0999999999999996
sg281
F8.3000000000000007
sg153
F5
ssg16
VPortland Oregonian
p3668
sg18
NsbsVUSA Today/Claudia Puig
p3669
g3
(g4
g5
NtRp3670
(dp3671
g8
g3669
sg9
VClaudia Puig
p3672
sg11
S'http://www.metacritic.com/critic/claudia-puig?filter=movies'
p3673
sg13
(dp3674
g111
F6.2999999999999998
sg112
F8.8000000000000007
sg113
F8.8000000000000007
sg115
F6.2999999999999998
sg117
F8.8000000000000007
sg67
F10
sg162
F6.2999999999999998
sg35
F7.5
sg123
F10
sg127
F8.8000000000000007
sg128
F6.2999999999999998
sg129
F8.8000000000000007
sg130
F10
sg68
F8.8000000000000007
sg132
F10
sg133
F7.5
sg134
F10
sg33
F10
sg34
F10
sg135
F8.8000000000000007
sg143
F8.8000000000000007
sg139
F10
sg142
F8.8000000000000007
sg138
F7.5
sg144
F7.5
sg145
F7.5
sg146
F8.8000000000000007
sg147
F8.8000000000000007
sg71
F7.5
sg126
F7.5
sg151
F8.8000000000000007
sg290
F8.8000000000000007
sg702
F7.5
sg153
F10
sg154
F8.8000000000000007
sg62
F6.2999999999999998
sg156
F6.2999999999999998
sg157
F8.8000000000000007
sg92
F10
sg160
F8.8000000000000007
sg65
F10
sg163
F10
sg164
F7.5
sg289
F10
sg161
F8.8000000000000007
ssg16
VUSA Today
p3675
sg18
NsbsVTV Guide Magazine/Maitland McDonagh
p3676
g3
(g4
g5
NtRp3677
(dp3678
g8
g3676
sg9
VMaitland McDonagh
p3679
sg11
S'http://www.metacritic.com/critic/maitland-mcdonagh?filter=movies'
p3680
sg13
(dp3681
g306
F7
sg114
F3.7999999999999998
sg117
F10
sg118
F6
sg120
F4
sg35
F7.5
sg125
F4
sg103
F8
sg129
F6
sg135
F7.5
sg33
F7
sg133
F7.5
sg307
F5
sg155
F4
sg161
F7.5
sg427
F4
sg119
F8
sg139
F10
sg145
F6.2999999999999998
sg146
F7.5
sg290
F6
sg702
F7
sg159
F6
sg291
F8
ssg16
VTV Guide Magazine
p3682
sg18
NsbsVThe Guardian/Lanre Bakare
p3683
g3
(g4
g5
NtRp3684
(dp3685
g8
g3683
sg9
VLanre Bakare
p3686
sg11
S'http://www.metacritic.com/critic/lanre-bakare?filter=movies'
p3687
sg13
(dp3688
g91
F6
ssg16
VThe Guardian
p3689
sg18
NsbsVThe New York Times/Stephen Holden
p3690
g3
(g4
g5
NtRp3691
(dp3692
g8
g3690
sg9
VStephen Holden
p3693
sg11
S'http://www.metacritic.com/critic/stephen-holden?filter=movies'
p3694
sg13
(dp3695
g254
F9
sg52
F7
sg216
F9
sg125
F2
sg307
F10
sg166
F10
sg73
F10
sg35
F6
ssg16
VThe New York Times
p3696
sg18
NsbsVVillage Voice/Michael Nordine
p3697
g3
(g4
g5
NtRp3698
(dp3699
g8
g3697
sg9
VMichael Nordine
p3700
sg11
S'http://www.metacritic.com/critic/michael-nordine?filter=movies'
p3701
sg13
(dp3702
g75
F9
ssg16
VVillage Voice
p3703
sg18
NsbsVLos Angeles Times/Robert Abele
p3704
g3
(g4
g5
NtRp3705
(dp3706
g8
g3704
sg9
VRobert Abele
p3707
sg11
S'http://www.metacritic.com/critic/robert-abele?filter=movies'
p3708
sg13
(dp3709
g277
F7
ssg16
VLos Angeles Times
p3710
sg18
NsbsVCineVue/Tom Graham
p3711
g3
(g4
g5
NtRp3712
(dp3713
g8
g3711
sg9
VTom Graham
p3714
sg11
S'http://www.metacritic.com/critic?filter=movies'
p3715
sg13
(dp3716
g149
F8
ssg16
VCineVue
p3717
sg18
NsbsVScreen International/Mark Adams
p3718
g3
(g4
g5
NtRp3719
(dp3720
g8
g3718
sg9
VMark Adams
p3721
sg11
S'http://www.metacritic.com/critic/mark-adams?filter=movies'
p3722
sg13
(dp3723
g177
F9
ssg16
VScreen International
p3724
sg18
NsbsVThe Globe and Mail (Toronto)/Jay Scott
p3725
g3
(g4
g5
NtRp3726
(dp3727
g8
g3725
sg9
VJay Scott
p3728
sg11
S'http://www.metacritic.com/critic/jay-scott?filter=movies'
p3729
sg13
(dp3730
g671
F10
ssg16
VThe Globe and Mail (Toronto)
p3731
sg18
NsbsVFilm Threat/Eric Campos
p3732
g3
(g4
g5
NtRp3733
(dp3734
g8
g3732
sg9
VEric Campos
p3735
sg11
S'http://www.metacritic.com/critic?filter=movies'
p3736
sg13
(dp3737
g129
F10
ssg16
VFilm Threat
p3738
sg18
NsbsVThe A.V. Club/Noel Murray
p3739
g3
(g4
g5
NtRp3740
(dp3741
g8
g3739
sg9
VNoel Murray
p3742
sg11
S'http://www.metacritic.com/critic/noel-murray?filter=movies'
p3743
sg13
(dp3744
g156
F6.7000000000000002
sg117
F9.0999999999999996
sg149
F9.0999999999999996
sg419
F9.0999999999999996
sg150
F7
sg289
F9.0999999999999996
sg34
F7.5
sg35
F6.7000000000000002
ssg16
VThe A.V. Club
p3745
sg18
NsbsVTotal Film/Jamie Graham
p3746
g3
(g4
g5
NtRp3747
(dp3748
g8
g3746
sg9
VJamie Graham
p3749
sg11
S'http://www.metacritic.com/critic/jamie-graham?filter=movies'
p3750
sg13
(dp3751
g25
F8
sg91
F10
sg68
F10
sg69
F10
sg70
F10
sg217
F8
sg121
F10
sg74
F8
sg60
F8
ssg16
VTotal Film
p3752
sg18
NsbsVL.A. Weekly/Manohla Dargis
p3753
g3
(g4
g5
NtRp3754
(dp3755
g8
g3753
sg9
VManohla Dargis
p3756
sg11
S'http://www.metacritic.com/critic/manohla-dargis?filter=movies'
p3757
sg13
(dp3758
g680
F9
sg119
F6
sg290
F2
sg702
F10
ssg16
VL.A. Weekly
p3759
sg18
NsbsVCineVue/Lucy Popescu
p3760
g3
(g4
g5
NtRp3761
(dp3762
g8
g3760
sg9
VLucy Popescu
p3763
sg11
S'http://www.metacritic.com/critic?filter=movies'
p3764
sg13
(dp3765
g177
F8
ssg16
VCineVue
p3766
sg18
NsbsVScreen International/Jonathan Romney
p3767
g3
(g4
g5
NtRp3768
(dp3769
g8
g3767
sg9
VJonathan Romney
p3770
sg11
S'http://www.metacritic.com/critic?filter=movies'
p3771
sg13
(dp3772
g64
F6
sg93
F9
ssg16
VScreen International
p3773
sg18
NsbsVThe Hollywood Reporter/Kirk Honeycutt
p3774
g3
(g4
g5
NtRp3775
(dp3776
g8
g3774
sg9
VKirk Honeycutt
p3777
sg11
S'http://www.metacritic.com/critic/kirk-honeycutt?filter=movies'
p3778
sg13
(dp3779
g289
F9
sg113
F6
sg159
F9
sg156
F8
sg139
F10
sg151
F9
sg141
F10
sg143
F10
sg145
F8
sg130
F10
sg135
F8
sg162
F7
sg163
F10
sg164
F10
sg157
F10
sg150
F8
sg134
F10
sg124
F6
sg167
F9
ssg16
VThe Hollywood Reporter
p3780
sg18
NsbsVEmpire/Damon Wise
p3781
g3
(g4
g5
NtRp3782
(dp3783
g8
g3781
sg9
VDamon Wise
p3784
sg11
S'http://www.metacritic.com/critic/damon-wise?filter=movies'
p3785
sg13
(dp3786
g142
F8
sg160
F10
sg65
F10
sg163
F8
sg133
F8
sg115
F10
ssg16
VEmpire
p3787
sg18
NsbsVVillage Voice/Alan Scherstuhl
p3788
g3
(g4
g5
NtRp3789
(dp3790
g8
g3788
sg9
VAlan Scherstuhl
p3791
sg11
S'http://www.metacritic.com/critic/alan-scherstuhl?filter=movies'
p3792
sg13
(dp3793
g278
F8
sg63
F10
sg64
F7
sg95
F10
sg15
F8
sg72
F10
sg73
F9
sg513
F6
ssg16
VVillage Voice
p3794
sg18
NsbsVThe Globe and Mail (Toronto)/Ray Conlogue
p3795
g3
(g4
g5
NtRp3796
(dp3797
g8
g3795
sg9
VRay Conlogue
p3798
sg11
S'http://www.metacritic.com/critic/ray-conlogue?filter=movies'
p3799
sg13
(dp3800
g118
F7.5
ssg16
VThe Globe and Mail (Toronto)
p3801
sg18
NsbsVRolling Stone/Peter Travers
p3802
g3
(g4
g5
NtRp3803
(dp3804
g8
g3802
sg9
VPeter Travers
p3805
sg11
S'http://www.metacritic.com/critic/peter-travers?filter=movies'
p3806
sg13
(dp3807
g117
F10
sg128
F6.2999999999999998
sg680
F9
sg118
F2.5
sg122
F8.8000000000000007
sg64
F6.2999999999999998
sg129
F7.5
sg130
F8.8000000000000007
sg307
F10
sg134
F10
sg161
F10
sg427
F4
sg113
F7.5
sg142
F8.8000000000000007
sg177
F8.8000000000000007
sg151
F8.8000000000000007
sg154
F8.8000000000000007
sg254
F9
sg156
F6.2999999999999998
sg157
F8.8000000000000007
sg51
F8
sg164
F8.8000000000000007
sg513
F8.8000000000000007
sg75
F8.8000000000000007
sg91
F10
sg217
F8.8000000000000007
sg165
F8.8000000000000007
sg123
F8.8000000000000007
sg103
F9
sg93
F8.8000000000000007
sg68
F10
sg135
F10
sg141
F10
sg143
F8.8000000000000007
sg144
F8.8000000000000007
sg145
F7.5
sg71
F8.8000000000000007
sg152
F10
sg672
F10
sg153
F8.8000000000000007
sg158
F8.8000000000000007
sg149
F8.8000000000000007
sg168
F8.8000000000000007
sg167
F8.8000000000000007
sg114
F2.5
sg277
F8.8000000000000007
sg162
F7.5
sg127
F8.8000000000000007
sg215
F8.8000000000000007
sg521
F7.5
sg126
F8.8000000000000007
sg133
F8.8000000000000007
sg94
F8.8000000000000007
sg132
F10
sg34
F8.8000000000000007
sg155
F0
sg138
F8.8000000000000007
sg147
F8.8000000000000007
sg702
F10
sg90
F8.8000000000000007
sg61
F10
sg62
F7.5
sg92
F10
sg291
F10
sg65
F8.8000000000000007
sg74
F10
sg60
F10
sg111
F10
sg112
F8.8000000000000007
sg115
F10
sg121
F8.8000000000000007
sg124
F8.8000000000000007
sg67
F10
sg33
F8.8000000000000007
sg136
F8.8000000000000007
sg137
F5
sg139
F8.8000000000000007
sg146
F10
sg69
F8.8000000000000007
sg70
F10
sg169
F8.8000000000000007
sg279
F7.5
sg159
F7.5
sg160
F10
sg163
F10
sg166
F10
sg281
F10
ssg16
VRolling Stone
p3808
sg18
NsbsVNew York Daily News/Amy Rowe
p3809
g3
(g4
g5
NtRp3810
(dp3811
g8
g3809
sg9
VAmy Rowe
p3812
sg11
S'http://www.metacritic.com/critic?filter=movies'
p3813
sg13
(dp3814
g94
F7
ssg16
VNew York Daily News
p3815
sg18
NsbsVBoston Globe/Jay Carr
p3816
g3
(g4
g5
NtRp3817
(dp3818
g8
g3816
sg9
VJay Carr
p3819
sg11
S'http://www.metacritic.com/critic/jay-carr?filter=movies'
p3820
sg13
(dp3821
g427
F2.5
sg254
F10
sg103
F7.5
sg291
F10
sg307
F10
sg253
F6.2999999999999998
sg290
F8.8000000000000007
sg702
F10
ssg16
VBoston Globe
p3822
sg18
NsbsVNew York Daily News/Jami Bernard
p3823
g3
(g4
g5
NtRp3824
(dp3825
g8
g3823
sg9
VJami Bernard
p3826
sg11
S'http://www.metacritic.com/critic/jami-bernard?filter=movies'
p3827
sg13
(dp3828
g306
F8.8000000000000007
sg254
F8.8000000000000007
sg103
F5
sg291
F10
sg166
F10
sg307
F8.8000000000000007
sg120
F3.7999999999999998
sg168
F8.8000000000000007
ssg16
VNew York Daily News
p3829
sg18
NsbsVRogerEbert.com/Matt Zoller Seitz
p3830
g3
(g4
g5
NtRp3831
(dp3832
g8
g3830
sg9
VMatt Zoller Seitz
p3833
sg11
S'http://www.metacritic.com/critic/matt-zoller-seitz?filter=movies'
p3834
sg13
(dp3835
g62
F10
sg91
F10
sg67
F10
sg95
F7.5
sg70
F10
sg557
F10
sg513
F7.5
sg60
F8.8000000000000007
ssg16
VRogerEbert.com
p3836
sg18
NsbsVFilm Threat/Ron Wells
p3837
g3
(g4
g5
NtRp3838
(dp3839
g8
g3837
sg9
VRon Wells
p3840
sg11
S'http://www.metacritic.com/critic/ron-wells?filter=movies'
p3841
sg13
(dp3842
g702
F8
ssg16
VFilm Threat
p3843
sg18
NsbsVThe Hollywood Reporter/Frank Scheck
p3844
g3
(g4
g5
NtRp3845
(dp3846
g8
g3844
sg9
VFrank Scheck
p3847
sg11
S'http://www.metacritic.com/critic/frank-scheck?filter=movies'
p3848
sg13
(dp3849
g114
F3
ssg16
VThe Hollywood Reporter
p3850
sg18
NsbsVNPR/Ian Buckwalter
p3851
g3
(g4
g5
NtRp3852
(dp3853
g8
g3851
sg9
VIan Buckwalter
p3854
sg11
S'http://www.metacritic.com/critic/ian-buckwalter?filter=movies'
p3855
sg13
(dp3856
g137
F4.5
sg154
F8
sg71
F9.5
ssg16
VNPR
p3857
sg18
NsbsVSlate/David Edelstein
p3858
g3
(g4
g5
NtRp3859
(dp3860
g8
g3858
sg9
VDavid Edelstein
p3861
sg11
S'http://www.metacritic.com/critic/david-edelstein?filter=movies'
p3862
sg13
(dp3863
g125
F7
sg119
F3
sg141
F9
sg103
F9
sg143
F10
sg129
F7
sg130
F9
sg159
F7
sg254
F9
sg33
F10
sg169
F8
sg307
F10
sg166
F6
sg253
F5
sg155
F6
sg168
F10
sg702
F10
sg167
F9
ssg16
VSlate
p3864
sg18
NsbsVSeattle Post-Intelligencer/William Arnold
p3865
g3
(g4
g5
NtRp3866
(dp3867
g8
g3865
sg9
VWilliam Arnold
p3868
sg11
S'http://www.metacritic.com/critic/william-arnold?filter=movies'
p3869
sg13
(dp3870
g120
F2.5
sg124
F10
sg125
F10
sg103
F8.3000000000000007
sg129
F10
sg130
F8.3000000000000007
sg33
F10
sg135
F5
sg155
F5.7999999999999998
sg133
F6.7000000000000002
sg161
F10
sg427
F4.2000000000000002
sg119
F7.5
sg141
F8.3000000000000007
sg143
F7.5
sg145
F9.0999999999999996
sg147
F10
sg169
F7.5
sg290
F10
sg702
F9.0999999999999996
sg156
F5.7999999999999998
sg159
F9.0999999999999996
sg291
F10
sg166
F9.0999999999999996
sg253
F4.2000000000000002
sg168
F6.7000000000000002
ssg16
VSeattle Post-Intelligencer
p3871
sg18
NsbsVVariety/Maggie Lee
p3872
g3
(g4
g5
NtRp3873
(dp3874
g8
g3872
sg9
VMaggie Lee
p3875
sg11
S'http://www.metacritic.com/critic/maggie-lee?filter=movies'
p3876
sg13
(dp3877
g25
F9
sg66
F8
ssg16
VVariety
p3878
sg18
NsbsVNPR/Scott Tobias
p3879
g3
(g4
g5
NtRp3880
(dp3881
g8
g3879
sg9
VScott Tobias
p3882
sg11
S'http://www.metacritic.com/critic/scott-tobias?filter=movies'
p3883
sg13
(dp3884
g113
F6.7000000000000002
sg153
F9
ssg16
VNPR
p3885
sg18
NsbsVVillage Voice/Dennis Lim
p3886
g3
(g4
g5
NtRp3887
(dp3888
g8
g3886
sg9
VDennis Lim
p3889
sg11
S'http://www.metacritic.com/critic/dennis-lim?filter=movies'
p3890
sg13
(dp3891
g427
F3
sg307
F8
ssg16
VVillage Voice
p3892
sg18
NsbsVAustin Chronicle/Kimberley Jones
p3893
g3
(g4
g5
NtRp3894
(dp3895
g8
g3893
sg9
VKimberley Jones
p3896
sg11
S'http://www.metacritic.com/critic/kimberley-jones?filter=movies'
p3897
sg13
(dp3898
g111
F8.9000000000000004
sg127
F8.9000000000000004
sg64
F6.7000000000000002
sg130
F7.7999999999999998
sg68
F10
sg126
F7.7999999999999998
sg307
F7.7999999999999998
sg142
F10
sg138
F7.7999999999999998
sg90
F8.9000000000000004
sg70
F8.9000000000000004
sg177
F10
sg169
F5
sg151
F7.7999999999999998
sg290
F8.9000000000000004
sg153
F6.7000000000000002
sg154
F6.7000000000000002
sg254
F7.7999999999999998
sg158
F7.7999999999999998
sg163
F8.9000000000000004
sg253
F2
sg167
F8.9000000000000004
sg60
F6.7000000000000002
sg71
F8.9000000000000004
ssg16
VAustin Chronicle
p3899
sg18
NsbsVArizona Republic/Bill Goodykoontz
p3900
g3
(g4
g5
NtRp3901
(dp3902
g8
g3900
sg9
VBill Goodykoontz
p3903
sg11
S'http://www.metacritic.com/critic/bill-goodykoontz?filter=movies'
p3904
sg13
(dp3905
g111
F10
sg112
F8
sg25
F8
sg91
F10
sg277
F8
sg67
F10
sg162
F7
sg121
F9
sg122
F8
sg123
F10
sg127
F10
sg64
F8
sg215
F9
sg128
F5
sg521
F9
sg93
F9
sg68
F10
sg419
F8
sg132
F10
sg94
F8
sg61
F10
sg322
F8
sg115
F9
sg136
F8
sg142
F9
sg144
F8
sg90
F9
sg216
F8
sg149
F9
sg70
F10
sg177
F9
sg71
F9
sg151
F10
sg152
F9
sg217
F8
sg153
F9
sg154
F9
sg62
F8
sg279
F9
sg158
F9
sg69
F9
sg513
F9
sg165
F8
sg65
F8
sg163
F10
sg60
F9
sg74
F10
sg75
F8
sg281
F9
ssg16
VArizona Republic
p3906
sg18
NsbsVEntertainment Weekly/Chris Nashawaty
p3907
g3
(g4
g5
NtRp3908
(dp3909
g8
g3907
sg9
VChris Nashawaty
p3910
sg11
S'http://www.metacritic.com/critic/chris-nashawaty?filter=movies'
p3911
sg13
(dp3912
g91
F10
sg277
F10
sg122
F10
sg127
F7.5
sg64
F7.5
sg93
F10
sg68
F9.0999999999999996
sg94
F9.0999999999999996
sg61
F10
sg322
F9.0999999999999996
sg136
F7.5
sg149
F8.3000000000000007
sg70
F10
sg152
F9.0999999999999996
sg217
F7.5
sg62
F5
sg74
F10
sg65
F8.3000000000000007
sg75
F10
sg513
F9.0999999999999996
sg60
F9.0999999999999996
sg281
F7.5
ssg16
VEntertainment Weekly
p3913
sg18
NsbsVChicago Tribune/Marc Caro
p3914
g3
(g4
g5
NtRp3915
(dp3916
g8
g3914
sg9
VMarc Caro
p3917
sg11
S'http://www.metacritic.com/critic?filter=movies'
p3918
sg13
(dp3919
g125
F8.8000000000000007
ssg16
VChicago Tribune
p3920
sg18
NsbsVPhiladelphia Inquirer/Carrie Rickey
p3921
g3
(g4
g5
NtRp3922
(dp3923
g8
g3921
sg9
VCarrie Rickey
p3924
sg11
S'http://www.metacritic.com/critic/carrie-rickey?filter=movies'
p3925
sg13
(dp3926
g117
F10
sg118
F5
sg162
F7.5
sg120
F5
sg125
F8.8000000000000007
sg129
F7.5
sg130
F8.8000000000000007
sg307
F7.5
sg34
F10
sg427
F2.5
sg137
F5
sg139
F7.5
sg141
F10
sg138
F8.8000000000000007
sg147
F8.8000000000000007
sg289
F10
sg150
F8.8000000000000007
sg43
F7.5
sg159
F6.2999999999999998
sg92
F10
sg291
F7.5
sg163
F10
sg166
F8.8000000000000007
sg253
F6.2999999999999998
sg168
F8.8000000000000007
sg167
F10
ssg16
VPhiladelphia Inquirer
p3927
sg18
NsbsVBoxoffice Magazine/Amy Nicholson
p3928
g3
(g4
g5
NtRp3929
(dp3930
g8
g3928
sg9
VAmy Nicholson
p3931
sg11
S'http://www.metacritic.com/critic?filter=movies'
p3932
sg13
(dp3933
g144
F7
ssg16
VBoxoffice Magazine
p3934
sg18
NsbsVChicago Sun-Times/Steven Boone
p3935
g3
(g4
g5
NtRp3936
(dp3937
g8
g3935
sg9
VSteven Boone
p3938
sg11
S'http://www.metacritic.com/critic?filter=movies'
p3939
sg13
(dp3940
g279
F8.8000000000000007
ssg16
VChicago Sun-Times
p3941
sg18
NsbsVRogerEbert.com/Brian Tallerico
p3942
g3
(g4
g5
NtRp3943
(dp3944
g8
g3942
sg9
VBrian Tallerico
p3945
sg11
S'http://www.metacritic.com/critic/brian-tallerico?filter=movies'
p3946
sg13
(dp3947
g61
F10
sg64
F7.5
sg419
F8.8000000000000007
sg122
F7.5
sg216
F7.5
ssg16
VRogerEbert.com
p3948
sg18
NsbsVChicago Reader/Jonathan Rosenbaum
p3949
g3
(g4
g5
NtRp3950
(dp3951
g8
g3949
sg9
VJonathan Rosenbaum
p3952
sg11
S'http://www.metacritic.com/critic/jonathan-rosenbaum?filter=movies'
p3953
sg13
(dp3954
g306
F9
sg116
F8
sg117
F10
sg52
F4
sg671
F10
sg35
F5
sg124
F5
sg103
F9
sg130
F7
sg131
F10
sg702
F6
sg133
F7
sg307
F9
sg148
F8
sg34
F7
sg155
F6
sg161
F7
sg427
F6
sg119
F8
sg141
F7
sg143
F10
sg146
F3
sg169
F6
sg672
F2
sg254
F9
sg51
F8
sg291
F9
sg166
F7
sg253
F4
sg168
F9
sg167
F7
ssg16
VChicago Reader
p3955
sg18
NsbsVChicago Reader/Ben Sachs
p3956
g3
(g4
g5
NtRp3957
(dp3958
g8
g3956
sg9
VBen Sachs
p3959
sg11
S'http://www.metacritic.com/critic?filter=movies'
p3960
sg13
(dp3961
g162
F5
ssg16
VChicago Reader
p3962
sg18
NsbsVThe A.V. Club/David Ehrlich
p3963
g3
(g4
g5
NtRp3964
(dp3965
g8
g3963
sg9
VDavid Ehrlich
p3966
sg11
S'http://www.metacritic.com/critic/david-ehrlich?filter=movies'
p3967
sg13
(dp3968
g25
F10
ssg16
VThe A.V. Club
p3969
sg18
NsbsVThe Hollywood Reporter/Eric Hansen
p3970
g3
(g4
g5
NtRp3971
(dp3972
g8
g3970
sg9
VEric Hansen
p3973
sg11
S'http://www.metacritic.com/critic?filter=movies'
p3974
sg13
(dp3975
g34
F8
ssg16
VThe Hollywood Reporter
p3976
sg18
NsbsVThe Film Stage/Giovanni Marchini Camia
p3977
g3
(g4
g5
NtRp3978
(dp3979
g8
g3977
sg9
VGiovanni Marchini Camia
p3980
sg11
S'http://www.metacritic.com/critic/giovanni-marchini-camia?filter=movies'
p3981
sg13
(dp3982
g90
F6.7000000000000002
sg280
F7.5
sg69
F10
sg94
F10
sg122
F7.5
sg75
F8.3000000000000007
ssg16
VThe Film Stage
p3983
sg18
NsbsVChicago Sun-Times/Bruce Ingram
p3984
g3
(g4
g5
NtRp3985
(dp3986
g8
g3984
sg9
VBruce Ingram
p3987
sg11
S'http://www.metacritic.com/critic/bruce-ingram?filter=movies'
p3988
sg13
(dp3989
g142
F10
sg217
F7.5
ssg16
VChicago Sun-Times
p3990
sg18
NsbsVBoxoffice Magazine/John P. McCarthy
p3991
g3
(g4
g5
NtRp3992
(dp3993
g8
g3991
sg9
VJohn P. McCarthy
p3994
sg11
S'http://www.metacritic.com/critic/john-p-mccarthy?filter=movies'
p3995
sg13
(dp3996
g137
F5
ssg16
VBoxoffice Magazine
p3997
sg18
NsbsVFilm Threat/Clint Morris
p3998
g3
(g4
g5
NtRp3999
(dp4000
g8
g3998
sg9
VClint Morris
p4001
sg11
S'http://www.metacritic.com/critic?filter=movies'
p4002
sg13
(dp4003
g120
F4
ssg16
VFilm Threat
p4004
sg18
NsbsVVillage Voice/Alex Pappademas
p4005
g3
(g4
g5
NtRp4006
(dp4007
g8
g4005
sg9
VAlex Pappademas
p4008
sg11
S'http://www.metacritic.com/critic?filter=movies'
p4009
sg13
(dp4010
g120
F3
ssg16
VVillage Voice
p4011
sg18
NsbsVTime Out London/Wendy Ide
p4012
g3
(g4
g5
NtRp4013
(dp4014
g8
g4012
sg9
VWendy Ide
p4015
sg11
S'http://www.metacritic.com/critic?filter=movies'
p4016
sg13
(dp4017
g95
F8
ssg16
VTime Out London
p4018
sg18
NsbsVSlant Magazine/Nick Schager
p4019
g3
(g4
g5
NtRp4020
(dp4021
g8
g4019
sg9
VNick Schager
p4022
sg11
S'http://www.metacritic.com/critic/nick-schager?filter=movies'
p4023
sg13
(dp4024
g137
F2.5
sg144
F7.5
sg123
F8.8000000000000007
ssg16
VSlant Magazine
p4025
sg18
NsbsVPortland Oregonian/Kim Morgan
p4026
g3
(g4
g5
NtRp4027
(dp4028
g8
g4026
sg9
VKim Morgan
p4029
sg11
S'http://www.metacritic.com/critic/kim-morgan?filter=movies'
p4030
sg13
(dp4031
g427
F5
sg120
F4.2000000000000002
sg253
F4.2000000000000002
ssg16
VPortland Oregonian
p4032
sg18
NsbsVOrlando Sentinel/Roger Moore
p4033
g3
(g4
g5
NtRp4034
(dp4035
g8
g4033
sg9
VRoger Moore
p4036
sg11
S'http://www.metacritic.com/critic/roger-moore?filter=movies'
p4037
sg13
(dp4038
g137
F5
sg138
F7.5
sg162
F7.5
sg163
F10
sg151
F7.5
sg153
F7.5
ssg16
VOrlando Sentinel
p4039
sg18
NsbsVThe New York Times/A.O. Scott
p4040
g3
(g4
g5
NtRp4041
(dp4042
g8
g4040
sg9
VA.O. Scott
p4043
sg11
S'http://www.metacritic.com/critic/ao-scott?filter=movies'
p4044
sg13
(dp4045
g112
F10
sg91
F9
sg277
F7
sg117
F10
sg67
F9
sg680
F10
sg118
F1
sg162
F7
sg93
F7
sg122
F6
sg123
F8
sg64
F6
sg128
F5
sg129
F9
sg470
F9
sg134
F10
sg33
F10
sg34
F10
sg61
F10
sg322
F6
sg115
F10
sg427
F5
sg142
F10
sg138
F9
sg90
F10
sg146
F10
sg147
F8
sg149
F9
sg70
F10
sg177
F9
sg71
F10
sg126
F7
sg151
F6
sg152
F10
sg290
F9
sg153
F5
sg154
F10
sg157
F10
sg279
F10
sg158
F7
sg69
F10
sg95
F10
sg513
F10
sg65
F9
sg72
F8
sg289
F9
sg167
F10
sg74
F10
sg75
F10
sg281
F10
ssg16
VThe New York Times
p4046
sg18
NsbsVFilm Threat/Ross Williams
p4047
g3
(g4
g5
NtRp4048
(dp4049
g8
g4047
sg9
VRoss Williams
p4050
sg11
S'http://www.metacritic.com/critic/ross-williams?filter=movies'
p4051
sg13
(dp4052
g290
F10
ssg16
VFilm Threat
p4053
sg18
NsbsVFilm Threat/Phil Hall
p4054
g3
(g4
g5
NtRp4055
(dp4056
g8
g4054
sg9
VPhil Hall
p4057
sg11
S'http://www.metacritic.com/critic/phil-hall?filter=movies'
p4058
sg13
(dp4059
g166
F4
sg168
F5
ssg16
VFilm Threat
p4060
sg18
NsbsVNew York Daily News/Jordan Hoffman
p4061
g3
(g4
g5
NtRp4062
(dp4063
g8
g4061
sg9
VJordan Hoffman
p4064
sg11
S'http://www.metacritic.com/critic?filter=movies'
p4065
sg13
(dp4066
g73
F8
sg217
F8
ssg16
VNew York Daily News
p4067
sg18
NsbsVLos Angeles Times/Carina Chocano
p4068
g3
(g4
g5
NtRp4069
(dp4070
g8
g4068
sg9
VCarina Chocano
p4071
sg11
S'http://www.metacritic.com/critic/carina-chocano?filter=movies'
p4072
sg13
(dp4073
g130
F9
sg289
F8
sg35
F7
sg169
F8
ssg16
VLos Angeles Times
p4074
sg18
NsbsVL.A. Weekly/John Patterson
p4075
g3
(g4
g5
NtRp4076
(dp4077
g8
g4075
sg9
VJohn Patterson
p4078
sg11
S'http://www.metacritic.com/critic/john-patterson?filter=movies'
p4079
sg13
(dp4080
g125
F8
ssg16
VL.A. Weekly
p4081
sg18
NsbsVEmpire/Colin Kennedy
p4082
g3
(g4
g5
NtRp4083
(dp4084
g8
g4082
sg9
VColin Kennedy
p4085
sg11
S'http://www.metacritic.com/critic?filter=movies'
p4086
sg13
(dp4087
g143
F8
ssg16
VEmpire
p4088
sg18
NsbsVSalon.com/Max Cea
p4089
g3
(g4
g5
NtRp4090
(dp4091
g8
g4089
sg9
VMax Cea
p4092
sg11
S'http://www.metacritic.com/critic?filter=movies'
p4093
sg13
(dp4094
g94
F9
ssg16
VSalon.com
p4095
sg18
NsbsVVillage Voice/Chris Packham
p4096
g3
(g4
g5
NtRp4097
(dp4098
g8
g4096
sg9
VChris Packham
p4099
sg11
S'http://www.metacritic.com/critic?filter=movies'
p4100
sg13
(dp4101
g154
F9
ssg16
VVillage Voice
p4102
sg18
NsbsVNew York Daily News/Jack Mathews
p4103
g3
(g4
g5
NtRp4104
(dp4105
g8
g4103
sg9
VJack Mathews
p4106
sg11
S'http://www.metacritic.com/critic/jack-mathews?filter=movies'
p4107
sg13
(dp4108
g114
F5
sg117
F10
sg680
F8.8000000000000007
sg118
F5
sg35
F7.5
sg124
F8.8000000000000007
sg125
F6.2999999999999998
sg129
F10
sg130
F7.5
sg33
F10
sg135
F10
sg34
F8.8000000000000007
sg155
F3.7999999999999998
sg133
F7.5
sg161
F8.8000000000000007
sg427
F2.5
sg119
F7.5
sg141
F10
sg143
F10
sg145
F10
sg146
F8.8000000000000007
sg147
F6.2999999999999998
sg169
F7.5
sg290
F6.2999999999999998
sg702
F8.8000000000000007
sg157
F10
sg159
F7.5
sg160
F10
sg289
F8.8000000000000007
sg253
F3.7999999999999998
sg167
F8.8000000000000007
ssg16
VNew York Daily News
p4109
sg18
NsbsVFilm.com/Stephanie Zacharek
p4110
g3
(g4
g5
NtRp4111
(dp4112
g8
g4110
sg9
VStephanie Zacharek
p4113
sg11
S'http://www.metacritic.com/critic/stephanie-zacharek?filter=movies'
p4114
sg13
(dp4115
g111
F10
ssg16
VFilm.com
p4116
sg18
NsbsVThe New York Times/Dana Stevens
p4117
g3
(g4
g5
NtRp4118
(dp4119
g8
g4117
sg9
VDana Stevens
p4120
sg11
S'http://www.metacritic.com/critic/dana-stevens?filter=movies'
p4121
sg13
(dp4122
g130
F9
sg150
F9
sg120
F2
sg253
F3
sg155
F4
sg168
F9
sg124
F7
ssg16
VThe New York Times
p4123
sg18
NsbsVTNT RoughCut/Matt Kelsey
p4124
g3
(g4
g5
NtRp4125
(dp4126
g8
g4124
sg9
VMatt Kelsey
p4127
sg11
S'http://www.metacritic.com/critic?filter=movies'
p4128
sg13
(dp4129
g125
F8.5
ssg16
VTNT RoughCut
p4130
sg18
NsbsVTime/Mary Pols
p4131
g3
(g4
g5
NtRp4132
(dp4133
g8
g4131
sg9
VMary Pols
p4134
sg11
S'http://www.metacritic.com/critic/mary-pols?filter=movies'
p4135
sg13
(dp4136
g279
F8
sg137
F8
sg70
F10
sg162
F8
sg153
F8
ssg16
VTime
p4137
sg18
NsbsVScreen International/Lee Marshall
p4138
g3
(g4
g5
NtRp4139
(dp4140
g8
g4138
sg9
VLee Marshall
p4141
sg11
S'http://www.metacritic.com/critic/lee-marshall?filter=movies'
p4142
sg13
(dp4143
g69
F10
sg75
F8
sg60
F8
sg216
F6
ssg16
VScreen International
p4144
sg18
NsbsVMovieline/Stephanie Zacharek
p4145
g3
(g4
g5
NtRp4146
(dp4147
g8
g4145
sg9
VStephanie Zacharek
p4148
sg11
S'http://www.metacritic.com/critic/stephanie-zacharek?filter=movies'
p4149
sg13
(dp4150
g137
F4
sg138
F9
sg162
F7.5
sg163
F9.5
sg151
F3
sg123
F8.5
sg153
F8.5
ssg16
VMovieline
p4151
sg18
NsbsVIndiewire/Eric Kohn
p4152
g3
(g4
g5
NtRp4153
(dp4154
g8
g4152
sg9
VEric Kohn
p4155
sg11
S'http://www.metacritic.com/critic/eric-kohn?filter=movies'
p4156
sg13
(dp4157
g111
F10
sg112
F7.5
sg91
F8.3000000000000007
sg276
F9.0999999999999996
sg63
F9.0999999999999996
sg277
F8.3000000000000007
sg67
F9.0999999999999996
sg207
F10
sg162
F6.7000000000000002
sg121
F9.0999999999999996
sg122
F6.7000000000000002
sg123
F10
sg127
F9.0999999999999996
sg64
F7.5
sg215
F10
sg128
F7.5
sg93
F9.0999999999999996
sg15
F7.5
sg68
F9.0999999999999996
sg132
F10
sg94
F10
sg61
F10
sg136
F6.7000000000000002
sg142
F9.0999999999999996
sg144
F7.5
sg69
F8.3000000000000007
sg70
F9.0999999999999996
sg177
F9.0999999999999996
sg71
F9.0999999999999996
sg152
F10
sg217
F10
sg154
F7.5
sg62
F8.3000000000000007
sg279
F7.5
sg165
F8.3000000000000007
sg65
F6.7000000000000002
sg75
F9.0999999999999996
sg72
F10
sg74
F7.5
sg60
F9.0999999999999996
ssg16
VIndiewire
p4158
sg18
NsbsVTime Out New York/Tomris Laffly
p4159
g3
(g4
g5
NtRp4160
(dp4161
g8
g4159
sg9
VTomris Laffly
p4162
sg11
S'http://www.metacritic.com/critic?filter=movies'
p4163
sg13
(dp4164
g64
F10
ssg16
VTime Out New York
p4165
sg18
NsbsVThe Guardian/Brian Moylan
p4166
g3
(g4
g5
NtRp4167
(dp4168
g8
g4166
sg9
VBrian Moylan
p4169
sg11
S'http://www.metacritic.com/critic?filter=movies'
p4170
sg13
(dp4171
g165
F8
ssg16
VThe Guardian
p4172
sg18
NsbsVPortland Oregonian/Diana Abu-Jaber
p4173
g3
(g4
g5
NtRp4174
(dp4175
g8
g4173
sg9
VDiana Abu-Jaber
p4176
sg11
S'http://www.metacritic.com/critic/diana-abu-jaber?filter=movies'
p4177
sg13
(dp4178
g125
F7.5
ssg16
VPortland Oregonian
p4179
sg18
NsbsVVariety/Rob Nelson
p4180
g3
(g4
g5
NtRp4181
(dp4182
g8
g4180
sg9
VRob Nelson
p4183
sg11
S'http://www.metacritic.com/critic/rob-nelson?filter=movies'
p4184
sg13
(dp4185
g521
F4
ssg16
VVariety
p4186
sg18
NsbsVChicago Tribune/Gene Siskel
p4187
g3
(g4
g5
NtRp4188
(dp4189
g8
g4187
sg9
VGene Siskel
p4190
sg11
S'http://www.metacritic.com/critic/gene-siskel?filter=movies'
p4191
sg13
(dp4192
g148
F10
sg51
F10
sg140
F10
ssg16
VChicago Tribune
p4193
sg18
NsbsVL.A. Weekly/Scott Foundas
p4194
g3
(g4
g5
NtRp4195
(dp4196
g8
g4194
sg9
VScott Foundas
p4197
sg11
S'http://www.metacritic.com/critic/scott-foundas?filter=movies'
p4198
sg13
(dp4199
g114
F5
sg159
F8
sg92
F9
sg145
F10
sg135
F8
sg118
F8
sg33
F10
sg133
F9
sg150
F9
sg34
F5
sg161
F10
sg35
F5
sg164
F10
ssg16
VL.A. Weekly
p4200
sg18
NsbsVNew York Post/Jonathan Foreman
p4201
g3
(g4
g5
NtRp4202
(dp4203
g8
g4201
sg9
VJonathan Foreman
p4204
sg11
S'http://www.metacritic.com/critic/jonathan-foreman?filter=movies'
p4205
sg13
(dp4206
g680
F10
sg253
F5
sg129
F7.5
sg119
F5
sg307
F10
ssg16
VNew York Post
p4207
sg18
NsbsVWashington Post/Michael O'Sullivan
p4208
g3
(g4
g5
NtRp4209
(dp4210
g8
g4208
sg9
VMichael O'Sullivan
p4211
sg11
S'http://www.metacritic.com/critic/michael-osullivan?filter=movies'
p4212
sg13
(dp4213
g25
F8.8000000000000007
sg143
F9
sg521
F7.5
sg217
F8.8000000000000007
sg557
F8.8000000000000007
ssg16
VWashington Post
p4214
sg18
NsbsVTotal Film/Emma Morgan
p4215
g3
(g4
g5
NtRp4216
(dp4217
g8
g4215
sg9
VEmma Morgan
p4218
sg11
S'http://www.metacritic.com/critic?filter=movies'
p4219
sg13
(dp4220
g142
F8
ssg16
VTotal Film
p4221
sg18
NsbsVFilm Threat/Harry Hartoonian
p4222
g3
(g4
g5
NtRp4223
(dp4224
g8
g4222
sg9
VHarry Hartoonian
p4225
sg11
S'http://www.metacritic.com/critic?filter=movies'
p4226
sg13
(dp4227
g52
F2
ssg16
VFilm Threat
p4228
sg18
NsbsVBoxoffice Magazine/Sara Maria Vizcarrondo
p4229
g3
(g4
g5
NtRp4230
(dp4231
g8
g4229
sg9
VSara Maria Vizcarrondo
p4232
sg11
S'http://www.metacritic.com/critic/sara-maria-vizcarrondo?filter=movies'
p4233
sg13
(dp4234
g115
F7
ssg16
VBoxoffice Magazine
p4235
sg18
NsbsVScreenCrush/Matt Singer
p4236
g3
(g4
g5
NtRp4237
(dp4238
g8
g4236
sg9
VMatt Singer
p4239
sg11
S'http://www.metacritic.com/critic/matt-singer?filter=movies'
p4240
sg13
(dp4241
g136
F7
sg64
F8
sg122
F8
ssg16
VScreenCrush
p4242
sg18
NsbsVSan Francisco Chronicle/Judy Stone
p4243
g3
(g4
g5
NtRp4244
(dp4245
g8
g4243
sg9
VJudy Stone
p4246
sg11
S'http://www.metacritic.com/critic?filter=movies'
p4247
sg13
(dp4248
g671
F7.5
ssg16
VSan Francisco Chronicle
p4249
sg18
NsbsVThe Guardian/Ed Gibbs
p4250
g3
(g4
g5
NtRp4251
(dp4252
g8
g4250
sg9
VEd Gibbs
p4253
sg11
S'http://www.metacritic.com/critic?filter=movies'
p4254
sg13
(dp4255
g158
F8
ssg16
VThe Guardian
p4256
sg18
NsbsVVariety/Guy Lodge
p4257
g3
(g4
g5
NtRp4258
(dp4259
g8
g4257
sg9
VGuy Lodge
p4260
sg11
S'http://www.metacritic.com/critic/guy-lodge?filter=movies'
p4261
sg13
(dp4262
g69
F10
sg278
F6
sg75
F10
sg216
F8
ssg16
VVariety
p4263
sg18
NsbsVWall Street Journal/Joanne Kaufman
p4264
g3
(g4
g5
NtRp4265
(dp4266
g8
g4264
sg9
VJoanne Kaufman
p4267
sg11
S'http://www.metacritic.com/critic?filter=movies'
p4268
sg13
(dp4269
g113
F5
ssg16
VWall Street Journal
p4270
sg18
NsbsVMcClatchy-Tribune News Service/Roger Moore
p4271
g3
(g4
g5
NtRp4272
(dp4273
g8
g4271
sg9
VRoger Moore
p4274
sg11
S'http://www.metacritic.com/critic/roger-moore?filter=movies'
p4275
sg13
(dp4276
g25
F7.5
sg62
F6.2999999999999998
sg127
F8.8000000000000007
sg142
F8.8000000000000007
sg67
F8.8000000000000007
sg68
F10
sg65
F10
sg132
F10
sg71
F6.2999999999999998
ssg16
VMcClatchy-Tribune News Service
p4277
sg18
NsbsVNewsweek/David Ansen
p4278
g3
(g4
g5
NtRp4279
(dp4280
g8
g4278
sg9
VDavid Ansen
p4281
sg11
S'http://www.metacritic.com/critic/david-ansen?filter=movies'
p4282
sg13
(dp4283
g117
F8
sg124
F6
sg103
F9
sg129
F10
sg33
F10
sg135
F10
sg307
F8
sg134
F10
sg34
F9
sg133
F7
sg139
F7
sg141
F10
sg145
F9
sg147
F5
sg166
F10
sg702
F10
sg157
F10
sg159
F7
sg289
F10
sg161
F10
sg168
F9
sg167
F9
ssg16
VNewsweek
p4284
sg18
NsbsVScreen International/Dan Fainaru
p4285
g3
(g4
g5
NtRp4286
(dp4287
g8
g4285
sg9
VDan Fainaru
p4288
sg11
S'http://www.metacritic.com/critic/dan-fainaru?filter=movies'
p4289
sg13
(dp4290
g278
F5
ssg16
VScreen International
p4291
sg18
NsbsVSlant Magazine/Matt Brennan
p4292
g3
(g4
g5
NtRp4293
(dp4294
g8
g4292
sg9
VMatt Brennan
p4295
sg11
S'http://www.metacritic.com/critic/matt-brennan?filter=movies'
p4296
sg13
(dp4297
g177
F10
ssg16
VSlant Magazine
p4298
sg18
NsbsVNew York Post/V.A. Musetto
p4299
g3
(g4
g5
NtRp4300
(dp4301
g8
g4299
sg9
VV.A. Musetto
p4302
sg11
S'http://www.metacritic.com/critic/va-musetto?filter=movies'
p4303
sg13
(dp4304
g306
F8.8000000000000007
sg276
F7.5
sg160
F8.8000000000000007
sg150
F7.5
sg289
F7.5
sg35
F5
sg168
F7.5
ssg16
VNew York Post
p4305
sg18
NsbsVSlant Magazine/Jake Cole
p4306
g3
(g4
g5
NtRp4307
(dp4308
g8
g4306
sg9
VJake Cole
p4309
sg11
S'http://www.metacritic.com/critic/jake-cole?filter=movies'
p4310
sg13
(dp4311
g64
F7.5
sg94
F10
ssg16
VSlant Magazine
p4312
sg18
NsbsVWall Street Journal/Julie Salamon
p4313
g3
(g4
g5
NtRp4314
(dp4315
g8
g4313
sg9
VJulie Salamon
p4316
sg11
S'http://www.metacritic.com/critic/julie-salamon?filter=movies'
p4317
sg13
(dp4318
g51
F10
sg671
F3
ssg16
VWall Street Journal
p4319
sg18
Nsbs.