(dp1
VThe Film Stage/Christopher Schobert
p2
ccopy_reg
_reconstructor
p3
(ccritic
Critic
p4
c__builtin__
object
p5
NtRp6
(dp7
S'ident'
p8
g2
sS'name'
p9
VChristopher Schobert
p10
sS'url'
p11
Vhttp://www.metacritic.com/critic/christopher-schobert?filter=movies
p12
sS'reviews'
p13
(dp14
S'12-years-a-slave'
p15
F10
ssS'source'
p16
VThe Film Stage
p17
sS'correlation'
p18
NsbsVThe Playlist/Nick Schager
p19
g3
(g4
g5
NtRp20
(dp21
g8
g19
sg9
VNick Schager
p22
sg11
Vhttp://www.metacritic.com/critic/nick-schager?filter=movies
p23
sg13
(dp24
S'sand-storm'
p25
F7.5
ssg16
VThe Playlist
p26
sg18
NsbsVThe New York Times/Nicolas Rapold
p27
g3
(g4
g5
NtRp28
(dp29
g8
g27
sg9
VNicolas Rapold
p30
sg11
Vhttp://www.metacritic.com/critic/nicolas-rapold?filter=movies
p31
sg13
(dp32
S'the-tale-of-the-princess-kaguya'
p33
F8
ssg16
VThe New York Times
p34
sg18
NsbsVEmpire/Alan Morrison
p35
g3
(g4
g5
NtRp36
(dp37
g8
g35
sg9
VAlan Morrison
p38
sg11
Vhttp://www.metacritic.com/critic/alan-morrison?filter=movies
p39
sg13
(dp40
S'paris-je-taime'
p41
F8
sS'the-lives-of-others'
p42
F10
sS'the-lord-of-the-rings-the-return-of-the-king'
p43
F10
ssg16
VEmpire
p44
sg18
NsbsVThe Guardian/Ryan Gilbey
p45
g3
(g4
g5
NtRp46
(dp47
g8
g45
sg9
VRyan Gilbey
p48
sg11
Nsg13
(dp49
S'a-fantastic-woman'
p50
F10
sS'the-other-side-of-hope'
p51
F8
ssg16
VThe Guardian
p52
sg18
NsbsVThe New Yorker/Terrence Rafferty
p53
g3
(g4
g5
NtRp54
(dp55
g8
g53
sg9
VTerrence Rafferty
p56
sg11
Nsg13
(dp57
S'schindlers-list'
p58
F10
sS'anaconda'
p59
F3
ssg16
VThe New Yorker
p60
sg18
NsbsVThe Telegraph/Robbie Collin
p61
g3
(g4
g5
NtRp62
(dp63
g8
g61
sg9
VRobbie Collin
p64
sg11
Vhttp://www.metacritic.com/critic/robbie-collin?filter=movies
p65
sg13
(dp66
S'the-shape-of-water'
p67
F10
sg33
F10
sS'three-billboards-outside-ebbing-missouri'
p68
F10
sS'phantom-thread'
p69
F10
sS'winter-sleep'
p70
F8
sS'last-flag-flying'
p71
F6
sS'boyhood'
p72
F10
sS'about-elly-2009'
p73
F8
sS'the-square-2017'
p74
F8
sS'the-immigrant'
p75
F4
sS'the-nice-guys'
p76
F8
sS'gravity'
p77
F10
sS'birdman-or-the-unexpected-virtue-of-ignorance'
p78
F10
sS'moonlight-2016'
p79
F10
sS'after-the-storm-2016'
p80
F10
sS'toni-erdmann'
p81
F10
sS'inside-llewyn-davis'
p82
F10
sS'loveless-2017'
p83
F10
sS'inherent-vice'
p84
F10
sS'nebraska'
p85
F8
sS'anomalisa'
p86
F10
sS'a-pigeon-sat-on-a-branch-reflecting-on-existence'
p87
F10
sS'spotlight'
p88
F8
sS'the-lobster'
p89
F8
ssg16
VThe Telegraph
p90
sg18
NsbsVEmpire/James White
p91
g3
(g4
g5
NtRp92
(dp93
g8
g91
sg9
VJames White
p94
sg11
Vhttp://www.metacritic.com/critic/james-white?filter=movies
p95
sg13
(dp96
g76
F8
ssg16
VEmpire
p97
sg18
NsbsVThe Globe and Mail (Toronto)/Kate Taylor
p98
g3
(g4
g5
NtRp99
(dp100
g8
g98
sg9
VKate Taylor
p101
sg11
Vhttp://www.metacritic.com/critic/kate-taylor?filter=movies
p102
sg13
(dp103
S'embrace-of-the-serpent'
p104
F6.2999999999999998
sS'the-salesman'
p105
F10
sS'manchester-by-the-sea'
p106
F10
sg71
F6.2999999999999998
sS'son-of-saul'
p107
F10
sg68
F8.8000000000000007
sS'up'
p108
F7.5
sS'graduation'
p109
F7.5
sS'rams'
p110
F7.5
sg50
F7.5
sg81
F7.5
sS'happy-end'
p111
F10
sS'paterson'
p112
F7.5
sg83
F6.2999999999999998
sg79
F10
sg89
F7.5
ssg16
VThe Globe and Mail (Toronto)
p113
sg18
NsbsVL.A. Weekly/F. X. Feeney
p114
g3
(g4
g5
NtRp115
(dp116
g8
g114
sg9
VF. X. Feeney
p117
sg11
Vhttp://www.metacritic.com/critic/f-x-feeney?filter=movies
p118
sg13
(dp119
S'magnolia'
p120
F10
ssg16
VL.A. Weekly
p121
sg18
NsbsVReelViews/James Berardinelli
p122
g3
(g4
g5
NtRp123
(dp124
g8
g122
sg9
VJames Berardinelli
p125
sg11
Vhttp://www.metacritic.com/critic/james-berardinelli?filter=movies
p126
sg13
(dp127
S'zero-dark-thirty'
p128
F8.8000000000000007
sg67
F8.8000000000000007
sg82
F7.5
sg76
F7.5
sS'american-wedding'
p129
F6.2999999999999998
sg106
F8.8000000000000007
sg69
F7.5
sS'django-unchained'
p130
F8.8000000000000007
sS'the-master'
p131
F7.5
sS'dr-strangelove-or-how-i-learned-to-stop-worrying-and-love-the-bomb'
p132
F10
sS'pans-labyrinth'
p133
F8.8000000000000007
sg77
F10
sg71
F7.5
sg72
F8.8000000000000007
sS'disobedience'
p134
F7.5
sg59
F5
sS'2-fast-2-furious'
p135
F1.2
sS'amour'
p136
F8.8000000000000007
sg107
F8.8000000000000007
sg74
F6.2999999999999998
sS'captain-fantastic'
p137
F7.5
sS'a-separation'
p138
F8.8000000000000007
sS'ghost-rider'
p139
F5
sS'4-months-3-weeks-and-2-days'
p140
F8.8000000000000007
sS'the-hangover'
p141
F7.5
sS'gangs-of-new-york'
p142
F7.5
sS'her'
p143
F8.8000000000000007
sg78
F7.5
sS'crazy-stupid-love'
p144
F7.5
sg68
F10
sS'the-hobbit-an-unexpected-journey'
p145
F7.5
sS'sicario'
p146
F8.8000000000000007
sS'capote'
p147
F8.8000000000000007
sS'2001-a-space-odyssey'
p148
F10
sS'the-fog-of-war-eleven-lessons-from-the-life-of-robert-s-mcnamara'
p149
F8.8000000000000007
sg43
F10
sS'children-of-men'
p150
F7.5
sS'fargo'
p151
F7.5
sS'the-lord-of-the-rings-the-two-towers'
p152
F10
sg42
F8.8000000000000007
sS'the-dukes-of-hazzard'
p153
F1.2
sS'the-incredibles'
p154
F8.8000000000000007
sS'there-will-be-blood'
p155
F7.5
sS'sully'
p156
F7.5
sS'the-hangover-part-ii'
p157
F7.5
sS'eyes-wide-shut'
p158
F8.8000000000000007
sS'ray'
p159
F5
sS'the-dark-knight'
p160
F10
sS'a-clockwork-orange'
p161
F10
sS'sideways'
p162
F8.8000000000000007
sS'the-grand-budapest-hotel'
p163
F7.5
sS'eternal-sunshine-of-the-spotless-mind'
p164
F8.8000000000000007
sS'the-dark-knight-rises'
p165
F8.8000000000000007
sS'superman-returns'
p166
F8.8000000000000007
sS'the-white-ribbon'
p167
F8.8000000000000007
sS'no-country-for-old-men'
p168
F8.8000000000000007
sS'into-the-wild'
p169
F8.8000000000000007
sS'wall-e'
p170
F8.8000000000000007
sS'brooklyn'
p171
F8.8000000000000007
sS'manhattan'
p172
F10
sS'a-very-long-engagement'
p173
F7.5
sS'spring-summer-fall-winter-and-spring'
p174
F8.8000000000000007
sS'chungking-express'
p175
F8.8000000000000007
sS'carol'
p176
F8.8000000000000007
sS'blue-valentine'
p177
F8.8000000000000007
sS'lincoln'
p178
F8.8000000000000007
sg79
F8.8000000000000007
sg84
F7.5
sS'rocknrolla'
p179
F5
sS'ratatouille'
p180
F7.5
sg58
F10
sS'me-and-earl-and-the-dying-girl'
p181
F8.8000000000000007
sg108
F7.5
sg88
F8.8000000000000007
sS'the-sixth-sense'
p182
F3.7999999999999998
sg85
F8.8000000000000007
sS'avatar'
p183
F10
sg15
F8.8000000000000007
sS'brokeback-mountain'
p184
F7.5
sS'midnight-in-paris'
p185
F7.5
sS'the-pianist'
p186
F8.8000000000000007
sg86
F7.5
sS'lost-in-translation'
p187
F10
ssg16
VReelViews
p188
sg18
NsbsVRogerEbert.com/Susan Wloszczyna
p189
g3
(g4
g5
NtRp190
(dp191
g8
g189
sg9
VSusan Wloszczyna
p192
sg11
Vhttp://www.metacritic.com/critic/susan-wloszczyna?filter=movies
p193
sg13
(dp194
g156
F7.5
sg15
F8.8000000000000007
sg81
F10
sS'45-years'
p195
F10
ssg16
VRogerEbert.com
p196
sg18
NsbsVIndieWire/Anisha Jhaveri
p197
g3
(g4
g5
NtRp198
(dp199
g8
g197
sg9
VAnisha Jhaveri
p200
sg11
Nsg13
(dp201
g181
F10
ssg16
VIndieWire
p202
sg18
NsbsVScreen International/Lee Marshall
p203
g3
(g4
g5
NtRp204
(dp205
g8
g203
sg9
VLee Marshall
p206
sg11
Vhttp://www.metacritic.com/critic/lee-marshall?filter=movies
p207
sg13
(dp208
S'victoria'
p209
F6
sg81
F10
sg111
F7
sg86
F8
sg74
F8
sg89
F8
ssg16
VScreen International
p210
sg18
NsbsVThe Playlist/Todd Gilchrist
p211
g3
(g4
g5
NtRp212
(dp213
g8
g211
sg9
VTodd Gilchrist
p214
sg11
Vhttp://www.metacritic.com/critic/todd-gilchrist?filter=movies
p215
sg13
(dp216
g165
F10
ssg16
VThe Playlist
p217
sg18
NsbsVVillage Voice/Michael Atkinson
p218
g3
(g4
g5
NtRp219
(dp220
g8
g218
sg9
VMichael Atkinson
p221
sg11
Vhttp://www.metacritic.com/critic/michael-atkinson?filter=movies
p222
sg13
(dp223
S'brazil'
p224
F10
sg182
F5
sg161
F8
sg132
F10
sS'the-academy-of-muses'
p225
F9
sg174
F8
sg159
F5
ssg16
VVillage Voice
p226
sg18
NsbsVSlant Magazine/Chuck Bowen
p227
g3
(g4
g5
NtRp228
(dp229
g8
g227
sg9
VChuck Bowen
p230
sg11
Vhttp://www.metacritic.com/critic/chuck-bowen?filter=movies
p231
sg13
(dp232
S'on-body-and-soul'
p233
F7.5
sg67
F5
sg105
F10
sg69
F10
sS'leviathan-2014'
p234
F8.8000000000000007
sg110
F7.5
sg86
F7.5
sg83
F8.8000000000000007
sg73
F8.8000000000000007
sS'wild-tales'
p235
F7.5
sg209
F5
ssg16
VSlant Magazine
p236
sg18
NsbsVSan Francisco Examiner/Walter Addiego
p237
g3
(g4
g5
NtRp238
(dp239
g8
g237
sg9
VWalter Addiego
p240
sg11
Vhttp://www.metacritic.com/critic/walter-addiego?filter=movies
p241
sg13
(dp242
g175
F8.8000000000000007
ssg16
VSan Francisco Examiner
p243
sg18
NsbsVThe Dissolve/Tasha Robinson
p244
g3
(g4
g5
NtRp245
(dp246
g8
g244
sg9
VTasha Robinson
p247
sg11
Vhttp://www.metacritic.com/critic/tasha-robinson?filter=movies
p248
sg13
(dp249
g235
F7
ssg16
VThe Dissolve
p250
sg18
NsbsVTime Out London/Nick Bradshaw
p251
g3
(g4
g5
NtRp252
(dp253
g8
g251
sg9
VNick Bradshaw
p254
sg11
Nsg13
(dp255
S'annie-hall-1977'
p256
F10
ssg16
VTime Out London
p257
sg18
NsbsVMiami Herald/Marta Barber
p258
g3
(g4
g5
NtRp259
(dp260
g8
g258
sg9
VMarta Barber
p261
sg11
Vhttp://www.metacritic.com/critic/marta-barber?filter=movies
p262
sg13
(dp263
S'the-return-2004'
p264
F8.8000000000000007
ssg16
VMiami Herald
p265
sg18
NsbsVWe Got This Covered/ Darren Ruecker
p266
g3
(g4
g5
NtRp267
(dp268
g8
g266
sg9
V Darren Ruecker
p269
sg11
Vhttp://www.metacritic.com/critic/darren-ruecker?filter=movies
p270
sg13
(dp271
g79
F10
sg106
F10
ssg16
VWe Got This Covered
p272
sg18
NsbsVNew York Post/Megan Lehmann
p273
g3
(g4
g5
NtRp274
(dp275
g8
g273
sg9
VMegan Lehmann
p276
sg11
Vhttp://www.metacritic.com/critic/megan-lehmann?filter=movies
p277
sg13
(dp278
g162
F10
ssg16
VNew York Post
p279
sg18
NsbsVTV Guide Magazine/Frank Lovece
p280
g3
(g4
g5
NtRp281
(dp282
g8
g280
sg9
VFrank Lovece
p283
sg11
Vhttp://www.metacritic.com/critic/frank-lovece?filter=movies
p284
sg13
(dp285
g151
F6
sS'the-wedding-planner'
p286
F2
sS'waking-life'
p287
F4
ssg16
VTV Guide Magazine
p288
sg18
NsbsVDallas Observer/Gregory Weinkauf
p289
g3
(g4
g5
NtRp290
(dp291
g8
g289
sg9
VGregory Weinkauf
p292
sg11
Vhttp://www.metacritic.com/critic/gregory-weinkauf?filter=movies
p293
sg13
(dp294
g132
F10
sg43
F10
sg187
F4
sg152
F9
ssg16
VDallas Observer
p295
sg18
NsbsVVariety/Charles Gant
p296
g3
(g4
g5
NtRp297
(dp298
g8
g296
sg9
VCharles Gant
p299
sg11
Vhttp://www.metacritic.com/critic/charles-gant?filter=movies
p300
sg13
(dp301
g195
F8
ssg16
VVariety
p302
sg18
NsbsVThe Guardian/Peter Bradshaw
p303
g3
(g4
g5
NtRp304
(dp305
g8
g303
sg9
VPeter Bradshaw
p306
sg11
Vhttp://www.metacritic.com/critic/peter-bradshaw?filter=movies
p307
sg13
(dp308
g130
F10
sg69
F10
sS'once-upon-a-time-in-anatolia'
p309
F10
sg148
F10
sS'mommy'
p310
F8
sg71
F4
sg136
F10
sg73
F8
sg74
F8
sg146
F8
sg143
F6
sg50
F10
sg76
F8
sg234
F10
sg145
F6
sg107
F10
sg75
F4
sg112
F8
sg155
F10
sg134
F8
sS'sweet-bean'
p311
F4
sg256
F10
sg81
F8
sg111
F10
sg195
F10
sg82
F10
sg83
F10
sg176
F10
sg105
F6
sS'beyond-the-hills'
p312
F8
sg171
F8
sg109
F10
sg85
F8
sg88
F6
sg89
F6
sS'ida'
p313
F8
ssg16
VThe Guardian
p314
sg18
NsbsVPortland Oregonian/Shawn Levy
p315
g3
(g4
g5
NtRp316
(dp317
g8
g315
sg9
VShawn Levy
p318
sg11
Vhttp://www.metacritic.com/critic/shawn-levy?filter=movies
p319
sg13
(dp320
g309
F8.3000000000000007
sg131
F8.3000000000000007
sg133
F10
sg144
F5.7999999999999998
sg138
F9.0999999999999996
sg159
F8.3000000000000007
sS'american-beauty'
p321
F8.3000000000000007
sg142
F7.5
sg120
F8.3000000000000007
sg152
F9.0999999999999996
sg147
F10
sg43
F10
sg150
F7.5
sg170
F8.3000000000000007
sg141
F7.5
sg42
F10
sg153
F5
sg155
F9.0999999999999996
sg157
F6.7000000000000002
sg185
F8.3000000000000007
sg160
F8.3000000000000007
sg162
F9.0999999999999996
sg164
F9.0999999999999996
sg165
F7.5
sg166
F5.7999999999999998
sg167
F8.3000000000000007
sg168
F9.0999999999999996
sg169
F8.3000000000000007
sS'persepolis'
p322
F8.3000000000000007
sg173
F9.0999999999999996
sS'amelie'
p323
F8.3000000000000007
sg287
F10
sg180
F9.0999999999999996
sg108
F8.3000000000000007
sg140
F8.3000000000000007
sg183
F8.3000000000000007
sg184
F9.0999999999999996
sg186
F9.0999999999999996
sg187
F10
ssg16
VPortland Oregonian
p324
sg18
NsbsVVillage Voice/David Ng
p325
g3
(g4
g5
NtRp326
(dp327
g8
g325
sg9
VDavid Ng
p328
sg11
Nsg13
(dp329
g129
F5
ssg16
VVillage Voice
p330
sg18
NsbsVTime Out/Dave Calhoun
p331
g3
(g4
g5
NtRp332
(dp333
g8
g331
sg9
VDave Calhoun
p334
sg11
Vhttp://www.metacritic.com/critic/dave-calhoun?filter=movies
p335
sg13
(dp336
g111
F8
ssg16
VTime Out
p337
sg18
NsbsVThe Globe and Mail (Toronto)/Stephen Cole
p338
g3
(g4
g5
NtRp339
(dp340
g8
g338
sg9
VStephen Cole
p341
sg11
Vhttp://www.metacritic.com/critic/stephen-cole?filter=movies
p342
sg13
(dp343
S'days-of-being-wild-re-release'
p344
F10
ssg16
VThe Globe and Mail (Toronto)
p345
sg18
NsbsVTheWrap/Tricia Olszewski
p346
g3
(g4
g5
NtRp347
(dp348
g8
g346
sg9
VTricia Olszewski
p349
sg11
Vhttp://www.metacritic.com/critic/tricia-olszewski?filter=movies
p350
sg13
(dp351
g80
F10
ssg16
VTheWrap
p352
sg18
NsbsVVariety/Emanuel Levy
p353
g3
(g4
g5
NtRp354
(dp355
g8
g353
sg9
VEmanuel Levy
p356
sg11
Vhttp://www.metacritic.com/critic/emanuel-levy?filter=movies
p357
sg13
(dp358
g120
F7
ssg16
VVariety
p359
sg18
NsbsVNPR/Bob Mondello
p360
g3
(g4
g5
NtRp361
(dp362
g8
g360
sg9
VBob Mondello
p363
sg11
Vhttp://www.metacritic.com/critic/bob-mondello?filter=movies
p364
sg13
(dp365
g128
F9.5
sg107
F10
sg84
F7.5
sg160
F9.5
sg144
F7
sg234
F9
sg181
F8
sg165
F8.5
sg77
F9
sg145
F7.5
sg72
F10
sg78
F9
sg85
F9.5
sg15
F10
sg89
F9
sg170
F9
sg73
F9
sS'the-salt-of-the-earth'
p366
F9
sg138
F10
ssg16
VNPR
p367
sg18
NsbsVPremiere/Stephen Saito
p368
g3
(g4
g5
NtRp369
(dp370
g8
g368
sg9
VStephen Saito
p371
sg11
Nsg13
(dp372
g150
F8.8000000000000007
ssg16
VPremiere
p373
sg18
NsbsVSlant Magazine/Clayton Dillard
p374
g3
(g4
g5
NtRp375
(dp376
g8
g374
sg9
VClayton Dillard
p377
sg11
Vhttp://www.metacritic.com/critic/clayton-dillard?filter=movies
p378
sg13
(dp379
g25
F6.2999999999999998
sg366
F7.5
sg51
F6.2999999999999998
ssg16
VSlant Magazine
p380
sg18
NsbsVL.A. Weekly/John Powers
p381
g3
(g4
g5
NtRp382
(dp383
g8
g381
sg9
VJohn Powers
p384
sg11
Vhttp://www.metacritic.com/critic/john-powers?filter=movies
p385
sg13
(dp386
g164
F7
sg142
F6
ssg16
VL.A. Weekly
p387
sg18
NsbsVNPR/Stephanie Zacharek
p388
g3
(g4
g5
NtRp389
(dp390
g8
g388
sg9
VStephanie Zacharek
p391
sg11
Nsg13
(dp392
g130
F9
ssg16
VNPR
p393
sg18
NsbsVNew York Magazine (Vulture)/Bilge Ebiri
p394
g3
(g4
g5
NtRp395
(dp396
g8
g394
sg9
VBilge Ebiri
p397
sg11
Vhttp://www.metacritic.com/critic/bilge-ebiri?filter=movies
p398
sg13
(dp399
g33
F10
sg106
F10
sg70
F7
sg234
F8
sg25
F9
sg366
F8
ssg16
VNew York Magazine (Vulture)
p400
sg18
NsbsVTV Guide Magazine/Staff (Non Credited)
p401
g3
(g4
g5
NtRp402
(dp403
g8
g401
sg9
VStaff (Non Credited)
p404
sg11
Nsg13
(dp405
S'the-thin-blue-line'
p406
F7
ssg16
VTV Guide Magazine
p407
sg18
NsbsVScreen International/Wendy Ide
p408
g3
(g4
g5
NtRp409
(dp410
g8
g408
sg9
VWendy Ide
p411
sg11
Vhttp://www.metacritic.com/critic/wendy-ide?filter=movies
p412
sg13
(dp413
g50
F10
sg80
F8
ssg16
VScreen International
p414
sg18
NsbsVVillage Voice/Peter L'Official
p415
g3
(g4
g5
NtRp416
(dp417
g8
g415
sg9
VPeter L'Official
p418
sg11
Nsg13
(dp419
g153
F3
ssg16
VVillage Voice
p420
sg18
NsbsVConsequence of Sound/None
p421
g3
(g4
g5
NtRp422
(dp423
g8
g421
sg9
Nsg11
Nsg13
(dp424
g106
F10
ssg16
VConsequence of Sound
p425
sg18
NsbsVLos Angeles Times/Robert Abele
p426
g3
(g4
g5
NtRp427
(dp428
g8
g426
sg9
VRobert Abele
p429
sg11
Vhttp://www.metacritic.com/critic/robert-abele?filter=movies
p430
sg13
(dp431
g310
F7
ssg16
VLos Angeles Times
p432
sg18
NsbsVTheWrap/Diane Garrett
p433
g3
(g4
g5
NtRp434
(dp435
g8
g433
sg9
VDiane Garrett
p436
sg11
Vhttp://www.metacritic.com/critic/diane-garrett?filter=movies
p437
sg13
(dp438
g75
F7
ssg16
VTheWrap
p439
sg18
NsbsVFilm Threat/Pete Vonder Haar
p440
g3
(g4
g5
NtRp441
(dp442
g8
g440
sg9
VPete Vonder Haar
p443
sg11
Vhttp://www.metacritic.com/critic/pete-vonder-haar?filter=movies
p444
sg13
(dp445
g160
F9
sg180
F8
sg166
F5
sg169
F9
sg170
F9
sg153
F3
sg154
F9
ssg16
VFilm Threat
p446
sg18
NsbsVSlant Magazine/Keith Watson
p447
g3
(g4
g5
NtRp448
(dp449
g8
g447
sg9
VKeith Watson
p450
sg11
Vhttp://www.metacritic.com/critic/keith-watson?filter=movies
p451
sg13
(dp452
g137
F2.5
ssg16
VSlant Magazine
p453
sg18
NsbsVThe Guardian/Katey Rich
p454
g3
(g4
g5
NtRp455
(dp456
g8
g454
sg9
VKatey Rich
p457
sg11
Nsg13
(dp458
g128
F10
sg178
F8
ssg16
VThe Guardian
p459
sg18
NsbsVSlate/Michael Agger
p460
g3
(g4
g5
NtRp461
(dp462
g8
g460
sg9
VMichael Agger
p463
sg11
Nsg13
(dp464
g135
F3
ssg16
VSlate
p465
sg18
NsbsVThe New York Times/Glenn Kenny
p466
g3
(g4
g5
NtRp467
(dp468
g8
g466
sg9
VGlenn Kenny
p469
sg11
Vhttp://www.metacritic.com/critic/glenn-kenny?filter=movies
p470
sg13
(dp471
g80
F9
sg111
F9
sg311
F9
sS'april-and-the-extraordinary-world'
p472
F10
ssg16
VThe New York Times
p473
sg18
NsbsVMiami Herald/Charles Savage
p474
g3
(g4
g5
NtRp475
(dp476
g8
g474
sg9
VCharles Savage
p477
sg11
Vhttp://www.metacritic.com/critic/charles-savage?filter=movies
p478
sg13
(dp479
S'gone-in-sixty-seconds'
p480
F5
ssg16
VMiami Herald
p481
sg18
NsbsVPaste Magazine/Tim Grierson
p482
g3
(g4
g5
NtRp483
(dp484
g8
g482
sg9
VTim Grierson
p485
sg11
Vhttp://www.metacritic.com/critic/tim-grierson?filter=movies
p486
sg13
(dp487
g51
F8
sg68
F8.1999999999999993
sg71
F6.5
sg111
F8.6999999999999993
sg83
F9
sg74
F7.5
ssg16
VPaste Magazine
p488
sg18
NsbsVEmpire/Mark Dinning
p489
g3
(g4
g5
NtRp490
(dp491
g8
g489
sg9
VMark Dinning
p492
sg11
Nsg13
(dp493
g160
F10
ssg16
VEmpire
p494
sg18
NsbsVThe Film Stage/Raffi Asdourian
p495
g3
(g4
g5
NtRp496
(dp497
g8
g495
sg9
VRaffi Asdourian
p498
sg11
Nsg13
(dp499
g82
F8.3000000000000007
ssg16
VThe Film Stage
p500
sg18
NsbsVL.A. Weekly/David Chute
p501
g3
(g4
g5
NtRp502
(dp503
g8
g501
sg9
VDavid Chute
p504
sg11
Vhttp://www.metacritic.com/critic/david-chute?filter=movies
p505
sg13
(dp506
g135
F6
sg154
F10
ssg16
VL.A. Weekly
p507
sg18
NsbsVTime Out/Tomris Laffly
p508
g3
(g4
g5
NtRp509
(dp510
g8
g508
sg9
VTomris Laffly
p511
sg11
Nsg13
(dp512
g76
F10
sg134
F6
ssg16
VTime Out
p513
sg18
NsbsVChicago Reader/J.R. Jones
p514
g3
(g4
g5
NtRp515
(dp516
g8
g514
sg9
VJ.R. Jones
p517
sg11
Vhttp://www.metacritic.com/critic/jr-jones?filter=movies
p518
sg13
(dp519
g157
F7
sg139
F5
sg160
F8
sg185
F8
sg165
F3
sg166
F6
sg167
F8
sg152
F9
sg140
F10
sg129
F5
sg141
F9
sg183
F10
sg322
F10
sg174
F8
sg135
F4
sg154
F6
sg138
F10
sg177
F8
ssg16
VChicago Reader
p520
sg18
NsbsVDallas Observer/Luke Y. Thompson
p521
g3
(g4
g5
NtRp522
(dp523
g8
g521
sg9
VLuke Y. Thompson
p524
sg11
Vhttp://www.metacritic.com/critic/luke-y-thompson?filter=movies
p525
sg13
(dp526
g129
F5
sg286
F2
ssg16
VDallas Observer
p527
sg18
NsbsVArizona Republic/Barbara VanDenburgh
p528
g3
(g4
g5
NtRp529
(dp530
g8
g528
sg9
VBarbara VanDenburgh
p531
sg11
Vhttp://www.metacritic.com/critic/barbara-vandenburgh?filter=movies
p532
sg13
(dp533
g50
F8
sg111
F6
sS'dheepan'
p534
F7
ssg16
VArizona Republic
p535
sg18
NsbsVTheWrap/Ben Croll
p536
g3
(g4
g5
NtRp537
(dp538
g8
g536
sg9
VBen Croll
p539
sg11
Vhttp://www.metacritic.com/critic/ben-croll?filter=movies
p540
sg13
(dp541
g105
F8
sg112
F8.5
ssg16
VTheWrap
p542
sg18
NsbsVThe New York Times/Janet Maslin
p543
g3
(g4
g5
NtRp544
(dp545
g8
g543
sg9
VJanet Maslin
p546
sg11
Nsg13
(dp547
g224
F10
sg321
F9
sg120
F8
sg175
F6
ssg16
VThe New York Times
p548
sg18
NsbsVScreen International/Allan Hunter
p549
g3
(g4
g5
NtRp550
(dp551
g8
g549
sg9
VAllan Hunter
p552
sg11
Vhttp://www.metacritic.com/critic/allan-hunter?filter=movies
p553
sg13
(dp554
g134
F8
sg105
F8
sg534
F9
sg110
F8
ssg16
VScreen International
p555
sg18
NsbsVRogerEbert.com/Christy Lemire
p556
g3
(g4
g5
NtRp557
(dp558
g8
g556
sg9
VChristy Lemire
p559
sg11
Nsg13
(dp560
g78
F10
sg85
F8.8000000000000007
sg107
F8.8000000000000007
ssg16
VRogerEbert.com
p561
sg18
NsbsVTime Out/Joshua Rothkopf
p562
g3
(g4
g5
NtRp563
(dp564
g8
g562
sg9
VJoshua Rothkopf
p565
sg11
Vhttp://www.metacritic.com/critic/joshua-rothkopf?filter=movies
p566
sg13
(dp567
g128
F10
sg67
F6
sg72
F10
sg106
F10
sg69
F10
sg130
F8
sg131
F6
sg71
F10
sS'the-central-park-five'
p568
F8
sg136
F8
sg137
F6
sg138
F10
sg77
F8
sg148
F10
sS'gett-the-trial-of-viviane-amsalem'
p569
F10
sg79
F10
sg156
F6
sg157
F8
sg163
F10
sg167
F8
sg171
F10
sg82
F10
sg177
F10
sg178
F10
sg84
F8
sS'the-end-of-the-tour'
p570
F8
ssg16
VTime Out
p571
sg18
NsbsVNewsweek/Jeff Giles
p572
g3
(g4
g5
NtRp573
(dp574
g8
g572
sg9
VJeff Giles
p575
sg11
Nsg13
(dp576
g154
F9
ssg16
VNewsweek
p577
sg18
NsbsVThe Globe and Mail (Toronto)/John Semley
p578
g3
(g4
g5
NtRp579
(dp580
g8
g578
sg9
VJohn Semley
p581
sg11
Vhttp://www.metacritic.com/critic/john-semley?filter=movies
p582
sg13
(dp583
g570
F2.5
sg51
F10
ssg16
VThe Globe and Mail (Toronto)
p584
sg18
NsbsVVillage Voice/Casey Burchby
p585
g3
(g4
g5
NtRp586
(dp587
g8
g585
sg9
VCasey Burchby
p588
sg11
Nsg13
(dp589
g568
F8
ssg16
VVillage Voice
p590
sg18
NsbsVTotal Film/Rosie Fletcher
p591
g3
(g4
g5
NtRp592
(dp593
g8
g591
sg9
VRosie Fletcher
p594
sg11
Nsg13
(dp595
S'what-we-do-in-the-shadows'
p596
F8
ssg16
VTotal Film
p597
sg18
NsbsVChicago Sun-Times/Roger Ebert
p598
g3
(g4
g5
NtRp599
(dp600
g8
g598
sg9
VRoger Ebert
p601
sg11
Vhttp://www.metacritic.com/critic/roger-ebert?filter=movies
p602
sg13
(dp603
g264
F7.5
sg128
F7.5
sg130
F10
sg309
F8.8000000000000007
sg131
F6.2999999999999998
sg132
F10
sg133
F10
sg322
F10
sS'in-the-mood-for-love'
p604
F7.5
sg129
F7.5
sg568
F8.8000000000000007
sg144
F7.5
sg59
F8.8000000000000007
sg135
F7.5
sS'full-metal-jacket'
p605
F6.2999999999999998
sg152
F7.5
sg138
F10
sg159
F10
sg224
F5
sg140
F10
sg142
F8.8000000000000007
sS'fallen-angels'
p606
F7.5
sg120
F10
sg323
F8.8000000000000007
sg147
F10
sg148
F10
sg43
F8.8000000000000007
sg150
F10
sg256
F10
sg151
F10
sS'gosford-park'
p607
F10
sg42
F10
sg153
F2.5
sg154
F8.8000000000000007
sg155
F8.8000000000000007
sg480
F5
sg157
F5
sg158
F8.8000000000000007
sg160
F10
sg161
F5
sg162
F10
sg164
F8.8000000000000007
sg165
F7.5
sg166
F5
sg167
F10
sg168
F10
sg169
F10
sg170
F8.8000000000000007
sg173
F8.8000000000000007
sg141
F8.8000000000000007
sg136
F10
sg286
F5
sS'crimes-and-misdemeanors'
p608
F10
sg177
F8.8000000000000007
sg321
F10
sg178
F10
sg287
F10
sg175
F7.5
sg179
F7.5
sg180
F10
sg58
F10
sg185
F8.8000000000000007
sg108
F10
sg172
F8.8000000000000007
sg182
F7.5
sg406
F8.8000000000000007
sg149
F10
sg183
F10
sg184
F10
sS'hannah-and-her-sisters'
p609
F10
sg186
F8.8000000000000007
sg187
F10
ssg16
VChicago Sun-Times
p610
sg18
NsbsVObserver/Thelma Adams
p611
g3
(g4
g5
NtRp612
(dp613
g8
g611
sg9
VThelma Adams
p614
sg11
Nsg13
(dp615
g105
F7.5
ssg16
VObserver
p616
sg18
NsbsVPremiere/Eric Kohn
p617
g3
(g4
g5
NtRp618
(dp619
g8
g617
sg9
VEric Kohn
p620
sg11
Nsg13
(dp621
g160
F7.5
ssg16
VPremiere
p622
sg18
NsbsVFilm.com/Kate Erbland
p623
g3
(g4
g5
NtRp624
(dp625
g8
g623
sg9
VKate Erbland
p626
sg11
Nsg13
(dp627
g163
F8.1999999999999993
ssg16
VFilm.com
p628
sg18
NsbsVEmpire/Kim Newman
p629
g3
(g4
g5
NtRp630
(dp631
g8
g629
sg9
VKim Newman
p632
sg11
Vhttp://www.metacritic.com/critic/kim-newman?filter=movies
p633
sg13
(dp634
g161
F10
sg147
F10
sg128
F10
sg133
F10
sg58
F10
ssg16
VEmpire
p635
sg18
NsbsVNew York Post/Farran Smith Nehme
p636
g3
(g4
g5
NtRp637
(dp638
g8
g636
sg9
VFarran Smith Nehme
p639
sg11
Vhttp://www.metacritic.com/critic/farran-smith-nehme?filter=movies
p640
sg13
(dp641
g136
F10
sg104
F5
sg209
F6.2999999999999998
sg312
F8.8000000000000007
sg70
F7.5
sg310
F6.2999999999999998
sg234
F10
sg107
F6.2999999999999998
sg110
F8.8000000000000007
sg195
F8.8000000000000007
sg569
F8.8000000000000007
sg87
F7.5
sg534
F7.5
sg73
F10
sg235
F7.5
sg313
F8.8000000000000007
ssg16
VNew York Post
p642
sg18
NsbsVTotal Film/James Mottram
p643
g3
(g4
g5
NtRp644
(dp645
g8
g643
sg9
VJames Mottram
p646
sg11
Vhttp://www.metacritic.com/critic/james-mottram?filter=movies
p647
sg13
(dp648
g84
F8
sg70
F8
sg76
F8
sg77
F10
sg71
F8
sg87
F6
ssg16
VTotal Film
p649
sg18
NsbsVNew York Daily News/Kathleen Carroll
p650
g3
(g4
g5
NtRp651
(dp652
g8
g650
sg9
VKathleen Carroll
p653
sg11
Vhttp://www.metacritic.com/critic/kathleen-carroll?filter=movies
p654
sg13
(dp655
g256
F10
sg148
F6.2999999999999998
ssg16
VNew York Daily News
p656
sg18
NsbsVBoxoffice Magazine/James Rocchi
p657
g3
(g4
g5
NtRp658
(dp659
g8
g657
sg9
VJames Rocchi
p660
sg11
Nsg13
(dp661
g128
F9
sg136
F8
sg145
F4
sg130
F10
ssg16
VBoxoffice Magazine
p662
sg18
NsbsVEmpire/Rob Fraser
p663
g3
(g4
g5
NtRp664
(dp665
g8
g663
sg9
VRob Fraser
p666
sg11
Nsg13
(dp667
g187
F10
ssg16
VEmpire
p668
sg18
NsbsVVariety/Joe Leydon
p669
g3
(g4
g5
NtRp670
(dp671
g8
g669
sg9
VJoe Leydon
p672
sg11
Vhttp://www.metacritic.com/critic/joe-leydon?filter=movies
p673
sg13
(dp674
g141
F9
sg179
F8
sg59
F5
ssg16
VVariety
p675
sg18
NsbsVThe Playlist/Chris Willman
p676
g3
(g4
g5
NtRp677
(dp678
g8
g676
sg9
VChris Willman
p679
sg11
Nsg13
(dp680
g15
F9.0999999999999996
ssg16
VThe Playlist
p681
sg18
NsbsVSlant Magazine/Jaime N. Christley
p682
g3
(g4
g5
NtRp683
(dp684
g8
g682
sg9
VJaime N. Christley
p685
sg11
Vhttp://www.metacritic.com/critic/jaime-n-christley?filter=movies
p686
sg13
(dp687
g256
F8.8000000000000007
sg172
F8.8000000000000007
ssg16
VSlant Magazine
p688
sg18
NsbsVThe New Republic/Stanley Kauffmann
p689
g3
(g4
g5
NtRp690
(dp691
g8
g689
sg9
VStanley Kauffmann
p692
sg11
Vhttp://www.metacritic.com/critic/stanley-kauffmann?filter=movies
p693
sg13
(dp694
g264
F5
sg224
F4
sg142
F6
sg148
F3
sg162
F8
sg164
F10
sg186
F8
sg147
F7
sg184
F10
sg173
F7
sg58
F10
sg151
F8
sg605
F3
sg42
F9
sg41
F6
sg609
F7
sg608
F8
sg187
F9
ssg16
VThe New Republic
p695
sg18
NsbsVNew York Daily News/Elizabeth Weitzman
p696
g3
(g4
g5
NtRp697
(dp698
g8
g696
sg9
VElizabeth Weitzman
p699
sg11
Vhttp://www.metacritic.com/critic/elizabeth-weitzman?filter=movies
p700
sg13
(dp701
g157
F4
sg84
F8
sg179
F5
sg143
F10
sg108
F8
sg145
F6
sg78
F8
sg144
F6
sg82
F10
sg174
F7.5
ssg16
VNew York Daily News
p702
sg18
NsbsVThe New Yorker/Anthony Lane
p703
g3
(g4
g5
NtRp704
(dp705
g8
g703
sg9
VAnthony Lane
p706
sg11
Vhttp://www.metacritic.com/critic/anthony-lane?filter=movies
p707
sg13
(dp708
g264
F9
sg67
F9
sg76
F7
sg106
F9
sg69
F9
sg130
F5
sg131
F9
sg133
F9
sg71
F5
sg72
F9
sg136
F9
sg73
F8
sg74
F7
sg146
F8
sg138
F9
sg143
F9
sg78
F9
sg68
F8
sg234
F8
sg145
F6
sg596
F7
sg107
F9
sg50
F7
sg43
F8
sg150
F8
sg112
F7
sg152
F9
sg42
F10
sg154
F8
sg89
F7
sg164
F8
sg165
F7
sg166
F5
sg168
F7
sg322
F7
sg111
F7
sg82
F8
sg83
F9
sg176
F9
sg323
F4
sg177
F8
sg105
F8
sg84
F8
sg179
F5
sg312
F8
sg109
F7
sg570
F7
sg140
F8
sg178
F7
sg184
F9
sg88
F9
sg86
F8
ssg16
VThe New Yorker
p709
sg18
NsbsVNPR/Ella Taylor
p710
g3
(g4
g5
NtRp711
(dp712
g8
g710
sg9
VElla Taylor
p713
sg11
Vhttp://www.metacritic.com/critic/ella-taylor?filter=movies
p714
sg13
(dp715
g136
F9
sg131
F9.5
sg185
F7.5
ssg16
VNPR
p716
sg18
NsbsVFilm.com/William Goss
p717
g3
(g4
g5
NtRp718
(dp719
g8
g717
sg9
VWilliam Goss
p720
sg11
Vhttp://www.metacritic.com/critic/william-goss?filter=movies
p721
sg13
(dp722
g72
F9.5
sg15
F8.5999999999999996
sg77
F9.4000000000000004
ssg16
VFilm.com
p723
sg18
NsbsVAustin Chronicle/Josh Kupecki
p724
g3
(g4
g5
NtRp725
(dp726
g8
g724
sg9
VJosh Kupecki
p727
sg11
Nsg13
(dp728
g84
F7.7999999999999998
sg366
F7.7999999999999998
sg74
F7.7999999999999998
sg89
F7.7999999999999998
ssg16
VAustin Chronicle
p729
sg18
NsbsVFilm Threat/Kevin Carr
p730
g3
(g4
g5
NtRp731
(dp732
g8
g730
sg9
VKevin Carr
p733
sg11
Nsg13
(dp734
g43
F7
ssg16
VFilm Threat
p735
sg18
NsbsVSlant Magazine/Christopher Gray
p736
g3
(g4
g5
NtRp737
(dp738
g8
g736
sg9
VChristopher Gray
p739
sg11
Vhttp://www.metacritic.com/critic/christopher-gray?filter=movies
p740
sg13
(dp741
g50
F5
sg81
F8.8000000000000007
sg181
F3.7999999999999998
sg106
F8.8000000000000007
sg71
F7.5
ssg16
VSlant Magazine
p742
sg18
NsbsVThe Playlist/Noel Murray
p743
g3
(g4
g5
NtRp744
(dp745
g8
g743
sg9
VNoel Murray
p746
sg11
Vhttp://www.metacritic.com/critic/noel-murray?filter=movies
p747
sg13
(dp748
g106
F9.0999999999999996
ssg16
VThe Playlist
p749
sg18
NsbsVLos Angeles Times/Kevin Crust
p750
g3
(g4
g5
NtRp751
(dp752
g8
g750
sg9
VKevin Crust
p753
sg11
Vhttp://www.metacritic.com/critic/kevin-crust?filter=movies
p754
sg13
(dp755
g344
F9
ssg16
VLos Angeles Times
p756
sg18
NsbsVThe A.V. Club/Keith Phipps
p757
g3
(g4
g5
NtRp758
(dp759
g8
g757
sg9
VKeith Phipps
p760
sg11
Vhttp://www.metacritic.com/critic/keith-phipps?filter=movies
p761
sg13
(dp762
g178
F7.5
sg139
F3.2999999999999998
sg160
F10
sg185
F6.7000000000000002
sg167
F10
sg168
F10
sg182
F8
sg43
F9
sg150
F10
sg141
F5.7999999999999998
sg184
F8
sg152
F10
sg153
F5
ssg16
VThe A.V. Club
p763
sg18
NsbsVCineVue/John Bleasdale
p764
g3
(g4
g5
NtRp765
(dp766
g8
g764
sg9
VJohn Bleasdale
p767
sg11
Vhttp://www.metacritic.com/critic/john-bleasdale?filter=movies
p768
sg13
(dp769
g67
F8
sg70
F8
sg310
F10
sg74
F6
sg146
F8
sS'the-postmans-white-nights'
p770
F8
sg68
F8
sg234
F10
sg107
F10
sg78
F10
sg534
F6
sg112
F10
sg80
F8
sg311
F6
sg81
F6
sg111
F8
sg83
F10
sg235
F6
sg105
F8
sg110
F8
sg137
F6
sg89
F8
sg87
F8
sg86
F10
ssg16
VCineVue
p771
sg18
NsbsVSeattle Post-Intelligencer/Sean Axmaker
p772
g3
(g4
g5
NtRp773
(dp774
g8
g772
sg9
VSean Axmaker
p775
sg11
Vhttp://www.metacritic.com/critic/sean-axmaker?filter=movies
p776
sg13
(dp777
g140
F10
sg287
F6.7000000000000002
sg180
F9.0999999999999996
sg160
F10
sg133
F10
sg168
F10
sg604
F10
sg129
F6.7000000000000002
sg344
F8.3000000000000007
sg322
F10
sg607
F10
sg170
F9.0999999999999996
sg42
F8.3000000000000007
sg41
F9.0999999999999996
sg187
F10
ssg16
VSeattle Post-Intelligencer
p778
sg18
NsbsVThe Film Stage/Raphael Deutsch
p779
g3
(g4
g5
NtRp780
(dp781
g8
g779
sg9
VRaphael Deutsch
p782
sg11
Nsg13
(dp783
g110
F7.5
ssg16
VThe Film Stage
p784
sg18
NsbsVMovieline/Alison Willmore
p785
g3
(g4
g5
NtRp786
(dp787
g8
g785
sg9
VAlison Willmore
p788
sg11
Nsg13
(dp789
g128
F9
sg136
F7
sg131
F9
sg178
F9
sg130
F6
ssg16
VMovieline
p790
sg18
NsbsVWashington Post/Rita Kempley
p791
g3
(g4
g5
NtRp792
(dp793
g8
g791
sg9
VRita Kempley
p794
sg11
Vhttp://www.metacritic.com/critic/rita-kempley?filter=movies
p795
sg13
(dp796
g58
F6
sg120
F8
sg59
F3
sg151
F9
sg605
F9
sg323
F9
sg608
F7
ssg16
VWashington Post
p797
sg18
NsbsVMovie Nation/Roger Moore
p798
g3
(g4
g5
NtRp799
(dp800
g8
g798
sg9
VRoger Moore
p801
sg11
Vhttp://www.metacritic.com/critic/roger-moore?filter=movies
p802
sg13
(dp803
g67
F6.2999999999999998
sg68
F10
sg156
F7.5
sg106
F8.8000000000000007
sg69
F7.5
sg310
F7.5
sg71
F5
sg146
F8.8000000000000007
sg76
F6.2999999999999998
sg234
F7.5
sg596
F6.2999999999999998
sg74
F6.2999999999999998
sg50
F7.5
sg112
F5
sg79
F8.8000000000000007
sg233
F7.5
sg134
F7.5
sg569
F7.5
sg209
F7.5
sg81
F6.2999999999999998
sg176
F7.5
sg105
F7.5
sg181
F8.8000000000000007
sg171
F7.5
sg570
F8.8000000000000007
sg137
F6.2999999999999998
sg89
F5
sg87
F5
sg88
F10
sg86
F5
ssg16
VMovie Nation
p804
sg18
NsbsVFilm.com/Jordan Hoffman
p805
g3
(g4
g5
NtRp806
(dp807
g8
g805
sg9
VJordan Hoffman
p808
sg11
Vhttp://www.metacritic.com/critic/jordan-hoffman?filter=movies
p809
sg13
(dp810
g75
F8
sg85
F6.9000000000000004
sg82
F9.5
ssg16
VFilm.com
p811
sg18
NsbsVSan Francisco Chronicle/Bob Graham
p812
g3
(g4
g5
NtRp813
(dp814
g8
g812
sg9
VBob Graham
p815
sg11
Vhttp://www.metacritic.com/critic/bob-graham?filter=movies
p816
sg13
(dp817
g120
F7.5
sg158
F7.5
sg286
F5
ssg16
VSan Francisco Chronicle
p818
sg18
NsbsVTime/Stephanie Zacharek
p819
g3
(g4
g5
NtRp820
(dp821
g8
g819
sg9
VStephanie Zacharek
p822
sg11
Vhttp://www.metacritic.com/critic/stephanie-zacharek?filter=movies
p823
sg13
(dp824
g67
F8
sg134
F7
sg106
F9
sg69
F5
sg104
F9
sg76
F7
sg107
F10
sg81
F9
sg195
F9
sg89
F8
sg112
F10
sg79
F10
sg137
F7
sg86
F6
ssg16
VTime
p825
sg18
NsbsVFilm Threat/Michael Dequina
p826
g3
(g4
g5
NtRp827
(dp828
g8
g826
sg9
VMichael Dequina
p829
sg11
Vhttp://www.metacritic.com/critic/michael-dequina?filter=movies
p830
sg13
(dp831
g135
F7
ssg16
VFilm Threat
p832
sg18
NsbsVLos Angeles Times/Kevin Thomas
p833
g3
(g4
g5
NtRp834
(dp835
g8
g833
sg9
VKevin Thomas
p836
sg11
Vhttp://www.metacritic.com/critic/kevin-thomas?filter=movies
p837
sg13
(dp838
g606
F9
sg286
F6
sg287
F8
sg175
F10
sg406
F7
ssg16
VLos Angeles Times
p839
sg18
NsbsVThe Hollywood Reporter/John Mahoney
p840
g3
(g4
g5
NtRp841
(dp842
g8
g840
sg9
VJohn Mahoney
p843
sg11
Nsg13
(dp844
g148
F10
ssg16
VThe Hollywood Reporter
p845
sg18
NsbsVTV Guide Magazine/Staff (Not Credited)
p846
g3
(g4
g5
NtRp847
(dp848
g8
g846
sg9
VStaff (Not Credited)
p849
sg11
Nsg13
(dp850
g224
F7
sg58
F10
sg161
F10
sg256
F8
sg132
F10
sg148
F9
sg59
F5
sg605
F8
sg172
F10
sg608
F7
ssg16
VTV Guide Magazine
p851
sg18
NsbsVWe Got This Covered/Lauren Humphries-Brooks
p852
g3
(g4
g5
NtRp853
(dp854
g8
g852
sg9
VLauren Humphries-Brooks
p855
sg11
Vhttp://www.metacritic.com/critic/lauren-humphries-brooks?filter=movies
p856
sg13
(dp857
g71
F6
ssg16
VWe Got This Covered
p858
sg18
NsbsVVillage Voice/Eric Hynes
p859
g3
(g4
g5
NtRp860
(dp861
g8
g859
sg9
VEric Hynes
p862
sg11
Nsg13
(dp863
g157
F2
ssg16
VVillage Voice
p864
sg18
NsbsVPhiladelphia Inquirer/Steven Rea
p865
g3
(g4
g5
NtRp866
(dp867
g8
g865
sg9
VSteven Rea
p868
sg11
Vhttp://www.metacritic.com/critic/steven-rea?filter=movies
p869
sg13
(dp870
g128
F10
sg130
F6.2999999999999998
sg82
F10
sg72
F10
sg131
F7.5
sg145
F5
sg604
F10
sg136
F10
sg41
F6.2999999999999998
sg146
F7.5
sg138
F8.8000000000000007
sg159
F6.2999999999999998
sg142
F5
sg143
F10
sg78
F10
sg120
F7.5
sg76
F7.5
sg234
F8.8000000000000007
sg77
F10
sg596
F7.5
sg107
F8.8000000000000007
sg75
F8.8000000000000007
sg534
F8.8000000000000007
sg150
F8.8000000000000007
sg569
F8.8000000000000007
sg170
F7.5
sg43
F7.5
sg153
F5
sg310
F7.5
sg155
F8.8000000000000007
sg156
F8.8000000000000007
sg89
F10
sg163
F10
sg164
F10
sg165
F7.5
sg166
F8.8000000000000007
sg167
F6.2999999999999998
sg168
F8.8000000000000007
sg171
F10
sg195
F10
sg173
F7.5
sg141
F7.5
sg176
F10
sg323
F10
sg235
F8.8000000000000007
sg177
F6.2999999999999998
sg178
F8.8000000000000007
sg287
F8.8000000000000007
sg84
F6.2999999999999998
sg179
F5
sg180
F8.8000000000000007
sg312
F7.5
sg110
F8.8000000000000007
sg570
F8.8000000000000007
sg85
F10
sg183
F8.8000000000000007
sg15
F10
sg88
F10
sg86
F8.8000000000000007
sg313
F10
ssg16
VPhiladelphia Inquirer
p871
sg18
NsbsVTime/John Anderson
p872
g3
(g4
g5
NtRp873
(dp874
g8
g872
sg9
VJohn Anderson
p875
sg11
Nsg13
(dp876
g88
F9
ssg16
VTime
p877
sg18
NsbsVWe Got This Covered/Joseph Falcone
p878
g3
(g4
g5
NtRp879
(dp880
g8
g878
sg9
VJoseph Falcone
p881
sg11
Vhttp://www.metacritic.com/critic/joseph-falcone?filter=movies
p882
sg13
(dp883
g112
F8
ssg16
VWe Got This Covered
p884
sg18
NsbsVVariety/Scott Foundas
p885
g3
(g4
g5
NtRp886
(dp887
g8
g885
sg9
VScott Foundas
p888
sg11
Vhttp://www.metacritic.com/critic/scott-foundas?filter=movies
p889
sg13
(dp890
g84
F10
sg143
F10
sg85
F10
sg534
F7
sg82
F10
sg146
F10
ssg16
VVariety
p891
sg18
NsbsVWashington Post/Gary Arnold
p892
g3
(g4
g5
NtRp893
(dp894
g8
g892
sg9
VGary Arnold
p895
sg11
Vhttp://www.metacritic.com/critic/gary-arnold?filter=movies
p896
sg13
(dp897
g256
F6
ssg16
VWashington Post
p898
sg18
NsbsVEntertainment Weekly/Bruce Fretts
p899
g3
(g4
g5
NtRp900
(dp901
g8
g899
sg9
VBruce Fretts
p902
sg11
Vhttp://www.metacritic.com/critic/bruce-fretts?filter=movies
p903
sg13
(dp904
g129
F1.6000000000000001
ssg16
VEntertainment Weekly
p905
sg18
NsbsVAustin Chronicle/Russell Smith
p906
g3
(g4
g5
NtRp907
(dp908
g8
g906
sg9
VRussell Smith
p909
sg11
Vhttp://www.metacritic.com/critic/russell-smith?filter=movies
p910
sg13
(dp911
g606
F7.7999999999999998
ssg16
VAustin Chronicle
p912
sg18
NsbsVEntertainment Weekly/Staff (Not Credited)
p913
g3
(g4
g5
NtRp914
(dp915
g8
g913
sg9
VStaff (Not Credited)
p916
sg11
Nsg13
(dp917
g224
F10
ssg16
VEntertainment Weekly
p918
sg18
NsbsVVariety/Maggie Lee
p919
g3
(g4
g5
NtRp920
(dp921
g8
g919
sg9
VMaggie Lee
p922
sg11
Vhttp://www.metacritic.com/critic/maggie-lee?filter=movies
p923
sg13
(dp924
g80
F8
sg33
F9
ssg16
VVariety
p925
sg18
NsbsVThe New York Times/Bosley Crowther
p926
g3
(g4
g5
NtRp927
(dp928
g8
g926
sg9
VBosley Crowther
p929
sg11
Nsg13
(dp930
g132
F7
ssg16
VThe New York Times
p931
sg18
NsbsVNew York Daily News/Stephen Whitty 
p932
g3
(g4
g5
NtRp933
(dp934
g8
g932
sg9
VStephen Whitty 
p935
sg11
Vhttp://www.metacritic.com/critic/stephen-whitty?filter=movies
p936
sg13
(dp937
g156
F6
sg106
F10
sg171
F8
sg176
F10
sg79
F8
sg137
F8
sg89
F7
ssg16
VNew York Daily News
p938
sg18
NsbsVUSA Today/Scott Bowles
p939
g3
(g4
g5
NtRp940
(dp941
g8
g939
sg9
VScott Bowles
p942
sg11
Vhttp://www.metacritic.com/critic/scott-bowles?filter=movies
p943
sg13
(dp944
g157
F5
ssg16
VUSA Today
p945
sg18
NsbsVPaste Magazine/Jonah Flicker
p946
g3
(g4
g5
NtRp947
(dp948
g8
g946
sg9
VJonah Flicker
p949
sg11
Nsg13
(dp950
g82
F9
ssg16
VPaste Magazine
p951
sg18
NsbsVTotal Film/Rob James
p952
g3
(g4
g5
NtRp953
(dp954
g8
g952
sg9
VRob James
p955
sg11
Nsg13
(dp956
g79
F10
ssg16
VTotal Film
p957
sg18
NsbsVMr. Showbiz/Kevin Maynard
p958
g3
(g4
g5
NtRp959
(dp960
g8
g958
sg9
VKevin Maynard
p961
sg11
Vhttp://www.metacritic.com/critic/kevin-maynard?filter=movies
p962
sg13
(dp963
g182
F3
sg120
F8.5
sg286
F3.5
ssg16
VMr. Showbiz
p964
sg18
NsbsVVariety/David Rooney
p965
g3
(g4
g5
NtRp966
(dp967
g8
g965
sg9
VDavid Rooney
p968
sg11
Vhttp://www.metacritic.com/critic/david-rooney?filter=movies
p969
sg13
(dp970
g147
F10
sg187
F8
ssg16
VVariety
p971
sg18
NsbsVTime Out/David Fear
p972
g3
(g4
g5
NtRp973
(dp974
g8
g972
sg9
VDavid Fear
p975
sg11
Vhttp://www.metacritic.com/critic/david-fear?filter=movies
p976
sg13
(dp977
g309
F6
sg15
F10
sg85
F6
sg165
F6
sg143
F8
ssg16
VTime Out
p978
sg18
NsbsVChristian Science Monitor/David Sterritt
p979
g3
(g4
g5
NtRp980
(dp981
g8
g979
sg9
VDavid Sterritt
p982
sg11
Vhttp://www.metacritic.com/critic/david-sterritt?filter=movies
p983
sg13
(dp984
g264
F10
sg604
F7.5
sg129
F2.5
sg59
F7.5
sg135
F2.5
sg605
F10
sg152
F7.5
sg159
F7.5
sg321
F7.5
sg142
F7.5
sg120
F5
sg406
F10
sg43
F5
sg607
F10
sg154
F7.5
sg480
F2.5
sg158
F7.5
sg162
F10
sg164
F10
sg344
F10
sg173
F7.5
sg174
F10
sg323
F7.5
sg287
F7.5
sg58
F8.8000000000000007
sg182
F5
sg149
F10
sg286
F0
sg186
F7.5
sg187
F10
ssg16
VChristian Science Monitor
p985
sg18
NsbsVCineVue/Rory O'Connor
p986
g3
(g4
g5
NtRp987
(dp988
g8
g986
sg9
VRory O'Connor
p989
sg11
Nsg13
(dp990
g176
F8
ssg16
VCineVue
p991
sg18
NsbsVThe Seattle Times/Soren Andersen
p992
g3
(g4
g5
NtRp993
(dp994
g8
g992
sg9
VSoren Andersen
p995
sg11
Vhttp://www.metacritic.com/critic/soren-andersen?filter=movies
p996
sg13
(dp997
g71
F7.5
sg86
F8.8000000000000007
sg104
F7.5
ssg16
VThe Seattle Times
p998
sg18
NsbsVVillage Voice/Amy Nicholson
p999
g3
(g4
g5
NtRp1000
(dp1001
g8
g999
sg9
VAmy Nicholson
p1002
sg11
Vhttp://www.metacritic.com/critic/amy-nicholson?filter=movies
p1003
sg13
(dp1004
g163
F9
sg85
F9
sg146
F6
sg86
F10
sg209
F10
ssg16
VVillage Voice
p1005
sg18
NsbsVVillage Voice/Simon Abrams
p1006
g3
(g4
g5
NtRp1007
(dp1008
g8
g1006
sg9
VSimon Abrams
p1009
sg11
Vhttp://www.metacritic.com/critic/simon-abrams?filter=movies
p1010
sg13
(dp1011
g569
F9
ssg16
VVillage Voice
p1012
sg18
NsbsVPortland Oregonian/Roger Moore
p1013
g3
(g4
g5
NtRp1014
(dp1015
g8
g1013
sg9
VRoger Moore
p1016
sg11
Nsg13
(dp1017
g129
F5
ssg16
VPortland Oregonian
p1018
sg18
NsbsVSlant Magazine/Eric Henderson
p1019
g3
(g4
g5
NtRp1020
(dp1021
g8
g1019
sg9
VEric Henderson
p1022
sg11
Nsg13
(dp1023
g156
F6.2999999999999998
sg77
F8.8000000000000007
ssg16
VSlant Magazine
p1024
sg18
NsbsVThe Globe and Mail (Toronto)/Simon Houpt
p1025
g3
(g4
g5
NtRp1026
(dp1027
g8
g1025
sg9
VSimon Houpt
p1028
sg11
Nsg13
(dp1029
g156
F6.2999999999999998
ssg16
VThe Globe and Mail (Toronto)
p1030
sg18
NsbsVPremiere/Peter Debruge
p1031
g3
(g4
g5
NtRp1032
(dp1033
g8
g1031
sg9
VPeter Debruge
p1034
sg11
Vhttp://www.metacritic.com/critic/peter-debruge?filter=movies
p1035
sg13
(dp1036
g153
F5
sg159
F7.5
ssg16
VPremiere
p1037
sg18
NsbsVL.A. Weekly/Ernest Hardy
p1038
g3
(g4
g5
NtRp1039
(dp1040
g8
g1038
sg9
VErnest Hardy
p1041
sg11
Vhttp://www.metacritic.com/critic/ernest-hardy?filter=movies
p1042
sg13
(dp1043
g59
F3
ssg16
VL.A. Weekly
p1044
sg18
NsbsVVillage Voice/Nick Schager
p1045
g3
(g4
g5
NtRp1046
(dp1047
g8
g1045
sg9
VNick Schager
p1048
sg11
Vhttp://www.metacritic.com/critic/nick-schager?filter=movies
p1049
sg13
(dp1050
g171
F10
ssg16
VVillage Voice
p1051
sg18
NsbsVSlant Magazine/Ed Gonzalez
p1052
g3
(g4
g5
NtRp1053
(dp1054
g8
g1052
sg9
VEd Gonzalez
p1055
sg11
Vhttp://www.metacritic.com/critic/ed-gonzalez?filter=movies
p1056
sg13
(dp1057
g72
F7.5
sg134
F7.5
sg143
F10
sg145
F7.5
sg107
F5
sg604
F10
sg75
F8.8000000000000007
sg15
F5
sg146
F7.5
ssg16
VSlant Magazine
p1058
sg18
NsbsVNew York Daily News/Allen Salkin
p1059
g3
(g4
g5
NtRp1060
(dp1061
g8
g1059
sg9
VAllen Salkin
p1062
sg11
Nsg13
(dp1063
g86
F10
ssg16
VNew York Daily News
p1064
sg18
NsbsVLos Angeles Times/Betsy Sharkey
p1065
g3
(g4
g5
NtRp1066
(dp1067
g8
g1065
sg9
VBetsy Sharkey
p1068
sg11
Vhttp://www.metacritic.com/critic/betsy-sharkey?filter=movies
p1069
sg13
(dp1070
g130
F10
sg157
F5
sg72
F10
sg84
F10
sg78
F10
sg70
F9
sg167
F9
sg75
F8
sg144
F8
sg141
F8
sg569
F9
sg177
F8
ssg16
VLos Angeles Times
p1071
sg18
NsbsVThe Playlist/Kevin Jagernauth
p1072
g3
(g4
g5
NtRp1073
(dp1074
g8
g1072
sg9
VKevin Jagernauth
p1075
sg11
Vhttp://www.metacritic.com/critic/kevin-jagernauth?filter=movies
p1076
sg13
(dp1077
g312
F8.3000000000000007
sg136
F8.3000000000000007
sg134
F8.3000000000000007
sg82
F10
ssg16
VThe Playlist
p1078
sg18
NsbsVChicago Tribune/Michael Wilmington
p1079
g3
(g4
g5
NtRp1080
(dp1081
g8
g1079
sg9
VMichael Wilmington
p1082
sg11
Vhttp://www.metacritic.com/critic/michael-wilmington?filter=movies
p1083
sg13
(dp1084
g264
F10
sg132
F10
sg133
F10
sg604
F7.5
sg129
F3.7999999999999998
sg41
F8.8000000000000007
sg159
F10
sg142
F10
sg120
F10
sg152
F10
sg148
F10
sg43
F10
sg607
F10
sg42
F8.8000000000000007
sg480
F8.8000000000000007
sg158
F10
sg162
F10
sg344
F10
sg173
F10
sg174
F8.8000000000000007
sg323
F10
sg287
F10
sg175
F8.8000000000000007
sg321
F8.8000000000000007
sg149
F10
sg186
F10
ssg16
VChicago Tribune
p1085
sg18
NsbsVVillage Voice/Nathan Lee
p1086
g3
(g4
g5
NtRp1087
(dp1088
g8
g1086
sg9
VNathan Lee
p1089
sg11
Nsg13
(dp1090
g139
F4
ssg16
VVillage Voice
p1091
sg18
NsbsVUSA Today/Mike Clark
p1092
g3
(g4
g5
NtRp1093
(dp1094
g8
g1092
sg9
VMike Clark
p1095
sg11
Vhttp://www.metacritic.com/critic/mike-clark?filter=movies
p1096
sg13
(dp1097
g604
F5
sg129
F6.2999999999999998
sg59
F7.5
sg135
F5
sg605
F10
sg159
F8.8000000000000007
sg321
F10
sg142
F8.8000000000000007
sg120
F8.8000000000000007
sg607
F10
sg151
F7.5
sg153
F6.2999999999999998
sg158
F10
sg162
F10
sg173
F8.8000000000000007
sg406
F10
sg58
F10
sg182
F8.8000000000000007
sg149
F10
sg184
F10
sg286
F3.7999999999999998
sg186
F8.8000000000000007
sg187
F8.8000000000000007
ssg16
VUSA Today
p1098
sg18
NsbsVRogerEbert.com/Godfrey Cheshire
p1099
g3
(g4
g5
NtRp1100
(dp1101
g8
g1099
sg9
VGodfrey Cheshire
p1102
sg11
Vhttp://www.metacritic.com/critic/godfrey-cheshire?filter=movies
p1103
sg13
(dp1104
S'tempestad'
p1105
F7.5
sg105
F8.8000000000000007
sg234
F8.8000000000000007
sg109
F10
sg25
F6.2999999999999998
sg83
F8.8000000000000007
sg73
F10
sg235
F10
sg313
F10
ssg16
VRogerEbert.com
p1106
sg18
NsbsVSlant Magazine/Jesse Cataldo
p1107
g3
(g4
g5
NtRp1108
(dp1109
g8
g1107
sg9
VJesse Cataldo
p1110
sg11
Vhttp://www.metacritic.com/critic/jesse-cataldo?filter=movies
p1111
sg13
(dp1112
g1105
F7.5
sg70
F8.8000000000000007
sg163
F8.8000000000000007
sg88
F6.2999999999999998
sg534
F6.2999999999999998
sg87
F7.5
sg570
F6.2999999999999998
ssg16
VSlant Magazine
p1113
sg18
NsbsVSlant Magazine/Oleg Ivanov
p1114
g3
(g4
g5
NtRp1115
(dp1116
g8
g1114
sg9
VOleg Ivanov
p1117
sg11
Nsg13
(dp1118
g472
F7.5
sg596
F8.8000000000000007
ssg16
VSlant Magazine
p1119
sg18
NsbsVThe A.V. Club/Tasha Robinson
p1120
g3
(g4
g5
NtRp1121
(dp1122
g8
g1120
sg9
VTasha Robinson
p1123
sg11
Vhttp://www.metacritic.com/critic/tasha-robinson?filter=movies
p1124
sg13
(dp1125
g170
F10
sg108
F8.3000000000000007
sg145
F6.7000000000000002
sg180
F9.0999999999999996
ssg16
VThe A.V. Club
p1126
sg18
NsbsVPaste Magazine/Will Leitch
p1127
g3
(g4
g5
NtRp1128
(dp1129
g8
g1127
sg9
VWill Leitch
p1130
sg11
Vhttp://www.metacritic.com/critic/will-leitch?filter=movies
p1131
sg13
(dp1132
g69
F8.8000000000000007
ssg16
VPaste Magazine
p1133
sg18
NsbsVMiami Herald/Connie Ogle
p1134
g3
(g4
g5
NtRp1135
(dp1136
g8
g1134
sg9
VConnie Ogle
p1137
sg11
Vhttp://www.metacritic.com/critic/connie-ogle?filter=movies
p1138
sg13
(dp1139
g181
F6.2999999999999998
sg153
F2.5
sg171
F10
sg607
F8.8000000000000007
ssg16
VMiami Herald
p1140
sg18
NsbsVEmpire/Liz Beardsworth
p1141
g3
(g4
g5
NtRp1142
(dp1143
g8
g1141
sg9
VLiz Beardsworth
p1144
sg11
Nsg13
(dp1145
g72
F10
sg534
F8
sg209
F10
ssg16
VEmpire
p1146
sg18
NsbsVEmpire/Ian Nathan
p1147
g3
(g4
g5
NtRp1148
(dp1149
g8
g1147
sg9
VIan Nathan
p1150
sg11
Vhttp://www.metacritic.com/critic/ian-nathan?filter=movies
p1151
sg13
(dp1152
g178
F10
sg84
F8
sg143
F8
sg180
F10
sg77
F10
sg166
F10
sg168
F10
sg173
F8
ssg16
VEmpire
p1153
sg18
NsbsVEmpire/Ian Freer
p1154
g3
(g4
g5
NtRp1155
(dp1156
g8
g1154
sg9
VIan Freer
p1157
sg11
Nsg13
(dp1158
g78
F10
sg70
F8
sg310
F8
sg108
F8
sg71
F8
sg81
F10
sg111
F8
sg15
F8
sg256
F10
sg86
F10
ssg16
VEmpire
p1159
sg18
NsbsVDallas Observer/Melissa Levine
p1160
g3
(g4
g5
NtRp1161
(dp1162
g8
g1160
sg9
VMelissa Levine
p1163
sg11
Nsg13
(dp1164
g162
F9
sg149
F10
sg173
F5
ssg16
VDallas Observer
p1165
sg18
NsbsVTime Out London/Dave Calhoun
p1166
g3
(g4
g5
NtRp1167
(dp1168
g8
g1166
sg9
VDave Calhoun
p1169
sg11
Vhttp://www.metacritic.com/critic/dave-calhoun?filter=movies
p1170
sg13
(dp1171
g105
F6
sg163
F8
sg82
F10
sg51
F8
sg70
F8
sg310
F8
sg68
F8
sg234
F8
sg109
F10
sg75
F4
sg81
F10
sg85
F8
sg534
F8
sg89
F6
sg195
F10
sg176
F10
sg73
F6
sg88
F10
sg86
F10
sg155
F10
ssg16
VTime Out London
p1172
sg18
NsbsVVillage Voice/Bilge Ebiri
p1173
g3
(g4
g5
NtRp1174
(dp1175
g8
g1173
sg9
VBilge Ebiri
p1176
sg11
Vhttp://www.metacritic.com/critic/bilge-ebiri?filter=movies
p1177
sg13
(dp1178
g67
F9
sg80
F10
sg69
F10
sg105
F6
sg71
F6
sg111
F5
sg534
F8
sg112
F10
sg83
F10
sg74
F9
ssg16
VVillage Voice
p1179
sg18
NsbsVFilm Threat/Tim Merrill
p1180
g3
(g4
g5
NtRp1181
(dp1182
g8
g1180
sg9
VTim Merrill
p1183
sg11
Vhttp://www.metacritic.com/critic/tim-merrill?filter=movies
p1184
sg13
(dp1185
g607
F8
ssg16
VFilm Threat
p1186
sg18
NsbsVThe Telegraph/Mike McCahill
p1187
g3
(g4
g5
NtRp1188
(dp1189
g8
g1187
sg9
VMike McCahill
p1190
sg11
Vhttp://www.metacritic.com/critic/mike-mccahill?filter=movies
p1191
sg13
(dp1192
g235
F6
ssg16
VThe Telegraph
p1193
sg18
NsbsVFilm.com/Eric D. Snider
p1194
g3
(g4
g5
NtRp1195
(dp1196
g8
g1194
sg9
VEric D. Snider
p1197
sg11
Nsg13
(dp1198
g312
F2.5
ssg16
VFilm.com
p1199
sg18
NsbsVSlate/Sam Adams
p1200
g3
(g4
g5
NtRp1201
(dp1202
g8
g1200
sg9
VSam Adams
p1203
sg11
Vhttp://www.metacritic.com/critic/sam-adams?filter=movies
p1204
sg13
(dp1205
g50
F9
ssg16
VSlate
p1206
sg18
NsbsVTV Guide Magazine/Staff(not credited)
p1207
g3
(g4
g5
NtRp1208
(dp1209
g8
g1207
sg9
VStaff(not credited)
p1210
sg11
Nsg13
(dp1211
g609
F8
ssg16
VTV Guide Magazine
p1212
sg18
NsbsVTNT RoughCut/J. Rentilly
p1213
g3
(g4
g5
NtRp1214
(dp1215
g8
g1213
sg9
VJ. Rentilly
p1216
sg11
Vhttp://www.metacritic.com/critic/j-rentilly?filter=movies
p1217
sg13
(dp1218
g480
F3
ssg16
VTNT RoughCut
p1219
sg18
NsbsVDallas Observer/Arnold Wayne Jones
p1220
g3
(g4
g5
NtRp1221
(dp1222
g8
g1220
sg9
VArnold Wayne Jones
p1223
sg11
Nsg13
(dp1224
g151
F10
ssg16
VDallas Observer
p1225
sg18
NsbsVVillage Voice/Jessica Winter
p1226
g3
(g4
g5
NtRp1227
(dp1228
g8
g1226
sg9
VJessica Winter
p1229
sg11
Vhttp://www.metacritic.com/critic/jessica-winter?filter=movies
p1230
sg13
(dp1231
g286
F4
sg154
F7
sg173
F6
ssg16
VVillage Voice
p1232
sg18
NsbsVVariety/Derek Elley
p1233
g3
(g4
g5
NtRp1234
(dp1235
g8
g1233
sg9
VDerek Elley
p1236
sg11
Vhttp://www.metacritic.com/critic/derek-elley?filter=movies
p1237
sg13
(dp1238
g42
F8
sg175
F7
sg150
F8
sg174
F8
ssg16
VVariety
p1239
sg18
NsbsVTime/Mary Pols
p1240
g3
(g4
g5
NtRp1241
(dp1242
g8
g1240
sg9
VMary Pols
p1243
sg11
Vhttp://www.metacritic.com/critic/mary-pols?filter=movies
p1244
sg13
(dp1245
g312
F8
sg157
F8
sg144
F8
sg177
F8
ssg16
VTime
p1246
sg18
NsbsVVillage Voice/Sherilyn Connelly
p1247
g3
(g4
g5
NtRp1248
(dp1249
g8
g1247
sg9
VSherilyn Connelly
p1250
sg11
Vhttp://www.metacritic.com/critic/sherilyn-connelly?filter=movies
p1251
sg13
(dp1252
g33
F7
sg472
F8
ssg16
VVillage Voice
p1253
sg18
NsbsVEmpire/Dan Jolin
p1254
g3
(g4
g5
NtRp1255
(dp1256
g8
g1254
sg9
VDan Jolin
p1257
sg11
Vhttp://www.metacritic.com/critic/dan-jolin?filter=movies
p1258
sg13
(dp1259
g130
F8
sg33
F8
sg69
F8
sg162
F10
sg145
F8
sg596
F8
sg169
F8
sg82
F10
sg79
F10
sg146
F10
ssg16
VEmpire
p1260
sg18
NsbsVEmpire/Nick de Semlyen
p1261
g3
(g4
g5
NtRp1262
(dp1263
g8
g1261
sg9
VNick de Semlyen
p1264
sg11
Nsg13
(dp1265
g157
F4
ssg16
VEmpire
p1266
sg18
NsbsVNewsweek/Ann-Rebecca Laschever
p1267
g3
(g4
g5
NtRp1268
(dp1269
g8
g1267
sg9
VAnn-Rebecca Laschever
p1270
sg11
Nsg13
(dp1271
g321
F4
ssg16
VNewsweek
p1272
sg18
NsbsVPremiere/Glenn Kenny
p1273
g3
(g4
g5
NtRp1274
(dp1275
g8
g1273
sg9
VGlenn Kenny
p1276
sg11
Vhttp://www.metacritic.com/critic/glenn-kenny?filter=movies
p1277
sg13
(dp1278
g264
F6.2999999999999998
sg147
F8.8000000000000007
sg140
F10
sg180
F10
sg162
F10
sg164
F10
sg133
F10
sg168
F10
sg169
F7.5
sg135
F6.2999999999999998
sg43
F10
sg173
F8.8000000000000007
sg322
F10
sg174
F8.8000000000000007
sg184
F10
sg42
F8.8000000000000007
sg187
F10
sg155
F10
ssg16
VPremiere
p1279
sg18
NsbsVSalon/Stephanie Zacharek
p1280
g3
(g4
g5
NtRp1281
(dp1282
g8
g1280
sg9
VStephanie Zacharek
p1283
sg11
Vhttp://www.metacritic.com/critic/stephanie-zacharek?filter=movies
p1284
sg13
(dp1285
g133
F9
sg604
F9
sg129
F1
sg142
F6
sg147
F6
sg141
F9
sg150
F8
sg607
F9
sg170
F7
sg42
F8
sg153
F4
sg154
F10
sg155
F5
sg160
F5
sg164
F7
sg166
F9
sg169
F6
sg287
F9
sg179
F4
sg180
F10
sg108
F5
sg183
F5
sg184
F5
sg187
F10
ssg16
VSalon
p1286
sg18
NsbsVLos Angeles Times/Manohla Dargis
p1287
g3
(g4
g5
NtRp1288
(dp1289
g8
g1287
sg9
VManohla Dargis
p1290
sg11
Vhttp://www.metacritic.com/critic/manohla-dargis?filter=movies
p1291
sg13
(dp1292
g135
F3
sg129
F3
sg164
F9
sg186
F9
sg152
F7
ssg16
VLos Angeles Times
p1293
sg18
NsbsVNew York Daily News/Jami Bernard
p1294
g3
(g4
g5
NtRp1295
(dp1296
g8
g1294
sg9
VJami Bernard
p1297
sg11
Vhttp://www.metacritic.com/critic/jami-bernard?filter=movies
p1298
sg13
(dp1299
g264
F8.8000000000000007
sg287
F8.8000000000000007
sg142
F7.5
sg120
F5
sg154
F8.8000000000000007
sg321
F10
sg135
F3.7999999999999998
sg607
F8.8000000000000007
sg184
F10
sg186
F8.8000000000000007
ssg16
VNew York Daily News
p1300
sg18
NsbsVDallas Observer/Andy Klein
p1301
g3
(g4
g5
NtRp1302
(dp1303
g8
g1301
sg9
VAndy Klein
p1304
sg11
Vhttp://www.metacritic.com/critic/andy-klein?filter=movies
p1305
sg13
(dp1306
g604
F8
sg186
F9
ssg16
VDallas Observer
p1307
sg18
NsbsVTV Guide Magazine/Ethan Alter
p1308
g3
(g4
g5
NtRp1309
(dp1310
g8
g1308
sg9
VEthan Alter
p1311
sg11
Nsg13
(dp1312
g162
F8
sg159
F6
ssg16
VTV Guide Magazine
p1313
sg18
NsbsVFilm.com/Elizabeth Weitzman
p1314
g3
(g4
g5
NtRp1315
(dp1316
g8
g1314
sg9
VElizabeth Weitzman
p1317
sg11
Vhttp://www.metacritic.com/critic/elizabeth-weitzman?filter=movies
p1318
sg13
(dp1319
g151
F8
ssg16
VFilm.com
p1320
sg18
NsbsVPremiere/Rob Calvert
p1321
g3
(g4
g5
NtRp1322
(dp1323
g8
g1321
sg9
VRob Calvert
p1324
sg11
Nsg13
(dp1325
g141
F10
ssg16
VPremiere
p1326
sg18
NsbsVThe New York Times/Jeannette Catsoulis
p1327
g3
(g4
g5
NtRp1328
(dp1329
g8
g1327
sg9
VJeannette Catsoulis
p1330
sg11
Vhttp://www.metacritic.com/critic/jeannette-catsoulis?filter=movies
p1331
sg13
(dp1332
g139
F3
sg596
F8
sg83
F9
ssg16
VThe New York Times
p1333
sg18
NsbsVTime Out London/Tom Huddleston
p1334
g3
(g4
g5
NtRp1335
(dp1336
g8
g1334
sg9
VTom Huddleston
p1337
sg11
Vhttp://www.metacritic.com/critic/tom-huddleston?filter=movies
p1338
sg13
(dp1339
g104
F8
sg80
F8
sg15
F10
sg77
F8
sg313
F8
ssg16
VTime Out London
p1340
sg18
NsbsVTotal Film/Phillip Kemp
p1341
g3
(g4
g5
NtRp1342
(dp1343
g8
g1341
sg9
VPhillip Kemp
p1344
sg11
Nsg13
(dp1345
g171
F10
ssg16
VTotal Film
p1346
sg18
NsbsVEmpire/Chris Hewitt (1)
p1347
g3
(g4
g5
NtRp1348
(dp1349
g8
g1347
sg9
VChris Hewitt (1)
p1350
sg11
Vhttp://www.metacritic.com/critic/chris-hewitt-1?filter=movies
p1351
sg13
(dp1352
g183
F10
ssg16
VEmpire
p1353
sg18
NsbsVTotal Film/Neil Smith
p1354
g3
(g4
g5
NtRp1355
(dp1356
g8
g1354
sg9
VNeil Smith
p1357
sg11
Vhttp://www.metacritic.com/critic/neil-smith?filter=movies
p1358
sg13
(dp1359
g128
F8
sg137
F8
ssg16
VTotal Film
p1360
sg18
NsbsVVillage Voice/Scott Tobias
p1361
g3
(g4
g5
NtRp1362
(dp1363
g8
g1361
sg9
VScott Tobias
p1364
sg11
Vhttp://www.metacritic.com/critic/scott-tobias?filter=movies
p1365
sg13
(dp1366
g107
F8
ssg16
VVillage Voice
p1367
sg18
NsbsVNew York Post/Kyle Smith
p1368
g3
(g4
g5
NtRp1369
(dp1370
g8
g1368
sg9
VKyle Smith
p1371
sg11
Nsg13
(dp1372
g130
F7.5
sg139
F2.5
sg144
F7.5
sg146
F8.8000000000000007
sg138
F7.5
sg106
F10
sg596
F5
sg75
F6.2999999999999998
sg141
F7.5
sg150
F6.2999999999999998
sg153
F7.5
sg160
F8.8000000000000007
sg163
F5
sg167
F8.8000000000000007
sg171
F7.5
sg82
F7.5
sg177
F8.8000000000000007
sg84
F3.7999999999999998
sg179
F7.5
sg89
F6.2999999999999998
sg184
F7.5
sg570
F10
sg86
F8.8000000000000007
ssg16
VNew York Post
p1373
sg18
NsbsVNew York Magazine (Vulture)/Ken Tucker
p1374
g3
(g4
g5
NtRp1375
(dp1376
g8
g1374
sg9
VKen Tucker
p1377
sg11
Vhttp://www.metacritic.com/critic/ken-tucker?filter=movies
p1378
sg13
(dp1379
g147
F6
sg184
F9
sg159
F6
sg154
F10
sg173
F9
ssg16
VNew York Magazine (Vulture)
p1380
sg18
NsbsVEmpire/Staff (Not credited)
p1381
g3
(g4
g5
NtRp1382
(dp1383
g8
g1381
sg9
VStaff (Not credited)
p1384
sg11
Nsg13
(dp1385
g184
F10
sg195
F8
ssg16
VEmpire
p1386
sg18
NsbsVUproxx/Mike Ryan
p1387
g3
(g4
g5
NtRp1388
(dp1389
g8
g1387
sg9
VMike Ryan
p1390
sg11
Vhttp://www.metacritic.com/critic/mike-ryan?filter=movies
p1391
sg13
(dp1392
g71
F8.5
ssg16
VUproxx
p1393
sg18
NsbsVThe Telegraph/Tim Robey
p1394
g3
(g4
g5
NtRp1395
(dp1396
g8
g1394
sg9
VTim Robey
p1397
sg11
Vhttp://www.metacritic.com/critic/tim-robey?filter=movies
p1398
sg13
(dp1399
g105
F6
sg163
F10
sg106
F8
sg51
F10
sg310
F6
sg234
F8
sg109
F8
sg107
F8
sg50
F8
sg171
F8
sg111
F6
sg195
F10
sg112
F10
sg15
F10
sg534
F8
sg176
F10
sg146
F6
ssg16
VThe Telegraph
p1400
sg18
NsbsVTime Out/Phil de Semlyen
p1401
g3
(g4
g5
NtRp1402
(dp1403
g8
g1401
sg9
VPhil de Semlyen
p1404
sg11
Vhttp://www.metacritic.com/critic/phil-de-semlyen?filter=movies
p1405
sg13
(dp1406
g50
F8
ssg16
VTime Out
p1407
sg18
NsbsVThe New York Times/Renata Adler
p1408
g3
(g4
g5
NtRp1409
(dp1410
g8
g1408
sg9
VRenata Adler
p1411
sg11
Nsg13
(dp1412
g148
F6
ssg16
VThe New York Times
p1413
sg18
NsbsVEntertainment Weekly/Owen Gleiberman
p1414
g3
(g4
g5
NtRp1415
(dp1416
g8
g1414
sg9
VOwen Gleiberman
p1417
sg11
Vhttp://www.metacritic.com/critic/owen-gleiberman?filter=movies
p1418
sg13
(dp1419
g128
F10
sg130
F6.7000000000000002
sg139
F4.2000000000000002
sg144
F10
sg136
F10
sg41
F9.0999999999999996
sg138
F10
sg159
F9.0999999999999996
sg77
F10
sg152
F7.5
sg147
F9.0999999999999996
sg148
F10
sg141
F7.5
sg607
F9.0999999999999996
sg170
F10
sg15
F10
sg153
F8.3000000000000007
sg157
F8.3000000000000007
sg158
F5
sg160
F9.0999999999999996
sg163
F9.0999999999999996
sg164
F10
sg166
F7.5
sg167
F6.7000000000000002
sg169
F9.0999999999999996
sg82
F9.0999999999999996
sg174
F9.0999999999999996
sg177
F10
sg178
F10
sg179
F8.3000000000000007
sg180
F7.5
sg58
F10
sg321
F8.3000000000000007
sg183
F7.5
sg184
F10
ssg16
VEntertainment Weekly
p1420
sg18
NsbsVPhiladelphia Inquirer/Tirdad Derakhshani
p1421
g3
(g4
g5
NtRp1422
(dp1423
g8
g1421
sg9
VTirdad Derakhshani
p1424
sg11
Vhttp://www.metacritic.com/critic/tirdad-derakhshani?filter=movies
p1425
sg13
(dp1426
g73
F8.8000000000000007
sg106
F8.8000000000000007
sg81
F10
sg472
F8.8000000000000007
sg112
F10
sg79
F10
sg366
F10
ssg16
VPhiladelphia Inquirer
p1427
sg18
NsbsVWashington Post/Teresa Wiltz
p1428
g3
(g4
g5
NtRp1429
(dp1430
g8
g1428
sg9
VTeresa Wiltz
p1431
sg11
Nsg13
(dp1432
g162
F10
sg159
F7
ssg16
VWashington Post
p1433
sg18
NsbsVAustin Chronicle/Marrit Ingman
p1434
g3
(g4
g5
NtRp1435
(dp1436
g8
g1434
sg9
VMarrit Ingman
p1437
sg11
Vhttp://www.metacritic.com/critic/marrit-ingman?filter=movies
p1438
sg13
(dp1439
g153
F3
sg41
F7.7999999999999998
sg174
F8.9000000000000004
ssg16
VAustin Chronicle
p1440
sg18
NsbsVCineVue/Ben Nicholson
p1441
g3
(g4
g5
NtRp1442
(dp1443
g8
g1441
sg9
VBen Nicholson
p1444
sg11
Vhttp://www.metacritic.com/critic/ben-nicholson?filter=movies
p1445
sg13
(dp1446
g104
F8
sg33
F6
sg72
F10
sg106
F8
sg163
F8
sg79
F10
ssg16
VCineVue
p1447
sg18
NsbsVVillage Voice/Nick Pinkerton
p1448
g3
(g4
g5
NtRp1449
(dp1450
g8
g1448
sg9
VNick Pinkerton
p1451
sg11
Vhttp://www.metacritic.com/critic/nick-pinkerton?filter=movies
p1452
sg13
(dp1453
g322
F9
sg136
F5
sg165
F4
sg179
F1
ssg16
VVillage Voice
p1454
sg18
NsbsVWall Street Journal/Joe Morgenstern
p1455
g3
(g4
g5
NtRp1456
(dp1457
g8
g1455
sg9
VJoe Morgenstern
p1458
sg11
Vhttp://www.metacritic.com/critic/joe-morgenstern?filter=movies
p1459
sg13
(dp1460
g72
F10
sg133
F10
sg77
F10
sg604
F10
sg129
F1
sg74
F9
sg104
F9
sg50
F10
sg76
F7
sg152
F10
sg147
F10
sg607
F9
sg170
F10
sg366
F10
sg155
F10
sg163
F9
sg167
F8
sg195
F9
sg174
F9
sg178
F10
sg180
F10
sg149
F8
sg183
F9
sg67
F10
sg106
F10
sg71
F3
sg135
F1
sg137
F9
sg138
F10
sg107
F10
sg78
F10
sg534
F10
sg80
F8
sg311
F6
sg162
F10
sg164
F10
sg165
F8
sg166
F8
sg82
F9
sg176
F9
sg209
F9
sg235
F5
sg177
F9
sg181
F9
sg81
F10
sg109
F7
sg186
F6
sg286
F2
sg187
F10
sg264
F9
sg68
F9
sg69
F9
sg310
F7
sg144
F8
sg143
F10
sg596
F8
sg15
F10
sg150
F5
sg42
F10
sg153
F3
sg154
F10
sg185
F9
sg169
F8
sg323
F8
sg105
F10
sg84
F7
sg108
F5
sg85
F10
sg322
F9
sg88
F10
sg86
F8
sg128
F10
sg130
F10
sg131
F9
sg568
F8
sg136
F10
sg159
F9
sg142
F8
sg145
F7
sg43
F10
sg156
F9
sg157
F2
sg160
F6
sg168
F10
sg171
F9
sg173
F10
sg312
F8
sg140
F10
sg184
F10
sg313
F10
ssg16
VWall Street Journal
p1461
sg18
NsbsVWashington Post/John Anderson
p1462
g3
(g4
g5
NtRp1463
(dp1464
g8
g1462
sg9
VJohn Anderson
p1465
sg11
Nsg13
(dp1466
g170
F10
ssg16
VWashington Post
p1467
sg18
NsbsVWe Got This Covered/Matt Donato
p1468
g3
(g4
g5
NtRp1469
(dp1470
g8
g1468
sg9
VMatt Donato
p1471
sg11
Vhttp://www.metacritic.com/critic/matt-donato?filter=movies
p1472
sg13
(dp1473
g15
F9
ssg16
VWe Got This Covered
p1474
sg18
NsbsVFilm Threat/Michael Ferraro
p1475
g3
(g4
g5
NtRp1476
(dp1477
g8
g1475
sg9
VMichael Ferraro
p1478
sg11
Nsg13
(dp1479
g162
F9
sg173
F9
ssg16
VFilm Threat
p1480
sg18
NsbsVNPR/Ian Buckwalter
p1481
g3
(g4
g5
NtRp1482
(dp1483
g8
g1481
sg9
VIan Buckwalter
p1484
sg11
Vhttp://www.metacritic.com/critic/ian-buckwalter?filter=movies
p1485
sg13
(dp1486
g157
F4.5
sg178
F8
sg82
F9.5
ssg16
VNPR
p1487
sg18
NsbsVChicago Tribune/Michael Phillips
p1488
g3
(g4
g5
NtRp1489
(dp1490
g8
g1488
sg9
VMichael Phillips
p1491
sg11
Vhttp://www.metacritic.com/critic/michael-phillips?filter=movies
p1492
sg13
(dp1493
g128
F10
sg67
F8.8000000000000007
sg33
F8.8000000000000007
sg76
F6.2999999999999998
sg106
F10
sg69
F8.8000000000000007
sg130
F5
sg309
F10
sg70
F10
sg131
F10
sg145
F6.2999999999999998
sg568
F8.8000000000000007
sg72
F10
sg136
F10
sg73
F7.5
sg146
F7.5
sg138
F10
sg143
F10
sg78
F7.5
sg144
F5
sg68
F7.5
sg234
F8.8000000000000007
sg77
F8.8000000000000007
sg107
F10
sg147
F10
sg50
F7.5
sg15
F10
sg150
F8.8000000000000007
sg170
F10
sg79
F10
sg366
F7.5
sg310
F7.5
sg155
F10
sg171
F8.8000000000000007
sg157
F3.7999999999999998
sg89
F8.8000000000000007
sg134
F7.5
sg160
F10
sg163
F8.8000000000000007
sg185
F8.8000000000000007
sg165
F6.2999999999999998
sg166
F6.2999999999999998
sg167
F8.8000000000000007
sg168
F8.8000000000000007
sg169
F7.5
sg81
F10
sg195
F10
sg82
F8.8000000000000007
sg178
F10
sg176
F10
sg177
F7.5
sg105
F8.8000000000000007
sg84
F8.8000000000000007
sg179
F3.7999999999999998
sg180
F10
sg312
F8.8000000000000007
sg181
F7.5
sg108
F10
sg109
F8.8000000000000007
sg570
F7.5
sg140
F10
sg85
F7.5
sg183
F7.5
sg184
F8.8000000000000007
sg88
F10
sg86
F10
sg313
F10
ssg16
VChicago Tribune
p1494
sg18
NsbsVThe Verge/Tasha Robinson
p1495
g3
(g4
g5
NtRp1496
(dp1497
g8
g1495
sg9
VTasha Robinson
p1498
sg11
Vhttp://www.metacritic.com/critic/tasha-robinson?filter=movies
p1499
sg13
(dp1500
g156
F7.2999999999999998
sg67
F8.6999999999999993
sg76
F7.7000000000000002
sg107
F10
sg472
F8.8000000000000007
sg79
F8.6999999999999993
sg89
F8.4000000000000004
ssg16
VThe Verge
p1501
sg18
NsbsVNewsweek/Walaika Haskins
p1502
g3
(g4
g5
NtRp1503
(dp1504
g8
g1502
sg9
VWalaika Haskins
p1505
sg11
Nsg13
(dp1506
g182
F7
ssg16
VNewsweek
p1507
sg18
NsbsVTime Out London/Geoff Andrew
p1508
g3
(g4
g5
NtRp1509
(dp1510
g8
g1508
sg9
VGeoff Andrew
p1511
sg11
Vhttp://www.metacritic.com/critic/geoff-andrew?filter=movies
p1512
sg13
(dp1513
g112
F8
ssg16
VTime Out London
p1514
sg18
NsbsVVillage Voice/Jim Ridley
p1515
g3
(g4
g5
NtRp1516
(dp1517
g8
g1515
sg9
VJim Ridley
p1518
sg11
Nsg13
(dp1519
g141
F7
ssg16
VVillage Voice
p1520
sg18
NsbsVEmpire/Olly Richards
p1521
g3
(g4
g5
NtRp1522
(dp1523
g8
g1521
sg9
VOlly Richards
p1524
sg11
Vhttp://www.metacritic.com/critic/olly-richards?filter=movies
p1525
sg13
(dp1526
g156
F6
sg67
F10
sg144
F8
sg170
F10
ssg16
VEmpire
p1527
sg18
NsbsVChicago Sun-Times/Richard Roeper
p1528
g3
(g4
g5
NtRp1529
(dp1530
g8
g1528
sg9
VRichard Roeper
p1531
sg11
Vhttp://www.metacritic.com/critic/richard-roeper?filter=movies
p1532
sg13
(dp1533
g67
F8.8000000000000007
sg68
F10
sg106
F10
sg69
F10
sg71
F10
sg72
F10
sg146
F10
sg143
F8.8000000000000007
sg76
F7.5
sg77
F8.8000000000000007
sg107
F10
sg78
F10
sg15
F10
sg112
F8.8000000000000007
sg79
F10
sg156
F10
sg134
F7.5
sg82
F8.8000000000000007
sg176
F8.8000000000000007
sg181
F10
sg570
F10
sg85
F10
sg86
F10
sg88
F8.8000000000000007
sg89
F7.5
ssg16
VChicago Sun-Times
p1534
sg18
NsbsVThe Hollywood Reporter/Jordan Mintzer
p1535
g3
(g4
g5
NtRp1536
(dp1537
g8
g1535
sg9
VJordan Mintzer
p1538
sg11
Vhttp://www.metacritic.com/critic/jordan-mintzer?filter=movies
p1539
sg13
(dp1540
g233
F7
sg104
F8
sg472
F7
ssg16
VThe Hollywood Reporter
p1541
sg18
NsbsVRogerEbert.com/Dan Callahan
p1542
g3
(g4
g5
NtRp1543
(dp1544
g8
g1542
sg9
VDan Callahan
p1545
sg11
Nsg13
(dp1546
g75
F7.5
ssg16
VRogerEbert.com
p1547
sg18
NsbsVL.A. Weekly/Hazel-Dawn Dumpert
p1548
g3
(g4
g5
NtRp1549
(dp1550
g8
g1548
sg9
VHazel-Dawn Dumpert
p1551
sg11
Vhttp://www.metacritic.com/critic/hazel-dawn-dumpert?filter=movies
p1552
sg13
(dp1553
g480
F3
ssg16
VL.A. Weekly
p1554
sg18
NsbsVSalon/Charles Taylor
p1555
g3
(g4
g5
NtRp1556
(dp1557
g8
g1555
sg9
VCharles Taylor
p1558
sg11
Vhttp://www.metacritic.com/critic/charles-taylor?filter=movies
p1559
sg13
(dp1560
g480
F4
sg158
F2
sg162
F6
sg120
F6
sg323
F4
sg182
F3
sg149
F8
sg173
F9
sg135
F1
sg152
F9
sg186
F10
sg159
F10
ssg16
VSalon
p1561
sg18
NsbsVNPR/Scott Tobias
p1562
g3
(g4
g5
NtRp1563
(dp1564
g8
g1562
sg9
VScott Tobias
p1565
sg11
Vhttp://www.metacritic.com/critic/scott-tobias?filter=movies
p1566
sg13
(dp1567
g177
F9
ssg16
VNPR
p1568
sg18
NsbsVNew York Daily News/Graham Fuller
p1569
g3
(g4
g5
NtRp1570
(dp1571
g8
g1569
sg9
VGraham Fuller
p1572
sg11
Nsg13
(dp1573
g70
F10
sg310
F8
sg234
F10
sg33
F8
ssg16
VNew York Daily News
p1574
sg18
NsbsVThe Hollywood Reporter/Ray Bennett
p1575
g3
(g4
g5
NtRp1576
(dp1577
g8
g1575
sg9
VRay Bennett
p1578
sg11
Vhttp://www.metacritic.com/critic/ray-bennett?filter=movies
p1579
sg13
(dp1580
g133
F8
sg168
F8
sg140
F8
sg150
F8
sg184
F10
sg41
F6
ssg16
VThe Hollywood Reporter
p1581
sg18
NsbsVUSA Today/Susan Wloszczyna
p1582
g3
(g4
g5
NtRp1583
(dp1584
g8
g1582
sg9
VSusan Wloszczyna
p1585
sg11
Vhttp://www.metacritic.com/critic/susan-wloszczyna?filter=movies
p1586
sg13
(dp1587
g480
F6.2999999999999998
ssg16
VUSA Today
p1588
sg18
NsbsVEntertainment Weekly/Lisa Schwarzbaum
p1589
g3
(g4
g5
NtRp1590
(dp1591
g8
g1589
sg9
VLisa Schwarzbaum
p1592
sg11
Vhttp://www.metacritic.com/critic/lisa-schwarzbaum?filter=movies
p1593
sg13
(dp1594
g264
F10
sg131
F10
sg133
F10
sg604
F8.3000000000000007
sg568
F8.3000000000000007
sg59
F6.7000000000000002
sg135
F5.7999999999999998
sg140
F10
sg142
F9.0999999999999996
sg120
F8.3000000000000007
sg145
F8.3000000000000007
sg43
F10
sg150
F10
sg151
F10
sg42
F9.0999999999999996
sg154
F10
sg155
F10
sg480
F2.5
sg162
F10
sg185
F7.5
sg165
F7.5
sg168
F9.0999999999999996
sg173
F9.0999999999999996
sg323
F9.0999999999999996
sg287
F10
sg108
F10
sg182
F8.3000000000000007
sg149
F10
sg322
F10
sg286
F5
sg186
F9.0999999999999996
sg187
F10
ssg16
VEntertainment Weekly
p1595
sg18
NsbsVFilm Threat/Darrin Keene
p1596
g3
(g4
g5
NtRp1597
(dp1598
g8
g1596
sg9
VDarrin Keene
p1599
sg11
Nsg13
(dp1600
g186
F8
ssg16
VFilm Threat
p1601
sg18
NsbsVTheWrap/Sam Fragoso
p1602
g3
(g4
g5
NtRp1603
(dp1604
g8
g1602
sg9
VSam Fragoso
p1605
sg11
Vhttp://www.metacritic.com/critic/sam-fragoso?filter=movies
p1606
sg13
(dp1607
g79
F9.5
ssg16
VTheWrap
p1608
sg18
NsbsVTime/Vincent Canby
p1609
g3
(g4
g5
NtRp1610
(dp1611
g8
g1609
sg9
VVincent Canby
p1612
sg11
Nsg13
(dp1613
g172
F9
ssg16
VTime
p1614
sg18
NsbsVScreenCrush/Britt Hayes
p1615
g3
(g4
g5
NtRp1616
(dp1617
g8
g1615
sg9
VBritt Hayes
p1618
sg11
Nsg13
(dp1619
g89
F9
ssg16
VScreenCrush
p1620
sg18
NsbsVThe Guardian/Tim Radford
p1621
g3
(g4
g5
NtRp1622
(dp1623
g8
g1621
sg9
VTim Radford
p1624
sg11
Nsg13
(dp1625
g256
F9
ssg16
VThe Guardian
p1626
sg18
NsbsVPremiere/Aaron Hillis
p1627
g3
(g4
g5
NtRp1628
(dp1629
g8
g1627
sg9
VAaron Hillis
p1630
sg11
Vhttp://www.metacritic.com/critic/aaron-hillis?filter=movies
p1631
sg13
(dp1632
g154
F8.8000000000000007
ssg16
VPremiere
p1633
sg18
NsbsVThe Guardian/Nigel M Smith
p1634
g3
(g4
g5
NtRp1635
(dp1636
g8
g1634
sg9
VNigel M Smith
p1637
sg11
Vhttp://www.metacritic.com/critic/nigel-m-smith?filter=movies
p1638
sg13
(dp1639
g156
F6
sg209
F10
ssg16
VThe Guardian
p1640
sg18
NsbsVConsequence of Sound/Allison Shoemaker
p1641
g3
(g4
g5
NtRp1642
(dp1643
g8
g1641
sg9
VAllison Shoemaker
p1644
sg11
Vhttp://www.metacritic.com/critic/allison-shoemaker?filter=movies
p1645
sg13
(dp1646
g134
F8.3000000000000007
ssg16
VConsequence of Sound
p1647
sg18
NsbsVTheWrap/Robert Abele
p1648
g3
(g4
g5
NtRp1649
(dp1650
g8
g1648
sg9
VRobert Abele
p1651
sg11
Vhttp://www.metacritic.com/critic/robert-abele?filter=movies
p1652
sg13
(dp1653
g156
F8.5
sg534
F9
sg106
F7
sg69
F9.5
sg83
F9
ssg16
VTheWrap
p1654
sg18
NsbsVVariety/Peter Debruge
p1655
g3
(g4
g5
NtRp1656
(dp1657
g8
g1655
sg9
VPeter Debruge
p1658
sg11
Vhttp://www.metacritic.com/critic/peter-debruge?filter=movies
p1659
sg13
(dp1660
g128
F9
sg130
F10
sg72
F9
sg310
F9
sg144
F8
sg136
F9
sg137
F8
sg75
F8
sg234
F10
sg145
F6
sg78
F10
sg472
F10
sg15
F10
sg79
F10
sg156
F7
sg185
F8
sg171
F7
sg111
F7
sg178
F7
sg181
F9
sg87
F10
sg86
F10
sg313
F6
ssg16
VVariety
p1661
sg18
NsbsVFilm Threat/Matthew Sorrento
p1662
g3
(g4
g5
NtRp1663
(dp1664
g8
g1662
sg9
VMatthew Sorrento
p1665
sg11
Nsg13
(dp1666
g42
F10
sg108
F5
ssg16
VFilm Threat
p1667
sg18
NsbsVTotal Film/Philip Kemp
p1668
g3
(g4
g5
NtRp1669
(dp1670
g8
g1668
sg9
VPhilip Kemp
p1671
sg11
Nsg13
(dp1672
g156
F6
sg73
F8
sg85
F8
sg82
F10
ssg16
VTotal Film
p1673
sg18
NsbsVSan Francisco Chronicle/Gerald Nachman
p1674
g3
(g4
g5
NtRp1675
(dp1676
g8
g1674
sg9
VGerald Nachman
p1677
sg11
Nsg13
(dp1678
g609
F10
ssg16
VSan Francisco Chronicle
p1679
sg18
NsbsVSlant Magazine/Andrew Schenker
p1680
g3
(g4
g5
NtRp1681
(dp1682
g8
g1680
sg9
VAndrew Schenker
p1683
sg11
Vhttp://www.metacritic.com/critic/andrew-schenker?filter=movies
p1684
sg13
(dp1685
g309
F3.7999999999999998
sg144
F5
ssg16
VSlant Magazine
p1686
sg18
NsbsVTime Out London/Wendy Ide
p1687
g3
(g4
g5
NtRp1688
(dp1689
g8
g1687
sg9
VWendy Ide
p1690
sg11
Nsg13
(dp1691
g110
F8
ssg16
VTime Out London
p1692
sg18
NsbsVFilm.com/Robert Horton
p1693
g3
(g4
g5
NtRp1694
(dp1695
g8
g1693
sg9
VRobert Horton
p1696
sg11
Vhttp://www.metacritic.com/critic/robert-horton?filter=movies
p1697
sg13
(dp1698
g480
F4
sg321
F7
sg286
F4
sg158
F9
ssg16
VFilm.com
p1699
sg18
NsbsVThe Seattle Times/Tom Keogh
p1700
g3
(g4
g5
NtRp1701
(dp1702
g8
g1700
sg9
VTom Keogh
p1703
sg11
Vhttp://www.metacritic.com/critic/tom-keogh?filter=movies
p1704
sg13
(dp1705
g112
F7.5
ssg16
VThe Seattle Times
p1706
sg18
NsbsVThe New York Times/Dave Kehr
p1707
g3
(g4
g5
NtRp1708
(dp1709
g8
g1707
sg9
VDave Kehr
p1710
sg11
Vhttp://www.metacritic.com/critic/dave-kehr?filter=movies
p1711
sg13
(dp1712
g264
F9
ssg16
VThe New York Times
p1713
sg18
NsbsVTime/Staff (Not Credited)
p1714
g3
(g4
g5
NtRp1715
(dp1716
g8
g1714
sg9
VStaff (Not Credited)
p1717
sg11
Nsg13
(dp1718
g148
F8
sg58
F10
ssg16
VTime
p1719
sg18
NsbsVEmpire/David Parkinson
p1720
g3
(g4
g5
NtRp1721
(dp1722
g8
g1720
sg9
VDavid Parkinson
p1723
sg11
Vhttp://www.metacritic.com/critic/david-parkinson?filter=movies
p1724
sg13
(dp1725
g311
F6
sg309
F8
sg172
F10
sg109
F8
sg110
F8
sg312
F8
sg73
F6
sg74
F8
sg138
F8
ssg16
VEmpire
p1726
sg18
NsbsVEntertainment Weekly/Leah Greenblatt
p1727
g3
(g4
g5
NtRp1728
(dp1729
g8
g1727
sg9
VLeah Greenblatt
p1730
sg11
Vhttp://www.metacritic.com/critic/leah-greenblatt?filter=movies
p1731
sg13
(dp1732
g134
F8.3000000000000007
sg181
F8.3000000000000007
sg68
F7.5
sg50
F9.0999999999999996
sg195
F9.0999999999999996
sg137
F8.3000000000000007
ssg16
VEntertainment Weekly
p1733
sg18
NsbsVConsequence of Sound/Blake Goble
p1734
g3
(g4
g5
NtRp1735
(dp1736
g8
g1734
sg9
VBlake Goble
p1737
sg11
Vhttp://www.metacritic.com/critic/blake-goble?filter=movies
p1738
sg13
(dp1739
g74
F10
sg83
F10
ssg16
VConsequence of Sound
p1740
sg18
NsbsVVanity Fair/Richard Lawson
p1741
g3
(g4
g5
NtRp1742
(dp1743
g8
g1741
sg9
VRichard Lawson
p1744
sg11
Vhttp://www.metacritic.com/critic/richard-lawson?filter=movies
p1745
sg13
(dp1746
g69
F10
ssg16
VVanity Fair
p1747
sg18
NsbsVThe Dissolve/Mike D'Angelo
p1748
g3
(g4
g5
NtRp1749
(dp1750
g8
g1748
sg9
VMike D'Angelo
p1751
sg11
Vhttp://www.metacritic.com/critic/mike-dangelo?filter=movies
p1752
sg13
(dp1753
g87
F6
ssg16
VThe Dissolve
p1754
sg18
NsbsVBaltimore Sun/Michael Sragow
p1755
g3
(g4
g5
NtRp1756
(dp1757
g8
g1755
sg9
VMichael Sragow
p1758
sg11
Vhttp://www.metacritic.com/critic/michael-sragow?filter=movies
p1759
sg13
(dp1760
g264
F5
sg133
F10
sg142
F6.2999999999999998
sg152
F10
sg147
F10
sg43
F10
sg607
F8.8000000000000007
sg170
F10
sg141
F3.7999999999999998
sg42
F10
sg155
F4.2000000000000002
sg160
F5
sg164
F5
sg166
F5.7999999999999998
sg168
F10
sg169
F10
sg173
F10
sg287
F10
sg179
F6.2999999999999998
sg180
F10
sg108
F10
sg140
F10
sg184
F5
sg186
F10
sg187
F6.2999999999999998
ssg16
VBaltimore Sun
p1761
sg18
NsbsVVariety/Deborah Young
p1762
g3
(g4
g5
NtRp1763
(dp1764
g8
g1762
sg9
VDeborah Young
p1765
sg11
Vhttp://www.metacritic.com/critic/deborah-young?filter=movies
p1766
sg13
(dp1767
g264
F8
ssg16
VVariety
p1768
sg18
NsbsVPremiere/Sara Brady
p1769
g3
(g4
g5
NtRp1770
(dp1771
g8
g1769
sg9
VSara Brady
p1772
sg11
Nsg13
(dp1773
g166
F7.5
ssg16
VPremiere
p1774
sg18
NsbsVThe New York Times/Elvis Mitchell
p1775
g3
(g4
g5
NtRp1776
(dp1777
g8
g1775
sg9
VElvis Mitchell
p1778
sg11
Vhttp://www.metacritic.com/critic/elvis-mitchell?filter=movies
p1779
sg13
(dp1780
g151
F9
sg58
F10
sg158
F9
sg406
F9
sg164
F7
ssg16
VThe New York Times
p1781
sg18
NsbsVSan Francisco Chronicle/David Wiegand
p1782
g3
(g4
g5
NtRp1783
(dp1784
g8
g1782
sg9
VDavid Wiegand
p1785
sg11
Vhttp://www.metacritic.com/critic/david-wiegand?filter=movies
p1786
sg13
(dp1787
g50
F7.5
sg112
F10
ssg16
VSan Francisco Chronicle
p1788
sg18
NsbsVVariety/Staff (Not Credited)
p1789
g3
(g4
g5
NtRp1790
(dp1791
g8
g1789
sg9
VStaff (Not Credited)
p1792
sg11
Nsg13
(dp1793
g224
F9
sg161
F8
sg58
F10
sg132
F9
sg172
F7
sg148
F4
sg605
F9
sg609
F10
sg406
F10
sg608
F7
ssg16
VVariety
p1794
sg18
NsbsVTime/Richard Schickel
p1795
g3
(g4
g5
NtRp1796
(dp1797
g8
g1795
sg9
VRichard Schickel
p1798
sg11
Vhttp://www.metacritic.com/critic/richard-schickel?filter=movies
p1799
sg13
(dp1800
g182
F7
sg321
F8
sg120
F6
sg168
F10
sg169
F5
sg607
F3
sg184
F7
sg41
F6
sg186
F8
sg608
F8
sg155
F10
ssg16
VTime
p1801
sg18
NsbsVSan Francisco Chronicle/Carla Meyer
p1802
g3
(g4
g5
NtRp1803
(dp1804
g8
g1802
sg9
VCarla Meyer
p1805
sg11
Vhttp://www.metacritic.com/critic/carla-meyer?filter=movies
p1806
sg13
(dp1807
g264
F5
sg344
F10
sg162
F10
sg174
F10
sg607
F7.5
sg154
F7.5
ssg16
VSan Francisco Chronicle
p1808
sg18
NsbsVVariety/Jay Weissberg
p1809
g3
(g4
g5
NtRp1810
(dp1811
g8
g1809
sg9
VJay Weissberg
p1812
sg11
Vhttp://www.metacritic.com/critic/jay-weissberg?filter=movies
p1813
sg13
(dp1814
g770
F6
sg109
F7
sg140
F10
sg569
F9
sg366
F9
sg235
F8
ssg16
VVariety
p1815
sg18
NsbsVVariety/Dennis Harvey
p1816
g3
(g4
g5
NtRp1817
(dp1818
g8
g1816
sg9
VDennis Harvey
p1819
sg11
Vhttp://www.metacritic.com/critic/dennis-harvey?filter=movies
p1820
sg13
(dp1821
g169
F7
sg570
F5
ssg16
VVariety
p1822
sg18
NsbsVVillage Voice/Scott Foundas
p1823
g3
(g4
g5
NtRp1824
(dp1825
g8
g1823
sg9
VScott Foundas
p1826
sg11
Nsg13
(dp1827
g128
F10
sg130
F9
sg160
F10
sg312
F9
sg180
F9
sg145
F5
sg168
F10
sg169
F9
ssg16
VVillage Voice
p1828
sg18
NsbsVNew York Magazine (Vulture)/David Edelstein
p1829
g3
(g4
g5
NtRp1830
(dp1831
g8
g1829
sg9
VDavid Edelstein
p1832
sg11
Vhttp://www.metacritic.com/critic/david-edelstein?filter=movies
p1833
sg13
(dp1834
g128
F10
sg67
F6
sg76
F7
sg69
F9
sg51
F9
sg130
F8
sg131
F8
sg133
F8
sg145
F5
sg71
F7
sg72
F10
sg136
F10
sg73
F10
sg137
F8
sg138
F9
sg104
F6
sg171
F8
sg143
F9
sg78
F6
sg144
F7
sg68
F8
sg77
F10
sg596
F8
sg146
F9
sg75
F9
sg15
F7
sg150
F8
sg112
F9
sg170
F10
sg42
F9
sg79
F10
sg155
F10
sg156
F6
sg134
F7
sg569
F9
sg160
F5
sg107
F4
sg163
F9
sg185
F9
sg166
F4
sg167
F3
sg168
F9
sg169
F5
sg81
F9
sg195
F9
sg82
F9
sg83
F8
sg178
F9
sg176
F8
sg235
F7
sg177
F8
sg105
F9
sg84
F7
sg180
F10
sg181
F4
sg108
F9
sg570
F10
sg140
F9
sg85
F9
sg183
F10
sg322
F9
sg88
F10
sg86
F6
sg313
F8
ssg16
VNew York Magazine (Vulture)
p1835
sg18
NsbsVEmpire/Will Lawrence
p1836
g3
(g4
g5
NtRp1837
(dp1838
g8
g1836
sg9
VWill Lawrence
p1839
sg11
Vhttp://www.metacritic.com/critic/will-lawrence?filter=movies
p1840
sg13
(dp1841
g104
F8
ssg16
VEmpire
p1842
sg18
NsbsVFilm.com/David Ehrlich
p1843
g3
(g4
g5
NtRp1844
(dp1845
g8
g1843
sg9
VDavid Ehrlich
p1846
sg11
Vhttp://www.metacritic.com/critic/david-ehrlich?filter=movies
p1847
sg13
(dp1848
g143
F8
ssg16
VFilm.com
p1849
sg18
NsbsVBaltimore Sun/Ann Hornaday
p1850
g3
(g4
g5
NtRp1851
(dp1852
g8
g1850
sg9
VAnn Hornaday
p1853
sg11
Vhttp://www.metacritic.com/critic/ann-hornaday?filter=movies
p1854
sg13
(dp1855
g480
F3.7999999999999998
sg151
F10
sg120
F7.5
sg321
F10
ssg16
VBaltimore Sun
p1856
sg18
NsbsVHitfix/Daniel Fienberg
p1857
g3
(g4
g5
NtRp1858
(dp1859
g8
g1857
sg9
VDaniel Fienberg
p1860
sg11
Nsg13
(dp1861
g570
F8.3000000000000007
ssg16
VHitfix
p1862
sg18
NsbsVTV Guide Magazine/Cammila Albertson
p1863
g3
(g4
g5
NtRp1864
(dp1865
g8
g1863
sg9
VCammila Albertson
p1866
sg11
Nsg13
(dp1867
g141
F8.8000000000000007
ssg16
VTV Guide Magazine
p1868
sg18
NsbsVEntertainment Weekly/Kevin P. Sullivan
p1869
g3
(g4
g5
NtRp1870
(dp1871
g8
g1869
sg9
VKevin P. Sullivan
p1872
sg11
Nsg13
(dp1873
g596
F8.3000000000000007
ssg16
VEntertainment Weekly
p1874
sg18
NsbsVSlant Magazine/R. Kurt Osenlund
p1875
g3
(g4
g5
NtRp1876
(dp1877
g8
g1875
sg9
VR. Kurt Osenlund
p1878
sg11
Vhttp://www.metacritic.com/critic/r-kurt-osenlund?filter=movies
p1879
sg13
(dp1880
g78
F5
sg178
F8.8000000000000007
sg85
F7.5
ssg16
VSlant Magazine
p1881
sg18
NsbsVThe Playlist/Gregory Ellwood
p1882
g3
(g4
g5
NtRp1883
(dp1884
g8
g1882
sg9
VGregory Ellwood
p1885
sg11
Vhttp://www.metacritic.com/critic/gregory-ellwood?filter=movies
p1886
sg13
(dp1887
g156
F7.5
sg79
F10
sg68
F9.0999999999999996
ssg16
VThe Playlist
p1888
sg18
NsbsVThe Film Stage/Jared Mobarak
p1889
g3
(g4
g5
NtRp1890
(dp1891
g8
g1889
sg9
VJared Mobarak
p1892
sg11
Vhttp://www.metacritic.com/critic/jared-mobarak?filter=movies
p1893
sg13
(dp1894
g79
F10
sg134
F8.3000000000000007
sg472
F8.3000000000000007
ssg16
VThe Film Stage
p1895
sg18
NsbsVTime Out/Cath Clarke
p1896
g3
(g4
g5
NtRp1897
(dp1898
g8
g1896
sg9
VCath Clarke
p1899
sg11
Nsg13
(dp1900
g87
F8
ssg16
VTime Out
p1901
sg18
NsbsVSan Francisco Chronicle/G. Allen Johnson
p1902
g3
(g4
g5
NtRp1903
(dp1904
g8
g1902
sg9
VG. Allen Johnson
p1905
sg11
Nsg13
(dp1906
g75
F10
sg80
F7.5
sg472
F5
sg311
F7.5
sg110
F5
ssg16
VSan Francisco Chronicle
p1907
sg18
NsbsVVillage Voice/Melissa Anderson
p1908
g3
(g4
g5
NtRp1909
(dp1910
g8
g1908
sg9
VMelissa Anderson
p1911
sg11
Vhttp://www.metacritic.com/critic/melissa-anderson?filter=movies
p1912
sg13
(dp1913
g81
F10
sg79
F10
sg195
F10
ssg16
VVillage Voice
p1914
sg18
NsbsVSan Francisco Chronicle/Ruthe Stein
p1915
g3
(g4
g5
NtRp1916
(dp1917
g8
g1915
sg9
VRuthe Stein
p1918
sg11
Vhttp://www.metacritic.com/critic/ruthe-stein?filter=movies
p1919
sg13
(dp1920
g133
F10
sg173
F10
ssg16
VSan Francisco Chronicle
p1921
sg18
NsbsVThe Globe and Mail (Toronto)/James Adams
p1922
g3
(g4
g5
NtRp1923
(dp1924
g8
g1922
sg9
VJames Adams
p1925
sg11
Vhttp://www.metacritic.com/critic/james-adams?filter=movies
p1926
sg13
(dp1927
g82
F7.5
ssg16
VThe Globe and Mail (Toronto)
p1928
sg18
NsbsVIGN/Alex Welch
p1929
g3
(g4
g5
NtRp1930
(dp1931
g8
g1929
sg9
VAlex Welch
p1932
sg11
Vhttp://www.metacritic.com/critic/alex-welch?filter=movies
p1933
sg13
(dp1934
g68
F9.5
ssg16
VIGN
p1935
sg18
NsbsVVillage Voice/Robert Wilonsky
p1936
g3
(g4
g5
NtRp1937
(dp1938
g8
g1936
sg9
VRobert Wilonsky
p1939
sg11
Nsg13
(dp1940
g170
F10
sg108
F10
ssg16
VVillage Voice
p1941
sg18
NsbsVMr. Showbiz/Larry Terenzi
p1942
g3
(g4
g5
NtRp1943
(dp1944
g8
g1942
sg9
VLarry Terenzi
p1945
sg11
Vhttp://www.metacritic.com/critic/larry-terenzi?filter=movies
p1946
sg13
(dp1947
g480
F6
ssg16
VMr. Showbiz
p1948
sg18
NsbsVMr. Showbiz/Michael Atkinson
p1949
g3
(g4
g5
NtRp1950
(dp1951
g8
g1949
sg9
VMichael Atkinson
p1952
sg11
Vhttp://www.metacritic.com/critic/michael-atkinson?filter=movies
p1953
sg13
(dp1954
g604
F9
sg158
F3
sg287
F8
ssg16
VMr. Showbiz
p1955
sg18
NsbsVMovieline/Michelle Orange
p1956
g3
(g4
g5
NtRp1957
(dp1958
g8
g1956
sg9
VMichelle Orange
p1959
sg11
Vhttp://www.metacritic.com/critic/michelle-orange?filter=movies
p1960
sg13
(dp1961
g309
F8.5
sg165
F7.5
ssg16
VMovieline
p1962
sg18
NsbsVPremiere/Staff (Not Credited)
p1963
g3
(g4
g5
NtRp1964
(dp1965
g8
g1963
sg9
VStaff (Not Credited)
p1966
sg11
Nsg13
(dp1967
g148
F10
ssg16
VPremiere
p1968
sg18
NsbsVScreen International/Fionnuala Halligan
p1969
g3
(g4
g5
NtRp1970
(dp1971
g8
g1969
sg9
VFionnuala Halligan
p1972
sg11
Vhttp://www.metacritic.com/critic/fionnuala-halligan?filter=movies
p1973
sg13
(dp1974
g67
F10
sg68
F7
sg106
F10
sg146
F9
ssg16
VScreen International
p1975
sg18
NsbsVAustin Chronicle/Marjorie Baumgarten
p1976
g3
(g4
g5
NtRp1977
(dp1978
g8
g1976
sg9
VMarjorie Baumgarten
p1979
sg11
Vhttp://www.metacritic.com/critic/marjorie-baumgarten?filter=movies
p1980
sg13
(dp1981
g130
F7.7999999999999998
sg33
F8.9000000000000004
sg72
F10
sg106
F10
sg51
F7.7999999999999998
sg310
F5
sg132
F10
sg133
F10
sg604
F7.7999999999999998
sg71
F7.7999999999999998
sg144
F6.7000000000000002
sg136
F8.9000000000000004
sg146
F7.7999999999999998
sg138
F10
sg159
F6.7000000000000002
sg224
F10
sg104
F7.7999999999999998
sg142
F7.7999999999999998
sg68
F7.7999999999999998
sg145
F5
sg148
F10
sg534
F7.7999999999999998
sg150
F7.7999999999999998
sg112
F10
sg155
F10
sg569
F8.9000000000000004
sg161
F10
sg162
F7.7999999999999998
sg164
F10
sg166
F6.7000000000000002
sg167
F8.9000000000000004
sg168
F8.9000000000000004
sg322
F8.9000000000000004
sg176
F10
sg209
F8.9000000000000004
sg58
F8.9000000000000004
sg108
F8.9000000000000004
sg570
F7.7999999999999998
sg149
F10
sg184
F8.9000000000000004
sg88
F8.9000000000000004
sg313
F8.9000000000000004
ssg16
VAustin Chronicle
p1982
sg18
NsbsVVillage Voice/Aaron Cutler
p1983
g3
(g4
g5
NtRp1984
(dp1985
g8
g1983
sg9
VAaron Cutler
p1986
sg11
Vhttp://www.metacritic.com/critic/aaron-cutler?filter=movies
p1987
sg13
(dp1988
g313
F9
ssg16
VVillage Voice
p1989
sg18
NsbsVSlate/June Thomas
p1990
g3
(g4
g5
NtRp1991
(dp1992
g8
g1990
sg9
VJune Thomas
p1993
sg11
Vhttp://www.metacritic.com/critic/june-thomas?filter=movies
p1994
sg13
(dp1995
g134
F7
ssg16
VSlate
p1996
sg18
NsbsVL.A. Weekly/Russel Swensen
p1997
g3
(g4
g5
NtRp1998
(dp1999
g8
g1997
sg9
VRussel Swensen
p2000
sg11
Nsg13
(dp2001
g152
F7
ssg16
VL.A. Weekly
p2002
sg18
NsbsVSan Francisco Chronicle/Peter Hartlaub
p2003
g3
(g4
g5
NtRp2004
(dp2005
g8
g2003
sg9
VPeter Hartlaub
p2006
sg11
Vhttp://www.metacritic.com/critic/peter-hartlaub?filter=movies
p2007
sg13
(dp2008
g156
F7.5
sg139
F2.5
sg150
F10
sg180
F10
ssg16
VSan Francisco Chronicle
p2009
sg18
NsbsVTNT RoughCut/Graham Verdon
p2010
g3
(g4
g5
NtRp2011
(dp2012
g8
g2010
sg9
VGraham Verdon
p2013
sg11
Nsg13
(dp2014
g120
F4
ssg16
VTNT RoughCut
p2015
sg18
NsbsVThe Guardian/Benjamin Lee
p2016
g3
(g4
g5
NtRp2017
(dp2018
g8
g2016
sg9
VBenjamin Lee
p2019
sg11
Vhttp://www.metacritic.com/critic/benjamin-lee?filter=movies
p2020
sg13
(dp2021
g71
F4
sg79
F10
ssg16
VThe Guardian
p2022
sg18
NsbsVTime Out London/Alex Dudok de Wit
p2023
g3
(g4
g5
NtRp2024
(dp2025
g8
g2023
sg9
VAlex Dudok de Wit
p2026
sg11
Nsg13
(dp2027
g33
F8
ssg16
VTime Out London
p2028
sg18
NsbsVScreen International/Anthony Kaufman
p2029
g3
(g4
g5
NtRp2030
(dp2031
g8
g2029
sg9
VAnthony Kaufman
p2032
sg11
Nsg13
(dp2033
g171
F7
sg137
F5
ssg16
VScreen International
p2034
sg18
NsbsVThe Globe and Mail (Toronto)/Brad Wheeler
p2035
g3
(g4
g5
NtRp2036
(dp2037
g8
g2035
sg9
VBrad Wheeler
p2038
sg11
Nsg13
(dp2039
g165
F8.8000000000000007
sg209
F8.8000000000000007
ssg16
VThe Globe and Mail (Toronto)
p2040
sg18
NsbsVTV Guide Magazine/Perry Seibert
p2041
g3
(g4
g5
NtRp2042
(dp2043
g8
g2041
sg9
VPerry Seibert
p2044
sg11
Nsg13
(dp2045
g108
F10
ssg16
VTV Guide Magazine
p2046
sg18
NsbsVIndieWire/Sterlin Johnson
p2047
g3
(g4
g5
NtRp2048
(dp2049
g8
g2047
sg9
VSterlin Johnson
p2050
sg11
Nsg13
(dp2051
g171
F6.7000000000000002
ssg16
VIndieWire
p2052
sg18
NsbsVChristian Science Monitor/Peter Rainer
p2053
g3
(g4
g5
NtRp2054
(dp2055
g8
g2053
sg9
VPeter Rainer
p2056
sg11
Vhttp://www.metacritic.com/critic/peter-rainer?filter=movies
p2057
sg13
(dp2058
g128
F5.7999999999999998
sg67
F6.7000000000000002
sg33
F10
sg76
F5
sg106
F10
sg69
F9.0999999999999996
sg130
F7.5
sg70
F10
sg131
F10
sg133
F10
sg145
F5.7999999999999998
sg71
F6.7000000000000002
sg568
F9.0999999999999996
sg72
F10
sg136
F6.7000000000000002
sg73
F7.5
sg41
F8.3000000000000007
sg89
F5.7999999999999998
sg138
F10
sg104
F8.3000000000000007
sg171
F10
sg143
F10
sg75
F8.3000000000000007
sg140
F10
sg68
F6.7000000000000002
sg234
F10
sg77
F8.3000000000000007
sg107
F7.5
sg147
F10
sg50
F7.5
sg534
F8.3000000000000007
sg150
F10
sg112
F6.7000000000000002
sg170
F9.0999999999999996
sg78
F5.7999999999999998
sg42
F8.3000000000000007
sg79
F7.5
sg366
F9.0999999999999996
sg310
F5.7999999999999998
sg155
F9.0999999999999996
sg156
F7.5
sg157
F3.2999999999999998
sg80
F7.5
sg311
F9.0999999999999996
sg160
F9.0999999999999996
sg163
F8.3000000000000007
sg185
F7.5
sg165
F5.7999999999999998
sg166
F7.5
sg167
F5.7999999999999998
sg168
F10
sg169
F7.5
sg81
F6.7000000000000002
sg195
F9.0999999999999996
sg82
F9.0999999999999996
sg178
F7.5
sg235
F7.5
sg177
F5
sg105
F8.3000000000000007
sg84
F7.5
sg180
F8.3000000000000007
sg312
F7.5
sg181
F8.3000000000000007
sg108
F8.3000000000000007
sg109
F8.3000000000000007
sg110
F9.0999999999999996
sg570
F8.3000000000000007
sg85
F7.5
sg183
F8.3000000000000007
sg15
F7.5
sg184
F10
sg88
F7.5
sg86
F9.0999999999999996
sg313
F9.0999999999999996
ssg16
VChristian Science Monitor
p2059
sg18
NsbsVBoston Globe/Peter Keough
p2060
g3
(g4
g5
NtRp2061
(dp2062
g8
g2060
sg9
VPeter Keough
p2063
sg11
Vhttp://www.metacritic.com/critic/peter-keough?filter=movies
p2064
sg13
(dp2065
g104
F8.8000000000000007
sg105
F10
sg134
F6.2999999999999998
sg51
F7.5
sg70
F10
sg596
F7.5
sg75
F8.8000000000000007
sg111
F6.2999999999999998
sg89
F8.8000000000000007
sg569
F8.8000000000000007
sg73
F8.8000000000000007
sg86
F10
ssg16
VBoston Globe
p2066
sg18
NsbsVNew York Magazine (Vulture)/Peter Rainer
p2067
g3
(g4
g5
NtRp2068
(dp2069
g8
g2067
sg9
VPeter Rainer
p2070
sg11
Vhttp://www.metacritic.com/critic/peter-rainer?filter=movies
p2071
sg13
(dp2072
g264
F8
sg287
F10
sg142
F7
sg162
F10
sg164
F8
sg323
F7
sg604
F5
sg149
F5
sg43
F10
sg607
F10
sg174
F9
sg152
F10
sg186
F9
sg187
F9
ssg16
VNew York Magazine (Vulture)
p2073
sg18
NsbsVFilm Threat/David Grove
p2074
g3
(g4
g5
NtRp2075
(dp2076
g8
g2074
sg9
VDavid Grove
p2077
sg11
Vhttp://www.metacritic.com/critic/david-grove?filter=movies
p2078
sg13
(dp2079
g129
F6
ssg16
VFilm Threat
p2080
sg18
NsbsVLos Angeles Times/Kenneth Turan
p2081
g3
(g4
g5
NtRp2082
(dp2083
g8
g2081
sg9
VKenneth Turan
p2084
sg11
Vhttp://www.metacritic.com/critic/kenneth-turan?filter=movies
p2085
sg13
(dp2086
g264
F10
sg233
F10
sg33
F10
sg156
F8
sg106
F10
sg67
F10
sg131
F10
sg133
F9
sg145
F5
sg604
F9
sg568
F8
sg59
F3
sg51
F8
sg136
F10
sg73
F9
sg138
F10
sg159
F7
sg104
F9
sg142
F4
sg143
F10
sg120
F8
sg68
F9
sg77
F10
sg107
F10
sg25
F10
sg149
F10
sg43
F10
sg150
F10
sg607
F9
sg151
F8
sg15
F10
sg42
F9
sg153
F2
sg366
F9
sg154
F10
sg155
F9
sg480
F3
sg158
F8
sg134
F8
sg160
F10
sg162
F10
sg163
F10
sg185
F8
sg165
F10
sg166
F6
sg168
F10
sg169
F8
sg170
F10
sg171
F10
sg472
F9
sg195
F10
sg82
F10
sg174
F9
sg176
F10
sg209
F6
sg323
F4
sg321
F9
sg178
F9
sg79
F10
sg180
F10
sg58
F9
sg108
F10
sg110
F8
sg140
F10
sg128
F10
sg85
F10
sg183
F10
sg184
F10
sg187
F10
sg88
F10
sg313
F10
ssg16
VLos Angeles Times
p2087
sg18
NsbsVThe Film Stage/Kyle Pletcher
p2088
g3
(g4
g5
NtRp2089
(dp2090
g8
g2088
sg9
VKyle Pletcher
p2091
sg11
Nsg13
(dp2092
g71
F5.7999999999999998
ssg16
VThe Film Stage
p2093
sg18
NsbsVDallas Observer/Staff (Not credited)
p2094
g3
(g4
g5
NtRp2095
(dp2096
g8
g2094
sg9
VStaff (Not credited)
p2097
sg11
Nsg13
(dp2098
g174
F8
ssg16
VDallas Observer
p2099
sg18
NsbsVThe New Yorker/Pauline Kael
p2100
g3
(g4
g5
NtRp2101
(dp2102
g8
g2100
sg9
VPauline Kael
p2103
sg11
Vhttp://www.metacritic.com/critic/pauline-kael?filter=movies
p2104
sg13
(dp2105
g148
F4
sg605
F3
ssg16
VThe New Yorker
p2106
sg18
NsbsVThe Playlist/Nikola Grozdanovic
p2107
g3
(g4
g5
NtRp2108
(dp2109
g8
g2107
sg9
VNikola Grozdanovic
p2110
sg11
Vhttp://www.metacritic.com/critic/nikola-grozdanovic?filter=movies
p2111
sg13
(dp2112
g111
F10
ssg16
VThe Playlist
p2113
sg18
NsbsVThe Globe and Mail (Toronto)/Gayle MacDonald
p2114
g3
(g4
g5
NtRp2115
(dp2116
g8
g2114
sg9
VGayle MacDonald
p2117
sg11
Nsg13
(dp2118
g157
F5
ssg16
VThe Globe and Mail (Toronto)
p2119
sg18
NsbsVIGN/Jim Vejvoda
p2120
g3
(g4
g5
NtRp2121
(dp2122
g8
g2120
sg9
VJim Vejvoda
p2123
sg11
Vhttp://www.metacritic.com/critic/jim-vejvoda?filter=movies
p2124
sg13
(dp2125
g67
F8.9000000000000004
ssg16
VIGN
p2126
sg18
NsbsVNew York Daily News/Dave Kehr
p2127
g3
(g4
g5
NtRp2128
(dp2129
g8
g2127
sg9
VDave Kehr
p2130
sg11
Vhttp://www.metacritic.com/critic/dave-kehr?filter=movies
p2131
sg13
(dp2132
g606
F5
sg175
F9
ssg16
VNew York Daily News
p2133
sg18
NsbsVChicago Reader/Staff (not credited)
p2134
g3
(g4
g5
NtRp2135
(dp2136
g8
g2134
sg9
VStaff (not credited)
p2137
sg11
Nsg13
(dp2138
g180
F10
ssg16
VChicago Reader
p2139
sg18
NsbsVThe Globe and Mail (Toronto)/Staff (Not Credited)
p2140
g3
(g4
g5
NtRp2141
(dp2142
g8
g2140
sg9
VStaff (Not Credited)
p2143
sg11
Nsg13
(dp2144
g608
F8.8000000000000007
ssg16
VThe Globe and Mail (Toronto)
p2145
sg18
NsbsVFilm.com/Ernest Hardy
p2146
g3
(g4
g5
NtRp2147
(dp2148
g8
g2146
sg9
VErnest Hardy
p2149
sg11
Vhttp://www.metacritic.com/critic/ernest-hardy?filter=movies
p2150
sg13
(dp2151
g120
F9
ssg16
VFilm.com
p2152
sg18
NsbsVChicago Reader/Ronnie Scheib
p2153
g3
(g4
g5
NtRp2154
(dp2155
g8
g2153
sg9
VRonnie Scheib
p2156
sg11
Vhttp://www.metacritic.com/critic/ronnie-scheib?filter=movies
p2157
sg13
(dp2158
g323
F5
ssg16
VChicago Reader
p2159
sg18
NsbsVVillage Voice/Ed Gonzalez
p2160
g3
(g4
g5
NtRp2161
(dp2162
g8
g2160
sg9
VEd Gonzalez
p2163
sg11
Nsg13
(dp2164
g41
F5
ssg16
VVillage Voice
p2165
sg18
NsbsVAustin Chronicle/Steve Davis
p2166
g3
(g4
g5
NtRp2167
(dp2168
g8
g2166
sg9
VSteve Davis
p2169
sg11
Vhttp://www.metacritic.com/critic/steve-davis?filter=movies
p2170
sg13
(dp2171
g134
F7.7999999999999998
sg109
F6.7000000000000002
sg50
F7.7999999999999998
sg171
F8.9000000000000004
sg15
F10
sg79
F10
sg137
F6.7000000000000002
sg235
F8.9000000000000004
ssg16
VAustin Chronicle
p2172
sg18
NsbsVAustin Chronicle/Josh Rosenblatt
p2173
g3
(g4
g5
NtRp2174
(dp2175
g8
g2173
sg9
VJosh Rosenblatt
p2176
sg11
Nsg13
(dp2177
g169
F6.7000000000000002
sg140
F7.7999999999999998
sg42
F8.9000000000000004
sg179
F6.7000000000000002
ssg16
VAustin Chronicle
p2178
sg18
NsbsVLos Angeles Times/John Anderson
p2179
g3
(g4
g5
NtRp2180
(dp2181
g8
g2179
sg9
VJohn Anderson
p2182
sg11
Nsg13
(dp2183
g182
F8
ssg16
VLos Angeles Times
p2184
sg18
NsbsVThe Globe and Mail (Toronto)/Barry Hertz
p2185
g3
(g4
g5
NtRp2186
(dp2187
g8
g2185
sg9
VBarry Hertz
p2188
sg11
Vhttp://www.metacritic.com/critic/barry-hertz?filter=movies
p2189
sg13
(dp2190
g67
F7.5
sg80
F8.8000000000000007
sg134
F8.8000000000000007
sg69
F6.2999999999999998
sg76
F8.8000000000000007
sg88
F8.8000000000000007
sg534
F6.2999999999999998
sg74
F5
sg146
F8.8000000000000007
sg86
F5
ssg16
VThe Globe and Mail (Toronto)
p2191
sg18
NsbsVFilm.com/James Rocchi
p2192
g3
(g4
g5
NtRp2193
(dp2194
g8
g2192
sg9
VJames Rocchi
p2195
sg11
Vhttp://www.metacritic.com/critic/james-rocchi?filter=movies
p2196
sg13
(dp2197
g78
F6.2999999999999998
ssg16
VFilm.com
p2198
sg18
NsbsVFilm.com/Tom Keogh
p2199
g3
(g4
g5
NtRp2200
(dp2201
g8
g2199
sg9
VTom Keogh
p2202
sg11
Vhttp://www.metacritic.com/critic/tom-keogh?filter=movies
p2203
sg13
(dp2204
g480
F4
sg182
F8
ssg16
VFilm.com
p2205
sg18
NsbsVChicago Sun-Times/Patrick Z. McGavin
p2206
g3
(g4
g5
NtRp2207
(dp2208
g8
g2206
sg9
VPatrick Z. McGavin
p2209
sg11
Nsg13
(dp2210
g596
F7.5
ssg16
VChicago Sun-Times
p2211
sg18
NsbsVPremiere/Nick Starkey
p2212
g3
(g4
g5
NtRp2213
(dp2214
g8
g2212
sg9
VNick Starkey
p2215
sg11
Nsg13
(dp2216
g183
F10
ssg16
VPremiere
p2217
sg18
NsbsVVillage Voice/Danny King
p2218
g3
(g4
g5
NtRp2219
(dp2220
g8
g2218
sg9
VDanny King
p2221
sg11
Vhttp://www.metacritic.com/critic/danny-king?filter=movies
p2222
sg13
(dp2223
g156
F8
ssg16
VVillage Voice
p2224
sg18
NsbsVChicago Reader/Lisa Alspector
p2225
g3
(g4
g5
NtRp2226
(dp2227
g8
g2225
sg9
VLisa Alspector
p2228
sg11
Vhttp://www.metacritic.com/critic/lisa-alspector?filter=movies
p2229
sg13
(dp2230
g606
F9
sg182
F8
ssg16
VChicago Reader
p2231
sg18
NsbsVSalon/Laura Miller
p2232
g3
(g4
g5
NtRp2233
(dp2234
g8
g2232
sg9
VLaura Miller
p2235
sg11
Nsg13
(dp2236
g151
F5
ssg16
VSalon
p2237
sg18
NsbsVCineVue/Richard Hayward
p2238
g3
(g4
g5
NtRp2239
(dp2240
g8
g2238
sg9
VRichard Hayward
p2241
sg11
Nsg13
(dp2242
g71
F8
ssg16
VCineVue
p2243
sg18
NsbsVChicago Sun-Times/Bruce Ingram
p2244
g3
(g4
g5
NtRp2245
(dp2246
g8
g2244
sg9
VBruce Ingram
p2247
sg11
Vhttp://www.metacritic.com/critic/bruce-ingram?filter=movies
p2248
sg13
(dp2249
g163
F10
sg235
F7.5
ssg16
VChicago Sun-Times
p2250
sg18
NsbsVThe Dissolve/Nathan Rabin
p2251
g3
(g4
g5
NtRp2252
(dp2253
g8
g2251
sg9
VNathan Rabin
p2254
sg11
Vhttp://www.metacritic.com/critic/nathan-rabin?filter=movies
p2255
sg13
(dp2256
g596
F8
ssg16
VThe Dissolve
p2257
sg18
NsbsVVariety/Andrew Barker
p2258
g3
(g4
g5
NtRp2259
(dp2260
g8
g2258
sg9
VAndrew Barker
p2261
sg11
Vhttp://www.metacritic.com/critic/andrew-barker?filter=movies
p2262
sg13
(dp2263
g157
F5
sg134
F8
ssg16
VVariety
p2264
sg18
NsbsVThe Guardian/Andrew Pulver
p2265
g3
(g4
g5
NtRp2266
(dp2267
g8
g2265
sg9
VAndrew Pulver
p2268
sg11
Vhttp://www.metacritic.com/critic/andrew-pulver?filter=movies
p2269
sg13
(dp2270
g534
F8
sg163
F8
sg366
F8
ssg16
VThe Guardian
p2271
sg18
NsbsVThe Verge/Chris Plante
p2272
g3
(g4
g5
NtRp2273
(dp2274
g8
g2272
sg9
VChris Plante
p2275
sg11
Nsg13
(dp2276
g106
F9.5
ssg16
VThe Verge
p2277
sg18
NsbsVThe Hollywood Reporter/Sura Wood
p2278
g3
(g4
g5
NtRp2279
(dp2280
g8
g2278
sg9
VSura Wood
p2281
sg11
Nsg13
(dp2282
g169
F6
ssg16
VThe Hollywood Reporter
p2283
sg18
NsbsVHitfix/Catherine Bray
p2284
g3
(g4
g5
NtRp2285
(dp2286
g8
g2284
sg9
VCatherine Bray
p2287
sg11
Nsg13
(dp2288
g78
F9.0999999999999996
ssg16
VHitfix
p2289
sg18
NsbsVTotal Film/Kevin Harley
p2290
g3
(g4
g5
NtRp2291
(dp2292
g8
g2290
sg9
VKevin Harley
p2293
sg11
Vhttp://www.metacritic.com/critic/kevin-harley?filter=movies
p2294
sg13
(dp2295
g50
F10
sg176
F10
sg181
F8
sg69
F10
sg67
F10
ssg16
VTotal Film
p2296
sg18
NsbsVThe Guardian/Xan Brooks
p2297
g3
(g4
g5
NtRp2298
(dp2299
g8
g2297
sg9
VXan Brooks
p2300
sg11
Vhttp://www.metacritic.com/critic/xan-brooks?filter=movies
p2301
sg13
(dp2302
g67
F8
sg72
F10
sg84
F8
sg70
F8
sg131
F10
sg68
F10
sg165
F8
sg77
F8
sg78
F6
sg87
F10
ssg16
VThe Guardian
p2303
sg18
NsbsVWashington Post/Ann Hornaday
p2304
g3
(g4
g5
NtRp2305
(dp2306
g8
g2304
sg9
VAnn Hornaday
p2307
sg11
Vhttp://www.metacritic.com/critic/ann-hornaday?filter=movies
p2308
sg13
(dp2309
g128
F10
sg67
F7.5
sg76
F6.2999999999999998
sg106
F10
sg69
F8.8000000000000007
sg130
F6.2999999999999998
sg70
F10
sg131
F6.2999999999999998
sg133
F10
sg145
F3.7999999999999998
sg71
F7.5
sg72
F10
sg136
F10
sg73
F7.5
sg74
F5
sg137
F10
sg171
F10
sg143
F10
sg78
F10
sg144
F5
sg41
F7
sg68
F7.5
sg234
F10
sg77
F10
sg107
F10
sg50
F7.5
sg534
F8.8000000000000007
sg150
F10
sg112
F10
sg15
F10
sg79
F10
sg366
F6.2999999999999998
sg310
F7.5
sg155
F10
sg156
F8.8000000000000007
sg157
F2.5
sg185
F7.5
sg163
F7.5
sg164
F9
sg165
F8.8000000000000007
sg178
F10
sg169
F9
sg81
F8.8000000000000007
sg195
F10
sg82
F10
sg176
F10
sg177
F7.5
sg105
F8.8000000000000007
sg84
F10
sg312
F7.5
sg181
F6.2999999999999998
sg108
F10
sg109
F10
sg570
F10
sg140
F9
sg85
F10
sg183
F7.5
sg184
F7
sg88
F10
sg86
F7.5
sg313
F7.5
ssg16
VWashington Post
p2310
sg18
NsbsVSlant Magazine/Sam C. Mac
p2311
g3
(g4
g5
NtRp2312
(dp2313
g8
g2311
sg9
VSam C. Mac
p2314
sg11
Vhttp://www.metacritic.com/critic/sam-c-mac?filter=movies
p2315
sg13
(dp2316
g79
F6.2999999999999998
ssg16
VSlant Magazine
p2317
sg18
NsbsVTotal Film/Staff (Not Credited)
p2318
g3
(g4
g5
NtRp2319
(dp2320
g8
g2318
sg9
VStaff (Not Credited)
p2321
sg11
Nsg13
(dp2322
g135
F6
sg256
F10
sg148
F10
ssg16
VTotal Film
p2323
sg18
NsbsVNPR/Mark Jenkins
p2324
g3
(g4
g5
NtRp2325
(dp2326
g8
g2324
sg9
VMark Jenkins
p2327
sg11
Vhttp://www.metacritic.com/critic/mark-jenkins?filter=movies
p2328
sg13
(dp2329
g312
F7
sg568
F9
ssg16
VNPR
p2330
sg18
NsbsVWashington Post/John DeFore
p2331
g3
(g4
g5
NtRp2332
(dp2333
g8
g2331
sg9
VJohn DeFore
p2334
sg11
Nsg13
(dp2335
g75
F8.8000000000000007
ssg16
VWashington Post
p2336
sg18
NsbsVEmpire/Angie Errigo
p2337
g3
(g4
g5
NtRp2338
(dp2339
g8
g2337
sg9
VAngie Errigo
p2340
sg11
Vhttp://www.metacritic.com/critic/angie-errigo?filter=movies
p2341
sg13
(dp2342
g148
F10
sg171
F8
sg159
F8
ssg16
VEmpire
p2343
sg18
NsbsVConsequence of Sound/Dominick Suzanne-Mayer
p2344
g3
(g4
g5
NtRp2345
(dp2346
g8
g2344
sg9
VDominick Suzanne-Mayer
p2347
sg11
Vhttp://www.metacritic.com/critic/dominick-suzanne-mayer?filter=movies
p2348
sg13
(dp2349
g156
F5.7999999999999998
sg69
F10
sg68
F9.0999999999999996
sg107
F9.0999999999999996
sg15
F10
sg137
F4.2000000000000002
ssg16
VConsequence of Sound
p2350
sg18
NsbsVNew Times (L.A.)/Gregory Weinkauf
p2351
g3
(g4
g5
NtRp2352
(dp2353
g8
g2351
sg9
VGregory Weinkauf
p2354
sg11
Vhttp://www.metacritic.com/critic/gregory-weinkauf?filter=movies
p2355
sg13
(dp2356
g287
F7
ssg16
VNew Times (L.A.)
p2357
sg18
NsbsVEmpire/Phil de Semlyen
p2358
g3
(g4
g5
NtRp2359
(dp2360
g8
g2358
sg9
VPhil de Semlyen
p2361
sg11
Vhttp://www.metacritic.com/critic/phil-de-semlyen?filter=movies
p2362
sg13
(dp2363
g234
F10
sg106
F10
ssg16
VEmpire
p2364
sg18
NsbsVChicago Tribune/Dave Kehr
p2365
g3
(g4
g5
NtRp2366
(dp2367
g8
g2365
sg9
VDave Kehr
p2368
sg11
Nsg13
(dp2369
g605
F8.8000000000000007
sg406
F5
ssg16
VChicago Tribune
p2370
sg18
NsbsVSlant Magazine/Steve Macfarlane
p2371
g3
(g4
g5
NtRp2372
(dp2373
g8
g2371
sg9
VSteve Macfarlane
p2374
sg11
Vhttp://www.metacritic.com/critic/steve-macfarlane?filter=movies
p2375
sg13
(dp2376
g104
F7.5
sg176
F7.5
ssg16
VSlant Magazine
p2377
sg18
NsbsVWe Got This Covered/Sam Woolf
p2378
g3
(g4
g5
NtRp2379
(dp2380
g8
g2378
sg9
VSam Woolf
p2381
sg11
Nsg13
(dp2382
g146
F8
ssg16
VWe Got This Covered
p2383
sg18
NsbsVSan Francisco Examiner/G. Allen Johnson
p2384
g3
(g4
g5
NtRp2385
(dp2386
g8
g2384
sg9
VG. Allen Johnson
p2387
sg11
Vhttp://www.metacritic.com/critic/g-allen-johnson?filter=movies
p2388
sg13
(dp2389
g151
F8.8000000000000007
sg606
F7.5
sg59
F0
ssg16
VSan Francisco Examiner
p2390
sg18
NsbsVPortland Oregonian/Jeff Baker
p2391
g3
(g4
g5
NtRp2392
(dp2393
g8
g2391
sg9
VJeff Baker
p2394
sg11
Vhttp://www.metacritic.com/critic/jeff-baker?filter=movies
p2395
sg13
(dp2396
g72
F10
sg84
F8.3000000000000007
sg181
F6.7000000000000002
sg596
F9.0999999999999996
sg88
F10
sg570
F9.0999999999999996
sg171
F8.3000000000000007
sg176
F10
sg366
F9.0999999999999996
sg146
F9.0999999999999996
ssg16
VPortland Oregonian
p2397
sg18
NsbsVSlant Magazine/John Semley
p2398
g3
(g4
g5
NtRp2399
(dp2400
g8
g2398
sg9
VJohn Semley
p2401
sg11
Nsg13
(dp2402
g128
F7.5
sg130
F6.2999999999999998
ssg16
VSlant Magazine
p2403
sg18
NsbsVVariety/Lisa Nesselson
p2404
g3
(g4
g5
NtRp2405
(dp2406
g8
g2404
sg9
VLisa Nesselson
p2407
sg11
Nsg13
(dp2408
g322
F9
sg323
F8
sg173
F9
ssg16
VVariety
p2409
sg18
NsbsVCineVue/Craig Williams
p2410
g3
(g4
g5
NtRp2411
(dp2412
g8
g2410
sg9
VCraig Williams
p2413
sg11
Nsg13
(dp2414
g84
F10
ssg16
VCineVue
p2415
sg18
NsbsVNew York Daily News/Jordan Hoffman
p2416
g3
(g4
g5
NtRp2417
(dp2418
g8
g2416
sg9
VJordan Hoffman
p2419
sg11
Nsg13
(dp2420
g73
F8
sg235
F8
ssg16
VNew York Daily News
p2421
sg18
NsbsVThe Globe and Mail (Toronto)/Rick Groen
p2422
g3
(g4
g5
NtRp2423
(dp2424
g8
g2422
sg9
VRick Groen
p2425
sg11
Vhttp://www.metacritic.com/critic/rick-groen?filter=movies
p2426
sg13
(dp2427
g264
F6.2999999999999998
sg144
F7.5
sg59
F3.7999999999999998
sg136
F10
sg41
F6.2999999999999998
sg138
F8.8000000000000007
sg142
F6.2999999999999998
sg147
F8.8000000000000007
sg150
F10
sg42
F8.8000000000000007
sg153
F3.7999999999999998
sg164
F7.5
sg162
F7.5
sg185
F7.5
sg166
F7.5
sg167
F7.5
sg168
F10
sg169
F6.2999999999999998
sg322
F8.8000000000000007
sg173
F7.5
sg177
F8.8000000000000007
sg178
F8.8000000000000007
sg312
F7.5
sg58
F8.8000000000000007
sg183
F7.5
sg184
F7.5
ssg16
VThe Globe and Mail (Toronto)
p2428
sg18
NsbsVRogerEbert.com/Sheila O'Malley
p2429
g3
(g4
g5
NtRp2430
(dp2431
g8
g2429
sg9
VSheila O'Malley
p2432
sg11
Vhttp://www.metacritic.com/critic/sheila-omalley?filter=movies
p2433
sg13
(dp2434
g67
F6.2999999999999998
sg134
F7.5
sg181
F3.7999999999999998
sg88
F8.8000000000000007
sg50
F8.8000000000000007
sg534
F7.5
sg176
F8.8000000000000007
sg137
F3.7999999999999998
sg89
F8.8000000000000007
ssg16
VRogerEbert.com
p2435
sg18
NsbsVThe A.V. Club/Nathan Rabin
p2436
g3
(g4
g5
NtRp2437
(dp2438
g8
g2436
sg9
VNathan Rabin
p2439
sg11
Vhttp://www.metacritic.com/critic/nathan-rabin?filter=movies
p2440
sg13
(dp2441
g157
F7.5
sg158
F10
sg130
F9.0999999999999996
sg187
F9
sg147
F8
sg129
F7
sg159
F5
sg177
F10
sg155
F10
ssg16
VThe A.V. Club
p2442
sg18
NsbsVThe A.V. Club/Mike D'Angelo
p2443
g3
(g4
g5
NtRp2444
(dp2445
g8
g2443
sg9
VMike D'Angelo
p2446
sg11
Vhttp://www.metacritic.com/critic/mike-dangelo?filter=movies
p2447
sg13
(dp2448
g105
F8.3000000000000007
sg311
F5
sg70
F7.5
sg310
F6.7000000000000002
sg234
F8.3000000000000007
sg596
F7.5
sg110
F8.3000000000000007
sg81
F10
sg83
F7.5
sg176
F9.0999999999999996
sg209
F5
sg146
F10
sg86
F9.0999999999999996
ssg16
VThe A.V. Club
p2449
sg18
NsbsVFilm Threat/Staff (Not credited)
p2450
g3
(g4
g5
NtRp2451
(dp2452
g8
g2450
sg9
VStaff (Not credited)
p2453
sg11
Nsg13
(dp2454
g264
F6
ssg16
VFilm Threat
p2455
sg18
NsbsVSeattle Post-Intelligencer/William Arnold
p2456
g3
(g4
g5
NtRp2457
(dp2458
g8
g2456
sg9
VWilliam Arnold
p2459
sg11
Vhttp://www.metacritic.com/critic/william-arnold?filter=movies
p2460
sg13
(dp2461
g135
F2.5
sg159
F10
sg321
F10
sg142
F7.5
sg120
F8.3000000000000007
sg152
F10
sg147
F8.3000000000000007
sg43
F10
sg150
F6.7000000000000002
sg153
F5.7999999999999998
sg154
F9.0999999999999996
sg155
F10
sg480
F4.2000000000000002
sg158
F7.5
sg162
F8.3000000000000007
sg164
F7.5
sg166
F9.0999999999999996
sg169
F10
sg173
F7.5
sg323
F10
sg179
F5.7999999999999998
sg182
F10
sg149
F7.5
sg184
F9.0999999999999996
sg286
F4.2000000000000002
sg186
F6.7000000000000002
ssg16
VSeattle Post-Intelligencer
p2462
sg18
NsbsVCineVue/Joe Walsh
p2463
g3
(g4
g5
NtRp2464
(dp2465
g8
g2463
sg9
VJoe Walsh
p2466
sg11
Vhttp://www.metacritic.com/critic/joe-walsh?filter=movies
p2467
sg13
(dp2468
g15
F10
ssg16
VCineVue
p2469
sg18
NsbsVVillage Voice/J. Hoberman
p2470
g3
(g4
g5
NtRp2471
(dp2472
g8
g2470
sg9
VJ. Hoberman
p2473
sg11
Vhttp://www.metacritic.com/critic/j-hoberman?filter=movies
p2474
sg13
(dp2475
g264
F7
sg309
F8
sg133
F10
sg604
F9
sg138
F8
sg321
F4
sg142
F6
sg120
F8
sg152
F7
sg147
F7
sg43
F8
sg150
F9
sg42
F7
sg155
F10
sg158
F4
sg162
F9
sg164
F9
sg166
F8
sg167
F10
sg344
F8
sg323
F7
sg287
F4
sg140
F10
sg149
F9
sg183
F7
sg184
F7
sg186
F7
sg187
F9
ssg16
VVillage Voice
p2476
sg18
NsbsVScreen International/David D'Arcy
p2477
g3
(g4
g5
NtRp2478
(dp2479
g8
g2477
sg9
VDavid D'Arcy
p2480
sg11
Vhttp://www.metacritic.com/critic/david-darcy?filter=movies
p2481
sg13
(dp2482
g25
F7
sg1105
F7
ssg16
VScreen International
p2483
sg18
NsbsVThe Film Stage/Rory O'Connor
p2484
g3
(g4
g5
NtRp2485
(dp2486
g8
g2484
sg9
VRory O'Connor
p2487
sg11
Vhttp://www.metacritic.com/critic/rory-oconnor?filter=movies
p2488
sg13
(dp2489
g67
F9.0999999999999996
sg80
F10
sg68
F10
sg74
F9.0999999999999996
sg51
F10
ssg16
VThe Film Stage
p2490
sg18
NsbsVFilm Threat/Zach Haddad
p2491
g3
(g4
g5
NtRp2492
(dp2493
g8
g2491
sg9
VZach Haddad
p2494
sg11
Nsg13
(dp2495
g139
F6
ssg16
VFilm Threat
p2496
sg18
NsbsVConsequence of Sound/Collin Brennan
p2497
g3
(g4
g5
NtRp2498
(dp2499
g8
g2497
sg9
VCollin Brennan
p2500
sg11
Vhttp://www.metacritic.com/critic/collin-brennan?filter=movies
p2501
sg13
(dp2502
g104
F10
sg534
F5
ssg16
VConsequence of Sound
p2503
sg18
NsbsVThe Globe and Mail (Toronto)/Geoff Pevere
p2504
g3
(g4
g5
NtRp2505
(dp2506
g8
g2504
sg9
VGeoff Pevere
p2507
sg11
Nsg13
(dp2508
g75
F8.8000000000000007
sg366
F7.5
ssg16
VThe Globe and Mail (Toronto)
p2509
sg18
NsbsVBoxoffice Magazine/Pete Hammond
p2510
g3
(g4
g5
NtRp2511
(dp2512
g8
g2510
sg9
VPete Hammond
p2513
sg11
Vhttp://www.metacritic.com/critic/pete-hammond?filter=movies
p2514
sg13
(dp2515
g144
F9
sg178
F8
sg185
F9
ssg16
VBoxoffice Magazine
p2516
sg18
NsbsVThe Hollywood Reporter/John DeFore
p2517
g3
(g4
g5
NtRp2518
(dp2519
g8
g2517
sg9
VJohn DeFore
p2520
sg11
Vhttp://www.metacritic.com/critic/john-defore?filter=movies
p2521
sg13
(dp2522
g181
F10
sg596
F8
sg155
F10
ssg16
VThe Hollywood Reporter
p2523
sg18
NsbsVEntertainment Weekly/Joe McGovern
p2524
g3
(g4
g5
NtRp2525
(dp2526
g8
g2524
sg9
VJoe McGovern
p2527
sg11
Vhttp://www.metacritic.com/critic/joe-mcgovern?filter=movies
p2528
sg13
(dp2529
g105
F10
sg234
F8.3000000000000007
sg33
F9.0999999999999996
sg110
F9.0999999999999996
ssg16
VEntertainment Weekly
p2530
sg18
NsbsVThe Hollywood Reporter/Peter Brunette
p2531
g3
(g4
g5
NtRp2532
(dp2533
g8
g2531
sg9
VPeter Brunette
p2534
sg11
Nsg13
(dp2535
g167
F10
ssg16
VThe Hollywood Reporter
p2536
sg18
NsbsVWashington Post/Phillip Kennicott
p2537
g3
(g4
g5
NtRp2538
(dp2539
g8
g2537
sg9
VPhillip Kennicott
p2540
sg11
Nsg13
(dp2541
g174
F6
ssg16
VWashington Post
p2542
sg18
NsbsVScreenCrush/Jordan Hoffman
p2543
g3
(g4
g5
NtRp2544
(dp2545
g8
g2543
sg9
VJordan Hoffman
p2546
sg11
Nsg13
(dp2547
g15
F10
ssg16
VScreenCrush
p2548
sg18
NsbsVThe Hollywood Reporter/Todd McCarthy
p2549
g3
(g4
g5
NtRp2550
(dp2551
g8
g2549
sg9
VTodd McCarthy
p2552
sg11
Vhttp://www.metacritic.com/critic/todd-mccarthy?filter=movies
p2553
sg13
(dp2554
g128
F10
sg130
F8
sg72
F10
sg106
F9
sg69
F10
sg131
F10
sg145
F6
sg74
F8
sg143
F9
sg78
F10
sg76
F5
sg77
F10
sg146
F10
sg25
F6
sg75
F7
sg15
F9
sg112
F7
sg156
F9
sg163
F9
sg185
F9
sg165
F10
sg171
F10
sg82
F10
sg176
F9
sg178
F8
sg84
F7
sg110
F8
sg85
F8
sg88
F6
sg313
F10
ssg16
VThe Hollywood Reporter
p2555
sg18
NsbsVWall Street Journal/John Anderson
p2556
g3
(g4
g5
NtRp2557
(dp2558
g8
g2556
sg9
VJohn Anderson
p2559
sg11
Vhttp://www.metacritic.com/critic/john-anderson?filter=movies
p2560
sg13
(dp2561
g79
F10
sg110
F8
ssg16
VWall Street Journal
p2562
sg18
NsbsVFilm Threat/Stina Chyn
p2563
g3
(g4
g5
NtRp2564
(dp2565
g8
g2563
sg9
VStina Chyn
p2566
sg11
Vhttp://www.metacritic.com/critic/stina-chyn?filter=movies
p2567
sg13
(dp2568
g41
F8
sg187
F8
ssg16
VFilm Threat
p2569
sg18
NsbsVScreenCrush/E. Oliver Whitney
p2570
g3
(g4
g5
NtRp2571
(dp2572
g8
g2570
sg9
VE. Oliver Whitney
p2573
sg11
Vhttp://www.metacritic.com/critic/e-oliver-whitney?filter=movies
p2574
sg13
(dp2575
g67
F10
sg79
F9
ssg16
VScreenCrush
p2576
sg18
NsbsVThe A.V. Club/Keith Uhlich
p2577
g3
(g4
g5
NtRp2578
(dp2579
g8
g2577
sg9
VKeith Uhlich
p2580
sg11
Nsg13
(dp2581
g366
F7.5
sg569
F9.0999999999999996
ssg16
VThe A.V. Club
p2582
sg18
NsbsVVariety/Owen Gleiberman
p2583
g3
(g4
g5
NtRp2584
(dp2585
g8
g2583
sg9
VOwen Gleiberman
p2586
sg11
Vhttp://www.metacritic.com/critic/owen-gleiberman?filter=movies
p2587
sg13
(dp2588
g105
F10
sg68
F8
sg69
F7
sg51
F7
sg76
F9
sg71
F5
sg112
F6
sg83
F9
sg74
F6
ssg16
VVariety
p2589
sg18
NsbsVLos Angeles Times/Mark Olsen
p2590
g3
(g4
g5
NtRp2591
(dp2592
g8
g2590
sg9
VMark Olsen
p2593
sg11
Vhttp://www.metacritic.com/critic/mark-olsen?filter=movies
p2594
sg13
(dp2595
g146
F9
ssg16
VLos Angeles Times
p2596
sg18
NsbsVFilm Threat/Ross Williams
p2597
g3
(g4
g5
NtRp2598
(dp2599
g8
g2597
sg9
VRoss Williams
p2600
sg11
Vhttp://www.metacritic.com/critic/ross-williams?filter=movies
p2601
sg13
(dp2602
g323
F10
ssg16
VFilm Threat
p2603
sg18
NsbsVEmpire/Simon Braund
p2604
g3
(g4
g5
NtRp2605
(dp2606
g8
g2604
sg9
VSimon Braund
p2607
sg11
Nsg13
(dp2608
g153
F4
sg141
F8
ssg16
VEmpire
p2609
sg18
NsbsVThe Atlantic/David Sims
p2610
g3
(g4
g5
NtRp2611
(dp2612
g8
g2610
sg9
VDavid Sims
p2613
sg11
Vhttp://www.metacritic.com/critic/david-sims?filter=movies
p2614
sg13
(dp2615
g50
F8
sg134
F4.5
sg74
F7.5
sg71
F4.5
ssg16
VThe Atlantic
p2616
sg18
NsbsVThe Playlist/Russ Fischer
p2617
g3
(g4
g5
NtRp2618
(dp2619
g8
g2617
sg9
VRuss Fischer
p2620
sg11
Vhttp://www.metacritic.com/critic/russ-fischer?filter=movies
p2621
sg13
(dp2622
g76
F9.0999999999999996
sg137
F5
ssg16
VThe Playlist
p2623
sg18
NsbsVTheWrap/Alonso Duralde
p2624
g3
(g4
g5
NtRp2625
(dp2626
g8
g2624
sg9
VAlonso Duralde
p2627
sg11
Vhttp://www.metacritic.com/critic/alonso-duralde?filter=movies
p2628
sg13
(dp2629
g67
F9.5
sg72
F10
sg310
F6.5999999999999996
sg76
F7.2000000000000002
sg596
F9
sg146
F8.5
sg570
F8
sg78
F9
sg171
F8.5
sg195
F8.5
sg109
F9
sg88
F9.5
sg176
F9.5
sg137
F9
sg235
F9.1999999999999993
ssg16
VTheWrap
p2630
sg18
NsbsVNewsweek/Jack Kroll
p2631
g3
(g4
g5
NtRp2632
(dp2633
g8
g2631
sg9
VJack Kroll
p2634
sg11
Nsg13
(dp2635
g605
F10
sg158
F8
ssg16
VNewsweek
p2636
sg18
NsbsVPremiere/Staff (Not credited)
p2637
g3
(g4
g5
NtRp2638
(dp2639
g8
g2637
sg9
VStaff (Not credited)
p2640
sg11
Nsg13
(dp2641
g108
F8.8000000000000007
ssg16
VPremiere
p2642
sg18
NsbsVVillage Voice/April Wolfe
p2643
g3
(g4
g5
NtRp2644
(dp2645
g8
g2643
sg9
VApril Wolfe
p2646
sg11
Vhttp://www.metacritic.com/critic/april-wolfe?filter=movies
p2647
sg13
(dp2648
g50
F9
sg68
F6
sg134
F7
sg106
F10
sg111
F6
ssg16
VVillage Voice
p2649
sg18
NsbsVThe Hollywood Reporter/Deborah Young
p2650
g3
(g4
g5
NtRp2651
(dp2652
g8
g2650
sg9
VDeborah Young
p2653
sg11
Vhttp://www.metacritic.com/critic/deborah-young?filter=movies
p2654
sg13
(dp2655
g80
F9
sg311
F5
sg309
F7
sg70
F8
sg105
F8
sg111
F7
sg87
F8
sg136
F10
sg73
F9
sg138
F9
ssg16
VThe Hollywood Reporter
p2656
sg18
NsbsVTheWrap/Inkoo Kang
p2657
g3
(g4
g5
NtRp2658
(dp2659
g8
g2657
sg9
VInkoo Kang
p2660
sg11
Vhttp://www.metacritic.com/critic/inkoo-kang?filter=movies
p2661
sg13
(dp2662
g33
F9
sg134
F5
sg181
F5.5
sg107
F10
sg50
F9
sg209
F7.5
sg74
F7
ssg16
VTheWrap
p2663
sg18
NsbsVTime Out/Geoff Andrew
p2664
g3
(g4
g5
NtRp2665
(dp2666
g8
g2664
sg9
VGeoff Andrew
p2667
sg11
Nsg13
(dp2668
g235
F8
ssg16
VTime Out
p2669
sg18
NsbsVEmpire/David Hughes
p2670
g3
(g4
g5
NtRp2671
(dp2672
g8
g2670
sg9
VDavid Hughes
p2673
sg11
Vhttp://www.metacritic.com/critic/david-hughes?filter=movies
p2674
sg13
(dp2675
g264
F8
sg149
F10
sg87
F8
sg136
F10
sg366
F10
sg313
F8
ssg16
VEmpire
p2676
sg18
NsbsVThe Playlist/Drew Taylor
p2677
g3
(g4
g5
NtRp2678
(dp2679
g8
g2677
sg9
VDrew Taylor
p2680
sg11
Vhttp://www.metacritic.com/critic/drew-taylor?filter=movies
p2681
sg13
(dp2682
g178
F5
sg596
F7.5
ssg16
VThe Playlist
p2683
sg18
NsbsVUproxx/Keith Phipps
p2684
g3
(g4
g5
NtRp2685
(dp2686
g8
g2684
sg9
VKeith Phipps
p2687
sg11
Vhttp://www.metacritic.com/critic/keith-phipps?filter=movies
p2688
sg13
(dp2689
g50
F8.5
sg74
F8.5
sg69
F10
sg83
F8
ssg16
VUproxx
p2690
sg18
NsbsVSlant Magazine/Chris Cabin
p2691
g3
(g4
g5
NtRp2692
(dp2693
g8
g2691
sg9
VChris Cabin
p2694
sg11
Vhttp://www.metacritic.com/critic/chris-cabin?filter=movies
p2695
sg13
(dp2696
g310
F6.2999999999999998
sg84
F10
sg82
F8.8000000000000007
sg313
F7.5
ssg16
VSlant Magazine
p2697
sg18
NsbsVThe Globe and Mail (Toronto)/Ray Conlogue
p2698
g3
(g4
g5
NtRp2699
(dp2700
g8
g2698
sg9
VRay Conlogue
p2701
sg11
Vhttp://www.metacritic.com/critic/ray-conlogue?filter=movies
p2702
sg13
(dp2703
g129
F7.5
ssg16
VThe Globe and Mail (Toronto)
p2704
sg18
NsbsVRogerEbert.com/Glenn Kenny
p2705
g3
(g4
g5
NtRp2706
(dp2707
g8
g2705
sg9
VGlenn Kenny
p2708
sg11
Vhttp://www.metacritic.com/critic/glenn-kenny?filter=movies
p2709
sg13
(dp2710
g33
F10
sg163
F10
sg69
F10
sg143
F8.8000000000000007
sg51
F8.8000000000000007
sg70
F10
sg310
F2.5
sg171
F10
sg82
F10
sg112
F10
sg74
F3.7999999999999998
ssg16
VRogerEbert.com
p2711
sg18
NsbsVChicago Tribune/Tasha Robinson
p2712
g3
(g4
g5
NtRp2713
(dp2714
g8
g2712
sg9
VTasha Robinson
p2715
sg11
Nsg13
(dp2716
g322
F8.8000000000000007
ssg16
VChicago Tribune
p2717
sg18
NsbsVThe Playlist/Rodrigo Perez
p2718
g3
(g4
g5
NtRp2719
(dp2720
g8
g2718
sg9
VRodrigo Perez
p2721
sg11
Vhttp://www.metacritic.com/critic/rodrigo-perez?filter=movies
p2722
sg13
(dp2723
g128
F8.3000000000000007
sg130
F4.2000000000000002
sg72
F8.3000000000000007
sg84
F8.3000000000000007
sg143
F9.0999999999999996
sg181
F9.0999999999999996
sg145
F8.3000000000000007
sg71
F7.5
sg171
F10
sg73
F8.3000000000000007
sg366
F9.0999999999999996
sg570
F8.3000000000000007
sg86
F8.3000000000000007
ssg16
VThe Playlist
p2724
sg18
NsbsVTNT RoughCut/Christopher Brandon
p2725
g3
(g4
g5
NtRp2726
(dp2727
g8
g2725
sg9
VChristopher Brandon
p2728
sg11
Vhttp://www.metacritic.com/critic/christopher-brandon?filter=movies
p2729
sg13
(dp2730
g321
F10
sg158
F7
ssg16
VTNT RoughCut
p2731
sg18
NsbsVVox/Alissa Wilkinson
p2732
g3
(g4
g5
NtRp2733
(dp2734
g8
g2732
sg9
VAlissa Wilkinson
p2735
sg11
Vhttp://www.metacritic.com/critic/alissa-wilkinson?filter=movies
p2736
sg13
(dp2737
g67
F8
sg69
F7
sg68
F8
sg74
F8
sg111
F7
ssg16
VVox
p2738
sg18
NsbsVThe Seattle Times/Michael Upchurch
p2739
g3
(g4
g5
NtRp2740
(dp2741
g8
g2739
sg9
VMichael Upchurch
p2742
sg11
Nsg13
(dp2743
g110
F7.5
ssg16
VThe Seattle Times
p2744
sg18
NsbsVVillage Voice/Stephanie Zacharek
p2745
g3
(g4
g5
NtRp2746
(dp2747
g8
g2745
sg9
VStephanie Zacharek
p2748
sg11
Vhttp://www.metacritic.com/critic/stephanie-zacharek?filter=movies
p2749
sg13
(dp2750
g72
F10
sg84
F9
sg143
F4
sg78
F7
sg310
F9
sg234
F9
sg77
F10
sg596
F8
sg75
F10
sg15
F8
sg82
F10
sg181
F7
sg176
F8
sg366
F9
sg88
F10
sg235
F9
ssg16
VVillage Voice
p2751
sg18
NsbsVThe Globe and Mail (Toronto)/Nathalie Atkinson 
p2752
g3
(g4
g5
NtRp2753
(dp2754
g8
g2752
sg9
VNathalie Atkinson 
p2755
sg11
Nsg13
(dp2756
g596
F7.5
ssg16
VThe Globe and Mail (Toronto)
p2757
sg18
NsbsVCineVue/Daniel Green
p2758
g3
(g4
g5
NtRp2759
(dp2760
g8
g2758
sg9
VDaniel Green
p2761
sg11
Vhttp://www.metacritic.com/critic/daniel-green?filter=movies
p2762
sg13
(dp2763
g82
F10
ssg16
VCineVue
p2764
sg18
NsbsVSan Francisco Chronicle/C.W. Nevius
p2765
g3
(g4
g5
NtRp2766
(dp2767
g8
g2765
sg9
VC.W. Nevius
p2768
sg11
Vhttp://www.metacritic.com/critic/cw-nevius?filter=movies
p2769
sg13
(dp2770
g135
F7.5
ssg16
VSan Francisco Chronicle
p2771
sg18
NsbsVTNT RoughCut/Gabriel J.P. Goldberg
p2772
g3
(g4
g5
NtRp2773
(dp2774
g8
g2772
sg9
VGabriel J.P. Goldberg
p2775
sg11
Nsg13
(dp2776
g151
F10
ssg16
VTNT RoughCut
p2777
sg18
NsbsVIndieWire/Greg Cwick
p2778
g3
(g4
g5
NtRp2779
(dp2780
g8
g2778
sg9
VGreg Cwick
p2781
sg11
Nsg13
(dp2782
g313
F10
ssg16
VIndieWire
p2783
sg18
NsbsVLos Angeles Times/Michael Ordona
p2784
g3
(g4
g5
NtRp2785
(dp2786
g8
g2784
sg9
VMichael Ordona
p2787
sg11
Nsg13
(dp2788
g139
F5
ssg16
VLos Angeles Times
p2789
sg18
NsbsVTotal Film/Matt Glasby
p2790
g3
(g4
g5
NtRp2791
(dp2792
g8
g2790
sg9
VMatt Glasby
p2793
sg11
Vhttp://www.metacritic.com/critic/matt-glasby?filter=movies
p2794
sg13
(dp2795
g130
F8
sg310
F8
sg72
F10
sg146
F10
ssg16
VTotal Film
p2796
sg18
NsbsVThe A.V. Club/Scott Tobias
p2797
g3
(g4
g5
NtRp2798
(dp2799
g8
g2797
sg9
VScott Tobias
p2800
sg11
Vhttp://www.metacritic.com/critic/scott-tobias?filter=movies
p2801
sg13
(dp2802
g264
F8
sg128
F10
sg140
F10
sg142
F9
sg309
F9.0999999999999996
sg162
F9
sg131
F10
sg164
F9
sg165
F9.0999999999999996
sg166
F7.5
sg154
F8
sg169
F9.0999999999999996
sg312
F9.0999999999999996
sg149
F9
sg144
F7.5
sg183
F5
sg135
F5
sg136
F10
sg186
F7
sg138
F10
sg173
F6
ssg16
VThe A.V. Club
p2803
sg18
NsbsVFilm Threat/Zack Haddad
p2804
g3
(g4
g5
NtRp2805
(dp2806
g8
g2804
sg9
VZack Haddad
p2807
sg11
Nsg13
(dp2808
g155
F10
ssg16
VFilm Threat
p2809
sg18
NsbsVChicago Sun-Times/Mary Houlihan
p2810
g3
(g4
g5
NtRp2811
(dp2812
g8
g2810
sg9
VMary Houlihan
p2813
sg11
Vhttp://www.metacritic.com/critic/mary-houlihan?filter=movies
p2814
sg13
(dp2815
g33
F7.5
ssg16
VChicago Sun-Times
p2816
sg18
NsbsVConsequence of Sound/Clint Worthington
p2817
g3
(g4
g5
NtRp2818
(dp2819
g8
g2817
sg9
VClint Worthington
p2820
sg11
Vhttp://www.metacritic.com/critic/clint-worthington?filter=movies
p2821
sg13
(dp2822
g233
F6.7000000000000002
ssg16
VConsequence of Sound
p2823
sg18
NsbsVMTV News/Amy Nicholson
p2824
g3
(g4
g5
NtRp2825
(dp2826
g8
g2824
sg9
VAmy Nicholson
p2827
sg11
Vhttp://www.metacritic.com/critic/amy-nicholson?filter=movies
p2828
sg13
(dp2829
g156
F5
sg79
F10
sg137
F6.7000000000000002
sg106
F6.7000000000000002
ssg16
VMTV News
p2830
sg18
NsbsVVariety/Editor
p2831
g3
(g4
g5
NtRp2832
(dp2833
g8
g2831
sg9
VEditor
p2834
sg11
Nsg13
(dp2835
g480
F2
ssg16
VVariety
p2836
sg18
NsbsVThe Hollywood Reporter/David Hunter
p2837
g3
(g4
g5
NtRp2838
(dp2839
g8
g2837
sg9
VDavid Hunter
p2840
sg11
Nsg13
(dp2841
g175
F9
sg43
F10
sg152
F10
ssg16
VThe Hollywood Reporter
p2842
sg18
NsbsVTotal Film/Kate Stables
p2843
g3
(g4
g5
NtRp2844
(dp2845
g8
g2843
sg9
VKate Stables
p2846
sg11
Nsg13
(dp2847
g178
F8
ssg16
VTotal Film
p2848
sg18
NsbsVNewsweek/Andrea C. Basora
p2849
g3
(g4
g5
NtRp2850
(dp2851
g8
g2849
sg9
VAndrea C. Basora
p2852
sg11
Nsg13
(dp2853
g606
F8
ssg16
VNewsweek
p2854
sg18
NsbsVThe New York Times/Ken Jaworowski
p2855
g3
(g4
g5
NtRp2856
(dp2857
g8
g2855
sg9
VKen Jaworowski
p2858
sg11
Vhttp://www.metacritic.com/critic/ken-jaworowski?filter=movies
p2859
sg13
(dp2860
g225
F7
sg1105
F8
ssg16
VThe New York Times
p2861
sg18
NsbsVPremiere/Jenni Miller
p2862
g3
(g4
g5
NtRp2863
(dp2864
g8
g2862
sg9
VJenni Miller
p2865
sg11
Nsg13
(dp2866
g170
F7.5
sg179
F7.5
ssg16
VPremiere
p2867
sg18
NsbsVThe Film Stage/Zhuo-Ning Su
p2868
g3
(g4
g5
NtRp2869
(dp2870
g8
g2868
sg9
VZhuo-Ning Su
p2871
sg11
Vhttp://www.metacritic.com/critic/zhuo-ning-su?filter=movies
p2872
sg13
(dp2873
g233
F7.5
sg534
F9.0999999999999996
sg311
F8.3000000000000007
ssg16
VThe Film Stage
p2874
sg18
NsbsVThe Dissolve/Noel Murray
p2875
g3
(g4
g5
NtRp2876
(dp2877
g8
g2875
sg9
VNoel Murray
p2878
sg11
Vhttp://www.metacritic.com/critic/noel-murray?filter=movies
p2879
sg13
(dp2880
g33
F8
sg72
F9
sg569
F8
ssg16
VThe Dissolve
p2881
sg18
NsbsVDallas Observer/Bill Gallo
p2882
g3
(g4
g5
NtRp2883
(dp2884
g8
g2882
sg9
VBill Gallo
p2885
sg11
Vhttp://www.metacritic.com/critic/bill-gallo?filter=movies
p2886
sg13
(dp2887
g184
F9
sg135
F7
sg321
F10
sg142
F6
sg182
F5
ssg16
VDallas Observer
p2888
sg18
NsbsVTotal Film/Stephen Kelly
p2889
g3
(g4
g5
NtRp2890
(dp2891
g8
g2889
sg9
VStephen Kelly
p2892
sg11
Nsg13
(dp2893
g105
F8
ssg16
VTotal Film
p2894
sg18
NsbsVL.A. Weekly/Paul Malcolm
p2895
g3
(g4
g5
NtRp2896
(dp2897
g8
g2895
sg9
VPaul Malcolm
p2898
sg11
Vhttp://www.metacritic.com/critic/paul-malcolm?filter=movies
p2899
sg13
(dp2900
g153
F3
ssg16
VL.A. Weekly
p2901
sg18
NsbsVThe A.V. Club/Ignatiy Vishnevetsky
p2902
g3
(g4
g5
NtRp2903
(dp2904
g8
g2902
sg9
VIgnatiy Vishnevetsky
p2905
sg11
Vhttp://www.metacritic.com/critic/ignatiy-vishnevetsky?filter=movies
p2906
sg13
(dp2907
g156
F9.0999999999999996
sg104
F6.7000000000000002
sg80
F6.7000000000000002
sg134
F7.5
sg50
F7.5
sg181
F5.7999999999999998
sg76
F7.5
sg71
F7.5
sg534
F5
sg51
F6.7000000000000002
sg75
F10
ssg16
VThe A.V. Club
p2908
sg18
NsbsVRogerEbert.com/Simon Abrams
p2909
g3
(g4
g5
NtRp2910
(dp2911
g8
g2909
sg9
VSimon Abrams
p2912
sg11
Vhttp://www.metacritic.com/critic/simon-abrams?filter=movies
p2913
sg13
(dp2914
g596
F8.8000000000000007
sg87
F7.5
ssg16
VRogerEbert.com
p2915
sg18
NsbsVL.A. Weekly/Kim Morgan
p2916
g3
(g4
g5
NtRp2917
(dp2918
g8
g2916
sg9
VKim Morgan
p2919
sg11
Nsg13
(dp2920
g162
F9
sg344
F9
sg159
F4
ssg16
VL.A. Weekly
p2921
sg18
NsbsVSan Francisco Chronicle/Edward Guthmann
p2922
g3
(g4
g5
NtRp2923
(dp2924
g8
g2922
sg9
VEdward Guthmann
p2925
sg11
Vhttp://www.metacritic.com/critic/edward-guthmann?filter=movies
p2926
sg13
(dp2927
g604
F7.5
sg606
F7.5
sg321
F10
sg187
F10
ssg16
VSan Francisco Chronicle
p2928
sg18
NsbsVNew Times (L.A.)/Bill Gallo
p2929
g3
(g4
g5
NtRp2930
(dp2931
g8
g2929
sg9
VBill Gallo
p2932
sg11
Vhttp://www.metacritic.com/critic/bill-gallo?filter=movies
p2933
sg13
(dp2934
g323
F6
ssg16
VNew Times (L.A.)
p2935
sg18
NsbsVChicago Reader/Dave Kehr
p2936
g3
(g4
g5
NtRp2937
(dp2938
g8
g2936
sg9
VDave Kehr
p2939
sg11
Vhttp://www.metacritic.com/critic/dave-kehr?filter=movies
p2940
sg13
(dp2941
g224
F10
sg161
F2
sg256
F7
sg148
F8
sg609
F7
sg172
F6
ssg16
VChicago Reader
p2942
sg18
NsbsVChicago Tribune/Katie Walsh
p2943
g3
(g4
g5
NtRp2944
(dp2945
g8
g2943
sg9
VKatie Walsh
p2946
sg11
Vhttp://www.metacritic.com/critic/katie-walsh?filter=movies
p2947
sg13
(dp2948
g156
F8.8000000000000007
ssg16
VChicago Tribune
p2949
sg18
NsbsVScreen International/Tim Grierson
p2950
g3
(g4
g5
NtRp2951
(dp2952
g8
g2950
sg9
VTim Grierson
p2953
sg11
Vhttp://www.metacritic.com/critic/tim-grierson?filter=movies
p2954
sg13
(dp2955
g156
F7
sg104
F8
sg69
F10
sg181
F7
sg15
F8
sg82
F10
sg112
F10
sg176
F9
sg79
F10
sg88
F7
ssg16
VScreen International
p2956
sg18
NsbsVThe Guardian/Paul MacInnes
p2957
g3
(g4
g5
NtRp2958
(dp2959
g8
g2957
sg9
VPaul MacInnes
p2960
sg11
Nsg13
(dp2961
g15
F10
ssg16
VThe Guardian
p2962
sg18
NsbsVDallas Observer/Hal Hinson
p2963
g3
(g4
g5
NtRp2964
(dp2965
g8
g2963
sg9
VHal Hinson
p2966
sg11
Nsg13
(dp2967
g158
F5
ssg16
VDallas Observer
p2968
sg18
NsbsVTotal Film/Jordan Farley
p2969
g3
(g4
g5
NtRp2970
(dp2971
g8
g2969
sg9
VJordan Farley
p2972
sg11
Vhttp://www.metacritic.com/critic/jordan-farley?filter=movies
p2973
sg13
(dp2974
g83
F8
ssg16
VTotal Film
p2975
sg18
NsbsVPhiladelphia Daily News/Gary Thompson
p2976
g3
(g4
g5
NtRp2977
(dp2978
g8
g2976
sg9
VGary Thompson
p2979
sg11
Vhttp://www.metacritic.com/critic/gary-thompson?filter=movies
p2980
sg13
(dp2981
g67
F7.5
sg134
F6.2999999999999998
sg69
F7.5
sg68
F8.8000000000000007
sg71
F6.2999999999999998
sg83
F7.5
ssg16
VPhiladelphia Daily News
p2982
sg18
NsbsVThe Associated Press/Lindsey Bahr
p2983
g3
(g4
g5
NtRp2984
(dp2985
g8
g2983
sg9
VLindsey Bahr
p2986
sg11
Vhttp://www.metacritic.com/critic/lindsey-bahr?filter=movies
p2987
sg13
(dp2988
g50
F7.5
sg134
F7.5
sg83
F7.5
ssg16
VThe Associated Press
p2989
sg18
NsbsVTV Guide Magazine/Ken Fox
p2990
g3
(g4
g5
NtRp2991
(dp2992
g8
g2990
sg9
VKen Fox
p2993
sg11
Vhttp://www.metacritic.com/critic/ken-fox?filter=movies
p2994
sg13
(dp2995
g147
F10
sg140
F10
sg180
F8.8000000000000007
sg606
F10
sg164
F8
sg322
F8.8000000000000007
sg169
F8.8000000000000007
sg170
F10
sg149
F6
sg173
F7
sg604
F8
sg174
F7
sg184
F8.8000000000000007
sg42
F10
sg186
F8
sg187
F6
ssg16
VTV Guide Magazine
p2996
sg18
NsbsVChicago Tribune/Robert K. Elder
p2997
g3
(g4
g5
NtRp2998
(dp2999
g8
g2997
sg9
VRobert K. Elder
p3000
sg11
Vhttp://www.metacritic.com/critic/robert-k-elder?filter=movies
p3001
sg13
(dp3002
g154
F8.8000000000000007
ssg16
VChicago Tribune
p3003
sg18
NsbsVNew York Post/Rod Dreher
p3004
g3
(g4
g5
NtRp3005
(dp3006
g8
g3004
sg9
VRod Dreher
p3007
sg11
Nsg13
(dp3008
g182
F8.8000000000000007
sg321
F10
sg158
F6.2999999999999998
ssg16
VNew York Post
p3009
sg18
NsbsVThe Film Stage/Dan Mecca
p3010
g3
(g4
g5
NtRp3011
(dp3012
g8
g3010
sg9
VDan Mecca
p3013
sg11
Nsg13
(dp3014
g137
F8.3000000000000007
ssg16
VThe Film Stage
p3015
sg18
NsbsVThe Film Stage/Jordan Raup
p3016
g3
(g4
g5
NtRp3017
(dp3018
g8
g3016
sg9
VJordan Raup
p3019
sg11
Vhttp://www.metacritic.com/critic/jordan-raup?filter=movies
p3020
sg13
(dp3021
g106
F9.0999999999999996
ssg16
VThe Film Stage
p3022
sg18
NsbsVNew Orleans Times-Picayune/Mike Scott
p3023
g3
(g4
g5
NtRp3024
(dp3025
g8
g3023
sg9
VMike Scott
p3026
sg11
Vhttp://www.metacritic.com/critic/mike-scott?filter=movies
p3027
sg13
(dp3028
g128
F10
sg67
F10
sg72
F10
sg106
F10
sg130
F8
sg131
F6
sg145
F6
sg144
F7.5
sg136
F8
sg138
F8
sg143
F6
sg78
F10
sg68
F10
sg77
F10
sg50
F6
sg141
F7.5
sg15
F10
sg79
F10
sg163
F10
sg185
F8.8000000000000007
sg165
F6
sg167
F7.5
sg171
F8
sg82
F8
sg83
F6
sg177
F10
sg178
F10
sg84
F4
sg108
F10
sg109
F8
sg570
F4
sg89
F8
sg88
F10
sg86
F8
sg313
F8
ssg16
VNew Orleans Times-Picayune
p3029
sg18
NsbsVVillage Voice/Kristen Yoonsoo Kim
p3030
g3
(g4
g5
NtRp3031
(dp3032
g8
g3030
sg9
VKristen Yoonsoo Kim
p3033
sg11
Vhttp://www.metacritic.com/critic/kristen-yoonsoo-kim?filter=movies
p3034
sg13
(dp3035
g51
F9
ssg16
VVillage Voice
p3036
sg18
NsbsVFilm Threat/Ellen Marshall
p3037
g3
(g4
g5
NtRp3038
(dp3039
g8
g3037
sg9
VEllen Marshall
p3040
sg11
Nsg13
(dp3041
g147
F10
ssg16
VFilm Threat
p3042
sg18
NsbsVThe Playlist/Charlie Schmidilin
p3043
g3
(g4
g5
NtRp3044
(dp3045
g8
g3043
sg9
VCharlie Schmidilin
p3046
sg11
Nsg13
(dp3047
g131
F8.3000000000000007
ssg16
VThe Playlist
p3048
sg18
NsbsVWashington Post/Mark Jenkins
p3049
g3
(g4
g5
NtRp3050
(dp3051
g8
g3049
sg9
VMark Jenkins
p3052
sg11
Nsg13
(dp3053
g264
F9
sg134
F7.5
ssg16
VWashington Post
p3054
sg18
NsbsVTime Out/Keith Uhlich
p3055
g3
(g4
g5
NtRp3056
(dp3057
g8
g3055
sg9
VKeith Uhlich
p3058
sg11
Vhttp://www.metacritic.com/critic/keith-uhlich?filter=movies
p3059
sg13
(dp3060
g312
F8
sg256
F10
sg185
F8
sg145
F8
sg75
F10
sg144
F6
sg183
F6
ssg16
VTime Out
p3061
sg18
NsbsVIndieWire/Adam Cook
p3062
g3
(g4
g5
NtRp3063
(dp3064
g8
g3062
sg9
VAdam Cook
p3065
sg11
Nsg13
(dp3066
g311
F4.2000000000000002
ssg16
VIndieWire
p3067
sg18
NsbsVArizona Republic/Randy Cordova
p3068
g3
(g4
g5
NtRp3069
(dp3070
g8
g3068
sg9
VRandy Cordova
p3071
sg11
Nsg13
(dp3072
g157
F5
ssg16
VArizona Republic
p3073
sg18
NsbsVFilm.com/Sean Means
p3074
g3
(g4
g5
NtRp3075
(dp3076
g8
g3074
sg9
VSean Means
p3077
sg11
Vhttp://www.metacritic.com/critic/sean-means?filter=movies
p3078
sg13
(dp3079
g158
F9
ssg16
VFilm.com
p3080
sg18
NsbsVTotal Film/Tom Bond
p3081
g3
(g4
g5
NtRp3082
(dp3083
g8
g3081
sg9
VTom Bond
p3084
sg11
Nsg13
(dp3085
g104
F8
ssg16
VTotal Film
p3086
sg18
NsbsVSt. Louis Post-Dispatch/Joe Williams
p3087
g3
(g4
g5
NtRp3088
(dp3089
g8
g3087
sg9
VJoe Williams
p3090
sg11
Vhttp://www.metacritic.com/critic/joe-williams?filter=movies
p3091
sg13
(dp3092
g157
F5
sg178
F5
sg72
F10
sg84
F8.8000000000000007
sg143
F10
sg130
F10
sg312
F7.5
sg131
F10
sg185
F7.5
sg165
F10
sg77
F8.8000000000000007
sg145
F7.5
sg75
F7.5
sg85
F8.8000000000000007
sg183
F7.5
sg569
F8.8000000000000007
sg144
F6.2999999999999998
sg163
F10
sg138
F8.8000000000000007
sg177
F8.8000000000000007
ssg16
VSt. Louis Post-Dispatch
p3093
sg18
NsbsVBoxoffice Magazine/Ray Greene
p3094
g3
(g4
g5
NtRp3095
(dp3096
g8
g3094
sg9
VRay Greene
p3097
sg11
Vhttp://www.metacritic.com/critic/ray-greene?filter=movies
p3098
sg13
(dp3099
g177
F6
ssg16
VBoxoffice Magazine
p3100
sg18
NsbsVTotal Film/Tom Dawson
p3101
g3
(g4
g5
NtRp3102
(dp3103
g8
g3101
sg9
VTom Dawson
p3104
sg11
Vhttp://www.metacritic.com/critic/tom-dawson?filter=movies
p3105
sg13
(dp3106
g309
F8
sg312
F8
sg109
F8
ssg16
VTotal Film
p3107
sg18
NsbsVHitfix/Gregory Ellwood
p3108
g3
(g4
g5
NtRp3109
(dp3110
g8
g3108
sg9
VGregory Ellwood
p3111
sg11
Vhttp://www.metacritic.com/critic/gregory-ellwood?filter=movies
p3112
sg13
(dp3113
g181
F10
sg107
F10
sg171
F9.0999999999999996
sg88
F10
sg176
F8.3000000000000007
sg209
F10
sg146
F8.3000000000000007
sg89
F8.3000000000000007
ssg16
VHitfix
p3114
sg18
NsbsVThe Atlantic/Christopher Orr
p3115
g3
(g4
g5
NtRp3116
(dp3117
g8
g3115
sg9
VChristopher Orr
p3118
sg11
Vhttp://www.metacritic.com/critic/christopher-orr?filter=movies
p3119
sg13
(dp3120
g67
F9.4000000000000004
sg68
F9.8000000000000007
sg69
F9
ssg16
VThe Atlantic
p3121
sg18
NsbsVThe Globe and Mail (Toronto)/Kiva Reardon
p3122
g3
(g4
g5
NtRp3123
(dp3124
g8
g3122
sg9
VKiva Reardon
p3125
sg11
Nsg13
(dp3126
g313
F10
ssg16
VThe Globe and Mail (Toronto)
p3127
sg18
NsbsVThe Dissolve/Scott Tobias
p3128
g3
(g4
g5
NtRp3129
(dp3130
g8
g3128
sg9
VScott Tobias
p3131
sg11
Vhttp://www.metacritic.com/critic/scott-tobias?filter=movies
p3132
sg13
(dp3133
g163
F9
sg143
F10
sg78
F3
sg70
F9
sg310
F6
sg234
F8
sg75
F9
sg85
F9
sg15
F9
sg73
F9
sg366
F8
sg181
F3
sg313
F8
ssg16
VThe Dissolve
p3134
sg18
NsbsVNew York Daily News/Joe Neumaier
p3135
g3
(g4
g5
NtRp3136
(dp3137
g8
g3135
sg9
VJoe Neumaier
p3138
sg11
Vhttp://www.metacritic.com/critic/joe-neumaier?filter=movies
p3139
sg13
(dp3140
g128
F8
sg130
F8
sg72
F10
sg309
F6
sg131
F8
sg136
F10
sg146
F8
sg138
F8
sg77
F10
sg75
F8
sg141
F5
sg170
F8
sg15
F10
sg160
F10
sg163
F6
sg185
F8
sg165
F8
sg167
F6
sg177
F10
sg178
F8
sg312
F8
sg181
F8
sg85
F8
sg183
F6
sg570
F10
sg313
F8
ssg16
VNew York Daily News
p3141
sg18
NsbsVThe Film Stage/Daniel Schindel
p3142
g3
(g4
g5
NtRp3143
(dp3144
g8
g3142
sg9
VDaniel Schindel
p3145
sg11
Vhttp://www.metacritic.com/critic/daniel-schindel?filter=movies
p3146
sg13
(dp3147
g25
F6.7000000000000002
sg76
F9.0999999999999996
ssg16
VThe Film Stage
p3148
sg18
NsbsVVariety/Robert Koehler
p3149
g3
(g4
g5
NtRp3150
(dp3151
g8
g3149
sg9
VRobert Koehler
p3152
sg11
Vhttp://www.metacritic.com/critic/robert-koehler?filter=movies
p3153
sg13
(dp3154
g129
F8
sg286
F3
sg139
F2
ssg16
VVariety
p3155
sg18
NsbsVPortland Oregonian/Stan Hall
p3156
g3
(g4
g5
NtRp3157
(dp3158
g8
g3156
sg9
VStan Hall
p3159
sg11
Vhttp://www.metacritic.com/critic/stan-hall?filter=movies
p3160
sg13
(dp3161
g312
F8.3000000000000007
ssg16
VPortland Oregonian
p3162
sg18
NsbsVAustin Chronicle/Joey O'Bryan
p3163
g3
(g4
g5
NtRp3164
(dp3165
g8
g3163
sg9
VJoey O'Bryan
p3166
sg11
Nsg13
(dp3167
g344
F8.9000000000000004
sg175
F8.9000000000000004
ssg16
VAustin Chronicle
p3168
sg18
NsbsVDallas Observer/Robert Wilonsky
p3169
g3
(g4
g5
NtRp3170
(dp3171
g8
g3169
sg9
VRobert Wilonsky
p3172
sg11
Vhttp://www.metacritic.com/critic/robert-wilonsky?filter=movies
p3173
sg13
(dp3174
g480
F3
sg120
F4
sg164
F10
sg166
F7
sg147
F10
sg153
F1
sg154
F9
sg159
F5
ssg16
VDallas Observer
p3175
sg18
NsbsVFilm.com/Peter Brunette
p3176
g3
(g4
g5
NtRp3177
(dp3178
g8
g3176
sg9
VPeter Brunette
p3179
sg11
Vhttp://www.metacritic.com/critic/peter-brunette?filter=movies
p3180
sg13
(dp3181
g604
F9
sg182
F8
sg158
F10
sg321
F9
ssg16
VFilm.com
p3182
sg18
NsbsVSalon/Andrew O'Hehir
p3183
g3
(g4
g5
NtRp3184
(dp3185
g8
g3183
sg9
VAndrew O'Hehir
p3186
sg11
Vhttp://www.metacritic.com/critic/andrew-ohehir?filter=movies
p3187
sg13
(dp3188
g128
F10
sg72
F10
sg309
F9
sg70
F10
sg131
F9
sg145
F5
sg144
F7
sg136
F10
sg73
F10
sg146
F8
sg138
F10
sg321
F6
sg143
F9
sg76
F9
sg234
F10
sg77
F9
sg596
F9
sg107
F10
sg43
F9
sg15
F10
sg310
F10
sg157
F1
sg163
F9
sg185
F8
sg165
F10
sg167
F10
sg168
F9
sg82
F10
sg176
F10
sg209
F9
sg177
F9
sg178
F10
sg84
F9
sg140
F10
sg85
F9
sg87
F8
sg286
F6
sg313
F9
ssg16
VSalon
p3189
sg18
NsbsVMr. Showbiz/Richard T. Jameson
p3190
g3
(g4
g5
NtRp3191
(dp3192
g8
g3190
sg9
VRichard T. Jameson
p3193
sg11
Nsg13
(dp3194
g151
F9
ssg16
VMr. Showbiz
p3195
sg18
NsbsVThe Globe and Mail (Toronto)/Staff (Not credited)
p3196
g3
(g4
g5
NtRp3197
(dp3198
g8
g3196
sg9
VStaff (Not credited)
p3199
sg11
Nsg13
(dp3200
g609
F6.2999999999999998
ssg16
VThe Globe and Mail (Toronto)
p3201
sg18
NsbsVIndieWire/Ben Croll
p3202
g3
(g4
g5
NtRp3203
(dp3204
g8
g3202
sg9
VBen Croll
p3205
sg11
Vhttp://www.metacritic.com/critic/ben-croll?filter=movies
p3206
sg13
(dp3207
g67
F10
sg68
F9.0999999999999996
ssg16
VIndieWire
p3208
sg18
NsbsVFilm Threat/Chris Barsanti
p3209
g3
(g4
g5
NtRp3210
(dp3211
g8
g3209
sg9
VChris Barsanti
p3212
sg11
Nsg13
(dp3213
g287
F10
ssg16
VFilm Threat
p3214
sg18
NsbsVTheWrap/Dave White
p3215
g3
(g4
g5
NtRp3216
(dp3217
g8
g3215
sg9
VDave White
p3218
sg11
Vhttp://www.metacritic.com/critic/dave-white?filter=movies
p3219
sg13
(dp3220
g81
F9.5
sg89
F9
ssg16
VTheWrap
p3221
sg18
NsbsVConsequence of Sound/Sarah Kurchak
p3222
g3
(g4
g5
NtRp3223
(dp3224
g8
g3222
sg9
VSarah Kurchak
p3225
sg11
Vhttp://www.metacritic.com/critic/sarah-kurchak?filter=movies
p3226
sg13
(dp3227
g67
F9.0999999999999996
sg105
F6.7000000000000002
sg111
F6.7000000000000002
sg195
F9.0999999999999996
sg86
F10
ssg16
VConsequence of Sound
p3228
sg18
NsbsVSlant Magazine/Rob Humanick
p3229
g3
(g4
g5
NtRp3230
(dp3231
g8
g3229
sg9
VRob Humanick
p3232
sg11
Vhttp://www.metacritic.com/critic/rob-humanick?filter=movies
p3233
sg13
(dp3234
g148
F10
ssg16
VSlant Magazine
p3235
sg18
NsbsVCharlotte Observer/Lawrence Toppman
p3236
g3
(g4
g5
NtRp3237
(dp3238
g8
g3236
sg9
VLawrence Toppman
p3239
sg11
Vhttp://www.metacritic.com/critic/lawrence-toppman?filter=movies
p3240
sg13
(dp3241
g128
F8.8000000000000007
sg72
F10
sg131
F8.8000000000000007
sg133
F10
sg145
F7.5
sg129
F6.2999999999999998
sg135
F3.7999999999999998
sg136
F8.8000000000000007
sg107
F8.8000000000000007
sg137
F8.8000000000000007
sg138
F8.8000000000000007
sg159
F8.8000000000000007
sg321
F8.8000000000000007
sg142
F8.8000000000000007
sg143
F10
sg120
F2.5
sg76
F7.5
sg77
F10
sg146
F6.2999999999999998
sg147
F7.5
sg78
F8.3000000000000007
sg43
F10
sg150
F8.8000000000000007
sg607
F7.5
sg170
F8.8000000000000007
sg152
F7.5
sg153
F3.7999999999999998
sg366
F9.0999999999999996
sg154
F8.8000000000000007
sg155
F7.5
sg480
F3.7999999999999998
sg157
F6.2999999999999998
sg185
F6.2999999999999998
sg160
F10
sg162
F10
sg163
F8.3000000000000007
sg164
F7.5
sg165
F7.5
sg166
F7.5
sg168
F7.5
sg169
F8.8000000000000007
sg195
F7.5
sg174
F10
sg177
F8.8000000000000007
sg178
F10
sg79
F8.8000000000000007
sg179
F5
sg180
F10
sg181
F9.0999999999999996
sg88
F10
sg140
F6.2999999999999998
sg149
F8.8000000000000007
sg89
F8.8000000000000007
sg15
F10
sg184
F10
sg286
F3.7999999999999998
sg186
F8.8000000000000007
sg86
F5
sg187
F6.2999999999999998
ssg16
VCharlotte Observer
p3242
sg18
NsbsVSt. Louis Post-Dispatch/Calvin Wilson
p3243
g3
(g4
g5
NtRp3244
(dp3245
g8
g3243
sg9
VCalvin Wilson
p3246
sg11
Vhttp://www.metacritic.com/critic/calvin-wilson?filter=movies
p3247
sg13
(dp3248
g128
F10
sg67
F10
sg68
F10
sg106
F10
sg69
F10
sg71
F7.5
sg136
F10
sg146
F8.8000000000000007
sg104
F7.5
sg78
F10
sg76
F8.8000000000000007
sg137
F8.8000000000000007
sg50
F10
sg15
F10
sg112
F10
sg79
F8.8000000000000007
sg156
F8.8000000000000007
sg167
F10
sg171
F10
sg111
F8.8000000000000007
sg195
F8.8000000000000007
sg82
F10
sg83
F10
sg176
F10
sg105
F10
sg181
F10
sg81
F8.8000000000000007
sg109
F8.8000000000000007
sg570
F8.8000000000000007
sg89
F8.8000000000000007
sg88
F8.8000000000000007
sg86
F8.8000000000000007
ssg16
VSt. Louis Post-Dispatch
p3249
sg18
NsbsVEmpire/Nev Pierce
p3250
g3
(g4
g5
NtRp3251
(dp3252
g8
g3250
sg9
VNev Pierce
p3253
sg11
Nsg13
(dp3254
g176
F8
sg165
F10
sg177
F8
ssg16
VEmpire
p3255
sg18
NsbsVSlant Magazine/Calum Marsh
p3256
g3
(g4
g5
NtRp3257
(dp3258
g8
g3256
sg9
VCalum Marsh
p3259
sg11
Nsg13
(dp3260
g136
F5
sg131
F5
ssg16
VSlant Magazine
p3261
sg18
NsbsVVariety/Leonard Klady
p3262
g3
(g4
g5
NtRp3263
(dp3264
g8
g3262
sg9
VLeonard Klady
p3265
sg11
Nsg13
(dp3266
g151
F9
sg606
F6
ssg16
VVariety
p3267
sg18
NsbsVThe Guardian/Caspar Llewellyn Smith
p3268
g3
(g4
g5
NtRp3269
(dp3270
g8
g3268
sg9
VCaspar Llewellyn Smith
p3271
sg11
Nsg13
(dp3272
g110
F6
ssg16
VThe Guardian
p3273
sg18
NsbsVSlant Magazine/Joseph Jon Lanthier
p3274
g3
(g4
g5
NtRp3275
(dp3276
g8
g3274
sg9
VJoseph Jon Lanthier
p3277
sg11
Vhttp://www.metacritic.com/critic/joseph-jon-lanthier?filter=movies
p3278
sg13
(dp3279
g568
F6.2999999999999998
ssg16
VSlant Magazine
p3280
sg18
NsbsVWashington Post/Stephen Hunter
p3281
g3
(g4
g5
NtRp3282
(dp3283
g8
g3281
sg9
VStephen Hunter
p3284
sg11
Vhttp://www.metacritic.com/critic/stephen-hunter?filter=movies
p3285
sg13
(dp3286
g480
F3
sg264
F9
sg158
F2
sg142
F5
sg160
F7
sg166
F7
sg182
F7
sg168
F5
sg147
F10
sg148
F1
sg287
F6
sg43
F9
sg173
F9
sg322
F8
sg607
F8
sg135
F2
sg152
F10
sg153
F2
sg186
F10
sg187
F9
ssg16
VWashington Post
p3287
sg18
NsbsVLos Angeles Times/Justin Chang
p3288
g3
(g4
g5
NtRp3289
(dp3290
g8
g3288
sg9
VJustin Chang
p3291
sg11
Vhttp://www.metacritic.com/critic/justin-chang?filter=movies
p3292
sg13
(dp3293
g80
F10
sg69
F10
sg71
F9
sg76
F6
sg105
F9
sg109
F9
sg74
F9
sg50
F10
sg81
F10
sg111
F9
sg534
F6
sg112
F10
sg83
F10
sg137
F5
sg89
F8
ssg16
VLos Angeles Times
p3294
sg18
NsbsVWe Got This Covered/Josh Cabrita
p3295
g3
(g4
g5
NtRp3296
(dp3297
g8
g3295
sg9
VJosh Cabrita
p3298
sg11
Vhttp://www.metacritic.com/critic/josh-cabrita?filter=movies
p3299
sg13
(dp3300
g81
F10
ssg16
VWe Got This Covered
p3301
sg18
NsbsVArizona Republic/Kerry Lengel
p3302
g3
(g4
g5
NtRp3303
(dp3304
g8
g3302
sg9
VKerry Lengel
p3305
sg11
Vhttp://www.metacritic.com/critic/kerry-lengel?filter=movies
p3306
sg13
(dp3307
g80
F7
sg185
F8
ssg16
VArizona Republic
p3308
sg18
NsbsVThe Globe and Mail (Toronto)/Johanna Schneller
p3309
g3
(g4
g5
NtRp3310
(dp3311
g8
g3309
sg9
VJohanna Schneller
p3312
sg11
Nsg13
(dp3313
g137
F6.2999999999999998
ssg16
VThe Globe and Mail (Toronto)
p3314
sg18
NsbsVRogerEbert.com/Peter Sobczynski
p3315
g3
(g4
g5
NtRp3316
(dp3317
g8
g3315
sg9
VPeter Sobczynski
p3318
sg11
Vhttp://www.metacritic.com/critic/peter-sobczynski?filter=movies
p3319
sg13
(dp3320
g111
F8.8000000000000007
sg366
F8.8000000000000007
ssg16
VRogerEbert.com
p3321
sg18
NsbsVVariety/Brian Lowry
p3322
g3
(g4
g5
NtRp3323
(dp3324
g8
g3322
sg9
VBrian Lowry
p3325
sg11
Vhttp://www.metacritic.com/critic/brian-lowry?filter=movies
p3326
sg13
(dp3327
g153
F6
ssg16
VVariety
p3328
sg18
NsbsVThe Hollywood Reporter/Michael Rechtshaffen
p3329
g3
(g4
g5
NtRp3330
(dp3331
g8
g3329
sg9
VMichael Rechtshaffen
p3332
sg11
Vhttp://www.metacritic.com/critic/michael-rechtshaffen?filter=movies
p3333
sg13
(dp3334
g129
F6
sg153
F4
sg141
F9
sg108
F10
sg157
F8
ssg16
VThe Hollywood Reporter
p3335
sg18
NsbsVLos Angeles Times/Sam Adams
p3336
g3
(g4
g5
NtRp3337
(dp3338
g8
g3336
sg9
VSam Adams
p3339
sg11
Nsg13
(dp3340
g179
F6
ssg16
VLos Angeles Times
p3341
sg18
NsbsVSlant Magazine/Matt Noller
p3342
g3
(g4
g5
NtRp3343
(dp3344
g8
g3342
sg9
VMatt Noller
p3345
sg11
Nsg13
(dp3346
g175
F8.8000000000000007
ssg16
VSlant Magazine
p3347
sg18
NsbsVBoston Globe/Ty Burr
p3348
g3
(g4
g5
NtRp3349
(dp3350
g8
g3348
sg9
VTy Burr
p3351
sg11
Vhttp://www.metacritic.com/critic/ty-burr?filter=movies
p3352
sg13
(dp3353
g264
F8.8000000000000007
sg67
F10
sg33
F8.8000000000000007
sg76
F6.2999999999999998
sg106
F10
sg69
F10
sg15
F10
sg132
F10
sg145
F6.2999999999999998
sg71
F6.2999999999999998
sg128
F10
sg72
F10
sg88
F10
sg136
F10
sg152
F10
sg146
F6.2999999999999998
sg139
F3.7999999999999998
sg140
F10
sg141
F7.5
sg142
F8.8000000000000007
sg171
F8.8000000000000007
sg143
F10
sg78
F10
sg68
F8.8000000000000007
sg234
F10
sg77
F8.8000000000000007
sg107
F8.8000000000000007
sg147
F8.8000000000000007
sg50
F8.8000000000000007
sg472
F8.8000000000000007
sg534
F7.5
sg112
F10
sg170
F10
sg43
F8.8000000000000007
sg42
F8.8000000000000007
sg79
F10
sg154
F8.8000000000000007
sg156
F7.5
sg157
F3.7999999999999998
sg80
F8.8000000000000007
sg185
F7.5
sg159
F6.2999999999999998
sg160
F7.5
sg162
F10
sg163
F8.8000000000000007
sg164
F7.5
sg165
F8.8000000000000007
sg166
F7.5
sg168
F10
sg169
F7.5
sg322
F8.8000000000000007
sg81
F8.8000000000000007
sg82
F8.8000000000000007
sg195
F10
sg173
F8.8000000000000007
sg174
F8.8000000000000007
sg176
F10
sg209
F7.5
sg235
F8.8000000000000007
sg178
F8.8000000000000007
sg344
F10
sg84
F8.8000000000000007
sg312
F8.8000000000000007
sg181
F6.2999999999999998
sg108
F10
sg109
F8.8000000000000007
sg110
F7.5
sg570
F8.8000000000000007
sg83
F8.8000000000000007
sg85
F8.8000000000000007
sg183
F8.8000000000000007
sg87
F8.8000000000000007
sg184
F8.8000000000000007
sg187
F10
sg186
F10
sg313
F8.8000000000000007
ssg16
VBoston Globe
p3354
sg18
NsbsVThe Hollywood Reporter/Leslie Felperin
p3355
g3
(g4
g5
NtRp3356
(dp3357
g8
g3355
sg9
VLeslie Felperin
p3358
sg11
Vhttp://www.metacritic.com/critic/leslie-felperin?filter=movies
p3359
sg13
(dp3360
g33
F10
sg234
F10
sg109
F8
sg81
F10
sg569
F9
sg83
F9
sg137
F5
sg89
F9
ssg16
VThe Hollywood Reporter
p3361
sg18
NsbsVLos Angeles Times/Michael Rechtshaffen
p3362
g3
(g4
g5
NtRp3363
(dp3364
g8
g3362
sg9
VMichael Rechtshaffen
p3365
sg11
Vhttp://www.metacritic.com/critic/michael-rechtshaffen?filter=movies
p3366
sg13
(dp3367
g596
F8
ssg16
VLos Angeles Times
p3368
sg18
NsbsVWashington Post/Hal Hinson
p3369
g3
(g4
g5
NtRp3370
(dp3371
g8
g3369
sg9
VHal Hinson
p3372
sg11
Nsg13
(dp3373
g406
F6
ssg16
VWashington Post
p3374
sg18
NsbsVThe Film Stage/Ed Frankl
p3375
g3
(g4
g5
NtRp3376
(dp3377
g8
g3375
sg9
VEd Frankl
p3378
sg11
Vhttp://www.metacritic.com/critic/ed-frankl?filter=movies
p3379
sg13
(dp3380
g50
F8.3000000000000007
ssg16
VThe Film Stage
p3381
sg18
NsbsVSan Francisco Chronicle/Steve Rubenstein
p3382
g3
(g4
g5
NtRp3383
(dp3384
g8
g3382
sg9
VSteve Rubenstein
p3385
sg11
Nsg13
(dp3386
g87
F5
ssg16
VSan Francisco Chronicle
p3387
sg18
NsbsVSan Francisco Chronicle/Peter Stack
p3388
g3
(g4
g5
NtRp3389
(dp3390
g8
g3388
sg9
VPeter Stack
p3391
sg11
Vhttp://www.metacritic.com/critic/peter-stack?filter=movies
p3392
sg13
(dp3393
g151
F10
sg58
F10
ssg16
VSan Francisco Chronicle
p3394
sg18
NsbsVLos Angeles Times/Sheri Linden
p3395
g3
(g4
g5
NtRp3396
(dp3397
g8
g3395
sg9
VSheri Linden
p3398
sg11
Vhttp://www.metacritic.com/critic/sheri-linden?filter=movies
p3399
sg13
(dp3400
g312
F8
sg311
F7
sg570
F10
ssg16
VLos Angeles Times
p3401
sg18
NsbsVThe Globe and Mail (Toronto)/Jeff Gray
p3402
g3
(g4
g5
NtRp3403
(dp3404
g8
g3402
sg9
VJeff Gray
p3405
sg11
Nsg13
(dp3406
g182
F5
ssg16
VThe Globe and Mail (Toronto)
p3407
sg18
NsbsVNew York Post/Lou Lumenick
p3408
g3
(g4
g5
NtRp3409
(dp3410
g8
g3408
sg9
VLou Lumenick
p3411
sg11
Vhttp://www.metacritic.com/critic/lou-lumenick?filter=movies
p3412
sg13
(dp3413
g128
F10
sg156
F8.8000000000000007
sg72
F8.8000000000000007
sg131
F8.8000000000000007
sg133
F10
sg145
F7.5
sg129
F5
sg568
F5
sg135
F6.2999999999999998
sg137
F8.8000000000000007
sg159
F8.8000000000000007
sg143
F6.2999999999999998
sg120
F10
sg76
F7.5
sg77
F10
sg147
F8.8000000000000007
sg78
F8.8000000000000007
sg43
F10
sg170
F10
sg15
F10
sg42
F8.8000000000000007
sg154
F10
sg155
F8.8000000000000007
sg480
F6.2999999999999998
sg157
F5
sg185
F7.5
sg164
F10
sg165
F10
sg166
F8.8000000000000007
sg168
F10
sg169
F7.5
sg173
F7.5
sg176
F8.8000000000000007
sg323
F7.5
sg178
F7.5
sg287
F7.5
sg180
F10
sg181
F8.8000000000000007
sg108
F10
sg85
F7.5
sg183
F8.8000000000000007
sg88
F10
sg187
F10
ssg16
VNew York Post
p3414
sg18
NsbsVPaste Magazine/Andrew Crump
p3415
g3
(g4
g5
NtRp3416
(dp3417
g8
g3415
sg9
VAndrew Crump
p3418
sg11
Vhttp://www.metacritic.com/critic/andrew-crump?filter=movies
p3419
sg13
(dp3420
g67
F9.5
sg74
F8.5999999999999996
ssg16
VPaste Magazine
p3421
sg18
NsbsVVariety/l
p3422
g3
(g4
g5
NtRp3423
(dp3424
g8
g3422
sg9
Vl
sg11
Nsg13
(dp3425
g41
F5
ssg16
VVariety
p3426
sg18
NsbsVBoston Globe/Wesley Morris
p3427
g3
(g4
g5
NtRp3428
(dp3429
g8
g3427
sg9
VWesley Morris
p3430
sg11
Vhttp://www.metacritic.com/critic/wesley-morris?filter=movies
p3431
sg13
(dp3432
g130
F8.8000000000000007
sg179
F6.2999999999999998
sg180
F8.8000000000000007
sg309
F8.8000000000000007
sg131
F10
sg133
F10
sg167
F10
sg129
F5
sg568
F8.8000000000000007
sg149
F8.8000000000000007
sg144
F7.5
sg150
F10
sg135
F6.2999999999999998
sg155
F10
sg153
F5
sg41
F6.2999999999999998
sg138
F10
sg177
F5
ssg16
VBoston Globe
p3433
sg18
NsbsVFilm.com/John Hartl
p3434
g3
(g4
g5
NtRp3435
(dp3436
g8
g3434
sg9
VJohn Hartl
p3437
sg11
Vhttp://www.metacritic.com/critic/john-hartl?filter=movies
p3438
sg13
(dp3439
g224
F10
sg182
F8
sg609
F9
sg58
F10
ssg16
VFilm.com
p3440
sg18
NsbsVSan Francisco Examiner/Wesley Morris
p3441
g3
(g4
g5
NtRp3442
(dp3443
g8
g3441
sg9
VWesley Morris
p3444
sg11
Vhttp://www.metacritic.com/critic/wesley-morris?filter=movies
p3445
sg13
(dp3446
g480
F7.5
sg224
F10
sg158
F6.2999999999999998
sg120
F10
sg182
F7.5
sg321
F6.2999999999999998
ssg16
VSan Francisco Examiner
p3447
sg18
NsbsVCineVue/Patrick Gamble
p3448
g3
(g4
g5
NtRp3449
(dp3450
g8
g3448
sg9
VPatrick Gamble
p3451
sg11
Vhttp://www.metacritic.com/critic/patrick-gamble?filter=movies
p3452
sg13
(dp3453
g233
F6
sg50
F10
sg209
F6
sg51
F8
ssg16
VCineVue
p3454
sg18
NsbsVWashington Post/Jennifer Frey
p3455
g3
(g4
g5
NtRp3456
(dp3457
g8
g3455
sg9
VJennifer Frey
p3458
sg11
Nsg13
(dp3459
g154
F9
ssg16
VWashington Post
p3460
sg18
NsbsVThe Hollywood Reporter/Stephen Dalton
p3461
g3
(g4
g5
NtRp3462
(dp3463
g8
g3461
sg9
VStephen Dalton
p3464
sg11
Vhttp://www.metacritic.com/critic/stephen-dalton?filter=movies
p3465
sg13
(dp3466
g312
F7
sg310
F8
sg195
F7
sg209
F8
ssg16
VThe Hollywood Reporter
p3467
sg18
NsbsVConsequence of Sound/Michael Roffman
p3468
g3
(g4
g5
NtRp3469
(dp3470
g8
g3468
sg9
VMichael Roffman
p3471
sg11
Vhttp://www.metacritic.com/critic/michael-roffman?filter=movies
p3472
sg13
(dp3473
g71
F5
sg76
F8.3000000000000007
sg146
F10
sg89
F8.3000000000000007
ssg16
VConsequence of Sound
p3474
sg18
NsbsVObserver/Rex Reed
p3475
g3
(g4
g5
NtRp3476
(dp3477
g8
g3475
sg9
VRex Reed
p3478
sg11
Vhttp://www.metacritic.com/critic/rex-reed?filter=movies
p3479
sg13
(dp3480
g128
F5
sg67
F2.5
sg76
F0
sg106
F10
sg69
F7.5
sg130
F10
sg131
F2.5
sg71
F5
sg144
F2.5
sg136
F10
sg137
F8.8000000000000007
sg78
F2.5
sg68
F6.2999999999999998
sg77
F7.5
sg596
F7.5
sg50
F7.5
sg15
F10
sg156
F7.5
sg163
F7.5
sg185
F10
sg165
F2.5
sg171
F10
sg176
F10
sg177
F10
sg178
F5
sg181
F7.5
sg85
F8.8000000000000007
sg88
F10
ssg16
VObserver
p3481
sg18
NsbsVVariety/Ella Taylor
p3482
g3
(g4
g5
NtRp3483
(dp3484
g8
g3482
sg9
VElla Taylor
p3485
sg11
Vhttp://www.metacritic.com/critic/ella-taylor?filter=movies
p3486
sg13
(dp3487
g25
F8
ssg16
VVariety
p3488
sg18
NsbsVMiami Herald/Rene Rodriguez
p3489
g3
(g4
g5
NtRp3490
(dp3491
g8
g3489
sg9
VRene Rodriguez
p3492
sg11
Vhttp://www.metacritic.com/critic/rene-rodriguez?filter=movies
p3493
sg13
(dp3494
g128
F8.8000000000000007
sg130
F7.5
sg82
F10
sg72
F10
sg106
F10
sg15
F10
sg131
F5
sg133
F10
sg145
F7.5
sg604
F6.2999999999999998
sg129
F5
sg89
F8.8000000000000007
sg88
F10
sg135
F5
sg136
F10
sg73
F8.8000000000000007
sg41
F7.5
sg146
F8.8000000000000007
sg138
F10
sg159
F7.5
sg321
F8.8000000000000007
sg142
F6.2999999999999998
sg143
F10
sg78
F8.8000000000000007
sg120
F7.5
sg76
F6.2999999999999998
sg234
F10
sg77
F8.8000000000000007
sg152
F8.8000000000000007
sg147
F8.8000000000000007
sg75
F7.5
sg149
F8.8000000000000007
sg43
F10
sg150
F8.8000000000000007
sg112
F10
sg170
F10
sg141
F7.5
sg42
F8.8000000000000007
sg79
F10
sg366
F8.8000000000000007
sg310
F8.8000000000000007
sg155
F10
sg157
F5
sg185
F7.5
sg160
F8.8000000000000007
sg162
F10
sg164
F10
sg165
F10
sg166
F7.5
sg167
F5
sg168
F10
sg169
F6.2999999999999998
sg195
F8.8000000000000007
sg173
F6.2999999999999998
sg174
F8.8000000000000007
sg176
F10
sg209
F7.5
sg323
F8.8000000000000007
sg235
F7.5
sg177
F8.8000000000000007
sg105
F7.5
sg287
F7.5
sg175
F7.5
sg179
F7.5
sg180
F7.5
sg108
F10
sg154
F10
sg140
F10
sg85
F8.8000000000000007
sg183
F6.2999999999999998
sg87
F8.8000000000000007
sg184
F10
sg286
F5
sg186
F8.8000000000000007
sg86
F7.5
sg187
F8.8000000000000007
ssg16
VMiami Herald
p3495
sg18
NsbsVSlant Magazine/None
p3496
g3
(g4
g5
NtRp3497
(dp3498
g8
g3496
sg9
Nsg11
Nsg13
(dp3499
g312
F8.8000000000000007
ssg16
VSlant Magazine
p3500
sg18
NsbsVVillage Voice/Karina Longworth
p3501
g3
(g4
g5
NtRp3502
(dp3503
g8
g3501
sg9
VKarina Longworth
p3504
sg11
Nsg13
(dp3505
g144
F7
sg131
F9
sg185
F8
sg177
F5
ssg16
VVillage Voice
p3506
sg18
NsbsVPremiere/Kelly Borgeson
p3507
g3
(g4
g5
NtRp3508
(dp3509
g8
g3507
sg9
VKelly Borgeson
p3510
sg11
Vhttp://www.metacritic.com/critic/kelly-borgeson?filter=movies
p3511
sg13
(dp3512
g129
F7.5
ssg16
VPremiere
p3513
sg18
NsbsVThe New Yorker/Richard Brody
p3514
g3
(g4
g5
NtRp3515
(dp3516
g8
g3514
sg9
VRichard Brody
p3517
sg11
Vhttp://www.metacritic.com/critic/richard-brody?filter=movies
p3518
sg13
(dp3519
g256
F9
sg171
F3
sg79
F10
sg51
F8
ssg16
VThe New Yorker
p3520
sg18
NsbsVThe Guardian/Jordan Hoffman
p3521
g3
(g4
g5
NtRp3522
(dp3523
g8
g3521
sg9
VJordan Hoffman
p3524
sg11
Vhttp://www.metacritic.com/critic/jordan-hoffman?filter=movies
p3525
sg13
(dp3526
g104
F10
sg570
F8
ssg16
VThe Guardian
p3527
sg18
NsbsVHitfix/Guy Lodge
p3528
g3
(g4
g5
NtRp3529
(dp3530
g8
g3528
sg9
VGuy Lodge
p3531
sg11
Nsg13
(dp3532
g310
F6.7000000000000002
ssg16
VHitfix
p3533
sg18
NsbsVEmpire/Helen O'Hara
p3534
g3
(g4
g5
NtRp3535
(dp3536
g8
g3534
sg9
VHelen O'Hara
p3537
sg11
Vhttp://www.metacritic.com/critic/helen-ohara?filter=movies
p3538
sg13
(dp3539
g322
F8
sg50
F8
sg137
F8
sg112
F8
sg155
F10
ssg16
VEmpire
p3540
sg18
NsbsVTotal Film/Simon Kinnear
p3541
g3
(g4
g5
NtRp3542
(dp3543
g8
g3541
sg9
VSimon Kinnear
p3544
sg11
Vhttp://www.metacritic.com/critic/simon-kinnear?filter=movies
p3545
sg13
(dp3546
g80
F8
ssg16
VTotal Film
p3547
sg18
NsbsVThe Guardian/Catherine Shoard
p3548
g3
(g4
g5
NtRp3549
(dp3550
g8
g3548
sg9
VCatherine Shoard
p3551
sg11
Vhttp://www.metacritic.com/critic/catherine-shoard?filter=movies
p3552
sg13
(dp3553
g86
F10
ssg16
VThe Guardian
p3554
sg18
NsbsVLos Angeles Times/Charles Solomon
p3555
g3
(g4
g5
NtRp3556
(dp3557
g8
g3555
sg9
VCharles Solomon
p3558
sg11
Vhttp://www.metacritic.com/critic/charles-solomon?filter=movies
p3559
sg13
(dp3560
g235
F4
ssg16
VLos Angeles Times
p3561
sg18
NsbsVVariety/Justin Chang
p3562
g3
(g4
g5
NtRp3563
(dp3564
g8
g3562
sg9
VJustin Chang
p3565
sg11
Vhttp://www.metacritic.com/critic/justin-chang?filter=movies
p3566
sg13
(dp3567
g104
F7
sg163
F10
sg106
F10
sg180
F10
sg309
F8
sg70
F10
sg131
F9
sg160
F10
sg165
F9
sg77
F10
sg107
F9
sg312
F6
sg176
F10
sg88
F9
sg133
F8
ssg16
VVariety
p3568
sg18
NsbsVThe Globe and Mail (Toronto)/Liam Lacey
p3569
g3
(g4
g5
NtRp3570
(dp3571
g8
g3569
sg9
VLiam Lacey
p3572
sg11
Vhttp://www.metacritic.com/critic/liam-lacey?filter=movies
p3573
sg13
(dp3574
g128
F7.5
sg130
F6.2999999999999998
sg72
F10
sg139
F6.2999999999999998
sg309
F10
sg70
F10
sg131
F10
sg133
F10
sg145
F6.2999999999999998
sg135
F5
sg159
F6.2999999999999998
sg143
F8.8000000000000007
sg234
F8.8000000000000007
sg77
F10
sg152
F7.5
sg78
F7.5
sg85
F10
sg43
F7.5
sg170
F10
sg141
F5
sg155
F8.8000000000000007
sg158
F10
sg160
F7.5
sg163
F8.8000000000000007
sg174
F6.2999999999999998
sg235
F7.5
sg180
F8.8000000000000007
sg140
F8.8000000000000007
sg149
F7.5
sg15
F10
sg186
F8.8000000000000007
sg187
F7.5
ssg16
VThe Globe and Mail (Toronto)
p3575
sg18
NsbsVTime Out London/Cath Clarke
p3576
g3
(g4
g5
NtRp3577
(dp3578
g8
g3576
sg9
VCath Clarke
p3579
sg11
Vhttp://www.metacritic.com/critic/cath-clarke?filter=movies
p3580
sg13
(dp3581
g78
F10
sg143
F8
sg596
F8
sg87
F8
ssg16
VTime Out London
p3582
sg18
NsbsVLos Angeles Times/Sheila Benson
p3583
g3
(g4
g5
NtRp3584
(dp3585
g8
g3583
sg9
VSheila Benson
p3586
sg11
Vhttp://www.metacritic.com/critic/sheila-benson?filter=movies
p3587
sg13
(dp3588
g605
F9
sg609
F10
ssg16
VLos Angeles Times
p3589
sg18
NsbsVThe A.V. Club/Ben Kenigsberg
p3590
g3
(g4
g5
NtRp3591
(dp3592
g8
g3590
sg9
VBen Kenigsberg
p3593
sg11
Vhttp://www.metacritic.com/critic/ben-kenigsberg?filter=movies
p3594
sg13
(dp3595
g84
F10
ssg16
VThe A.V. Club
p3596
sg18
NsbsVThe Globe and Mail (Toronto)/Leah McLaren
p3597
g3
(g4
g5
NtRp3598
(dp3599
g8
g3597
sg9
VLeah McLaren
p3600
sg11
Nsg13
(dp3601
g154
F7.5
ssg16
VThe Globe and Mail (Toronto)
p3602
sg18
NsbsVNew Times (L.A.)/Andy Klein
p3603
g3
(g4
g5
NtRp3604
(dp3605
g8
g3603
sg9
VAndy Klein
p3606
sg11
Vhttp://www.metacritic.com/critic/andy-klein?filter=movies
p3607
sg13
(dp3608
g607
F9
ssg16
VNew Times (L.A.)
p3609
sg18
NsbsVHitfix/Drew McWeeny
p3610
g3
(g4
g5
NtRp3611
(dp3612
g8
g3610
sg9
VDrew McWeeny
p3613
sg11
Vhttp://www.metacritic.com/critic/drew-mcweeny?filter=movies
p3614
sg13
(dp3615
g156
F5
sg72
F10
sg84
F10
sg106
F10
sg163
F10
sg76
F8.3000000000000007
sg86
F10
sg235
F10
ssg16
VHitfix
p3616
sg18
NsbsVBaltimore Sun/Chris Kaltenbach
p3617
g3
(g4
g5
NtRp3618
(dp3619
g8
g3617
sg9
VChris Kaltenbach
p3620
sg11
Vhttp://www.metacritic.com/critic/chris-kaltenbach?filter=movies
p3621
sg13
(dp3622
g322
F9.0999999999999996
sg162
F10
sg323
F6.2999999999999998
sg604
F8.8000000000000007
sg129
F5
sg149
F10
sg150
F6.7000000000000002
sg174
F8.8000000000000007
sg135
F3.7999999999999998
sg153
F2.5
sg154
F10
sg159
F6.2999999999999998
ssg16
VBaltimore Sun
p3623
sg18
NsbsVEmpire/David Eimer
p3624
g3
(g4
g5
NtRp3625
(dp3626
g8
g3624
sg9
VDavid Eimer
p3627
sg11
Nsg13
(dp3628
g59
F4
ssg16
VEmpire
p3629
sg18
NsbsVTotal Film/Emma Dibdin
p3630
g3
(g4
g5
NtRp3631
(dp3632
g8
g3630
sg9
VEmma Dibdin
p3633
sg11
Vhttp://www.metacritic.com/critic/emma-dibdin?filter=movies
p3634
sg13
(dp3635
g131
F10
sg15
F8
sg143
F8
ssg16
VTotal Film
p3636
sg18
NsbsVChicago Sun-Times/Bill Stamets
p3637
g3
(g4
g5
NtRp3638
(dp3639
g8
g3637
sg9
VBill Stamets
p3640
sg11
Vhttp://www.metacritic.com/critic/bill-stamets?filter=movies
p3641
sg13
(dp3642
g234
F8.8000000000000007
sg366
F8.8000000000000007
sg313
F10
ssg16
VChicago Sun-Times
p3643
sg18
NsbsVFilm.com/Keith Simanton
p3644
g3
(g4
g5
NtRp3645
(dp3646
g8
g3644
sg9
VKeith Simanton
p3647
sg11
Nsg13
(dp3648
g151
F7
ssg16
VFilm.com
p3649
sg18
NsbsVConsequence of Sound/Nico Lang
p3650
g3
(g4
g5
NtRp3651
(dp3652
g8
g3650
sg9
VNico Lang
p3653
sg11
Vhttp://www.metacritic.com/critic/nico-lang?filter=movies
p3654
sg13
(dp3655
g81
F10
sg79
F10
sg112
F9.0999999999999996
ssg16
VConsequence of Sound
p3656
sg18
NsbsVAustin Chronicle/Marc Savlov
p3657
g3
(g4
g5
NtRp3658
(dp3659
g8
g3657
sg9
VMarc Savlov
p3660
sg11
Vhttp://www.metacritic.com/critic/marc-savlov?filter=movies
p3661
sg13
(dp3662
g264
F8.9000000000000004
sg156
F7.7999999999999998
sg139
F3
sg67
F8.9000000000000004
sg129
F4
sg59
F2
sg135
F2
sg152
F8.9000000000000004
sg321
F8.9000000000000004
sg120
F6.7000000000000002
sg234
F8.9000000000000004
sg77
F8.9000000000000004
sg596
F7.7999999999999998
sg107
F8.9000000000000004
sg472
F8.9000000000000004
sg43
F7.7999999999999998
sg151
F8.9000000000000004
sg154
F8.9000000000000004
sg480
F3
sg157
F4
sg158
F7.7999999999999998
sg160
F5
sg165
F7.7999999999999998
sg170
F8.9000000000000004
sg81
F8.9000000000000004
sg83
F6.7000000000000002
sg180
F8.9000000000000004
sg182
F7.7999999999999998
sg183
F8.9000000000000004
sg186
F8.9000000000000004
ssg16
VAustin Chronicle
p3663
sg18
NsbsVThe Hollywood Reporter/Boyd van Hoeij
p3664
g3
(g4
g5
NtRp3665
(dp3666
g8
g3664
sg9
VBoyd van Hoeij
p3667
sg11
Vhttp://www.metacritic.com/critic/boyd-van-hoeij?filter=movies
p3668
sg13
(dp3669
g225
F8
sg1105
F6
sg366
F8
sg107
F8
ssg16
VThe Hollywood Reporter
p3670
sg18
NsbsVSlant Magazine/Carson Lund
p3671
g3
(g4
g5
NtRp3672
(dp3673
g8
g3671
sg9
VCarson Lund
p3674
sg11
Vhttp://www.metacritic.com/critic/carson-lund?filter=movies
p3675
sg13
(dp3676
g225
F6.2999999999999998
sg111
F5
sg74
F5
ssg16
VSlant Magazine
p3677
sg18
NsbsVThe Hollywood Reporter/David Rooney
p3678
g3
(g4
g5
NtRp3679
(dp3680
g8
g3678
sg9
VDavid Rooney
p3681
sg11
Vhttp://www.metacritic.com/critic/david-rooney?filter=movies
p3682
sg13
(dp3683
g67
F10
sg134
F9
sg71
F5
sg770
F10
sg68
F9
sg50
F10
sg568
F8
sg534
F8
sg86
F10
sg51
F9
sg79
F10
sg570
F9
sg235
F7
ssg16
VThe Hollywood Reporter
p3684
sg18
NsbsVChicago Reader/Andrea Gronvall
p3685
g3
(g4
g5
NtRp3686
(dp3687
g8
g3685
sg9
VAndrea Gronvall
p3688
sg11
Vhttp://www.metacritic.com/critic/andrea-gronvall?filter=movies
p3689
sg13
(dp3690
g169
F5
sg170
F8
sg43
F10
sg179
F0
sg108
F9
ssg16
VChicago Reader
p3691
sg18
NsbsVThe New Yorker/David Denby
p3692
g3
(g4
g5
NtRp3693
(dp3694
g8
g3692
sg9
VDavid Denby
p3695
sg11
Vhttp://www.metacritic.com/critic/david-denby?filter=movies
p3696
sg13
(dp3697
g128
F9
sg568
F8
sg144
F7
sg159
F8
sg142
F6
sg77
F9
sg147
F10
sg75
F4
sg15
F10
sg607
F10
sg170
F9
sg155
F10
sg157
F5
sg160
F5
sg162
F9
sg163
F6
sg185
F7
sg169
F5
sg287
F8
sg180
F10
sg108
F8
sg85
F7
sg183
F9
sg187
F8
sg186
F7
sg313
F10
ssg16
VThe New Yorker
p3698
sg18
NsbsVThe Playlist/Kimber Myers
p3699
g3
(g4
g5
NtRp3700
(dp3701
g8
g3699
sg9
VKimber Myers
p3702
sg11
Vhttp://www.metacritic.com/critic/kimber-myers?filter=movies
p3703
sg13
(dp3704
g472
F8.3000000000000007
ssg16
VThe Playlist
p3705
sg18
NsbsVFilm Threat/Rick Kisonak
p3706
g3
(g4
g5
NtRp3707
(dp3708
g8
g3706
sg9
VRick Kisonak
p3709
sg11
Vhttp://www.metacritic.com/critic/rick-kisonak?filter=movies
p3710
sg13
(dp3711
g140
F8
sg149
F8
sg141
F7
sg322
F8
sg159
F6
sg187
F8
ssg16
VFilm Threat
p3712
sg18
NsbsVBoxoffice Magazine/Wade Major
p3713
g3
(g4
g5
NtRp3714
(dp3715
g8
g3713
sg9
VWade Major
p3716
sg11
Vhttp://www.metacritic.com/critic/wade-major?filter=movies
p3717
sg13
(dp3718
g138
F8
ssg16
VBoxoffice Magazine
p3719
sg18
NsbsVIGN/Leigh Singer
p3720
g3
(g4
g5
NtRp3721
(dp3722
g8
g3720
sg9
VLeigh Singer
p3723
sg11
Nsg13
(dp3724
g82
F10
ssg16
VIGN
p3725
sg18
NsbsVL.A. Weekly/Ella Taylor
p3726
g3
(g4
g5
NtRp3727
(dp3728
g8
g3726
sg9
VElla Taylor
p3729
sg11
Vhttp://www.metacritic.com/critic/ella-taylor?filter=movies
p3730
sg13
(dp3731
g264
F9
sg140
F10
sg287
F7
sg133
F10
sg147
F9
sg173
F5
sg607
F10
sg184
F9
sg321
F8
sg286
F2
sg186
F8
sg187
F10
ssg16
VL.A. Weekly
p3732
sg18
NsbsVPortland Oregonian/M. E. Russell
p3733
g3
(g4
g5
NtRp3734
(dp3735
g8
g3733
sg9
VM. E. Russell
p3736
sg11
Nsg13
(dp3737
g154
F10
ssg16
VPortland Oregonian
p3738
sg18
NsbsVThe Film Stage/Nick Newman
p3739
g3
(g4
g5
NtRp3740
(dp3741
g8
g3739
sg9
VNick Newman
p3742
sg11
Vhttp://www.metacritic.com/critic/nick-newman?filter=movies
p3743
sg13
(dp3744
g156
F7.5
ssg16
VThe Film Stage
p3745
sg18
NsbsVSlant Magazine/Elise Nakhnikian
p3746
g3
(g4
g5
NtRp3747
(dp3748
g8
g3746
sg9
VElise Nakhnikian
p3749
sg11
Vhttp://www.metacritic.com/critic/elise-nakhnikian?filter=movies
p3750
sg13
(dp3751
g171
F6.2999999999999998
sg33
F8.8000000000000007
sg569
F8.8000000000000007
ssg16
VSlant Magazine
p3752
sg18
NsbsVThe Playlist/Andrew Crump
p3753
g3
(g4
g5
NtRp3754
(dp3755
g8
g3753
sg9
VAndrew Crump
p3756
sg11
Vhttp://www.metacritic.com/critic/andrew-crump?filter=movies
p3757
sg13
(dp3758
g69
F10
ssg16
VThe Playlist
p3759
sg18
NsbsVSan Francisco Chronicle/Mick LaSalle
p3760
g3
(g4
g5
NtRp3761
(dp3762
g8
g3760
sg9
VMick LaSalle
p3763
sg11
Vhttp://www.metacritic.com/critic/mick-lasalle?filter=movies
p3764
sg13
(dp3765
g128
F10
sg67
F7.5
sg76
F7.5
sg106
F7.5
sg69
F7.5
sg130
F10
sg309
F5
sg131
F5
sg145
F2.5
sg71
F5
sg568
F7.5
sg72
F10
sg59
F2.5
sg79
F10
sg152
F7.5
sg74
F7.5
sg146
F7.5
sg159
F7.5
sg136
F7.5
sg140
F10
sg142
F7.5
sg143
F5
sg144
F7.5
sg41
F7.5
sg68
F10
sg77
F10
sg596
F7.5
sg107
F10
sg147
F10
sg78
F10
sg149
F10
sg43
F7.5
sg170
F7.5
sg141
F7.5
sg42
F10
sg153
F0
sg310
F7.5
sg155
F5
sg480
F5
sg185
F10
sg134
F10
sg160
F7.5
sg163
F10
sg164
F7.5
sg165
F5
sg166
F5
sg167
F10
sg168
F10
sg169
F7.5
sg322
F7.5
sg171
F10
sg111
F2.5
sg195
F10
sg82
F7.5
sg176
F10
sg209
F7.5
sg323
F7.5
sg235
F10
sg177
F10
sg178
F10
sg287
F5
sg175
F5
sg179
F2.5
sg129
F2.5
sg181
F7.5
sg108
F7.5
sg109
F7.5
sg88
F10
sg182
F7.5
sg85
F7.5
sg15
F10
sg184
F10
sg570
F7.5
sg186
F10
sg86
F10
ssg16
VSan Francisco Chronicle
p3766
sg18
NsbsVThe Playlist/Oliver Lyttelton
p3767
g3
(g4
g5
NtRp3768
(dp3769
g8
g3767
sg9
VOliver Lyttelton
p3770
sg11
Vhttp://www.metacritic.com/critic/oliver-lyttelton?filter=movies
p3771
sg13
(dp3772
g33
F9.0999999999999996
sg311
F4.2000000000000002
sg234
F10
sg77
F10
sg107
F8.3000000000000007
sg534
F9.0999999999999996
sg89
F10
sg235
F7.5
ssg16
VThe Playlist
p3773
sg18
NsbsVSalon/Max Cea
p3774
g3
(g4
g5
NtRp3775
(dp3776
g8
g3774
sg9
VMax Cea
p3777
sg11
Nsg13
(dp3778
g112
F9
ssg16
VSalon
p3779
sg18
NsbsVThe Hollywood Reporter/Arthur Knight
p3780
g3
(g4
g5
NtRp3781
(dp3782
g8
g3780
sg9
VArthur Knight
p3783
sg11
Nsg13
(dp3784
g256
F8
ssg16
VThe Hollywood Reporter
p3785
sg18
NsbsVWashington Post/Stephanie Merry
p3786
g3
(g4
g5
NtRp3787
(dp3788
g8
g3786
sg9
VStephanie Merry
p3789
sg11
Vhttp://www.metacritic.com/critic/stephanie-merry?filter=movies
p3790
sg13
(dp3791
g104
F8.8000000000000007
sg472
F7.5
sg146
F7.5
sg89
F6.2999999999999998
sg209
F7.5
ssg16
VWashington Post
p3792
sg18
NsbsVThe Hollywood Reporter/Sheri Linden
p3793
g3
(g4
g5
NtRp3794
(dp3795
g8
g3793
sg9
VSheri Linden
p3796
sg11
Vhttp://www.metacritic.com/critic/sheri-linden?filter=movies
p3797
sg13
(dp3798
g264
F9
ssg16
VThe Hollywood Reporter
p3799
sg18
NsbsVVariety/Todd McCarthy
p3800
g3
(g4
g5
NtRp3801
(dp3802
g8
g3800
sg9
VTodd McCarthy
p3803
sg11
Vhttp://www.metacritic.com/critic/todd-mccarthy?filter=movies
p3804
sg13
(dp3805
g135
F6
sg159
F8
sg321
F9
sg142
F9
sg152
F9
sg43
F10
sg607
F9
sg170
F8
sg154
F10
sg155
F10
sg158
F9
sg162
F9
sg164
F9
sg166
F9
sg167
F9
sg168
F10
sg177
F8
sg287
F7
sg108
F10
sg182
F6
sg149
F9
sg183
F9
sg184
F8
sg186
F5
ssg16
VVariety
p3806
sg18
NsbsVThe New York Times/Manohla Dargis
p3807
g3
(g4
g5
NtRp3808
(dp3809
g8
g3807
sg9
VManohla Dargis
p3810
sg11
Vhttp://www.metacritic.com/critic/manohla-dargis?filter=movies
p3811
sg13
(dp3812
g128
F10
sg72
F10
sg309
F9
sg70
F6
sg568
F7
sg136
F10
sg137
F8
sg143
F10
sg68
F7
sg234
F8
sg25
F7
sg78
F10
sg15
F10
sg150
F10
sg112
F9
sg155
F10
sg156
F9
sg157
F4
sg134
F6
sg569
F10
sg160
F9
sg162
F9
sg165
F8
sg166
F5
sg173
F6
sg235
F7
sg344
F10
sg84
F10
sg179
F5
sg108
F7
sg140
F10
sg183
F10
sg86
F10
ssg16
VThe New York Times
p3813
sg18
NsbsVFilm Threat/Don R. Lewis
p3814
g3
(g4
g5
NtRp3815
(dp3816
g8
g3814
sg9
VDon R. Lewis
p3817
sg11
Nsg13
(dp3818
g133
F9
sg168
F10
ssg16
VFilm Threat
p3819
sg18
NsbsVThe Hollywood Reporter/Bernard Besserglik
p3820
g3
(g4
g5
NtRp3821
(dp3822
g8
g3820
sg9
VBernard Besserglik
p3823
sg11
Nsg13
(dp3824
g173
F8
ssg16
VThe Hollywood Reporter
p3825
sg18
NsbsVCineVue/Matthew Anderson
p3826
g3
(g4
g5
NtRp3827
(dp3828
g8
g3826
sg9
VMatthew Anderson
p3829
sg11
Vhttp://www.metacritic.com/critic/matthew-anderson?filter=movies
p3830
sg13
(dp3831
g76
F8
ssg16
VCineVue
p3832
sg18
NsbsVThe Hollywood Reporter/Duane Byrge
p3833
g3
(g4
g5
NtRp3834
(dp3835
g8
g3833
sg9
VDuane Byrge
p3836
sg11
Nsg13
(dp3837
g605
F5
sg177
F5
ssg16
VThe Hollywood Reporter
p3838
sg18
NsbsVL.A. Weekly/Marc Cooper
p3839
g3
(g4
g5
NtRp3840
(dp3841
g8
g3839
sg9
VMarc Cooper
p3842
sg11
Nsg13
(dp3843
g149
F8
ssg16
VL.A. Weekly
p3844
sg18
NsbsVThe Seattle Times/Moira Macdonald
p3845
g3
(g4
g5
NtRp3846
(dp3847
g8
g3845
sg9
VMoira Macdonald
p3848
sg11
Vhttp://www.metacritic.com/critic/moira-macdonald?filter=movies
p3849
sg13
(dp3850
g156
F8.8000000000000007
sg67
F10
sg80
F8.8000000000000007
sg68
F8.8000000000000007
sg134
F8.8000000000000007
sg106
F10
sg69
F10
sg76
F6.2999999999999998
sg15
F10
sg176
F10
sg79
F8.8000000000000007
sg146
F8.8000000000000007
ssg16
VThe Seattle Times
p3851
sg18
NsbsVTheWrap/Elizabeth Weitzman
p3852
g3
(g4
g5
NtRp3853
(dp3854
g8
g3852
sg9
VElizabeth Weitzman
p3855
sg11
Vhttp://www.metacritic.com/critic/elizabeth-weitzman?filter=movies
p3856
sg13
(dp3857
g71
F5
ssg16
VTheWrap
p3858
sg18
NsbsVThe Playlist/Jessica Kiang
p3859
g3
(g4
g5
NtRp3860
(dp3861
g8
g3859
sg9
VJessica Kiang
p3862
sg11
Vhttp://www.metacritic.com/critic/jessica-kiang?filter=movies
p3863
sg13
(dp3864
g67
F10
sg51
F9.0999999999999996
sg70
F5
sg310
F10
sg74
F9.0999999999999996
sg1105
F9.0999999999999996
sg104
F10
sg50
F9.0999999999999996
sg770
F10
sg146
F7.5
sg75
F8.3000000000000007
sg112
F9.0999999999999996
sg78
F10
sg80
F8.3000000000000007
sg163
F8.3000000000000007
sg209
F8.3000000000000007
sg81
F9.0999999999999996
sg195
F10
sg83
F10
sg176
F10
sg105
F8.3000000000000007
sg109
F9.0999999999999996
sg110
F7.5
sg85
F6.7000000000000002
sg87
F9.0999999999999996
sg88
F9.0999999999999996
sg313
F8.3000000000000007
ssg16
VThe Playlist
p3865
sg18
NsbsVNew York Post/Sara Stewart
p3866
g3
(g4
g5
NtRp3867
(dp3868
g8
g3866
sg9
VSara Stewart
p3869
sg11
Vhttp://www.metacritic.com/critic/sara-stewart?filter=movies
p3870
sg13
(dp3871
g67
F6.2999999999999998
sg105
F7.5
sg134
F7.5
sg69
F6.2999999999999998
sg68
F8.8000000000000007
sg112
F7.5
sg79
F8.8000000000000007
sg366
F10
ssg16
VNew York Post
p3872
sg18
NsbsVTheWrap/Dan Callahan
p3873
g3
(g4
g5
NtRp3874
(dp3875
g8
g3873
sg9
VDan Callahan
p3876
sg11
Nsg13
(dp3877
g84
F5
ssg16
VTheWrap
p3878
sg18
NsbsVSlate/Dana Stevens
p3879
g3
(g4
g5
NtRp3880
(dp3881
g8
g3879
sg9
VDana Stevens
p3882
sg11
Vhttp://www.metacritic.com/critic/dana-stevens?filter=movies
p3883
sg13
(dp3884
g128
F9
sg67
F8
sg72
F10
sg106
F10
sg69
F9
sg130
F5
sg131
F8
sg145
F4
sg71
F9
sg136
F8
sg146
F8
sg138
F10
sg143
F9
sg78
F8
sg68
F8
sg77
F8
sg75
F7
sg141
F7
sg150
F10
sg170
F8
sg15
F9
sg42
F10
sg79
F10
sg155
F10
sg156
F6
sg157
F6
sg160
F10
sg163
F7
sg185
F7
sg165
F4
sg166
F6
sg168
F7
sg169
F5
sg195
F10
sg82
F9
sg178
F8
sg176
F10
sg177
F9
sg105
F8
sg84
F7
sg312
F8
sg108
F10
sg570
F8
sg140
F9
sg85
F9
sg183
F9
sg322
F10
sg88
F9
sg86
F10
sg313
F10
ssg16
VSlate
p3885
sg18
NsbsVVariety/Alissa Simon
p3886
g3
(g4
g5
NtRp3887
(dp3888
g8
g3886
sg9
VAlissa Simon
p3889
sg11
Vhttp://www.metacritic.com/critic/alissa-simon?filter=movies
p3890
sg13
(dp3891
g1105
F8
sg568
F8
sg73
F8
sg138
F9
sg110
F9
ssg16
VVariety
p3892
sg18
NsbsVSlant Magazine/James Lattimer
p3893
g3
(g4
g5
NtRp3894
(dp3895
g8
g3893
sg9
VJames Lattimer
p3896
sg11
Vhttp://www.metacritic.com/critic/james-lattimer?filter=movies
p3897
sg13
(dp3898
g80
F5
ssg16
VSlant Magazine
p3899
sg18
NsbsVThe A.V. Club/A.A. Dowd 
p3900
g3
(g4
g5
NtRp3901
(dp3902
g8
g3900
sg9
VA.A. Dowd 
p3903
sg11
Vhttp://www.metacritic.com/critic/aa-dowd?filter=movies
p3904
sg13
(dp3905
g67
F7.5
sg72
F10
sg106
F10
sg69
F9.0999999999999996
sg73
F9.0999999999999996
sg74
F9.0999999999999996
sg143
F10
sg68
F8.3000000000000007
sg77
F8.3000000000000007
sg107
F9.0999999999999996
sg78
F8.3000000000000007
sg15
F9.0999999999999996
sg112
F10
sg79
F10
sg163
F8.3000000000000007
sg111
F5
sg195
F10
sg82
F8.3000000000000007
sg235
F7.5
sg109
F7.5
sg570
F9.0999999999999996
sg137
F5.7999999999999998
sg85
F5.7999999999999998
sg87
F7.5
sg88
F8.3000000000000007
sg89
F8.3000000000000007
sg313
F8.3000000000000007
ssg16
VThe A.V. Club
p3906
sg18
NsbsVNew York Daily News/Joe Dziemianowicz
p3907
g3
(g4
g5
NtRp3908
(dp3909
g8
g3907
sg9
VJoe Dziemianowicz
p3910
sg11
Vhttp://www.metacritic.com/critic/joe-dziemianowicz?filter=movies
p3911
sg13
(dp3912
g76
F8
sg68
F9
ssg16
VNew York Daily News
p3913
sg18
NsbsVChicago Tribune/Mark Caro
p3914
g3
(g4
g5
NtRp3915
(dp3916
g8
g3914
sg9
VMark Caro
p3917
sg11
Vhttp://www.metacritic.com/critic/mark-caro?filter=movies
p3918
sg13
(dp3919
g135
F5
sg286
F3.7999999999999998
sg164
F7.5
sg187
F8.8000000000000007
ssg16
VChicago Tribune
p3920
sg18
NsbsVSan Francisco Chronicle/Amy Biancolli
p3921
g3
(g4
g5
NtRp3922
(dp3923
g8
g3921
sg9
VAmy Biancolli
p3924
sg11
Nsg13
(dp3925
g157
F5
sg183
F7.5
sg138
F10
ssg16
VSan Francisco Chronicle
p3926
sg18
NsbsVTime/Mary Corliss
p3927
g3
(g4
g5
NtRp3928
(dp3929
g8
g3927
sg9
VMary Corliss
p3930
sg11
Nsg13
(dp3931
g136
F10
ssg16
VTime
p3932
sg18
NsbsVSan Francisco Chronicle/Walter Addiego
p3933
g3
(g4
g5
NtRp3934
(dp3935
g8
g3933
sg9
VWalter Addiego
p3936
sg11
Vhttp://www.metacritic.com/critic/walter-addiego?filter=movies
p3937
sg13
(dp3938
g104
F7.5
sg51
F7.5
sg312
F7.5
sg81
F7.5
sg83
F7.5
sg73
F7.5
sg89
F7.5
sg313
F10
ssg16
VSan Francisco Chronicle
p3939
sg18
NsbsVFilm Threat/Mark Bell
p3940
g3
(g4
g5
NtRp3941
(dp3942
g8
g3940
sg9
VMark Bell
p3943
sg11
Nsg13
(dp3944
g179
F7
sg150
F7
ssg16
VFilm Threat
p3945
sg18
NsbsVThe Globe and Mail (Toronto)/Christopher Harris
p3946
g3
(g4
g5
NtRp3947
(dp3948
g8
g3946
sg9
VChristopher Harris
p3949
sg11
Nsg13
(dp3950
g175
F7.5
ssg16
VThe Globe and Mail (Toronto)
p3951
sg18
NsbsVEmpire/William Thomas
p3952
g3
(g4
g5
NtRp3953
(dp3954
g8
g3952
sg9
VWilliam Thomas
p3955
sg11
Vhttp://www.metacritic.com/critic/william-thomas?filter=movies
p3956
sg13
(dp3957
g139
F6
ssg16
VEmpire
p3958
sg18
NsbsVTime/Richard Corliss
p3959
g3
(g4
g5
NtRp3960
(dp3961
g8
g3959
sg9
VRichard Corliss
p3962
sg11
Vhttp://www.metacritic.com/critic/richard-corliss?filter=movies
p3963
sg13
(dp3964
g128
F10
sg130
F8
sg82
F7
sg72
F10
sg131
F7
sg145
F5
sg604
F9
sg605
F10
sg138
F10
sg159
F9
sg224
F10
sg142
F9
sg143
F10
sg77
F10
sg152
F10
sg147
F9
sg43
F10
sg151
F4
sg141
F5
sg42
F10
sg154
F9
sg480
F3
sg160
F10
sg162
F10
sg164
F9
sg165
F10
sg166
F10
sg167
F10
sg170
F10
sg173
F9
sg323
F5
sg178
F8
sg84
F7
sg179
F7
sg180
F10
sg108
F10
sg140
F10
sg149
F10
sg183
F9
sg15
F10
sg609
F10
sg187
F9
ssg16
VTime
p3965
sg18
NsbsVFilm Threat/Mariko McDonald
p3966
g3
(g4
g5
NtRp3967
(dp3968
g8
g3966
sg9
VMariko McDonald
p3969
sg11
Nsg13
(dp3970
g164
F10
ssg16
VFilm Threat
p3971
sg18
NsbsVNewsweek/David Ansen
p3972
g3
(g4
g5
NtRp3973
(dp3974
g8
g3972
sg9
VDavid Ansen
p3975
sg11
Vhttp://www.metacritic.com/critic/david-ansen?filter=movies
p3976
sg13
(dp3977
g322
F10
sg142
F6
sg187
F9
sg180
F10
sg162
F10
sg120
F9
sg160
F7
sg133
F8
sg166
F9
sg152
F10
sg169
F5
sg170
F10
sg43
F10
sg150
F7
sg607
F8
sg184
F10
sg42
F9
sg159
F6
sg186
F9
sg155
F10
ssg16
VNewsweek
p3978
sg18
NsbsVSlant Magazine/Kenji Fujishima
p3979
g3
(g4
g5
NtRp3980
(dp3981
g8
g3979
sg9
VKenji Fujishima
p3982
sg11
Vhttp://www.metacritic.com/critic/kenji-fujishima?filter=movies
p3983
sg13
(dp3984
g89
F6.2999999999999998
sg109
F7.5
ssg16
VSlant Magazine
p3985
sg18
NsbsVPortland Oregonian/Marc Mohan
p3986
g3
(g4
g5
NtRp3987
(dp3988
g8
g3986
sg9
VMarc Mohan
p3989
sg11
Vhttp://www.metacritic.com/critic/marc-mohan?filter=movies
p3990
sg13
(dp3991
g128
F8.3000000000000007
sg130
F9.0999999999999996
sg178
F7.5
sg143
F8.3000000000000007
sg70
F9.0999999999999996
sg163
F9.0999999999999996
sg77
F10
sg33
F9.0999999999999996
sg209
F5.7999999999999998
sg78
F10
sg568
F8.3000000000000007
sg85
F8.3000000000000007
sg15
F8.3000000000000007
sg82
F10
sg569
F8.3000000000000007
sg136
F9.0999999999999996
sg313
F8.3000000000000007
sg177
F5
ssg16
VPortland Oregonian
p3992
sg18
NsbsVUSA Today/Claudia Puig
p3993
g3
(g4
g5
NtRp3994
(dp3995
g8
g3993
sg9
VClaudia Puig
p3996
sg11
Vhttp://www.metacritic.com/critic/claudia-puig?filter=movies
p3997
sg13
(dp3998
g128
F6.2999999999999998
sg130
F8.8000000000000007
sg72
F10
sg131
F6.2999999999999998
sg133
F8.8000000000000007
sg145
F6.2999999999999998
sg144
F6.2999999999999998
sg41
F7.5
sg138
F10
sg143
F8.8000000000000007
sg78
F8.8000000000000007
sg77
F10
sg152
F8.8000000000000007
sg147
F10
sg75
F5
sg43
F10
sg150
F7.5
sg170
F10
sg141
F7.5
sg42
F10
sg154
F7.5
sg155
F8.8000000000000007
sg164
F8.8000000000000007
sg160
F10
sg163
F8.8000000000000007
sg185
F7.5
sg165
F7.5
sg166
F7.5
sg167
F6.2999999999999998
sg168
F8.8000000000000007
sg169
F8.8000000000000007
sg82
F7.5
sg323
F8.8000000000000007
sg177
F10
sg178
F8.8000000000000007
sg84
F6.2999999999999998
sg179
F6.2999999999999998
sg180
F8.8000000000000007
sg108
F10
sg140
F8.8000000000000007
sg85
F10
sg183
F7.5
sg15
F10
sg322
F10
ssg16
VUSA Today
p3999
sg18
NsbsVTV Guide Magazine/Maitland McDonagh
p4000
g3
(g4
g5
NtRp4001
(dp4002
g8
g4000
sg9
VMaitland McDonagh
p4003
sg11
Vhttp://www.metacritic.com/critic/maitland-mcdonagh?filter=movies
p4004
sg13
(dp4005
g264
F7
sg139
F3.7999999999999998
sg133
F10
sg129
F6
sg135
F4
sg41
F7.5
sg321
F8
sg142
F5
sg120
F8
sg152
F6
sg43
F7
sg150
F7.5
sg607
F5
sg153
F4
sg154
F7
sg155
F7.5
sg480
F4
sg158
F8
sg160
F10
sg166
F6.2999999999999998
sg168
F7.5
sg323
F6
sg182
F4
ssg16
VTV Guide Magazine
p4006
sg18
NsbsVThe Guardian/Lanre Bakare
p4007
g3
(g4
g5
NtRp4008
(dp4009
g8
g4007
sg9
VLanre Bakare
p4010
sg11
Vhttp://www.metacritic.com/critic/lanre-bakare?filter=movies
p4011
sg13
(dp4012
g106
F6
ssg16
VThe Guardian
p4013
sg18
NsbsVThe New York Times/Stephen Holden
p4014
g3
(g4
g5
NtRp4015
(dp4016
g8
g4014
sg9
VStephen Holden
p4017
sg11
Vhttp://www.metacritic.com/critic/stephen-holden?filter=movies
p4018
sg13
(dp4019
g104
F10
sg287
F9
sg606
F6
sg59
F7
sg209
F9
sg182
F2
sg149
F10
sg607
F10
sg184
F10
sg73
F10
sg41
F6
ssg16
VThe New York Times
p4020
sg18
NsbsVPaste Magazine/Scott Wold
p4021
g3
(g4
g5
NtRp4022
(dp4023
g8
g4021
sg9
VScott Wold
p4024
sg11
Vhttp://www.metacritic.com/critic/scott-wold?filter=movies
p4025
sg13
(dp4026
g143
F9.4000000000000004
ssg16
VPaste Magazine
p4027
sg18
NsbsVVillage Voice/Michael Nordine
p4028
g3
(g4
g5
NtRp4029
(dp4030
g8
g4028
sg9
VMichael Nordine
p4031
sg11
Vhttp://www.metacritic.com/critic/michael-nordine?filter=movies
p4032
sg13
(dp4033
g89
F9
ssg16
VVillage Voice
p4034
sg18
NsbsVConsequence of Sound/Danielle Solzman
p4035
g3
(g4
g5
NtRp4036
(dp4037
g8
g4035
sg9
VDanielle Solzman
p4038
sg11
Vhttp://www.metacritic.com/critic/danielle-solzman?filter=movies
p4039
sg13
(dp4040
g50
F10
ssg16
VConsequence of Sound
p4041
sg18
NsbsVCineVue/Tom Graham
p4042
g3
(g4
g5
NtRp4043
(dp4044
g8
g4042
sg9
VTom Graham
p4045
sg11
Nsg13
(dp4046
g171
F8
ssg16
VCineVue
p4047
sg18
NsbsVIGN/William Bibbiani
p4048
g3
(g4
g5
NtRp4049
(dp4050
g8
g4048
sg9
VWilliam Bibbiani
p4051
sg11
Vhttp://www.metacritic.com/critic/william-bibbiani?filter=movies
p4052
sg13
(dp4053
g69
F8.8000000000000007
ssg16
VIGN
p4054
sg18
NsbsVVillage Voice/Staff (Not Credited)
p4055
g3
(g4
g5
NtRp4056
(dp4057
g8
g4055
sg9
VStaff (Not Credited)
p4058
sg11
Nsg13
(dp4059
g256
F9
ssg16
VVillage Voice
p4060
sg18
NsbsVScreen International/Mark Adams
p4061
g3
(g4
g5
NtRp4062
(dp4063
g8
g4061
sg9
VMark Adams
p4064
sg11
Vhttp://www.metacritic.com/critic/mark-adams?filter=movies
p4065
sg13
(dp4066
g195
F9
ssg16
VScreen International
p4067
sg18
NsbsVThe Globe and Mail (Toronto)/Jay Scott
p4068
g3
(g4
g5
NtRp4069
(dp4070
g8
g4068
sg9
VJay Scott
p4071
sg11
Vhttp://www.metacritic.com/critic/jay-scott?filter=movies
p4072
sg13
(dp4073
g605
F10
sg172
F8.8000000000000007
ssg16
VThe Globe and Mail (Toronto)
p4074
sg18
NsbsVFilm Threat/Eric Campos
p4075
g3
(g4
g5
NtRp4076
(dp4077
g8
g4075
sg9
VEric Campos
p4078
sg11
Nsg13
(dp4079
g152
F10
ssg16
VFilm Threat
p4080
sg18
NsbsVThe A.V. Club/Noel Murray
p4081
g3
(g4
g5
NtRp4082
(dp4083
g8
g4081
sg9
VNoel Murray
p4084
sg11
Vhttp://www.metacritic.com/critic/noel-murray?filter=movies
p4085
sg13
(dp4086
g179
F6.7000000000000002
sg133
F9.0999999999999996
sg568
F7.5
sg171
F9.0999999999999996
sg472
F9.0999999999999996
sg174
F7
sg322
F9.0999999999999996
sg42
F7.5
sg41
F6.7000000000000002
ssg16
VThe A.V. Club
p4087
sg18
NsbsVTotal Film/Jamie Graham
p4088
g3
(g4
g5
NtRp4089
(dp4090
g8
g4088
sg9
VJamie Graham
p4091
sg11
Vhttp://www.metacritic.com/critic/jamie-graham?filter=movies
p4092
sg13
(dp4093
g33
F8
sg106
F10
sg68
F10
sg78
F10
sg81
F10
sg86
F8
sg136
F10
sg88
F8
sg235
F8
ssg16
VTotal Film
p4094
sg18
NsbsVL.A. Weekly/Manohla Dargis
p4095
g3
(g4
g5
NtRp4096
(dp4097
g8
g4095
sg9
VManohla Dargis
p4098
sg11
Vhttp://www.metacritic.com/critic/manohla-dargis?filter=movies
p4099
sg13
(dp4100
g604
F9
sg158
F6
sg323
F2
ssg16
VL.A. Weekly
p4101
sg18
NsbsVFilm Threat/Bob Westal
p4102
g3
(g4
g5
NtRp4103
(dp4104
g8
g4102
sg9
VBob Westal
p4105
sg11
Nsg13
(dp4106
g149
F8
ssg16
VFilm Threat
p4107
sg18
NsbsVCineVue/Lucy Popescu
p4108
g3
(g4
g5
NtRp4109
(dp4110
g8
g4108
sg9
VLucy Popescu
p4111
sg11
Nsg13
(dp4112
g195
F8
ssg16
VCineVue
p4113
sg18
NsbsVScreen International/Jonathan Romney
p4114
g3
(g4
g5
NtRp4115
(dp4116
g8
g4114
sg9
VJonathan Romney
p4117
sg11
Vhttp://www.metacritic.com/critic/jonathan-romney?filter=movies
p4118
sg13
(dp4119
g233
F9
sg76
F6
sg107
F9
ssg16
VScreen International
p4120
sg18
NsbsVThe Hollywood Reporter/Kirk Honeycutt
p4121
g3
(g4
g5
NtRp4122
(dp4123
g8
g4121
sg9
VKirk Honeycutt
p4124
sg11
Vhttp://www.metacritic.com/critic/kirk-honeycutt?filter=movies
p4125
sg13
(dp4126
g179
F8
sg180
F10
sg144
F7
sg162
F10
sg164
F10
sg166
F8
sg147
F10
sg322
F9
sg149
F8
sg183
F10
sg160
F10
sg174
F8
sg170
F10
sg187
F9
sg154
F10
sg159
F6
ssg16
VThe Hollywood Reporter
p4127
sg18
NsbsVEmpire/Damon Wise
p4128
g3
(g4
g5
NtRp4129
(dp4130
g8
g4128
sg9
VDamon Wise
p4131
sg11
Vhttp://www.metacritic.com/critic/damon-wise?filter=movies
p4132
sg13
(dp4133
g131
F10
sg167
F8
sg140
F10
sg85
F10
sg150
F8
sg163
F8
ssg16
VEmpire
p4134
sg18
NsbsVVillage Voice/Alan Scherstuhl
p4135
g3
(g4
g5
NtRp4136
(dp4137
g8
g4135
sg9
VAlan Scherstuhl
p4138
sg11
Vhttp://www.metacritic.com/critic/alan-scherstuhl?filter=movies
p4139
sg13
(dp4140
g1105
F9
sg104
F10
sg311
F8
sg70
F10
sg76
F7
sg110
F10
sg25
F8
sg87
F10
sg73
F9
sg570
F6
ssg16
VVillage Voice
p4141
sg18
NsbsVTampa Bay Times/Steve Persall
p4142
g3
(g4
g5
NtRp4143
(dp4144
g8
g4142
sg9
VSteve Persall
p4145
sg11
Vhttp://www.metacritic.com/critic/steve-persall?filter=movies
p4146
sg13
(dp4147
g128
F10
sg67
F10
sg76
F6.7000000000000002
sg106
F10
sg69
F5.7999999999999998
sg131
F10
sg71
F6.7000000000000002
sg72
F7.5
sg136
F10
sg146
F10
sg138
F10
sg143
F10
sg78
F10
sg144
F6.7000000000000002
sg68
F10
sg77
F10
sg137
F9.0999999999999996
sg50
F7.5
sg15
F10
sg79
F10
sg156
F5.7999999999999998
sg157
F8.3000000000000007
sg163
F10
sg185
F10
sg165
F7.5
sg171
F8.3000000000000007
sg82
F10
sg176
F8.3000000000000007
sg177
F10
sg178
F7.5
sg175
F5.7999999999999998
sg181
F7.5
sg570
F10
sg85
F10
sg89
F10
sg88
F10
sg86
F10
ssg16
VTampa Bay Times
p4148
sg18
NsbsVRolling Stone/Peter Travers
p4149
g3
(g4
g5
NtRp4150
(dp4151
g8
g4149
sg9
VPeter Travers
p4152
sg11
Vhttp://www.metacritic.com/critic/peter-travers?filter=movies
p4153
sg13
(dp4154
g72
F10
sg133
F10
sg145
F6.2999999999999998
sg604
F9
sg129
F2.5
sg146
F8.8000000000000007
sg50
F8.8000000000000007
sg76
F6.2999999999999998
sg152
F7.5
sg147
F8.8000000000000007
sg607
F10
sg170
F10
sg155
F10
sg480
F4
sg163
F8.8000000000000007
sg167
F8.8000000000000007
sg195
F8.8000000000000007
sg178
F8.8000000000000007
sg287
F9
sg179
F6.2999999999999998
sg180
F8.8000000000000007
sg58
F8
sg149
F8.8000000000000007
sg183
F8.8000000000000007
sg570
F8.8000000000000007
sg89
F8.8000000000000007
sg67
F8.8000000000000007
sg106
F10
sg235
F8.8000000000000007
sg71
F7.5
sg137
F8.8000000000000007
sg138
F8.8000000000000007
sg120
F9
sg107
F8.8000000000000007
sg75
F7.5
sg134
F8.8000000000000007
sg162
F10
sg164
F8.8000000000000007
sg165
F8.8000000000000007
sg166
F7.5
sg111
F7.5
sg82
F8.8000000000000007
sg176
F10
sg608
F10
sg177
F8.8000000000000007
sg181
F8.8000000000000007
sg81
F8.8000000000000007
sg109
F8.8000000000000007
sg186
F8.8000000000000007
sg313
F10
sg68
F10
sg139
F2.5
sg69
F8.8000000000000007
sg310
F8.8000000000000007
sg144
F7.5
sg143
F8.8000000000000007
sg234
F8.8000000000000007
sg596
F7.5
sg141
F8.8000000000000007
sg150
F8.8000000000000007
sg112
F8.8000000000000007
sg78
F10
sg42
F8.8000000000000007
sg79
F10
sg154
F8.8000000000000007
sg185
F8.8000000000000007
sg169
F8.8000000000000007
sg105
F8.8000000000000007
sg153
F0
sg84
F7.5
sg108
F10
sg321
F10
sg85
F8.8000000000000007
sg15
F10
sg88
F10
sg86
F10
sg128
F10
sg130
F8.8000000000000007
sg131
F10
sg136
F8.8000000000000007
sg159
F8.8000000000000007
sg142
F10
sg77
F10
sg43
F8.8000000000000007
sg156
F8.8000000000000007
sg157
F5
sg160
F8.8000000000000007
sg168
F10
sg171
F8.8000000000000007
sg173
F8.8000000000000007
sg312
F7.5
sg140
F10
sg184
F10
sg187
F8.8000000000000007
ssg16
VRolling Stone
p4155
sg18
NsbsVNew York Daily News/Amy Rowe
p4156
g3
(g4
g5
NtRp4157
(dp4158
g8
g4156
sg9
VAmy Rowe
p4159
sg11
Nsg13
(dp4160
g112
F7
ssg16
VNew York Daily News
p4161
sg18
NsbsVBoston Globe/Jay Carr
p4162
g3
(g4
g5
NtRp4163
(dp4164
g8
g4162
sg9
VJay Carr
p4165
sg11
Vhttp://www.metacritic.com/critic/jay-carr?filter=movies
p4166
sg13
(dp4167
g480
F2.5
sg287
F10
sg120
F7.5
sg321
F10
sg607
F10
sg286
F6.2999999999999998
sg323
F8.8000000000000007
ssg16
VBoston Globe
p4168
sg18
NsbsVSan Francisco Chronicle/Michael Ordoa
p4169
g3
(g4
g5
NtRp4170
(dp4171
g8
g4169
sg9
VMichael Ordoa
p4172
sg11
Nsg13
(dp4173
g534
F7.5
ssg16
VSan Francisco Chronicle
p4174
sg18
NsbsVRogerEbert.com/Matt Zoller Seitz
p4175
g3
(g4
g5
NtRp4176
(dp4177
g8
g4175
sg9
VMatt Zoller Seitz
p4178
sg11
Vhttp://www.metacritic.com/critic/matt-zoller-seitz?filter=movies
p4179
sg13
(dp4180
g104
F7.5
sg72
F10
sg84
F10
sg106
F10
sg77
F10
sg110
F7.5
sg569
F10
sg570
F7.5
sg86
F8.8000000000000007
ssg16
VRogerEbert.com
p4181
sg18
NsbsVTime Out London/Guy Lodge
p4182
g3
(g4
g5
NtRp4183
(dp4184
g8
g4182
sg9
VGuy Lodge
p4185
sg11
Vhttp://www.metacritic.com/critic/guy-lodge?filter=movies
p4186
sg13
(dp4187
g146
F6
ssg16
VTime Out London
p4188
sg18
NsbsVThe Hollywood Reporter/Frank Scheck
p4189
g3
(g4
g5
NtRp4190
(dp4191
g8
g4189
sg9
VFrank Scheck
p4192
sg11
Vhttp://www.metacritic.com/critic/frank-scheck?filter=movies
p4193
sg13
(dp4194
g139
F3
ssg16
VThe Hollywood Reporter
p4195
sg18
NsbsVFilm Threat/Rich Cline
p4196
g3
(g4
g5
NtRp4197
(dp4198
g8
g4196
sg9
VRich Cline
p4199
sg11
Vhttp://www.metacritic.com/critic/rich-cline?filter=movies
p4200
sg13
(dp4201
g142
F8
ssg16
VFilm Threat
p4202
sg18
NsbsVSlate/David Edelstein
p4203
g3
(g4
g5
NtRp4204
(dp4205
g8
g4203
sg9
VDavid Edelstein
p4206
sg11
Vhttp://www.metacritic.com/critic/david-edelstein?filter=movies
p4207
sg13
(dp4208
g182
F7
sg158
F3
sg142
F9
sg162
F9
sg120
F9
sg164
F10
sg154
F9
sg147
F9
sg287
F9
sg43
F10
sg173
F8
sg607
F10
sg184
F6
sg152
F7
sg286
F5
sg153
F6
sg186
F10
sg187
F9
ssg16
VSlate
p4209
sg18
NsbsVTotal Film/Emma Morgan
p4210
g3
(g4
g5
NtRp4211
(dp4212
g8
g4210
sg9
VEmma Morgan
p4213
sg11
Nsg13
(dp4214
g163
F8
ssg16
VTotal Film
p4215
sg18
NsbsVThe Film Stage/Michael Snydel
p4216
g3
(g4
g5
NtRp4217
(dp4218
g8
g4216
sg9
VMichael Snydel
p4219
sg11
Vhttp://www.metacritic.com/critic/michael-snydel?filter=movies
p4220
sg13
(dp4221
g104
F9.0999999999999996
sg69
F9.0999999999999996
ssg16
VThe Film Stage
p4222
sg18
NsbsVNew York Magazine (Vulture)/Emily Yoshida
p4223
g3
(g4
g5
NtRp4224
(dp4225
g8
g4223
sg9
VEmily Yoshida
p4226
sg11
Vhttp://www.metacritic.com/critic/emily-yoshida?filter=movies
p4227
sg13
(dp4228
g50
F8
sg111
F7
sg74
F8
sg109
F8
sg83
F7
ssg16
VNew York Magazine (Vulture)
p4229
sg18
NsbsVTotal Film/Matthew Leyland
p4230
g3
(g4
g5
NtRp4231
(dp4232
g8
g4230
sg9
VMatthew Leyland
p4233
sg11
Vhttp://www.metacritic.com/critic/matthew-leyland?filter=movies
p4234
sg13
(dp4235
g165
F10
sg145
F10
ssg16
VTotal Film
p4236
sg18
NsbsVVillage Voice/Dennis Lim
p4237
g3
(g4
g5
NtRp4238
(dp4239
g8
g4237
sg9
VDennis Lim
p4240
sg11
Vhttp://www.metacritic.com/critic/dennis-lim?filter=movies
p4241
sg13
(dp4242
g480
F3
sg607
F8
ssg16
VVillage Voice
p4243
sg18
NsbsVAustin Chronicle/Kimberley Jones
p4244
g3
(g4
g5
NtRp4245
(dp4246
g8
g4244
sg9
VKimberley Jones
p4247
sg11
Vhttp://www.metacritic.com/critic/kimberley-jones?filter=movies
p4248
sg13
(dp4249
g128
F8.9000000000000004
sg82
F8.9000000000000004
sg69
F10
sg143
F8.9000000000000004
sg75
F8.9000000000000004
sg76
F6.7000000000000002
sg147
F7.7999999999999998
sg78
F10
sg141
F7.7999999999999998
sg607
F7.7999999999999998
sg163
F10
sg185
F7.7999999999999998
sg178
F6.7000000000000002
sg195
F10
sg173
F5
sg323
F8.9000000000000004
sg177
F6.7000000000000002
sg105
F8.9000000000000004
sg287
F7.7999999999999998
sg181
F7.7999999999999998
sg286
F2
sg86
F6.7000000000000002
sg187
F8.9000000000000004
ssg16
VAustin Chronicle
p4250
sg18
NsbsVArizona Republic/Bill Goodykoontz
p4251
g3
(g4
g5
NtRp4252
(dp4253
g8
g4251
sg9
VBill Goodykoontz
p4254
sg11
Vhttp://www.metacritic.com/critic/bill-goodykoontz?filter=movies
p4255
sg13
(dp4256
g128
F10
sg67
F9
sg33
F8
sg76
F8
sg106
F10
sg69
F9
sg130
F8
sg131
F9
sg145
F5
sg71
F7
sg72
F10
sg136
F9
sg107
F9
sg137
F8
sg138
F10
sg104
F9
sg143
F10
sg78
F10
sg144
F7
sg68
F9
sg234
F9
sg77
F10
sg596
F9
sg146
F8
sg75
F8
sg472
F8
sg15
F10
sg112
F8
sg79
F10
sg366
F8
sg310
F8
sg155
F10
sg156
F8
sg134
F8
sg163
F9
sg165
F8
sg178
F9
sg167
F8
sg209
F8
sg81
F9
sg195
F9
sg82
F9
sg176
F9
sg235
F8
sg177
F9
sg105
F9
sg84
F8
sg312
F9
sg181
F9
sg171
F9
sg109
F8
sg570
F9
sg85
F8
sg89
F8
sg88
F10
sg86
F9
sg313
F9
ssg16
VArizona Republic
p4257
sg18
NsbsVEntertainment Weekly/Chris Nashawaty
p4258
g3
(g4
g5
NtRp4259
(dp4260
g8
g4258
sg9
VChris Nashawaty
p4261
sg11
Vhttp://www.metacritic.com/critic/chris-nashawaty?filter=movies
p4262
sg13
(dp4263
g67
F10
sg72
F10
sg106
F10
sg69
F7.5
sg310
F10
sg74
F6.7000000000000002
sg104
F9.0999999999999996
sg143
F7.5
sg76
F7.5
sg107
F10
sg78
F9.0999999999999996
sg112
F9.0999999999999996
sg79
F10
sg366
F9.0999999999999996
sg156
F7.5
sg171
F8.3000000000000007
sg176
F9.0999999999999996
sg235
F7.5
sg84
F5
sg146
F10
sg570
F9.0999999999999996
sg85
F8.3000000000000007
sg89
F10
sg88
F10
sg86
F9.0999999999999996
sg313
F7.5
ssg16
VEntertainment Weekly
p4264
sg18
NsbsVChicago Tribune/Marc Caro
p4265
g3
(g4
g5
NtRp4266
(dp4267
g8
g4265
sg9
VMarc Caro
p4268
sg11
Nsg13
(dp4269
g182
F8.8000000000000007
ssg16
VChicago Tribune
p4270
sg18
NsbsVPhiladelphia Inquirer/Carrie Rickey
p4271
g3
(g4
g5
NtRp4272
(dp4273
g8
g4271
sg9
VCarrie Rickey
p4274
sg11
Vhttp://www.metacritic.com/critic/carrie-rickey?filter=movies
p4275
sg13
(dp4276
g133
F10
sg129
F5
sg144
F7.5
sg135
F5
sg321
F7.5
sg152
F7.5
sg147
F8.8000000000000007
sg607
F7.5
sg42
F10
sg154
F10
sg480
F2.5
sg157
F5
sg160
F7.5
sg162
F10
sg185
F8.8000000000000007
sg169
F8.8000000000000007
sg322
F10
sg174
F8.8000000000000007
sg175
F7.5
sg108
F10
sg182
F8.8000000000000007
sg149
F8.8000000000000007
sg184
F8.8000000000000007
sg286
F6.2999999999999998
sg186
F8.8000000000000007
sg187
F10
ssg16
VPhiladelphia Inquirer
p4277
sg18
NsbsVBoxoffice Magazine/Amy Nicholson
p4278
g3
(g4
g5
NtRp4279
(dp4280
g8
g4278
sg9
VAmy Nicholson
p4281
sg11
Nsg13
(dp4282
g165
F7
ssg16
VBoxoffice Magazine
p4283
sg18
NsbsVChicago Sun-Times/Steven Boone
p4284
g3
(g4
g5
NtRp4285
(dp4286
g8
g4284
sg9
VSteven Boone
p4287
sg11
Nsg13
(dp4288
g312
F8.8000000000000007
ssg16
VChicago Sun-Times
p4289
sg18
NsbsVRogerEbert.com/Brian Tallerico
p4290
g3
(g4
g5
NtRp4291
(dp4292
g8
g4290
sg9
VBrian Tallerico
p4293
sg11
Vhttp://www.metacritic.com/critic/brian-tallerico?filter=movies
p4294
sg13
(dp4295
g80
F8.8000000000000007
sg76
F7.5
sg68
F10
sg209
F7.5
sg71
F7.5
sg472
F8.8000000000000007
sg79
F10
sg146
F7.5
ssg16
VRogerEbert.com
p4296
sg18
NsbsVChicago Reader/Jonathan Rosenbaum
p4297
g3
(g4
g5
NtRp4298
(dp4299
g8
g4297
sg9
VJonathan Rosenbaum
p4300
sg11
Vhttp://www.metacritic.com/critic/jonathan-rosenbaum?filter=movies
p4301
sg13
(dp4302
g264
F9
sg132
F8
sg133
F10
sg59
F4
sg605
F10
sg41
F5
sg159
F5
sg142
F5
sg120
F9
sg147
F7
sg148
F10
sg150
F7
sg607
F9
sg151
F8
sg42
F7
sg153
F6
sg155
F7
sg480
F6
sg158
F8
sg162
F7
sg164
F10
sg168
F3
sg344
F10
sg173
F6
sg406
F6
sg608
F2
sg287
F9
sg58
F8
sg321
F9
sg149
F5
sg184
F7
sg286
F4
sg186
F9
sg187
F7
ssg16
VChicago Reader
p4303
sg18
NsbsVChicago Reader/Ben Sachs
p4304
g3
(g4
g5
NtRp4305
(dp4306
g8
g4304
sg9
VBen Sachs
p4307
sg11
Nsg13
(dp4308
g144
F5
ssg16
VChicago Reader
p4309
sg18
NsbsVThe A.V. Club/David Ehrlich
p4310
g3
(g4
g5
NtRp4311
(dp4312
g8
g4310
sg9
VDavid Ehrlich
p4313
sg11
Vhttp://www.metacritic.com/critic/david-ehrlich?filter=movies
p4314
sg13
(dp4315
g33
F10
ssg16
VThe A.V. Club
p4316
sg18
NsbsVThe Hollywood Reporter/Eric Hansen
p4317
g3
(g4
g5
NtRp4318
(dp4319
g8
g4317
sg9
VEric Hansen
p4320
sg11
Nsg13
(dp4321
g42
F8
ssg16
VThe Hollywood Reporter
p4322
sg18
NsbsVTV Guide Magazine/Staff (Not credited)
p4323
g3
(g4
g5
NtRp4324
(dp4325
g8
g4323
sg9
VStaff (Not credited)
p4326
sg11
Nsg13
(dp4327
g344
F8
ssg16
VTV Guide Magazine
p4328
sg18
NsbsVThe Film Stage/Giovanni Marchini Camia
p4329
g3
(g4
g5
NtRp4330
(dp4331
g8
g4329
sg9
VGiovanni Marchini Camia
p4332
sg11
Vhttp://www.metacritic.com/critic/giovanni-marchini-camia?filter=movies
p4333
sg13
(dp4334
g105
F6.7000000000000002
sg109
F7.5
sg81
F10
sg111
F7.5
sg112
F10
sg83
F5.7999999999999998
sg146
F7.5
sg89
F8.3000000000000007
ssg16
VThe Film Stage
p4335
sg18
NsbsVUSA Today/Brian Truitt
p4336
g3
(g4
g5
NtRp4337
(dp4338
g8
g4336
sg9
VBrian Truitt
p4339
sg11
Vhttp://www.metacritic.com/critic/brian-truitt?filter=movies
p4340
sg13
(dp4341
g156
F6.2999999999999998
sg67
F8.8000000000000007
sg68
F10
sg106
F10
sg69
F7.5
sg181
F8.8000000000000007
sg76
F7.5
sg88
F10
sg86
F7.5
ssg16
VUSA Today
p4342
sg18
NsbsVBoxoffice Magazine/John P. McCarthy
p4343
g3
(g4
g5
NtRp4344
(dp4345
g8
g4343
sg9
VJohn P. McCarthy
p4346
sg11
Vhttp://www.metacritic.com/critic/john-p-mccarthy?filter=movies
p4347
sg13
(dp4348
g157
F5
ssg16
VBoxoffice Magazine
p4349
sg18
NsbsVFilm Threat/Clint Morris
p4350
g3
(g4
g5
NtRp4351
(dp4352
g8
g4350
sg9
VClint Morris
p4353
sg11
Nsg13
(dp4354
g135
F4
ssg16
VFilm Threat
p4355
sg18
NsbsVVillage Voice/Alex Pappademas
p4356
g3
(g4
g5
NtRp4357
(dp4358
g8
g4356
sg9
VAlex Pappademas
p4359
sg11
Nsg13
(dp4360
g135
F3
ssg16
VVillage Voice
p4361
sg18
NsbsVWashington Post/Desson Thomson
p4362
g3
(g4
g5
NtRp4363
(dp4364
g8
g4362
sg9
VDesson Thomson
p4365
sg11
Vhttp://www.metacritic.com/critic/desson-thomson?filter=movies
p4366
sg13
(dp4367
g604
F9
sg129
F8
sg59
F4
sg135
F6
sg605
F10
sg152
F10
sg159
F8
sg321
F9
sg406
F10
sg148
F10
sg43
F10
sg607
F9
sg151
F9
sg141
F7
sg42
F10
sg153
F8
sg154
F10
sg480
F3
sg158
F8
sg162
F10
sg287
F9
sg173
F6
sg174
F9
sg323
F10
sg344
F10
sg175
F8
sg180
F9
sg58
F7
sg182
F9
sg149
F9
sg286
F4
sg186
F10
sg187
F8
ssg16
VWashington Post
p4368
sg18
NsbsVSlant Magazine/Nick Schager
p4369
g3
(g4
g5
NtRp4370
(dp4371
g8
g4369
sg9
VNick Schager
p4372
sg11
Vhttp://www.metacritic.com/critic/nick-schager?filter=movies
p4373
sg13
(dp4374
g157
F2.5
sg165
F7.5
sg138
F8.8000000000000007
ssg16
VSlant Magazine
p4375
sg18
NsbsVPortland Oregonian/Kim Morgan
p4376
g3
(g4
g5
NtRp4377
(dp4378
g8
g4376
sg9
VKim Morgan
p4379
sg11
Vhttp://www.metacritic.com/critic/kim-morgan?filter=movies
p4380
sg13
(dp4381
g480
F5
sg135
F4.2000000000000002
sg286
F4.2000000000000002
ssg16
VPortland Oregonian
p4382
sg18
NsbsVOrlando Sentinel/Roger Moore
p4383
g3
(g4
g5
NtRp4384
(dp4385
g8
g4383
sg9
VRoger Moore
p4386
sg11
Vhttp://www.metacritic.com/critic/roger-moore?filter=movies
p4387
sg13
(dp4388
g144
F7.5
sg157
F5
sg185
F7.5
sg167
F8.8000000000000007
sg177
F7.5
ssg16
VOrlando Sentinel
p4389
sg18
NsbsVThe New York Times/A.O. Scott
p4390
g3
(g4
g5
NtRp4391
(dp4392
g8
g4390
sg9
VA.O. Scott
p4393
sg11
Vhttp://www.metacritic.com/critic/ao-scott?filter=movies
p4394
sg13
(dp4395
g67
F10
sg129
F1
sg106
F9
sg69
F10
sg51
F9
sg131
F10
sg133
F10
sg145
F5
sg604
F10
sg71
F7
sg144
F7
sg152
F9
sg74
F6
sg146
F6
sg138
F8
sg142
F9
sg75
F9
sg76
F6
sg77
F9
sg107
F7
sg50
F10
sg534
F9
sg170
F10
sg43
F10
sg42
F10
sg79
F10
sg366
F6
sg310
F7
sg480
F5
sg163
F10
sg185
F9
sg178
F10
sg167
F7
sg168
F10
sg169
F8
sg81
F10
sg195
F9
sg82
F10
sg141
F7
sg176
F10
sg323
F9
sg130
F10
sg177
F5
sg105
F10
sg180
F10
sg312
F10
sg181
F7
sg171
F9
sg109
F9
sg110
F10
sg570
F10
sg85
F9
sg87
F8
sg322
F9
sg187
F10
sg88
F10
sg89
F10
sg313
F10
ssg16
VThe New York Times
p4396
sg18
NsbsVChicago Tribune/Allison Benedikt
p4397
g3
(g4
g5
NtRp4398
(dp4399
g8
g4397
sg9
VAllison Benedikt
p4400
sg11
Vhttp://www.metacritic.com/critic/allison-benedikt?filter=movies
p4401
sg13
(dp4402
g153
F1.2
ssg16
VChicago Tribune
p4403
sg18
NsbsVFilm Threat/Phil Hall
p4404
g3
(g4
g5
NtRp4405
(dp4406
g8
g4404
sg9
VPhil Hall
p4407
sg11
Vhttp://www.metacritic.com/critic/phil-hall?filter=movies
p4408
sg13
(dp4409
g184
F4
sg186
F5
ssg16
VFilm Threat
p4410
sg18
NsbsVTime Out/David Ehrlich
p4411
g3
(g4
g5
NtRp4412
(dp4413
g8
g4411
sg9
VDavid Ehrlich
p4414
sg11
Vhttp://www.metacritic.com/critic/david-ehrlich?filter=movies
p4415
sg13
(dp4416
g181
F8
sg366
F6
sg596
F6
ssg16
VTime Out
p4417
sg18
NsbsVLos Angeles Times/Carina Chocano
p4418
g3
(g4
g5
NtRp4419
(dp4420
g8
g4418
sg9
VCarina Chocano
p4421
sg11
Vhttp://www.metacritic.com/critic/carina-chocano?filter=movies
p4422
sg13
(dp4423
g147
F9
sg322
F8
sg41
F7
sg173
F8
ssg16
VLos Angeles Times
p4424
sg18
NsbsVNew York Daily News/Ethan Sacks
p4425
g3
(g4
g5
NtRp4426
(dp4427
g8
g4425
sg9
VEthan Sacks
p4428
sg11
Vhttp://www.metacritic.com/critic/ethan-sacks?filter=movies
p4429
sg13
(dp4430
g67
F8
ssg16
VNew York Daily News
p4431
sg18
NsbsVL.A. Weekly/John Patterson
p4432
g3
(g4
g5
NtRp4433
(dp4434
g8
g4432
sg9
VJohn Patterson
p4435
sg11
Vhttp://www.metacritic.com/critic/john-patterson?filter=movies
p4436
sg13
(dp4437
g182
F8
ssg16
VL.A. Weekly
p4438
sg18
NsbsVEmpire/Colin Kennedy
p4439
g3
(g4
g5
NtRp4440
(dp4441
g8
g4439
sg9
VColin Kennedy
p4442
sg11
Vhttp://www.metacritic.com/critic/colin-kennedy?filter=movies
p4443
sg13
(dp4444
g256
F10
sg164
F8
sg154
F8
ssg16
VEmpire
p4445
sg18
NsbsVVillage Voice/Chris Packham
p4446
g3
(g4
g5
NtRp4447
(dp4448
g8
g4446
sg9
VChris Packham
p4449
sg11
Nsg13
(dp4450
g178
F9
ssg16
VVillage Voice
p4451
sg18
NsbsVSalon/Scott Rosenberg
p4452
g3
(g4
g5
NtRp4453
(dp4454
g8
g4452
sg9
VScott Rosenberg
p4455
sg11
Nsg13
(dp4456
g148
F10
ssg16
VSalon
p4457
sg18
NsbsVIndieWire/Eric Kohn
p4458
g3
(g4
g5
NtRp4459
(dp4460
g8
g4458
sg9
VEric Kohn
p4461
sg11
Vhttp://www.metacritic.com/critic/eric-kohn?filter=movies
p4462
sg13
(dp4463
g128
F10
sg156
F6.7000000000000002
sg72
F10
sg106
F8.3000000000000007
sg69
F10
sg130
F7.5
sg309
F9.0999999999999996
sg70
F9.0999999999999996
sg310
F8.3000000000000007
sg145
F7.5
sg225
F10
sg71
F8.3000000000000007
sg568
F9.0999999999999996
sg144
F6.7000000000000002
sg136
F9.0999999999999996
sg107
F9.0999999999999996
sg74
F5.7999999999999998
sg137
F8.3000000000000007
sg138
F10
sg143
F9.0999999999999996
sg78
F9.0999999999999996
sg76
F7.5
sg234
F10
sg77
F9.0999999999999996
sg146
F6.7000000000000002
sg25
F7.5
sg75
F8.3000000000000007
sg15
F10
sg112
F10
sg79
F10
sg233
F7.5
sg163
F9.0999999999999996
sg165
F7.5
sg81
F8.3000000000000007
sg111
F9.0999999999999996
sg195
F9.0999999999999996
sg82
F9.0999999999999996
sg83
F7.5
sg176
F10
sg235
F10
sg178
F7.5
sg84
F8.3000000000000007
sg312
F7.5
sg85
F6.7000000000000002
sg89
F9.0999999999999996
sg87
F10
sg88
F7.5
sg86
F9.0999999999999996
ssg16
VIndieWire
p4464
sg18
NsbsVVariety/Joseph McBride
p4465
g3
(g4
g5
NtRp4466
(dp4467
g8
g4465
sg9
VJoseph McBride
p4468
sg11
Nsg13
(dp4469
g256
F10
ssg16
VVariety
p4470
sg18
NsbsVNew York Daily News/Jack Mathews
p4471
g3
(g4
g5
NtRp4472
(dp4473
g8
g4471
sg9
VJack Mathews
p4474
sg11
Vhttp://www.metacritic.com/critic/jack-mathews?filter=movies
p4475
sg13
(dp4476
g139
F5
sg133
F10
sg604
F8.8000000000000007
sg129
F5
sg41
F7.5
sg159
F8.8000000000000007
sg140
F10
sg152
F10
sg147
F7.5
sg43
F10
sg150
F7.5
sg42
F8.8000000000000007
sg153
F3.7999999999999998
sg155
F8.8000000000000007
sg480
F2.5
sg158
F7.5
sg162
F10
sg164
F10
sg166
F10
sg168
F8.8000000000000007
sg169
F6.2999999999999998
sg173
F7.5
sg323
F6.2999999999999998
sg180
F10
sg182
F6.2999999999999998
sg149
F7.5
sg322
F8.8000000000000007
sg286
F3.7999999999999998
sg187
F8.8000000000000007
ssg16
VNew York Daily News
p4477
sg18
NsbsVEmpire/Andrew Lowry
p4478
g3
(g4
g5
NtRp4479
(dp4480
g8
g4478
sg9
VAndrew Lowry
p4481
sg11
Vhttp://www.metacritic.com/critic/andrew-lowry?filter=movies
p4482
sg13
(dp4483
g83
F8
ssg16
VEmpire
p4484
sg18
NsbsVEmpire/Neil Jeffries
p4485
g3
(g4
g5
NtRp4486
(dp4487
g8
g4485
sg9
VNeil Jeffries
p4488
sg11
Nsg13
(dp4489
g606
F4
ssg16
VEmpire
p4490
sg18
NsbsVFilm.com/Stephanie Zacharek
p4491
g3
(g4
g5
NtRp4492
(dp4493
g8
g4491
sg9
VStephanie Zacharek
p4494
sg11
Vhttp://www.metacritic.com/critic/stephanie-zacharek?filter=movies
p4495
sg13
(dp4496
g128
F10
ssg16
VFilm.com
p4497
sg18
NsbsVThe New York Times/Dana Stevens
p4498
g3
(g4
g5
NtRp4499
(dp4500
g8
g4498
sg9
VDana Stevens
p4501
sg11
Vhttp://www.metacritic.com/critic/dana-stevens?filter=movies
p4502
sg13
(dp4503
g186
F9
sg147
F9
sg174
F9
sg135
F2
sg286
F3
sg153
F4
sg154
F8
sg159
F7
ssg16
VThe New York Times
p4504
sg18
NsbsVTNT RoughCut/Matt Kelsey
p4505
g3
(g4
g5
NtRp4506
(dp4507
g8
g4505
sg9
VMatt Kelsey
p4508
sg11
Nsg13
(dp4509
g182
F8.5
ssg16
VTNT RoughCut
p4510
sg18
NsbsVThe Dissolve/Keith Phipps
p4511
g3
(g4
g5
NtRp4512
(dp4513
g8
g4511
sg9
VKeith Phipps
p4514
sg11
Vhttp://www.metacritic.com/critic/keith-phipps?filter=movies
p4515
sg13
(dp4516
g84
F9
sg77
F9
sg82
F9
ssg16
VThe Dissolve
p4517
sg18
NsbsVCineVue/Christopher Machell
p4518
g3
(g4
g5
NtRp4519
(dp4520
g8
g4518
sg9
VChristopher Machell
p4521
sg11
Nsg13
(dp4522
g109
F10
ssg16
VCineVue
p4523
sg18
NsbsVIndieWire/David Ehrlich
p4524
g3
(g4
g5
NtRp4525
(dp4526
g8
g4524
sg9
VDavid Ehrlich
p4527
sg11
Vhttp://www.metacritic.com/critic/david-ehrlich?filter=movies
p4528
sg13
(dp4529
g50
F8.3000000000000007
sg80
F9.0999999999999996
sg534
F7.5
sg134
F7.5
sg51
F9.0999999999999996
ssg16
VIndieWire
p4530
sg18
NsbsVMovieline/Stephanie Zacharek
p4531
g3
(g4
g5
NtRp4532
(dp4533
g8
g4531
sg9
VStephanie Zacharek
p4534
sg11
Vhttp://www.metacritic.com/critic/stephanie-zacharek?filter=movies
p4535
sg13
(dp4536
g144
F7.5
sg157
F4
sg185
F9
sg138
F8.5
sg177
F8.5
ssg16
VMovieline
p4537
sg18
NsbsVNew York Post/Johnny Oleksinski
p4538
g3
(g4
g5
NtRp4539
(dp4540
g8
g4538
sg9
VJohnny Oleksinski
p4541
sg11
Vhttp://www.metacritic.com/critic/johnny-oleksinski?filter=movies
p4542
sg13
(dp4543
g71
F7.5
ssg16
VNew York Post
p4544
sg18
NsbsVIndieWire/Max O'Connell
p4545
g3
(g4
g5
NtRp4546
(dp4547
g8
g4545
sg9
VMax O'Connell
p4548
sg11
Nsg13
(dp4549
g256
F10
ssg16
VIndieWire
p4550
sg18
NsbsVThe Guardian/Brian Moylan
p4551
g3
(g4
g5
NtRp4552
(dp4553
g8
g4551
sg9
VBrian Moylan
p4554
sg11
Nsg13
(dp4555
g137
F8
ssg16
VThe Guardian
p4556
sg18
NsbsVPortland Oregonian/Diana Abu-Jaber
p4557
g3
(g4
g5
NtRp4558
(dp4559
g8
g4557
sg9
VDiana Abu-Jaber
p4560
sg11
Vhttp://www.metacritic.com/critic/diana-abu-jaber?filter=movies
p4561
sg13
(dp4562
g182
F7.5
ssg16
VPortland Oregonian
p4563
sg18
NsbsVVariety/Rob Nelson
p4564
g3
(g4
g5
NtRp4565
(dp4566
g8
g4564
sg9
VRob Nelson
p4567
sg11
Vhttp://www.metacritic.com/critic/rob-nelson?filter=movies
p4568
sg13
(dp4569
g596
F4
ssg16
VVariety
p4570
sg18
NsbsVNewsweek/Janet Maslin
p4571
g3
(g4
g5
NtRp4572
(dp4573
g8
g4571
sg9
VJanet Maslin
p4574
sg11
Nsg13
(dp4575
g256
F9
ssg16
VNewsweek
p4576
sg18
NsbsVChicago Tribune/Gene Siskel
p4577
g3
(g4
g5
NtRp4578
(dp4579
g8
g4577
sg9
VGene Siskel
p4580
sg11
Vhttp://www.metacritic.com/critic/gene-siskel?filter=movies
p4581
sg13
(dp4582
g151
F10
sg161
F10
sg609
F10
sg58
F10
ssg16
VChicago Tribune
p4583
sg18
NsbsVL.A. Weekly/Scott Foundas
p4584
g3
(g4
g5
NtRp4585
(dp4586
g8
g4584
sg9
VScott Foundas
p4587
sg11
Vhttp://www.metacritic.com/critic/scott-foundas?filter=movies
p4588
sg13
(dp4589
g139
F5
sg166
F10
sg108
F9
sg129
F8
sg43
F10
sg183
F10
sg174
F9
sg42
F5
sg155
F10
sg41
F5
sg150
F9
ssg16
VL.A. Weekly
p4590
sg18
NsbsVWall Street Journal/Julie Salamon
p4591
g3
(g4
g5
NtRp4592
(dp4593
g8
g4591
sg9
VJulie Salamon
p4594
sg11
Vhttp://www.metacritic.com/critic/julie-salamon?filter=movies
p4595
sg13
(dp4596
g605
F3
sg172
F8
sg58
F10
ssg16
VWall Street Journal
p4597
sg18
NsbsVNew York Post/Jonathan Foreman
p4598
g3
(g4
g5
NtRp4599
(dp4600
g8
g4598
sg9
VJonathan Foreman
p4601
sg11
Vhttp://www.metacritic.com/critic/jonathan-foreman?filter=movies
p4602
sg13
(dp4603
g158
F5
sg142
F7.5
sg152
F7.5
sg604
F10
sg149
F7.5
sg607
F10
sg286
F5
ssg16
VNew York Post
p4604
sg18
NsbsVWashington Post/Michael O'Sullivan
p4605
g3
(g4
g5
NtRp4606
(dp4607
g8
g4605
sg9
VMichael O'Sullivan
p4608
sg11
Vhttp://www.metacritic.com/critic/michael-osullivan?filter=movies
p4609
sg13
(dp4610
g80
F6.2999999999999998
sg142
F9
sg164
F9
sg33
F8.8000000000000007
sg596
F7.5
sg111
F6.2999999999999998
sg569
F8.8000000000000007
sg83
F8.8000000000000007
sg235
F8.8000000000000007
ssg16
VWashington Post
p4611
sg18
NsbsVThe New York Times/Vincent Canby
p4612
g3
(g4
g5
NtRp4613
(dp4614
g8
g4612
sg9
VVincent Canby
p4615
sg11
Vhttp://www.metacritic.com/critic/vincent-canby?filter=movies
p4616
sg13
(dp4617
g161
F9
sg256
F9
sg609
F10
sg608
F10
sg605
F10
ssg16
VThe New York Times
p4618
sg18
NsbsVFilm Threat/Harry Hartoonian
p4619
g3
(g4
g5
NtRp4620
(dp4621
g8
g4619
sg9
VHarry Hartoonian
p4622
sg11
Nsg13
(dp4623
g59
F2
ssg16
VFilm Threat
p4624
sg18
NsbsVBoxoffice Magazine/Sara Maria Vizcarrondo
p4625
g3
(g4
g5
NtRp4626
(dp4627
g8
g4625
sg9
VSara Maria Vizcarrondo
p4628
sg11
Vhttp://www.metacritic.com/critic/sara-maria-vizcarrondo?filter=movies
p4629
sg13
(dp4630
g131
F7
ssg16
VBoxoffice Magazine
p4631
sg18
NsbsVScreenCrush/Matt Singer
p4632
g3
(g4
g5
NtRp4633
(dp4634
g8
g4632
sg9
VMatt Singer
p4635
sg11
Vhttp://www.metacritic.com/critic/matt-singer?filter=movies
p4636
sg13
(dp4637
g156
F7
sg76
F8
sg68
F10
sg146
F8
sg69
F9
ssg16
VScreenCrush
p4638
sg18
NsbsVSan Francisco Chronicle/Judy Stone
p4639
g3
(g4
g5
NtRp4640
(dp4641
g8
g4639
sg9
VJudy Stone
p4642
sg11
Nsg13
(dp4643
g605
F7.5
sg406
F7.5
ssg16
VSan Francisco Chronicle
p4644
sg18
NsbsVThe Guardian/Ed Gibbs
p4645
g3
(g4
g5
NtRp4646
(dp4647
g8
g4645
sg9
VEd Gibbs
p4648
sg11
Nsg13
(dp4649
g181
F8
ssg16
VThe Guardian
p4650
sg18
NsbsVVariety/Guy Lodge
p4651
g3
(g4
g5
NtRp4652
(dp4653
g8
g4651
sg9
VGuy Lodge
p4654
sg11
Vhttp://www.metacritic.com/critic/guy-lodge?filter=movies
p4655
sg13
(dp4656
g233
F7
sg67
F10
sg311
F6
sg209
F8
sg50
F10
sg81
F10
sg89
F10
ssg16
VVariety
p4657
sg18
NsbsVMcClatchy-Tribune News Service/Roger Moore
p4658
g3
(g4
g5
NtRp4659
(dp4660
g8
g4658
sg9
VRoger Moore
p4661
sg11
Vhttp://www.metacritic.com/critic/roger-moore?filter=movies
p4662
sg13
(dp4663
g33
F7.5
sg72
F10
sg84
F6.2999999999999998
sg143
F8.8000000000000007
sg163
F8.8000000000000007
sg77
F8.8000000000000007
sg78
F10
sg85
F10
sg15
F10
sg82
F6.2999999999999998
ssg16
VMcClatchy-Tribune News Service
p4664
sg18
NsbsVSan Francisco Chronicle/David Lewis
p4665
g3
(g4
g5
NtRp4666
(dp4667
g8
g4665
sg9
VDavid Lewis
p4668
sg11
Nsg13
(dp4669
g569
F7.5
ssg16
VSan Francisco Chronicle
p4670
sg18
NsbsVScreen International/Dan Fainaru
p4671
g3
(g4
g5
NtRp4672
(dp4673
g8
g4671
sg9
VDan Fainaru
p4674
sg11
Vhttp://www.metacritic.com/critic/dan-fainaru?filter=movies
p4675
sg13
(dp4676
g51
F9
sg311
F5
sg83
F8
ssg16
VScreen International
p4677
sg18
NsbsVSlant Magazine/Matt Brennan
p4678
g3
(g4
g5
NtRp4679
(dp4680
g8
g4678
sg9
VMatt Brennan
p4681
sg11
Vhttp://www.metacritic.com/critic/matt-brennan?filter=movies
p4682
sg13
(dp4683
g195
F10
ssg16
VSlant Magazine
p4684
sg18
NsbsVNew York Post/V.A. Musetto
p4685
g3
(g4
g5
NtRp4686
(dp4687
g8
g4685
sg9
VV.A. Musetto
p4688
sg11
Vhttp://www.metacritic.com/critic/va-musetto?filter=movies
p4689
sg13
(dp4690
g264
F8.8000000000000007
sg309
F7.5
sg140
F8.8000000000000007
sg174
F7.5
sg322
F7.5
sg41
F5
sg186
F7.5
ssg16
VNew York Post
p4691
sg18
NsbsVSlant Magazine/Jake Cole
p4692
g3
(g4
g5
NtRp4693
(dp4694
g8
g4692
sg9
VJake Cole
p4695
sg11
Vhttp://www.metacritic.com/critic/jake-cole?filter=movies
p4696
sg13
(dp4697
g76
F7.5
sg68
F8.8000000000000007
sg112
F10
ssg16
VSlant Magazine
p4698
sg18
NsbsVEmpire/Terri White
p4699
g3
(g4
g5
NtRp4700
(dp4701
g8
g4699
sg9
VTerri White
p4702
sg11
Nsg13
(dp4703
g68
F10
ssg16
VEmpire
p4704
sg18
Nsbs.