(dp1
VThe Playlist/Nick Schager
p2
ccopy_reg
_reconstructor
p3
(ccritic
Critic
p4
c__builtin__
object
p5
NtRp6
(dp7
S'ident'
p8
g2
sS'name'
p9
VNick Schager
p10
sS'url'
p11
S'http://www.metacritic.com/critic/nick-schager?filter=movies'
p12
sS'reviews'
p13
(dp14
S'sand-storm'
p15
F7.5
ssS'source'
p16
VThe Playlist
p17
sS'correlation'
p18
NsbsVThe New York Times/Nicolas Rapold
p19
g3
(g4
g5
NtRp20
(dp21
g8
g19
sg9
VNicolas Rapold
p22
sg11
S'http://www.metacritic.com/critic/nicolas-rapold?filter=movies'
p23
sg13
(dp24
S'the-tale-of-the-princess-kaguya'
p25
F8
ssg16
VThe New York Times
p26
sg18
NsbsVEmpire/Alan Morrison
p27
g3
(g4
g5
NtRp28
(dp29
g8
g27
sg9
VAlan Morrison
p30
sg11
S'http://www.metacritic.com/critic/alan-morrison?filter=movies'
p31
sg13
(dp32
S'the-lord-of-the-rings-the-return-of-the-king'
p33
F10
sS'the-lives-of-others'
p34
F10
sS'paris-je-taime'
p35
F8
ssg16
VEmpire
p36
sg18
NsbsVSan Francisco Examiner/Walter Addiego
p37
g3
(g4
g5
NtRp38
(dp39
g8
g37
sg9
VWalter Addiego
p40
sg11
S'http://www.metacritic.com/critic/walter-addiego?filter=movies'
p41
sg13
(dp42
S'chungking-express'
p43
F8.8000000000000007
ssg16
VSan Francisco Examiner
p44
sg18
NsbsVThe New Yorker/Terrence Rafferty
p45
g3
(g4
g5
NtRp46
(dp47
g8
g45
sg9
VTerrence Rafferty
p48
sg11
S'http://www.metacritic.com/critic?filter=movies'
p49
sg13
(dp50
S'schindlers-list'
p51
F10
sS'anaconda'
p52
F3
ssg16
VThe New Yorker
p53
sg18
NsbsVThe Telegraph/Robbie Collin
p54
g3
(g4
g5
NtRp55
(dp56
g8
g54
sg9
VRobbie Collin
p57
sg11
S'http://www.metacritic.com/critic/robbie-collin?filter=movies'
p58
sg13
(dp59
S'after-the-storm-2016'
p60
F8
sS'winter-sleep'
p61
F8
sS'the-nice-guys'
p62
F8
sg25
F10
sS'inside-out-2015'
p63
F10
sS'gravity'
p64
F10
sS'birdman-or-the-unexpected-virtue-of-ignorance'
p65
F10
sS'nebraska'
p66
F8
sS'anomalisa'
p67
F10
sS'a-pigeon-sat-on-a-branch-reflecting-on-existence'
p68
F10
sS'about-elly-2009'
p69
F8
sS'spotlight'
p70
F8
sS'the-lobster'
p71
F8
sS'inside-llewyn-davis'
p72
F10
ssg16
VThe Telegraph
p73
sg18
NsbsVEmpire/James White
p74
g3
(g4
g5
NtRp75
(dp76
g8
g74
sg9
VJames White
p77
sg11
S'http://www.metacritic.com/critic/james-white?filter=movies'
p78
sg13
(dp79
g62
F8
ssg16
VEmpire
p80
sg18
NsbsVThe Globe and Mail (Toronto)/Kate Taylor
p81
g3
(g4
g5
NtRp82
(dp83
g8
g81
sg9
VKate Taylor
p84
sg11
S'http://www.metacritic.com/critic/kate-taylor?filter=movies'
p85
sg13
(dp86
S'the-salesman'
p87
F10
sS'manchester-by-the-sea'
p88
F10
sS'up'
p89
F7.5
sS'rams'
p90
F7.5
sS'son-of-saul'
p91
F10
sg71
F7.5
ssg16
VThe Globe and Mail (Toronto)
p92
sg18
NsbsVL.A. Weekly/F. X. Feeney
p93
g3
(g4
g5
NtRp94
(dp95
g8
g93
sg9
VF. X. Feeney
p96
sg11
S'http://www.metacritic.com/critic/f-x-feeney?filter=movies'
p97
sg13
(dp98
S'magnolia'
p99
F10
ssg16
VL.A. Weekly
p100
sg18
NsbsVReelViews/James Berardinelli
p101
g3
(g4
g5
NtRp102
(dp103
g8
g101
sg9
VJames Berardinelli
p104
sg11
S'http://www.metacritic.com/critic/james-berardinelli?filter=movies'
p105
sg13
(dp106
g88
F8.8000000000000007
sS'zero-dark-thirty'
p107
F8.8000000000000007
sS'inglourious-basterds'
p108
F10
sS'ghost-rider'
p109
F5
sg72
F7.5
sS'the-master'
p110
F7.5
sS'dr-strangelove-or-how-i-learned-to-stop-worrying-and-love-the-bomb'
p111
F10
sS'pans-labyrinth'
p112
F8.8000000000000007
sg64
F10
sS'american-wedding'
p113
F6.2999999999999998
sS'crazy-stupid-love'
p114
F7.5
sg52
F5
sS'2-fast-2-furious'
p115
F1.2
sS'amour'
p116
F8.8000000000000007
sg91
F8.8000000000000007
sS'sicario'
p117
F8.8000000000000007
sS'a-separation'
p118
F8.8000000000000007
sS'ray'
p119
F5
sS'4-months-3-weeks-and-2-days'
p120
F8.8000000000000007
sS'the-hangover'
p121
F7.5
sS'her'
p122
F8.8000000000000007
sg65
F7.5
sS'a-very-long-engagement'
p123
F7.5
sg62
F7.5
sS'the-hobbit-an-unexpected-journey'
p124
F7.5
sS'the-lord-of-the-rings-the-two-towers'
p125
F10
sS'capote'
p126
F8.8000000000000007
sS'2001-a-space-odyssey'
p127
F10
sS'12-years-a-slave'
p128
F8.8000000000000007
sS'children-of-men'
p129
F7.5
sS'wall-e'
p130
F8.8000000000000007
sg33
F10
sg34
F8.8000000000000007
sS'the-dukes-of-hazzard'
p131
F1.2
sS'borat-cultural-learnings-of-america-for-make-benefit-glorious-nation-of-kazakhstan'
p132
F7.5
sS'sully'
p133
F7.5
sS'the-hangover-part-ii'
p134
F7.5
sS'eyes-wide-shut'
p135
F8.8000000000000007
sS'the-dark-knight'
p136
F10
sS'a-clockwork-orange'
p137
F10
sS'sideways'
p138
F8.8000000000000007
sS'the-grand-budapest-hotel'
p139
F7.5
sS'midnight-in-paris'
p140
F7.5
sS'the-dark-knight-rises'
p141
F8.8000000000000007
sS'superman-returns'
p142
F8.8000000000000007
sS'no-country-for-old-men'
p143
F8.8000000000000007
sS'into-the-wild'
p144
F8.8000000000000007
sS'fargo'
p145
F7.5
sS'brooklyn'
p146
F8.8000000000000007
sg63
F8.8000000000000007
sS'captain-fantastic'
p147
F7.5
sS'spring-summer-fall-winter-and-spring'
p148
F8.8000000000000007
sS'inception'
p149
F8.8000000000000007
sS'carol'
p150
F8.8000000000000007
sS'django-unchained'
p151
F8.8000000000000007
sS'blue-valentine'
p152
F8.8000000000000007
sS'lincoln'
p153
F8.8000000000000007
sg43
F8.8000000000000007
sS'rocknrolla'
p154
F5
sS'ratatouille'
p155
F7.5
sg51
F10
sS'me-and-earl-and-the-dying-girl'
p156
F8.8000000000000007
sS'batman-begins'
p157
F8.8000000000000007
sg89
F7.5
sS'the-pianist'
p158
F8.8000000000000007
sS'the-sixth-sense'
p159
F3.7999999999999998
sg66
F8.8000000000000007
sS'the-social-network'
p160
F8.8000000000000007
sS'avatar'
p161
F10
sS'brokeback-mountain'
p162
F7.5
sS'eternal-sunshine-of-the-spotless-mind'
p163
F8.8000000000000007
sS'there-will-be-blood'
p164
F7.5
sg70
F8.8000000000000007
sg67
F7.5
sS'lost-in-translation'
p165
F10
ssg16
VReelViews
p166
sg18
NsbsVRogerEbert.com/Susan Wloszczyna
p167
g3
(g4
g5
NtRp168
(dp169
g8
g167
sg9
VSusan Wloszczyna
p170
sg11
S'http://www.metacritic.com/critic/susan-wloszczyna?filter=movies'
p171
sg13
(dp172
g133
F7.5
sg128
F8.8000000000000007
sS'45-years'
p173
F10
ssg16
VRogerEbert.com
p174
sg18
NsbsVAustin Chronicle/Josh Rosenblatt
p175
g3
(g4
g5
NtRp176
(dp177
g8
g175
sg9
VJosh Rosenblatt
p178
sg11
S'http://www.metacritic.com/critic?filter=movies'
p179
sg13
(dp180
g144
F6.7000000000000002
sg120
F7.7999999999999998
sg34
F8.9000000000000004
sg154
F6.7000000000000002
ssg16
VAustin Chronicle
p181
sg18
NsbsVNew York Daily News/Dave Kehr
p182
g3
(g4
g5
NtRp183
(dp184
g8
g182
sg9
VDave Kehr
p185
sg11
S'http://www.metacritic.com/critic/dave-kehr?filter=movies'
p186
sg13
(dp187
g43
F9
ssg16
VNew York Daily News
p188
sg18
NsbsVThe Playlist/Todd Gilchrist
p189
g3
(g4
g5
NtRp190
(dp191
g8
g189
sg9
VTodd Gilchrist
p192
sg11
S'http://www.metacritic.com/critic/todd-gilchrist?filter=movies'
p193
sg13
(dp194
g141
F10
ssg16
VThe Playlist
p195
sg18
NsbsVVillage Voice/Michael Atkinson
p196
g3
(g4
g5
NtRp197
(dp198
g8
g196
sg9
VMichael Atkinson
p199
sg11
S'http://www.metacritic.com/critic/michael-atkinson?filter=movies'
p200
sg13
(dp201
S'brazil'
p202
F10
sg159
F5
sg157
F6
sg137
F8
sg111
F10
sS'the-academy-of-muses'
p203
F9
sg148
F8
sg119
F5
ssg16
VVillage Voice
p204
sg18
NsbsVSlant Magazine/Chuck Bowen
p205
g3
(g4
g5
NtRp206
(dp207
g8
g205
sg9
VChuck Bowen
p208
sg11
S'http://www.metacritic.com/critic/chuck-bowen?filter=movies'
p209
sg13
(dp210
g87
F10
sS'leviathan-2014'
p211
F8.8000000000000007
sS'victoria'
p212
F5
sg90
F7.5
sS'wild-tales'
p213
F7.5
sg69
F8.8000000000000007
sg67
F7.5
ssg16
VSlant Magazine
p214
sg18
NsbsVThe Dissolve/Tasha Robinson
p215
g3
(g4
g5
NtRp216
(dp217
g8
g215
sg9
VTasha Robinson
p218
sg11
S'http://www.metacritic.com/critic/tasha-robinson?filter=movies'
p219
sg13
(dp220
g63
F10
sg213
F7
ssg16
VThe Dissolve
p221
sg18
NsbsVThe Film Stage/Christopher Schobert
p222
g3
(g4
g5
NtRp223
(dp224
g8
g222
sg9
VChristopher Schobert
p225
sg11
S'http://www.metacritic.com/critic/christopher-schobert?filter=movies'
p226
sg13
(dp227
g128
F10
ssg16
VThe Film Stage
p228
sg18
NsbsVWe Got This Covered/ Darren Ruecker
p229
g3
(g4
g5
NtRp230
(dp231
g8
g229
sg9
V Darren Ruecker
p232
sg11
S'http://www.metacritic.com/critic/darren-ruecker?filter=movies'
p233
sg13
(dp234
g88
F10
ssg16
VWe Got This Covered
p235
sg18
NsbsVNew York Post/Megan Lehmann
p236
g3
(g4
g5
NtRp237
(dp238
g8
g236
sg9
VMegan Lehmann
p239
sg11
S'http://www.metacritic.com/critic/megan-lehmann?filter=movies'
p240
sg13
(dp241
g138
F10
ssg16
VNew York Post
p242
sg18
NsbsVTV Guide Magazine/Frank Lovece
p243
g3
(g4
g5
NtRp244
(dp245
g8
g243
sg9
VFrank Lovece
p246
sg11
S'http://www.metacritic.com/critic/frank-lovece?filter=movies'
p247
sg13
(dp248
g145
F6
sS'the-wedding-planner'
p249
F2
sS'waking-life'
p250
F4
ssg16
VTV Guide Magazine
p251
sg18
NsbsVDallas Observer/Gregory Weinkauf
p252
g3
(g4
g5
NtRp253
(dp254
g8
g252
sg9
VGregory Weinkauf
p255
sg11
S'http://www.metacritic.com/critic/gregory-weinkauf?filter=movies'
p256
sg13
(dp257
g111
F10
sg33
F10
sg165
F4
sg125
F9
ssg16
VDallas Observer
p258
sg18
NsbsVVariety/Charles Gant
p259
g3
(g4
g5
NtRp260
(dp261
g8
g259
sg9
VCharles Gant
p262
sg11
S'http://www.metacritic.com/critic/charles-gant?filter=movies'
p263
sg13
(dp264
g173
F8
ssg16
VVariety
p265
sg18
NsbsVThe Guardian/Peter Bradshaw
p266
g3
(g4
g5
NtRp267
(dp268
g8
g266
sg9
VPeter Bradshaw
p269
sg11
S'http://www.metacritic.com/critic/peter-bradshaw?filter=movies'
p270
sg13
(dp271
g151
F10
sS'once-upon-a-time-in-anatolia'
p272
F10
sS'mommy'
p273
F8
sg116
F10
sg69
F8
sg117
F8
sg122
F6
sg62
F8
sg211
F10
sg124
F6
sg91
F10
sS'sweet-bean'
p274
F4
sg146
F8
sg63
F8
sg173
F10
sg72
F10
sg150
F10
sg87
F6
sS'beyond-the-hills'
p275
F8
sS'graduation'
p276
F10
sg66
F8
sg70
F6
sg71
F6
sS'ida'
p277
F8
ssg16
VThe Guardian
p278
sg18
NsbsVPortland Oregonian/Shawn Levy
p279
g3
(g4
g5
NtRp280
(dp281
g8
g279
sg9
VShawn Levy
p282
sg11
S'http://www.metacritic.com/critic/shawn-levy?filter=movies'
p283
sg13
(dp284
g272
F8.3000000000000007
sg110
F8.3000000000000007
sg112
F10
sg114
F5.7999999999999998
sg118
F9.0999999999999996
sg119
F8.3000000000000007
sS'american-beauty'
p285
F8.3000000000000007
sg163
F9.0999999999999996
sg99
F8.3000000000000007
sg125
F9.0999999999999996
sg126
F10
sg33
F10
sg129
F7.5
sg130
F8.3000000000000007
sg121
F7.5
sg34
F10
sg131
F5
sg132
F8.3000000000000007
sg134
F6.7000000000000002
sg108
F7.5
sg136
F8.3000000000000007
sg138
F9.0999999999999996
sg140
F8.3000000000000007
sg141
F7.5
sg142
F5.7999999999999998
sg143
F9.0999999999999996
sg144
F8.3000000000000007
sS'persepolis'
p286
F8.3000000000000007
sg123
F9.0999999999999996
sg149
F10
sS'amelie'
p287
F8.3000000000000007
sg250
F10
sg155
F9.0999999999999996
sg157
F9.0999999999999996
sg89
F8.3000000000000007
sg120
F8.3000000000000007
sg160
F10
sg161
F8.3000000000000007
sg162
F9.0999999999999996
sg164
F9.0999999999999996
sg158
F9.0999999999999996
sg165
F10
ssg16
VPortland Oregonian
p288
sg18
NsbsVVillage Voice/David Ng
p289
g3
(g4
g5
NtRp290
(dp291
g8
g289
sg9
VDavid Ng
p292
sg11
S'http://www.metacritic.com/critic?filter=movies'
p293
sg13
(dp294
g113
F5
ssg16
VVillage Voice
p295
sg18
NsbsVSeattle Post-Intelligencer/William Arnold
p296
g3
(g4
g5
NtRp297
(dp298
g8
g296
sg9
VWilliam Arnold
p299
sg11
S'http://www.metacritic.com/critic/william-arnold?filter=movies'
p300
sg13
(dp301
g115
F2.5
sg119
F10
sg285
F10
sg99
F8.3000000000000007
sg125
F10
sg126
F8.3000000000000007
sg33
F10
sg132
F5
sg131
F5.7999999999999998
sg129
F6.7000000000000002
sg164
F10
sS'gone-in-sixty-seconds'
p302
F4.2000000000000002
sg135
F7.5
sg138
F8.3000000000000007
sg163
F7.5
sg142
F9.0999999999999996
sg144
F10
sg123
F7.5
sg287
F10
sS'the-lord-of-the-rings-the-fellowship-of-the-ring'
p303
F9.0999999999999996
sg154
F5.7999999999999998
sg157
F9.0999999999999996
sg159
F10
sg162
F9.0999999999999996
sg249
F4.2000000000000002
sg158
F6.7000000000000002
ssg16
VSeattle Post-Intelligencer
p304
sg18
NsbsVTheWrap/Tricia Olszewski
p305
g3
(g4
g5
NtRp306
(dp307
g8
g305
sg9
VTricia Olszewski
p308
sg11
S'http://www.metacritic.com/critic/tricia-olszewski?filter=movies'
p309
sg13
(dp310
g60
F10
ssg16
VTheWrap
p311
sg18
NsbsVVariety/Emanuel Levy
p312
g3
(g4
g5
NtRp313
(dp314
g8
g312
sg9
VEmanuel Levy
p315
sg11
S'http://www.metacritic.com/critic/emanuel-levy?filter=movies'
p316
sg13
(dp317
g99
F7
ssg16
VVariety
p318
sg18
NsbsVNPR/Bob Mondello
p319
g3
(g4
g5
NtRp320
(dp321
g8
g319
sg9
VBob Mondello
p322
sg11
S'http://www.metacritic.com/critic/bob-mondello?filter=movies'
p323
sg13
(dp324
g107
F9.5
sg64
F9
sg136
F9.5
sg114
F7
sg141
F8.5
sg156
F8
sg211
F9
sg124
F7.5
sg91
F10
sg65
F9
sg66
F9.5
sg128
F10
sg71
F9
sg130
F9
sg160
F10
sg69
F9
sS'the-salt-of-the-earth'
p325
F9
sg118
F10
ssg16
VNPR
p326
sg18
NsbsVSalon.com/Laura Miller
p327
g3
(g4
g5
NtRp328
(dp329
g8
g327
sg9
VLaura Miller
p330
sg11
S'http://www.metacritic.com/critic?filter=movies'
p331
sg13
(dp332
g145
F5
ssg16
VSalon.com
p333
sg18
NsbsVPremiere/Stephen Saito
p334
g3
(g4
g5
NtRp335
(dp336
g8
g334
sg9
VStephen Saito
p337
sg11
S'http://www.metacritic.com/critic?filter=movies'
p338
sg13
(dp339
g129
F8.8000000000000007
ssg16
VPremiere
p340
sg18
NsbsVSlant Magazine/Clayton Dillard
p341
g3
(g4
g5
NtRp342
(dp343
g8
g341
sg9
VClayton Dillard
p344
sg11
S'http://www.metacritic.com/critic/clayton-dillard?filter=movies'
p345
sg13
(dp346
g15
F6.2999999999999998
sg325
F7.5
ssg16
VSlant Magazine
p347
sg18
NsbsVL.A. Weekly/John Powers
p348
g3
(g4
g5
NtRp349
(dp350
g8
g348
sg9
VJohn Powers
p351
sg11
S'http://www.metacritic.com/critic/john-powers?filter=movies'
p352
sg13
(dp353
g163
F7
ssg16
VL.A. Weekly
p354
sg18
NsbsVNPR/Stephanie Zacharek
p355
g3
(g4
g5
NtRp356
(dp357
g8
g355
sg9
VStephanie Zacharek
p358
sg11
S'http://www.metacritic.com/critic?filter=movies'
p359
sg13
(dp360
g151
F9
ssg16
VNPR
p361
sg18
NsbsVNew York Magazine (Vulture)/Bilge Ebiri
p362
g3
(g4
g5
NtRp363
(dp364
g8
g362
sg9
VBilge Ebiri
p365
sg11
S'http://www.metacritic.com/critic/bilge-ebiri?filter=movies'
p366
sg13
(dp367
g25
F10
sg88
F10
sg61
F7
sg211
F8
sg15
F9
sg325
F8
ssg16
VNew York Magazine (Vulture)
p368
sg18
NsbsVScreen International/Wendy Ide
p369
g3
(g4
g5
NtRp370
(dp371
g8
g369
sg9
VWendy Ide
p372
sg11
S'http://www.metacritic.com/critic/wendy-ide?filter=movies'
p373
sg13
(dp374
g60
F8
ssg16
VScreen International
p375
sg18
NsbsVVillage Voice/Peter L'Official
p376
g3
(g4
g5
NtRp377
(dp378
g8
g376
sg9
VPeter L'Official
p379
sg11
S'http://www.metacritic.com/critic?filter=movies'
p380
sg13
(dp381
g131
F3
ssg16
VVillage Voice
p382
sg18
NsbsVThe Globe and Mail (Toronto)/Simon Houpt
p383
g3
(g4
g5
NtRp384
(dp385
g8
g383
sg9
VSimon Houpt
p386
sg11
S'http://www.metacritic.com/critic?filter=movies'
p387
sg13
(dp388
g133
F6.2999999999999998
ssg16
VThe Globe and Mail (Toronto)
p389
sg18
NsbsVConsequence of Sound/None
p390
g3
(g4
g5
NtRp391
(dp392
g8
g390
sg9
Nsg11
Nsg13
(dp393
g88
F10
ssg16
VConsequence of Sound
p394
sg18
NsbsVMovieline/Michelle Orange
p395
g3
(g4
g5
NtRp396
(dp397
g8
g395
sg9
VMichelle Orange
p398
sg11
S'http://www.metacritic.com/critic/michelle-orange?filter=movies'
p399
sg13
(dp400
g272
F8.5
sg141
F7.5
ssg16
VMovieline
p401
sg18
NsbsVSlant Magazine/Keith Watson
p402
g3
(g4
g5
NtRp403
(dp404
g8
g402
sg9
VKeith Watson
p405
sg11
S'http://www.metacritic.com/critic/keith-watson?filter=movies'
p406
sg13
(dp407
g147
F2.5
ssg16
VSlant Magazine
p408
sg18
NsbsVThe Guardian/Katey Rich
p409
g3
(g4
g5
NtRp410
(dp411
g8
g409
sg9
VKatey Rich
p412
sg11
S'http://www.metacritic.com/critic?filter=movies'
p413
sg13
(dp414
g107
F10
sg153
F8
ssg16
VThe Guardian
p415
sg18
NsbsVSlate/Michael Agger
p416
g3
(g4
g5
NtRp417
(dp418
g8
g416
sg9
VMichael Agger
p419
sg11
S'http://www.metacritic.com/critic?filter=movies'
p420
sg13
(dp421
g115
F3
ssg16
VSlate
p422
sg18
NsbsVThe New York Times/Glenn Kenny
p423
g3
(g4
g5
NtRp424
(dp425
g8
g423
sg9
VGlenn Kenny
p426
sg11
S'http://www.metacritic.com/critic/glenn-kenny?filter=movies'
p427
sg13
(dp428
g60
F9
sS'april-and-the-extraordinary-world'
p429
F10
sg274
F9
ssg16
VThe New York Times
p430
sg18
NsbsVMiami Herald/Charles Savage
p431
g3
(g4
g5
NtRp432
(dp433
g8
g431
sg9
VCharles Savage
p434
sg11
S'http://www.metacritic.com/critic/charles-savage?filter=movies'
p435
sg13
(dp436
g302
F5
ssg16
VMiami Herald
p437
sg18
NsbsVEmpire/Mark Dinning
p438
g3
(g4
g5
NtRp439
(dp440
g8
g438
sg9
VMark Dinning
p441
sg11
S'http://www.metacritic.com/critic?filter=movies'
p442
sg13
(dp443
g136
F10
ssg16
VEmpire
p444
sg18
NsbsVL.A. Weekly/David Chute
p445
g3
(g4
g5
NtRp446
(dp447
g8
g445
sg9
VDavid Chute
p448
sg11
S'http://www.metacritic.com/critic/david-chute?filter=movies'
p449
sg13
(dp450
g115
F6
ssg16
VL.A. Weekly
p451
sg18
NsbsVVariety/Andrew Barker
p452
g3
(g4
g5
NtRp453
(dp454
g8
g452
sg9
VAndrew Barker
p455
sg11
S'http://www.metacritic.com/critic?filter=movies'
p456
sg13
(dp457
g134
F5
ssg16
VVariety
p458
sg18
NsbsVChicago Reader/J.R. Jones
p459
g3
(g4
g5
NtRp460
(dp461
g8
g459
sg9
VJ.R. Jones
p462
sg11
S'http://www.metacritic.com/critic/jr-jones?filter=movies'
p463
sg13
(dp464
g134
F7
sg108
F7
sg109
F5
sg136
F8
sg149
F5
sg115
F4
sg157
F5
sg141
F3
sg142
F6
sg161
F10
sg125
F9
sg120
F10
sg113
F5
sg160
F10
sg132
F10
sg148
F8
sg286
F10
sg121
F9
sg140
F8
sg118
F10
sg152
F8
ssg16
VChicago Reader
p465
sg18
NsbsVDallas Observer/Luke Y. Thompson
p466
g3
(g4
g5
NtRp467
(dp468
g8
g466
sg9
VLuke Y. Thompson
p469
sg11
S'http://www.metacritic.com/critic/luke-y-thompson?filter=movies'
p470
sg13
(dp471
g113
F5
sg249
F2
ssg16
VDallas Observer
p472
sg18
NsbsVArizona Republic/Barbara VanDenburgh
p473
g3
(g4
g5
NtRp474
(dp475
g8
g473
sg9
VBarbara VanDenburgh
p476
sg11
S'http://www.metacritic.com/critic/barbara-vandenburgh?filter=movies'
p477
sg13
(dp478
S'dheepan'
p479
F7
ssg16
VArizona Republic
p480
sg18
NsbsVTheWrap/Ben Croll
p481
g3
(g4
g5
NtRp482
(dp483
g8
g481
sg9
VBen Croll
p484
sg11
S'http://www.metacritic.com/critic/ben-croll?filter=movies'
p485
sg13
(dp486
g87
F8
ssg16
VTheWrap
p487
sg18
NsbsVL.A. Weekly/Ernest Hardy
p488
g3
(g4
g5
NtRp489
(dp490
g8
g488
sg9
VErnest Hardy
p491
sg11
S'http://www.metacritic.com/critic/ernest-hardy?filter=movies'
p492
sg13
(dp493
g52
F3
ssg16
VL.A. Weekly
p494
sg18
NsbsVScreen International/Allan Hunter
p495
g3
(g4
g5
NtRp496
(dp497
g8
g495
sg9
VAllan Hunter
p498
sg11
S'http://www.metacritic.com/critic/allan-hunter?filter=movies'
p499
sg13
(dp500
g87
F8
sg479
F9
sg90
F8
ssg16
VScreen International
p501
sg18
NsbsVRogerEbert.com/Christy Lemire
p502
g3
(g4
g5
NtRp503
(dp504
g8
g502
sg9
VChristy Lemire
p505
sg11
S'http://www.metacritic.com/critic?filter=movies'
p506
sg13
(dp507
g65
F10
sg66
F8.8000000000000007
sg91
F8.8000000000000007
ssg16
VRogerEbert.com
p508
sg18
NsbsVWashington Post/Phillip Kennicott
p509
g3
(g4
g5
NtRp510
(dp511
g8
g509
sg9
VPhillip Kennicott
p512
sg11
S'http://www.metacritic.com/critic?filter=movies'
p513
sg13
(dp514
g148
F6
ssg16
VWashington Post
p515
sg18
NsbsVThe Guardian/Jordan Hoffman
p516
g3
(g4
g5
NtRp517
(dp518
g8
g516
sg9
VJordan Hoffman
p519
sg11
S'http://www.metacritic.com/critic/jordan-hoffman?filter=movies'
p520
sg13
(dp521
S'the-end-of-the-tour'
p522
F8
ssg16
VThe Guardian
p523
sg18
NsbsVTotal Film/Rosie Fletcher
p524
g3
(g4
g5
NtRp525
(dp526
g8
g524
sg9
VRosie Fletcher
p527
sg11
S'http://www.metacritic.com/critic?filter=movies'
p528
sg13
(dp529
S'what-we-do-in-the-shadows'
p530
F8
ssg16
VTotal Film
p531
sg18
NsbsVChicago Sun-Times/Roger Ebert
p532
g3
(g4
g5
NtRp533
(dp534
g8
g532
sg9
VRoger Ebert
p535
sg11
S'http://www.metacritic.com/critic/roger-ebert?filter=movies'
p536
sg13
(dp537
S'the-return-2004'
p538
F7.5
sg107
F7.5
sg108
F10
sg151
F10
sg272
F8.8000000000000007
sg110
F6.2999999999999998
sg111
F10
sg112
F10
sS'in-the-mood-for-love'
p539
F7.5
sg113
F7.5
sg114
F7.5
sg116
F10
sg115
F7.5
sS'full-metal-jacket'
p540
F6.2999999999999998
sg118
F10
sg119
F10
sg202
F5
sg120
F10
sg145
F10
sg163
F8.8000000000000007
sg99
F10
sg125
F7.5
sg126
F10
sg127
F10
sg33
F8.8000000000000007
sg129
F10
sS'gosford-park'
p541
F10
sg130
F8.8000000000000007
sg121
F8.8000000000000007
sg34
F10
sg131
F2.5
sg132
F10
sg302
F5
sg134
F5
sg135
F8.8000000000000007
sg136
F10
sg137
F5
sg138
F10
sg140
F8.8000000000000007
sg141
F7.5
sg142
F5
sg143
F10
sg144
F10
sg162
F10
sg123
F8.8000000000000007
sg149
F10
sg287
F8.8000000000000007
sS'crimes-and-misdemeanors'
p542
F10
sg152
F8.8000000000000007
sg285
F10
sg153
F10
sg250
F10
sg43
F7.5
sg154
F7.5
sg155
F10
sg51
F10
sg157
F10
sg89
F10
sg159
F7.5
sg160
F10
sg161
F10
sg286
F10
sg249
F5
sg164
F8.8000000000000007
sg52
F8.8000000000000007
sg158
F8.8000000000000007
sg303
F7.5
sg165
F10
ssg16
VChicago Sun-Times
p543
sg18
NsbsVPremiere/Eric Kohn
p544
g3
(g4
g5
NtRp545
(dp546
g8
g544
sg9
VEric Kohn
p547
sg11
S'http://www.metacritic.com/critic?filter=movies'
p548
sg13
(dp549
g136
F7.5
ssg16
VPremiere
p550
sg18
NsbsVFilm.com/Kate Erbland
p551
g3
(g4
g5
NtRp552
(dp553
g8
g551
sg9
VKate Erbland
p554
sg11
S'http://www.metacritic.com/critic?filter=movies'
p555
sg13
(dp556
g139
F8.1999999999999993
ssg16
VFilm.com
p557
sg18
NsbsVEmpire/Kim Newman
p558
g3
(g4
g5
NtRp559
(dp560
g8
g558
sg9
VKim Newman
p561
sg11
S'http://www.metacritic.com/critic/kim-newman?filter=movies'
p562
sg13
(dp563
g107
F10
sg137
F10
sg51
F10
sg157
F8
sg112
F10
sg126
F10
ssg16
VEmpire
p564
sg18
NsbsVNew York Post/Farran Smith Nehme
p565
g3
(g4
g5
NtRp566
(dp567
g8
g565
sg9
VFarran Smith Nehme
p568
sg11
S'http://www.metacritic.com/critic/farran-smith-nehme?filter=movies'
p569
sg13
(dp570
g479
F7.5
sg275
F8.8000000000000007
sg61
F7.5
sg273
F6.2999999999999998
sg211
F10
sg91
F6.2999999999999998
sg212
F6.2999999999999998
sg90
F8.8000000000000007
sg173
F8.8000000000000007
sS'gett-the-trial-of-viviane-amsalem'
p571
F8.8000000000000007
sg68
F7.5
sg116
F10
sg69
F10
sg213
F7.5
sg277
F8.8000000000000007
ssg16
VNew York Post
p572
sg18
NsbsVTotal Film/James Mottram
p573
g3
(g4
g5
NtRp574
(dp575
g8
g573
sg9
VJames Mottram
p576
sg11
S'http://www.metacritic.com/critic/james-mottram?filter=movies'
p577
sg13
(dp578
g61
F8
sg62
F8
sg64
F10
sg68
F6
ssg16
VTotal Film
p579
sg18
NsbsVBoxoffice Magazine/James Rocchi
p580
g3
(g4
g5
NtRp581
(dp582
g8
g580
sg9
VJames Rocchi
p583
sg11
S'http://www.metacritic.com/critic?filter=movies'
p584
sg13
(dp585
g107
F9
sg116
F8
sg124
F4
sg151
F10
ssg16
VBoxoffice Magazine
p586
sg18
NsbsVEmpire/Rob Fraser
p587
g3
(g4
g5
NtRp588
(dp589
g8
g587
sg9
VRob Fraser
p590
sg11
S'http://www.metacritic.com/critic?filter=movies'
p591
sg13
(dp592
g165
F10
ssg16
VEmpire
p593
sg18
NsbsVMr. Showbiz/Larry Terenzi
p594
g3
(g4
g5
NtRp595
(dp596
g8
g594
sg9
VLarry Terenzi
p597
sg11
S'http://www.metacritic.com/critic/larry-terenzi?filter=movies'
p598
sg13
(dp599
g302
F6
ssg16
VMr. Showbiz
p600
sg18
NsbsVVariety/Joe Leydon
p601
g3
(g4
g5
NtRp602
(dp603
g8
g601
sg9
VJoe Leydon
p604
sg11
S'http://www.metacritic.com/critic/joe-leydon?filter=movies'
p605
sg13
(dp606
g121
F9
sg154
F8
sg52
F5
ssg16
VVariety
p607
sg18
NsbsVVariety/Robert Koehler
p608
g3
(g4
g5
NtRp609
(dp610
g8
g608
sg9
VRobert Koehler
p611
sg11
S'http://www.metacritic.com/critic/robert-koehler?filter=movies'
p612
sg13
(dp613
g113
F8
sg249
F3
sg109
F2
ssg16
VVariety
p614
sg18
NsbsVNew York Daily News/Elizabeth Weitzman
p615
g3
(g4
g5
NtRp616
(dp617
g8
g615
sg9
VElizabeth Weitzman
p618
sg11
S'http://www.metacritic.com/critic/elizabeth-weitzman?filter=movies'
p619
sg13
(dp620
g134
F4
sg108
F8
sg154
F5
sg122
F10
sg124
F6
sg89
F8
sg65
F8
sg114
F6
sg72
F10
sg148
F7.5
sg149
F10
ssg16
VNew York Daily News
p621
sg18
NsbsVThe New Yorker/Anthony Lane
p622
g3
(g4
g5
NtRp623
(dp624
g8
g622
sg9
VAnthony Lane
p625
sg11
S'http://www.metacritic.com/critic/anthony-lane?filter=movies'
p626
sg13
(dp627
g538
F9
sg151
F5
sg88
F9
sg110
F9
sg112
F9
sg116
F9
sg69
F8
sg117
F8
sg118
F9
sg122
F9
sg62
F7
sg211
F8
sg124
F6
sg530
F7
sg125
F9
sg65
F9
sg33
F8
sg129
F8
sg34
F10
sg132
F8
sg163
F8
sg141
F7
sg142
F5
sg143
F7
sg286
F7
sg63
F9
sg72
F8
sg153
F7
sg150
F9
sg287
F4
sg152
F8
sg87
F8
sg154
F5
sg275
F8
sg91
F9
sg522
F7
sg120
F8
sg67
F8
sg162
F9
sg70
F9
sg71
F7
ssg16
VThe New Yorker
p628
sg18
NsbsVNPR/Ella Taylor
p629
g3
(g4
g5
NtRp630
(dp631
g8
g629
sg9
VElla Taylor
p632
sg11
S'http://www.metacritic.com/critic/ella-taylor?filter=movies'
p633
sg13
(dp634
g116
F9
sg110
F9.5
sg140
F7.5
ssg16
VNPR
p635
sg18
NsbsVFilm.com/William Goss
p636
g3
(g4
g5
NtRp637
(dp638
g8
g636
sg9
VWilliam Goss
p639
sg11
S'http://www.metacritic.com/critic/william-goss?filter=movies'
p640
sg13
(dp641
g128
F8.5999999999999996
sg64
F9.4000000000000004
ssg16
VFilm.com
p642
sg18
NsbsVAustin Chronicle/Josh Kupecki
p643
g3
(g4
g5
NtRp644
(dp645
g8
g643
sg9
VJosh Kupecki
p646
sg11
S'http://www.metacritic.com/critic?filter=movies'
p647
sg13
(dp648
g325
F7.7999999999999998
sg71
F7.7999999999999998
ssg16
VAustin Chronicle
p649
sg18
NsbsVFilm Threat/Kevin Carr
p650
g3
(g4
g5
NtRp651
(dp652
g8
g650
sg9
VKevin Carr
p653
sg11
S'http://www.metacritic.com/critic?filter=movies'
p654
sg13
(dp655
g33
F7
ssg16
VFilm Threat
p656
sg18
NsbsVThe Playlist/Noel Murray
p657
g3
(g4
g5
NtRp658
(dp659
g8
g657
sg9
VNoel Murray
p660
sg11
S'http://www.metacritic.com/critic/noel-murray?filter=movies'
p661
sg13
(dp662
g88
F9.0999999999999996
ssg16
VThe Playlist
p663
sg18
NsbsVThe A.V. Club/Keith Phipps
p664
g3
(g4
g5
NtRp665
(dp666
g8
g664
sg9
VKeith Phipps
p667
sg11
S'http://www.metacritic.com/critic/keith-phipps?filter=movies'
p668
sg13
(dp669
g153
F7.5
sg125
F10
sg109
F3.2999999999999998
sg136
F10
sg157
F10
sg143
F10
sg159
F8
sg108
F6.7000000000000002
sg160
F9.0999999999999996
sg129
F10
sg121
F5.7999999999999998
sg162
F8
sg33
F9
sg140
F6.7000000000000002
sg131
F5
ssg16
VThe A.V. Club
p670
sg18
NsbsVCineVue/John Bleasdale
p671
g3
(g4
g5
NtRp672
(dp673
g8
g671
sg9
VJohn Bleasdale
p674
sg11
S'http://www.metacritic.com/critic/john-bleasdale?filter=movies'
p675
sg13
(dp676
g67
F10
sg87
F8
sg274
F6
sS'the-postmans-white-nights'
p677
F8
sg61
F8
sg273
F10
sg211
F10
sg91
F10
sg147
F6
sg65
F10
sg479
F6
sg213
F6
sg68
F8
sg90
F8
sg117
F8
sg71
F8
ssg16
VCineVue
p678
sg18
NsbsVSeattle Post-Intelligencer/Sean Axmaker
p679
g3
(g4
g5
NtRp680
(dp681
g8
g679
sg9
VSean Axmaker
p682
sg11
S'http://www.metacritic.com/critic/sean-axmaker?filter=movies'
p683
sg13
(dp684
g120
F10
sg250
F6.7000000000000002
sg113
F6.7000000000000002
sg136
F10
sg155
F9.0999999999999996
sg112
F10
sg143
F10
sg539
F10
sg286
F10
sg541
F10
sg130
F9.0999999999999996
sg34
F8.3000000000000007
sg35
F9.0999999999999996
sg165
F10
ssg16
VSeattle Post-Intelligencer
p685
sg18
NsbsVPremiere/Kelly Borgeson
p686
g3
(g4
g5
NtRp687
(dp688
g8
g686
sg9
VKelly Borgeson
p689
sg11
S'http://www.metacritic.com/critic/kelly-borgeson?filter=movies'
p690
sg13
(dp691
g113
F7.5
ssg16
VPremiere
p692
sg18
NsbsVMovieline/Alison Willmore
p693
g3
(g4
g5
NtRp694
(dp695
g8
g693
sg9
VAlison Willmore
p696
sg11
S'http://www.metacritic.com/critic/alison-willmore/movieline?filter=movies'
p697
sg13
(dp698
g107
F9
sg116
F7
sg110
F9
sg153
F9
sg151
F6
ssg16
VMovieline
p699
sg18
NsbsVWashington Post/Rita Kempley
p700
g3
(g4
g5
NtRp701
(dp702
g8
g700
sg9
VRita Kempley
p703
sg11
S'http://www.metacritic.com/critic/rita-kempley?filter=movies'
p704
sg13
(dp705
g51
F6
sg99
F8
sg303
F10
sg52
F3
sg145
F9
sg540
F9
sg287
F9
sg542
F7
ssg16
VWashington Post
p706
sg18
NsbsVMovie Nation/Roger Moore
p707
g3
(g4
g5
NtRp708
(dp709
g8
g707
sg9
VRoger Moore
p710
sg11
S'http://www.metacritic.com/critic/roger-moore?filter=movies'
p711
sg13
(dp712
g133
F7.5
sg87
F7.5
sg273
F7.5
sg88
F8.8000000000000007
sg117
F8.8000000000000007
sg156
F8.8000000000000007
sg62
F6.2999999999999998
sg211
F7.5
sg530
F6.2999999999999998
sg212
F7.5
sg147
F6.2999999999999998
sg146
F7.5
sg63
F8.8000000000000007
sg67
F5
sg571
F7.5
sg68
F5
sg522
F8.8000000000000007
sg150
F7.5
sg70
F10
sg71
F5
ssg16
VMovie Nation
p713
sg18
NsbsVFilm.com/Jordan Hoffman
p714
g3
(g4
g5
NtRp715
(dp716
g8
g714
sg9
VJordan Hoffman
p717
sg11
S'http://www.metacritic.com/critic/jordan-hoffman?filter=movies'
p718
sg13
(dp719
g66
F6.9000000000000004
sg72
F9.5
ssg16
VFilm.com
p720
sg18
NsbsVSan Francisco Chronicle/Bob Graham
p721
g3
(g4
g5
NtRp722
(dp723
g8
g721
sg9
VBob Graham
p724
sg11
S'http://www.metacritic.com/critic/bob-graham?filter=movies'
p725
sg13
(dp726
g249
F5
sg135
F7.5
sg99
F7.5
ssg16
VSan Francisco Chronicle
p727
sg18
NsbsVTheWrap/Inkoo Kang
p728
g3
(g4
g5
NtRp729
(dp730
g8
g728
sg9
VInkoo Kang
p731
sg11
S'http://www.metacritic.com/critic/inkoo-kang?filter=movies'
p732
sg13
(dp733
g156
F5.5
sg91
F10
sg25
F9
sg212
F7.5
ssg16
VTheWrap
p734
sg18
NsbsVFilm Threat/Michael Dequina
p735
g3
(g4
g5
NtRp736
(dp737
g8
g735
sg9
VMichael Dequina
p738
sg11
S'http://www.metacritic.com/critic/michael-dequina?filter=movies'
p739
sg13
(dp740
g115
F7
ssg16
VFilm Threat
p741
sg18
NsbsVLos Angeles Times/Kevin Thomas
p742
g3
(g4
g5
NtRp743
(dp744
g8
g742
sg9
VKevin Thomas
p745
sg11
S'http://www.metacritic.com/critic/kevin-thomas?filter=movies'
p746
sg13
(dp747
g249
F6
sg250
F8
sg43
F10
ssg16
VLos Angeles Times
p748
sg18
NsbsVSalon.com/Scott Rosenberg
p749
g3
(g4
g5
NtRp750
(dp751
g8
g749
sg9
VScott Rosenberg
p752
sg11
S'http://www.metacritic.com/critic?filter=movies'
p753
sg13
(dp754
g127
F10
ssg16
VSalon.com
p755
sg18
NsbsVTV Guide Magazine/Staff (Not Credited)
p756
g3
(g4
g5
NtRp757
(dp758
g8
g756
sg9
VStaff (Not Credited)
p759
sg11
S'http://www.metacritic.com/critic?filter=movies'
p760
sg13
(dp761
g202
F7
sg137
F10
sg51
F10
sg111
F10
sg127
F9
sg52
F5
sg540
F8
sg542
F7
ssg16
VTV Guide Magazine
p762
sg18
NsbsVVillage Voice/Eric Hynes
p763
g3
(g4
g5
NtRp764
(dp765
g8
g763
sg9
VEric Hynes
p766
sg11
S'http://www.metacritic.com/critic?filter=movies'
p767
sg13
(dp768
g134
F2
ssg16
VVillage Voice
p769
sg18
NsbsVPhiladelphia Inquirer/Steven Rea
p770
g3
(g4
g5
NtRp771
(dp772
g8
g770
sg9
VSteven Rea
p773
sg11
S'http://www.metacritic.com/critic/steven-rea?filter=movies'
p774
sg13
(dp775
g107
F10
sg151
F6.2999999999999998
sg479
F8.8000000000000007
sg110
F7.5
sg64
F10
sg539
F10
sg123
F7.5
sg116
F10
sg90
F8.8000000000000007
sg35
F6.2999999999999998
sg117
F7.5
sg118
F8.8000000000000007
sg119
F6.2999999999999998
sg122
F10
sg99
F7.5
sg62
F7.5
sg211
F8.8000000000000007
sg124
F5
sg530
F7.5
sg91
F8.8000000000000007
sg65
F10
sg128
F10
sg129
F8.8000000000000007
sg571
F8.8000000000000007
sg130
F7.5
sg33
F7.5
sg131
F5
sg273
F7.5
sg303
F6.2999999999999998
sg132
F8.8000000000000007
sg133
F8.8000000000000007
sg108
F5
sg139
F10
sg163
F10
sg141
F7.5
sg142
F8.8000000000000007
sg143
F8.8000000000000007
sg146
F10
sg63
F10
sg173
F10
sg72
F10
sg121
F7.5
sg149
F6.2999999999999998
sg150
F10
sg287
F10
sg213
F8.8000000000000007
sg152
F6.2999999999999998
sg153
F8.8000000000000007
sg250
F8.8000000000000007
sg154
F5
sg155
F8.8000000000000007
sg275
F7.5
sg161
F8.8000000000000007
sg522
F8.8000000000000007
sg66
F10
sg67
F8.8000000000000007
sg164
F8.8000000000000007
sg70
F10
sg71
F10
sg277
F10
ssg16
VPhiladelphia Inquirer
p776
sg18
NsbsVTime/John Anderson
p777
g3
(g4
g5
NtRp778
(dp779
g8
g777
sg9
VJohn Anderson
p780
sg11
S'http://www.metacritic.com/critic?filter=movies'
p781
sg13
(dp782
g70
F9
ssg16
VTime
p783
sg18
NsbsVCineVue/Lucy Popescu
p784
g3
(g4
g5
NtRp785
(dp786
g8
g784
sg9
VLucy Popescu
p787
sg11
S'http://www.metacritic.com/critic?filter=movies'
p788
sg13
(dp789
g173
F8
ssg16
VCineVue
p790
sg18
NsbsVVariety/Scott Foundas
p791
g3
(g4
g5
NtRp792
(dp793
g8
g791
sg9
VScott Foundas
p794
sg11
S'http://www.metacritic.com/critic/scott-foundas?filter=movies'
p795
sg13
(dp796
g66
F10
sg479
F7
sg117
F10
sg122
F10
sg72
F10
ssg16
VVariety
p797
sg18
NsbsVEntertainment Weekly/Bruce Fretts
p798
g3
(g4
g5
NtRp799
(dp800
g8
g798
sg9
VBruce Fretts
p801
sg11
S'http://www.metacritic.com/critic/bruce-fretts?filter=movies'
p802
sg13
(dp803
g113
F1.6000000000000001
ssg16
VEntertainment Weekly
p804
sg18
NsbsVTime Out London/Guy Lodge
p805
g3
(g4
g5
NtRp806
(dp807
g8
g805
sg9
VGuy Lodge
p808
sg11
S'http://www.metacritic.com/critic/guy-lodge?filter=movies'
p809
sg13
(dp810
g117
F6
ssg16
VTime Out London
p811
sg18
NsbsVWashington Post/Mark Jenkins
p812
g3
(g4
g5
NtRp813
(dp814
g8
g812
sg9
VMark Jenkins
p815
sg11
S'http://www.metacritic.com/critic?filter=movies'
p816
sg13
(dp817
g538
F9
ssg16
VWashington Post
p818
sg18
NsbsVThe New York Times/Bosley Crowther
p819
g3
(g4
g5
NtRp820
(dp821
g8
g819
sg9
VBosley Crowther
p822
sg11
S'http://www.metacritic.com/critic?filter=movies'
p823
sg13
(dp824
g111
F7
ssg16
VThe New York Times
p825
sg18
NsbsVNew York Daily News/Stephen Whitty 
p826
g3
(g4
g5
NtRp827
(dp828
g8
g826
sg9
VStephen Whitty 
p829
sg11
S'http://www.metacritic.com/critic/stephen-whitty?filter=movies'
p830
sg13
(dp831
g133
F6
sg88
F10
sg146
F8
sg150
F10
sg147
F8
sg71
F7
ssg16
VNew York Daily News
p832
sg18
NsbsVUSA Today/Scott Bowles
p833
g3
(g4
g5
NtRp834
(dp835
g8
g833
sg9
VScott Bowles
p836
sg11
S'http://www.metacritic.com/critic/scott-bowles?filter=movies'
p837
sg13
(dp838
g134
F5
ssg16
VUSA Today
p839
sg18
NsbsVMr. Showbiz/Kevin Maynard
p840
g3
(g4
g5
NtRp841
(dp842
g8
g840
sg9
VKevin Maynard
p843
sg11
S'http://www.metacritic.com/critic/kevin-maynard?filter=movies'
p844
sg13
(dp845
g159
F3
sg249
F3.5
sg99
F8.5
ssg16
VMr. Showbiz
p846
sg18
NsbsVVariety/David Rooney
p847
g3
(g4
g5
NtRp848
(dp849
g8
g847
sg9
VDavid Rooney
p850
sg11
S'http://www.metacritic.com/critic/david-rooney?filter=movies'
p851
sg13
(dp852
g126
F10
sg165
F8
ssg16
VVariety
p853
sg18
NsbsVIndiewire/Anisha Jhaveri
p854
g3
(g4
g5
NtRp855
(dp856
g8
g854
sg9
VAnisha Jhaveri
p857
sg11
S'http://www.metacritic.com/critic?filter=movies'
p858
sg13
(dp859
g156
F10
ssg16
VIndiewire
p860
sg18
NsbsVChristian Science Monitor/David Sterritt
p861
g3
(g4
g5
NtRp862
(dp863
g8
g861
sg9
VDavid Sterritt
p864
sg11
S'http://www.metacritic.com/critic/david-sterritt?filter=movies'
p865
sg13
(dp866
g538
F10
sg539
F7.5
sg113
F2.5
sg52
F7.5
sg115
F2.5
sg540
F10
sg119
F7.5
sg285
F7.5
sg99
F5
sg125
F7.5
sg33
F5
sg541
F10
sg302
F2.5
sg135
F7.5
sg138
F10
sg163
F10
sg123
F7.5
sg148
F10
sg287
F7.5
sg303
F6.2999999999999998
sg250
F7.5
sg51
F8.8000000000000007
sg157
F5
sg159
F5
sg249
F0
sg158
F7.5
sg165
F10
ssg16
VChristian Science Monitor
p867
sg18
NsbsVCineVue/Rory O'Connor
p868
g3
(g4
g5
NtRp869
(dp870
g8
g868
sg9
VRory O'Connor
p871
sg11
S'http://www.metacritic.com/critic?filter=movies'
p872
sg13
(dp873
g150
F8
ssg16
VCineVue
p874
sg18
NsbsVThe Seattle Times/Soren Andersen
p875
g3
(g4
g5
NtRp876
(dp877
g8
g875
sg9
VSoren Andersen
p878
sg11
S'http://www.metacritic.com/critic/soren-andersen?filter=movies'
p879
sg13
(dp880
g67
F8.8000000000000007
ssg16
VThe Seattle Times
p881
sg18
NsbsVVillage Voice/Amy Nicholson
p882
g3
(g4
g5
NtRp883
(dp884
g8
g882
sg9
VAmy Nicholson
p885
sg11
S'http://www.metacritic.com/critic/amy-nicholson?filter=movies'
p886
sg13
(dp887
g139
F9
sg63
F8
sg212
F10
sg66
F9
sg117
F6
sg67
F10
ssg16
VVillage Voice
p888
sg18
NsbsVVillage Voice/Simon Abrams
p889
g3
(g4
g5
NtRp890
(dp891
g8
g889
sg9
VSimon Abrams
p892
sg11
S'http://www.metacritic.com/critic/simon-abrams?filter=movies'
p893
sg13
(dp894
g571
F9
ssg16
VVillage Voice
p895
sg18
NsbsVPortland Oregonian/Roger Moore
p896
g3
(g4
g5
NtRp897
(dp898
g8
g896
sg9
VRoger Moore
p899
sg11
S'http://www.metacritic.com/critic?filter=movies'
p900
sg13
(dp901
g113
F5
ssg16
VPortland Oregonian
p902
sg18
NsbsVMiami Herald/Marta Barber
p903
g3
(g4
g5
NtRp904
(dp905
g8
g903
sg9
VMarta Barber
p906
sg11
S'http://www.metacritic.com/critic/marta-barber?filter=movies'
p907
sg13
(dp908
g538
F8.8000000000000007
ssg16
VMiami Herald
p909
sg18
NsbsVPremiere/Peter Debruge
p910
g3
(g4
g5
NtRp911
(dp912
g8
g910
sg9
VPeter Debruge
p913
sg11
S'http://www.metacritic.com/critic/peter-debruge?filter=movies'
p914
sg13
(dp915
g131
F5
sg119
F7.5
ssg16
VPremiere
p916
sg18
NsbsVThe New York Times/Janet Maslin
p917
g3
(g4
g5
NtRp918
(dp919
g8
g917
sg9
VJanet Maslin
p920
sg11
S'http://www.metacritic.com/critic?filter=movies'
p921
sg13
(dp922
g202
F10
sg285
F9
sg99
F8
sg43
F6
ssg16
VThe New York Times
p923
sg18
NsbsVVillage Voice/Nick Schager
p924
g3
(g4
g5
NtRp925
(dp926
g8
g924
sg9
VNick Schager
p927
sg11
S'http://www.metacritic.com/critic/nick-schager?filter=movies'
p928
sg13
(dp929
g146
F10
ssg16
VVillage Voice
p930
sg18
NsbsVSlant Magazine/Ed Gonzalez
p931
g3
(g4
g5
NtRp932
(dp933
g8
g931
sg9
VEd Gonzalez
p934
sg11
S'http://www.metacritic.com/critic/ed-gonzalez?filter=movies'
p935
sg13
(dp936
g122
F10
sg124
F7.5
sg91
F5
sg539
F10
sg128
F5
sg117
F7.5
ssg16
VSlant Magazine
p937
sg18
NsbsVNew York Daily News/Allen Salkin
p938
g3
(g4
g5
NtRp939
(dp940
g8
g938
sg9
VAllen Salkin
p941
sg11
S'http://www.metacritic.com/critic?filter=movies'
p942
sg13
(dp943
g67
F10
ssg16
VNew York Daily News
p944
sg18
NsbsVLos Angeles Times/Betsy Sharkey
p945
g3
(g4
g5
NtRp946
(dp947
g8
g945
sg9
VBetsy Sharkey
p948
sg11
S'http://www.metacritic.com/critic/betsy-sharkey?filter=movies'
p949
sg13
(dp950
g134
F5
sg151
F10
sg61
F9
sg65
F10
sg114
F8
sg121
F8
sg571
F9
sg152
F8
ssg16
VLos Angeles Times
p951
sg18
NsbsVThe Playlist/Kevin Jagernauth
p952
g3
(g4
g5
NtRp953
(dp954
g8
g952
sg9
VKevin Jagernauth
p955
sg11
S'http://www.metacritic.com/critic/kevin-jagernauth?filter=movies'
p956
sg13
(dp957
g275
F8.3000000000000007
sg116
F8.3000000000000007
sg72
F10
ssg16
VThe Playlist
p958
sg18
NsbsVChicago Tribune/Michael Wilmington
p959
g3
(g4
g5
NtRp960
(dp961
g8
g959
sg9
VMichael Wilmington
p962
sg11
S'http://www.metacritic.com/critic/michael-wilmington?filter=movies'
p963
sg13
(dp964
g538
F10
sg111
F10
sg112
F10
sg539
F7.5
sg113
F3.7999999999999998
sg35
F8.8000000000000007
sg119
F10
sg99
F10
sg125
F10
sg127
F10
sg33
F10
sg541
F10
sg34
F8.8000000000000007
sg302
F8.8000000000000007
sg135
F10
sg138
F10
sg123
F10
sg148
F8.8000000000000007
sg287
F10
sg303
F10
sg250
F10
sg43
F8.8000000000000007
sg157
F7.5
sg285
F8.8000000000000007
sg158
F10
ssg16
VChicago Tribune
p965
sg18
NsbsVEntertainment Weekly/Staff (Not Credited)
p966
g3
(g4
g5
NtRp967
(dp968
g8
g966
sg9
VStaff (Not Credited)
p969
sg11
S'http://www.metacritic.com/critic?filter=movies'
p970
sg13
(dp971
g202
F10
ssg16
VEntertainment Weekly
p972
sg18
NsbsVUSA Today/Mike Clark
p973
g3
(g4
g5
NtRp974
(dp975
g8
g973
sg9
VMike Clark
p976
sg11
S'http://www.metacritic.com/critic/mike-clark?filter=movies'
p977
sg13
(dp978
g159
F8.8000000000000007
sg145
F7.5
sg135
F10
sg138
F10
sg51
F10
sg99
F8.8000000000000007
sg157
F6.2999999999999998
sg165
F8.8000000000000007
sg539
F5
sg113
F6.2999999999999998
sg285
F10
sg123
F8.8000000000000007
sg115
F5
sg52
F7.5
sg162
F10
sg540
F10
sg249
F3.7999999999999998
sg131
F6.2999999999999998
sg541
F10
sg158
F8.8000000000000007
sg119
F8.8000000000000007
ssg16
VUSA Today
p979
sg18
NsbsVRogerEbert.com/Godfrey Cheshire
p980
g3
(g4
g5
NtRp981
(dp982
g8
g980
sg9
VGodfrey Cheshire
p983
sg11
S'http://www.metacritic.com/critic/godfrey-cheshire?filter=movies'
p984
sg13
(dp985
g87
F8.8000000000000007
sg211
F8.8000000000000007
sg15
F6.2999999999999998
sg69
F10
sg213
F10
sg277
F10
ssg16
VRogerEbert.com
p986
sg18
NsbsVSlant Magazine/Jesse Cataldo
p987
g3
(g4
g5
NtRp988
(dp989
g8
g987
sg9
VJesse Cataldo
p990
sg11
S'http://www.metacritic.com/critic/jesse-cataldo?filter=movies'
p991
sg13
(dp992
g61
F8.8000000000000007
sg139
F8.8000000000000007
sg70
F6.2999999999999998
sg479
F6.2999999999999998
sg68
F7.5
sg522
F6.2999999999999998
ssg16
VSlant Magazine
p993
sg18
NsbsVSlant Magazine/Oleg Ivanov
p994
g3
(g4
g5
NtRp995
(dp996
g8
g994
sg9
VOleg Ivanov
p997
sg11
S'http://www.metacritic.com/critic/oleg-ivanov?filter=movies'
p998
sg13
(dp999
g429
F7.5
sg530
F8.8000000000000007
ssg16
VSlant Magazine
p1000
sg18
NsbsVThe A.V. Club/Tasha Robinson
p1001
g3
(g4
g5
NtRp1002
(dp1003
g8
g1001
sg9
VTasha Robinson
p1004
sg11
S'http://www.metacritic.com/critic/tasha-robinson?filter=movies'
p1005
sg13
(dp1006
g130
F10
sg89
F8.3000000000000007
sg124
F6.7000000000000002
sg155
F9.0999999999999996
ssg16
VThe A.V. Club
p1007
sg18
NsbsVMiami Herald/Connie Ogle
p1008
g3
(g4
g5
NtRp1009
(dp1010
g8
g1008
sg9
VConnie Ogle
p1011
sg11
S'http://www.metacritic.com/critic/connie-ogle?filter=movies'
p1012
sg13
(dp1013
g156
F6.2999999999999998
sg131
F2.5
sg146
F10
sg541
F8.8000000000000007
ssg16
VMiami Herald
p1014
sg18
NsbsVEmpire/Liz Beardsworth
p1015
g3
(g4
g5
NtRp1016
(dp1017
g8
g1015
sg9
VLiz Beardsworth
p1018
sg11
S'http://www.metacritic.com/critic?filter=movies'
p1019
sg13
(dp1020
g479
F8
sg212
F10
ssg16
VEmpire
p1021
sg18
NsbsVEmpire/Ian Nathan
p1022
g3
(g4
g5
NtRp1023
(dp1024
g8
g1022
sg9
VIan Nathan
p1025
sg11
S'http://www.metacritic.com/critic?filter=movies'
p1026
sg13
(dp1027
g153
F10
sg122
F8
sg155
F10
sg64
F10
sg142
F10
sg143
F10
sg123
F8
ssg16
VEmpire
p1028
sg18
NsbsVEmpire/Ian Freer
p1029
g3
(g4
g5
NtRp1030
(dp1031
g8
g1029
sg9
VIan Freer
p1032
sg11
S'http://www.metacritic.com/critic?filter=movies'
p1033
sg13
(dp1034
g61
F8
sg273
F8
sg89
F8
sg65
F10
sg63
F10
sg128
F8
sg67
F10
ssg16
VEmpire
p1035
sg18
NsbsVDallas Observer/Melissa Levine
p1036
g3
(g4
g5
NtRp1037
(dp1038
g8
g1036
sg9
VMelissa Levine
p1039
sg11
S'http://www.metacritic.com/critic?filter=movies'
p1040
sg13
(dp1041
g138
F9
sg123
F5
ssg16
VDallas Observer
p1042
sg18
NsbsVTime Out London/Dave Calhoun
p1043
g3
(g4
g5
NtRp1044
(dp1045
g8
g1043
sg9
VDave Calhoun
p1046
sg11
S'http://www.metacritic.com/critic/dave-calhoun?filter=movies'
p1047
sg13
(dp1048
g87
F6
sg61
F8
sg139
F8
sg211
F8
sg63
F8
sg276
F10
sg273
F8
sg66
F8
sg173
F10
sg67
F10
sg479
F8
sg150
F10
sg69
F6
sg70
F10
sg71
F6
sg72
F10
ssg16
VTime Out London
p1049
sg18
NsbsVVillage Voice/Bilge Ebiri
p1050
g3
(g4
g5
NtRp1051
(dp1052
g8
g1050
sg9
VBilge Ebiri
p1053
sg11
S'http://www.metacritic.com/critic/bilge-ebiri?filter=movies'
p1054
sg13
(dp1055
g60
F10
sg479
F8
sg87
F6
ssg16
VVillage Voice
p1056
sg18
NsbsVFilm Threat/Tim Merrill
p1057
g3
(g4
g5
NtRp1058
(dp1059
g8
g1057
sg9
VTim Merrill
p1060
sg11
S'http://www.metacritic.com/critic/tim-merrill?filter=movies'
p1061
sg13
(dp1062
g541
F8
ssg16
VFilm Threat
p1063
sg18
NsbsVTime Out London/Alex Dudok de Wit
p1064
g3
(g4
g5
NtRp1065
(dp1066
g8
g1064
sg9
VAlex Dudok de Wit
p1067
sg11
S'http://www.metacritic.com/critic?filter=movies'
p1068
sg13
(dp1069
g25
F8
ssg16
VTime Out London
p1070
sg18
NsbsVFilm.com/Eric D. Snider
p1071
g3
(g4
g5
NtRp1072
(dp1073
g8
g1071
sg9
VEric D. Snider
p1074
sg11
S'http://www.metacritic.com/critic?filter=movies'
p1075
sg13
(dp1076
g275
F2.5
ssg16
VFilm.com
p1077
sg18
NsbsVTNT RoughCut/J. Rentilly
p1078
g3
(g4
g5
NtRp1079
(dp1080
g8
g1078
sg9
VJ. Rentilly
p1081
sg11
S'http://www.metacritic.com/critic/j-rentilly?filter=movies'
p1082
sg13
(dp1083
g302
F3
ssg16
VTNT RoughCut
p1084
sg18
NsbsVDallas Observer/Arnold Wayne Jones
p1085
g3
(g4
g5
NtRp1086
(dp1087
g8
g1085
sg9
VArnold Wayne Jones
p1088
sg11
S'http://www.metacritic.com/critic?filter=movies'
p1089
sg13
(dp1090
g145
F10
ssg16
VDallas Observer
p1091
sg18
NsbsVVillage Voice/Jessica Winter
p1092
g3
(g4
g5
NtRp1093
(dp1094
g8
g1092
sg9
VJessica Winter
p1095
sg11
S'http://www.metacritic.com/critic/jessica-winter?filter=movies'
p1096
sg13
(dp1097
g249
F4
sg123
F6
ssg16
VVillage Voice
p1098
sg18
NsbsVVariety/Derek Elley
p1099
g3
(g4
g5
NtRp1100
(dp1101
g8
g1099
sg9
VDerek Elley
p1102
sg11
S'http://www.metacritic.com/critic/derek-elley?filter=movies'
p1103
sg13
(dp1104
g34
F8
sg43
F7
sg129
F8
sg148
F8
ssg16
VVariety
p1105
sg18
NsbsVVillage Voice/Sherilyn Connelly
p1106
g3
(g4
g5
NtRp1107
(dp1108
g8
g1106
sg9
VSherilyn Connelly
p1109
sg11
S'http://www.metacritic.com/critic/sherilyn-connelly?filter=movies'
p1110
sg13
(dp1111
g25
F7
sg429
F8
ssg16
VVillage Voice
p1112
sg18
NsbsVEmpire/Dan Jolin
p1113
g3
(g4
g5
NtRp1114
(dp1115
g8
g1113
sg9
VDan Jolin
p1116
sg11
S'http://www.metacritic.com/critic/dan-jolin?filter=movies'
p1117
sg13
(dp1118
g151
F8
sg25
F8
sg138
F10
sg124
F8
sg530
F8
sg144
F8
sg72
F10
sg117
F10
sg132
F10
ssg16
VEmpire
p1119
sg18
NsbsVEmpire/Nick de Semlyen
p1120
g3
(g4
g5
NtRp1121
(dp1122
g8
g1120
sg9
VNick de Semlyen
p1123
sg11
S'http://www.metacritic.com/critic?filter=movies'
p1124
sg13
(dp1125
g134
F4
ssg16
VEmpire
p1126
sg18
NsbsVNewsweek/Ann-Rebecca Laschever
p1127
g3
(g4
g5
NtRp1128
(dp1129
g8
g1127
sg9
VAnn-Rebecca Laschever
p1130
sg11
S'http://www.metacritic.com/critic?filter=movies'
p1131
sg13
(dp1132
g285
F4
ssg16
VNewsweek
p1133
sg18
NsbsVPremiere/Glenn Kenny
p1134
g3
(g4
g5
NtRp1135
(dp1136
g8
g1134
sg9
VGlenn Kenny
p1137
sg11
S'http://www.metacritic.com/critic/glenn-kenny?filter=movies'
p1138
sg13
(dp1139
g538
F6.2999999999999998
sg144
F7.5
sg123
F8.8000000000000007
sg155
F10
sg138
F10
sg115
F6.2999999999999998
sg163
F10
sg112
F10
sg143
F10
sg126
F8.8000000000000007
sg162
F10
sg33
F10
sg120
F10
sg148
F8.8000000000000007
sg286
F10
sg34
F8.8000000000000007
sg164
F10
sg165
F10
ssg16
VPremiere
p1140
sg18
NsbsVLos Angeles Times/Manohla Dargis
p1141
g3
(g4
g5
NtRp1142
(dp1143
g8
g1141
sg9
VManohla Dargis
p1144
sg11
S'http://www.metacritic.com/critic/manohla-dargis?filter=movies'
p1145
sg13
(dp1146
g115
F3
sg113
F3
sg163
F9
sg158
F9
sg125
F7
ssg16
VLos Angeles Times
p1147
sg18
NsbsVThe Hollywood Reporter/David Hunter
p1148
g3
(g4
g5
NtRp1149
(dp1150
g8
g1148
sg9
VDavid Hunter
p1151
sg11
S'http://www.metacritic.com/critic?filter=movies'
p1152
sg13
(dp1153
g43
F9
sg33
F10
ssg16
VThe Hollywood Reporter
p1154
sg18
NsbsVDallas Observer/Andy Klein
p1155
g3
(g4
g5
NtRp1156
(dp1157
g8
g1155
sg9
VAndy Klein
p1158
sg11
S'http://www.metacritic.com/critic/andy-klein?filter=movies'
p1159
sg13
(dp1160
g539
F8
sg158
F9
ssg16
VDallas Observer
p1161
sg18
NsbsVTV Guide Magazine/Ethan Alter
p1162
g3
(g4
g5
NtRp1163
(dp1164
g8
g1162
sg9
VEthan Alter
p1165
sg11
S'http://www.metacritic.com/critic?filter=movies'
p1166
sg13
(dp1167
g138
F8
sg119
F6
ssg16
VTV Guide Magazine
p1168
sg18
NsbsVPremiere/Jessica Letkemann
p1169
g3
(g4
g5
NtRp1170
(dp1171
g8
g1169
sg9
VJessica Letkemann
p1172
sg11
S'http://www.metacritic.com/critic/jessica-letkemann?filter=movies'
p1173
sg13
(dp1174
g132
F7.5
ssg16
VPremiere
p1175
sg18
NsbsVFilm.com/Elizabeth Weitzman
p1176
g3
(g4
g5
NtRp1177
(dp1178
g8
g1176
sg9
VElizabeth Weitzman
p1179
sg11
S'http://www.metacritic.com/critic/elizabeth-weitzman?filter=movies'
p1180
sg13
(dp1181
g145
F8
ssg16
VFilm.com
p1182
sg18
NsbsVPremiere/Rob Calvert
p1183
g3
(g4
g5
NtRp1184
(dp1185
g8
g1183
sg9
VRob Calvert
p1186
sg11
S'http://www.metacritic.com/critic?filter=movies'
p1187
sg13
(dp1188
g121
F10
ssg16
VPremiere
p1189
sg18
NsbsVThe New York Times/Jeannette Catsoulis
p1190
g3
(g4
g5
NtRp1191
(dp1192
g8
g1190
sg9
VJeannette Catsoulis
p1193
sg11
S'http://www.metacritic.com/critic/jeannette-catsoulis?filter=movies'
p1194
sg13
(dp1195
g109
F3
sg530
F8
ssg16
VThe New York Times
p1196
sg18
NsbsVTime Out London/Tom Huddleston
p1197
g3
(g4
g5
NtRp1198
(dp1199
g8
g1197
sg9
VTom Huddleston
p1200
sg11
S'http://www.metacritic.com/critic/tom-huddleston?filter=movies'
p1201
sg13
(dp1202
g128
F10
sg64
F8
sg277
F8
ssg16
VTime Out London
p1203
sg18
NsbsVTotal Film/Phillip Kemp
p1204
g3
(g4
g5
NtRp1205
(dp1206
g8
g1204
sg9
VPhillip Kemp
p1207
sg11
S'http://www.metacritic.com/critic?filter=movies'
p1208
sg13
(dp1209
g146
F10
ssg16
VTotal Film
p1210
sg18
NsbsVFilm Threat/Stina Chyn
p1211
g3
(g4
g5
NtRp1212
(dp1213
g8
g1211
sg9
VStina Chyn
p1214
sg11
S'http://www.metacritic.com/critic/stina-chyn?filter=movies'
p1215
sg13
(dp1216
g35
F8
sg165
F8
ssg16
VFilm Threat
p1217
sg18
NsbsVTotal Film/Neil Smith
p1218
g3
(g4
g5
NtRp1219
(dp1220
g8
g1218
sg9
VNeil Smith
p1221
sg11
S'http://www.metacritic.com/critic/neil-smith?filter=movies'
p1222
sg13
(dp1223
g107
F8
sg147
F8
ssg16
VTotal Film
p1224
sg18
NsbsVVillage Voice/Scott Tobias
p1225
g3
(g4
g5
NtRp1226
(dp1227
g8
g1225
sg9
VScott Tobias
p1228
sg11
S'http://www.metacritic.com/critic/scott-tobias?filter=movies'
p1229
sg13
(dp1230
g91
F8
ssg16
VVillage Voice
p1231
sg18
NsbsVNew York Post/Kyle Smith
p1232
g3
(g4
g5
NtRp1233
(dp1234
g8
g1232
sg9
VKyle Smith
p1235
sg11
S'http://www.metacritic.com/critic/kyle-smith?filter=movies'
p1236
sg13
(dp1237
g88
F10
sg151
F7.5
sg72
F7.5
sg152
F8.8000000000000007
sg154
F7.5
sg136
F8.8000000000000007
sg139
F5
sg157
F10
sg530
F5
sg117
F8.8000000000000007
sg522
F10
sg146
F7.5
sg114
F7.5
sg121
F7.5
sg129
F6.2999999999999998
sg67
F8.8000000000000007
sg162
F7.5
sg131
F7.5
sg71
F6.2999999999999998
sg118
F7.5
sg109
F2.5
ssg16
VNew York Post
p1238
sg18
NsbsVTNT RoughCut/Gabriel J.P. Goldberg
p1239
g3
(g4
g5
NtRp1240
(dp1241
g8
g1239
sg9
VGabriel J.P. Goldberg
p1242
sg11
S'http://www.metacritic.com/critic?filter=movies'
p1243
sg13
(dp1244
g145
F10
ssg16
VTNT RoughCut
p1245
sg18
NsbsVThe Telegraph/Tim Robey
p1246
g3
(g4
g5
NtRp1247
(dp1248
g8
g1246
sg9
VTim Robey
p1249
sg11
S'http://www.metacritic.com/critic/tim-robey?filter=movies'
p1250
sg13
(dp1251
g87
F6
sg479
F8
sg88
F8
sg139
F10
sg211
F8
sg276
F8
sg91
F8
sg273
F6
sg146
F8
sg173
F10
sg128
F10
sg150
F10
sg117
F6
ssg16
VThe Telegraph
p1252
sg18
NsbsVThe New York Times/Renata Adler
p1253
g3
(g4
g5
NtRp1254
(dp1255
g8
g1253
sg9
VRenata Adler
p1256
sg11
S'http://www.metacritic.com/critic?filter=movies'
p1257
sg13
(dp1258
g127
F6
ssg16
VThe New York Times
p1259
sg18
NsbsVEntertainment Weekly/Owen Gleiberman
p1260
g3
(g4
g5
NtRp1261
(dp1262
g8
g1260
sg9
VOwen Gleiberman
p1263
sg11
S'http://www.metacritic.com/critic/owen-gleiberman?filter=movies'
p1264
sg13
(dp1265
g107
F10
sg151
F6.7000000000000002
sg109
F4.2000000000000002
sg114
F10
sg116
F10
sg35
F9.0999999999999996
sg118
F10
sg119
F9.0999999999999996
sg64
F10
sg125
F7.5
sg126
F9.0999999999999996
sg127
F10
sg128
F10
sg132
F9.0999999999999996
sg541
F9.0999999999999996
sg130
F10
sg121
F7.5
sg131
F8.3000000000000007
sg134
F8.3000000000000007
sg135
F5
sg136
F9.0999999999999996
sg139
F9.0999999999999996
sg163
F10
sg142
F7.5
sg144
F9.0999999999999996
sg72
F9.0999999999999996
sg148
F9.0999999999999996
sg152
F10
sg153
F10
sg154
F8.3000000000000007
sg155
F7.5
sg51
F10
sg285
F8.3000000000000007
sg160
F10
sg161
F7.5
sg162
F10
ssg16
VEntertainment Weekly
p1266
sg18
NsbsVPhiladelphia Inquirer/Tirdad Derakhshani
p1267
g3
(g4
g5
NtRp1268
(dp1269
g8
g1267
sg9
VTirdad Derakhshani
p1270
sg11
S'http://www.metacritic.com/critic/tirdad-derakhshani?filter=movies'
p1271
sg13
(dp1272
g69
F8.8000000000000007
sg429
F8.8000000000000007
sg325
F10
sg88
F8.8000000000000007
ssg16
VPhiladelphia Inquirer
p1273
sg18
NsbsVWashington Post/Teresa Wiltz
p1274
g3
(g4
g5
NtRp1275
(dp1276
g8
g1274
sg9
VTeresa Wiltz
p1277
sg11
S'http://www.metacritic.com/critic?filter=movies'
p1278
sg13
(dp1279
g138
F10
sg119
F7
ssg16
VWashington Post
p1280
sg18
NsbsVAustin Chronicle/Marrit Ingman
p1281
g3
(g4
g5
NtRp1282
(dp1283
g8
g1281
sg9
VMarrit Ingman
p1284
sg11
S'http://www.metacritic.com/critic/marrit-ingman?filter=movies'
p1285
sg13
(dp1286
g131
F3
sg35
F7.7999999999999998
sg148
F8.9000000000000004
ssg16
VAustin Chronicle
p1287
sg18
NsbsVCineVue/Ben Nicholson
p1288
g3
(g4
g5
NtRp1289
(dp1290
g8
g1288
sg9
VBen Nicholson
p1291
sg11
S'http://www.metacritic.com/critic/ben-nicholson?filter=movies'
p1292
sg13
(dp1293
g139
F8
sg88
F8
sg25
F6
ssg16
VCineVue
p1294
sg18
NsbsVVillage Voice/Nick Pinkerton
p1295
g3
(g4
g5
NtRp1296
(dp1297
g8
g1295
sg9
VNick Pinkerton
p1298
sg11
S'http://www.metacritic.com/critic?filter=movies'
p1299
sg13
(dp1300
g286
F9
sg116
F5
sg141
F4
sg154
F1
sg149
F3
ssg16
VVillage Voice
p1301
sg18
NsbsVWall Street Journal/Joe Morgenstern
p1302
g3
(g4
g5
NtRp1303
(dp1304
g8
g1302
sg9
VJoe Morgenstern
p1305
sg11
S'http://www.metacritic.com/critic/joe-morgenstern?filter=movies'
p1306
sg13
(dp1307
g538
F9
sg107
F10
sg479
F10
sg88
F10
sg151
F10
sg110
F9
sg112
F10
sg64
F10
sg539
F10
sg113
F1
sg114
F8
sg158
F6
sg115
F1
sg116
F10
sg91
F10
sg147
F9
sg118
F10
sg119
F9
sg122
F10
sg123
F10
sg62
F7
sg124
F7
sg530
F8
sg125
F10
sg126
F10
sg65
F10
sg128
F10
sg132
F9
sg541
F9
sg130
F10
sg33
F10
sg34
F10
sg131
F3
sg325
F10
sg273
F7
sg129
F5
sg133
F9
sg134
F2
sg60
F8
sg163
F10
sg274
F6
sg136
F6
sg138
F10
sg139
F9
sg140
F9
sg141
F8
sg142
F8
sg143
F10
sg144
F8
sg162
F10
sg146
F9
sg63
F10
sg173
F9
sg72
F9
sg148
F9
sg164
F10
sg150
F9
sg212
F9
sg287
F8
sg213
F5
sg152
F9
sg87
F10
sg155
F10
sg275
F8
sg156
F9
sg157
F7
sg89
F5
sg161
F9
sg120
F10
sg66
F10
sg160
F10
sg67
F8
sg153
F10
sg286
F9
sg249
F2
sg165
F10
sg70
F10
sg303
F10
sg277
F10
ssg16
VWall Street Journal
p1308
sg18
NsbsVWashington Post/John Anderson
p1309
g3
(g4
g5
NtRp1310
(dp1311
g8
g1309
sg9
VJohn Anderson
p1312
sg11
S'http://www.metacritic.com/critic?filter=movies'
p1313
sg13
(dp1314
g130
F10
ssg16
VWashington Post
p1315
sg18
NsbsVWe Got This Covered/Matt Donato
p1316
g3
(g4
g5
NtRp1317
(dp1318
g8
g1316
sg9
VMatt Donato
p1319
sg11
S'http://www.metacritic.com/critic/matt-donato?filter=movies'
p1320
sg13
(dp1321
g128
F9
ssg16
VWe Got This Covered
p1322
sg18
NsbsVFilm Threat/Michael Ferraro
p1323
g3
(g4
g5
NtRp1324
(dp1325
g8
g1323
sg9
VMichael Ferraro
p1326
sg11
S'http://www.metacritic.com/critic?filter=movies'
p1327
sg13
(dp1328
g138
F9
sg123
F9
ssg16
VFilm Threat
p1329
sg18
NsbsVChicago Tribune/Michael Phillips
p1330
g3
(g4
g5
NtRp1331
(dp1332
g8
g1330
sg9
VMichael Phillips
p1333
sg11
S'http://www.metacritic.com/critic/michael-phillips?filter=movies'
p1334
sg13
(dp1335
g107
F10
sg151
F5
sg25
F8.8000000000000007
sg88
F10
sg272
F10
sg61
F10
sg110
F10
sg64
F8.8000000000000007
sg114
F5
sg116
F10
sg69
F7.5
sg117
F7.5
sg118
F10
sg122
F10
sg62
F6.2999999999999998
sg211
F8.8000000000000007
sg124
F6.2999999999999998
sg91
F10
sg126
F10
sg65
F7.5
sg128
F10
sg132
F10
sg130
F10
sg325
F7.5
sg273
F7.5
sg129
F8.8000000000000007
sg134
F3.7999999999999998
sg108
F6.2999999999999998
sg136
F10
sg139
F8.8000000000000007
sg140
F8.8000000000000007
sg141
F6.2999999999999998
sg142
F6.2999999999999998
sg143
F8.8000000000000007
sg144
F7.5
sg146
F8.8000000000000007
sg63
F8.8000000000000007
sg173
F10
sg72
F8.8000000000000007
sg149
F7.5
sg153
F10
sg150
F10
sg152
F7.5
sg87
F8.8000000000000007
sg154
F3.7999999999999998
sg155
F10
sg275
F8.8000000000000007
sg156
F7.5
sg89
F10
sg161
F7.5
sg120
F10
sg66
F7.5
sg160
F8.8000000000000007
sg67
F10
sg162
F8.8000000000000007
sg522
F7.5
sg164
F10
sg70
F10
sg71
F8.8000000000000007
sg277
F10
ssg16
VChicago Tribune
p1336
sg18
NsbsVThe Verge/Tasha Robinson
p1337
g3
(g4
g5
NtRp1338
(dp1339
g8
g1337
sg9
VTasha Robinson
p1340
sg11
S'http://www.metacritic.com/critic/tasha-robinson?filter=movies'
p1341
sg13
(dp1342
g133
F7.2999999999999998
sg62
F7.7000000000000002
sg429
F8.8000000000000007
sg71
F8.4000000000000004
sg91
F10
ssg16
VThe Verge
p1343
sg18
NsbsVNewsweek/Walaika Haskins
p1344
g3
(g4
g5
NtRp1345
(dp1346
g8
g1344
sg9
VWalaika Haskins
p1347
sg11
S'http://www.metacritic.com/critic?filter=movies'
p1348
sg13
(dp1349
g159
F7
ssg16
VNewsweek
p1350
sg18
NsbsVVillage Voice/Jim Ridley
p1351
g3
(g4
g5
NtRp1352
(dp1353
g8
g1351
sg9
VJim Ridley
p1354
sg11
S'http://www.metacritic.com/critic?filter=movies'
p1355
sg13
(dp1356
g121
F7
ssg16
VVillage Voice
p1357
sg18
NsbsVEmpire/Olly Richards
p1358
g3
(g4
g5
NtRp1359
(dp1360
g8
g1358
sg9
VOlly Richards
p1361
sg11
S'http://www.metacritic.com/critic/olly-richards?filter=movies'
p1362
sg13
(dp1363
g133
F6
sg130
F10
sg114
F8
ssg16
VEmpire
p1364
sg18
NsbsVChicago Sun-Times/Richard Roeper
p1365
g3
(g4
g5
NtRp1366
(dp1367
g8
g1365
sg9
VRichard Roeper
p1368
sg11
S'http://www.metacritic.com/critic/richard-roeper?filter=movies'
p1369
sg13
(dp1370
g133
F10
sg88
F10
sg122
F8.8000000000000007
sg156
F10
sg62
F7.5
sg117
F10
sg64
F8.8000000000000007
sg63
F10
sg91
F10
sg522
F10
sg65
F10
sg66
F10
sg128
F10
sg67
F10
sg150
F8.8000000000000007
sg70
F8.8000000000000007
sg71
F7.5
sg72
F8.8000000000000007
ssg16
VChicago Sun-Times
p1371
sg18
NsbsVThe Hollywood Reporter/Jordan Mintzer
p1372
g3
(g4
g5
NtRp1373
(dp1374
g8
g1372
sg9
VJordan Mintzer
p1375
sg11
S'http://www.metacritic.com/critic/jordan-mintzer?filter=movies'
p1376
sg13
(dp1377
g429
F7
ssg16
VThe Hollywood Reporter
p1378
sg18
NsbsVL.A. Weekly/Hazel-Dawn Dumpert
p1379
g3
(g4
g5
NtRp1380
(dp1381
g8
g1379
sg9
VHazel-Dawn Dumpert
p1382
sg11
S'http://www.metacritic.com/critic/hazel-dawn-dumpert?filter=movies'
p1383
sg13
(dp1384
g302
F3
ssg16
VL.A. Weekly
p1385
sg18
NsbsVTotal Film/Matthew Leyland
p1386
g3
(g4
g5
NtRp1387
(dp1388
g8
g1386
sg9
VMatthew Leyland
p1389
sg11
S'http://www.metacritic.com/critic/matthew-leyland?filter=movies'
p1390
sg13
(dp1391
g141
F10
sg124
F10
ssg16
VTotal Film
p1392
sg18
NsbsVTime Out New York/Joshua Rothkopf
p1393
g3
(g4
g5
NtRp1394
(dp1395
g8
g1393
sg9
VJoshua Rothkopf
p1396
sg11
S'http://www.metacritic.com/critic/joshua-rothkopf?filter=movies'
p1397
sg13
(dp1398
g133
F6
sg107
F10
sg153
F10
sg88
F10
sg134
F8
sg151
F8
sg139
F10
sg64
F8
sg147
F6
sg522
F8
sg146
F10
sg160
F10
sg72
F10
sg571
F10
sg149
F8
sg116
F8
sg110
F6
sg118
F10
sg152
F10
ssg16
VTime Out New York
p1399
sg18
NsbsVNew York Daily News/Graham Fuller
p1400
g3
(g4
g5
NtRp1401
(dp1402
g8
g1400
sg9
VGraham Fuller
p1403
sg11
S'http://www.metacritic.com/critic?filter=movies'
p1404
sg13
(dp1405
g61
F10
sg25
F8
sg211
F10
sg273
F8
ssg16
VNew York Daily News
p1406
sg18
NsbsVSalon.com/Andrew O'Hehir
p1407
g3
(g4
g5
NtRp1408
(dp1409
g8
g1407
sg9
VAndrew O'Hehir
p1410
sg11
S'http://www.metacritic.com/critic/andrew-ohehir?filter=movies'
p1411
sg13
(dp1412
g107
F10
sg272
F9
sg61
F10
sg110
F9
sg64
F9
sg114
F7
sg116
F10
sg69
F10
sg117
F8
sg118
F10
sg285
F6
sg122
F9
sg62
F9
sg211
F10
sg124
F5
sg530
F9
sg91
F10
sg33
F9
sg128
F10
sg273
F10
sg134
F1
sg139
F9
sg140
F8
sg141
F10
sg212
F9
sg63
F7
sg72
F10
sg149
F4
sg150
F10
sg143
F9
sg152
F9
sg153
F10
sg120
F10
sg66
F9
sg160
F9
sg68
F8
sg249
F6
sg277
F9
ssg16
VSalon.com
p1413
sg18
NsbsVUSA Today/Susan Wloszczyna
p1414
g3
(g4
g5
NtRp1415
(dp1416
g8
g1414
sg9
VSusan Wloszczyna
p1417
sg11
S'http://www.metacritic.com/critic/susan-wloszczyna?filter=movies'
p1418
sg13
(dp1419
g302
F6.2999999999999998
ssg16
VUSA Today
p1420
sg18
NsbsVEntertainment Weekly/Lisa Schwarzbaum
p1421
g3
(g4
g5
NtRp1422
(dp1423
g8
g1421
sg9
VLisa Schwarzbaum
p1424
sg11
S'http://www.metacritic.com/critic/lisa-schwarzbaum?filter=movies'
p1425
sg13
(dp1426
g538
F10
sg110
F10
sg112
F10
sg539
F8.3000000000000007
sg52
F6.7000000000000002
sg115
F5.7999999999999998
sg120
F10
sg99
F8.3000000000000007
sg124
F8.3000000000000007
sg33
F10
sg129
F10
sg145
F10
sg34
F9.0999999999999996
sg164
F10
sg302
F2.5
sg108
F7.5
sg138
F10
sg140
F7.5
sg141
F7.5
sg143
F9.0999999999999996
sg123
F9.0999999999999996
sg149
F8.3000000000000007
sg287
F9.0999999999999996
sg303
F10
sg250
F10
sg157
F10
sg89
F10
sg159
F8.3000000000000007
sg286
F10
sg249
F5
sg158
F9.0999999999999996
sg165
F10
ssg16
VEntertainment Weekly
p1427
sg18
NsbsVFilm Threat/Darrin Keene
p1428
g3
(g4
g5
NtRp1429
(dp1430
g8
g1428
sg9
VDarrin Keene
p1431
sg11
S'http://www.metacritic.com/critic?filter=movies'
p1432
sg13
(dp1433
g158
F8
ssg16
VFilm Threat
p1434
sg18
NsbsVScreenCrush/Britt Hayes
p1435
g3
(g4
g5
NtRp1436
(dp1437
g8
g1435
sg9
VBritt Hayes
p1438
sg11
S'http://www.metacritic.com/critic?filter=movies'
p1439
sg13
(dp1440
g71
F9
ssg16
VScreenCrush
p1441
sg18
NsbsVNew York Observer/Rex Reed
p1442
g3
(g4
g5
NtRp1443
(dp1444
g8
g1442
sg9
VRex Reed
p1445
sg11
S'http://www.metacritic.com/critic/rex-reed?filter=movies'
p1446
sg13
(dp1447
g107
F5
sg151
F10
sg88
F10
sg110
F2.5
sg114
F2.5
sg116
F10
sg147
F8.8000000000000007
sg62
F0
sg64
F7.5
sg530
F7.5
sg65
F2.5
sg128
F10
sg133
F7.5
sg139
F7.5
sg140
F10
sg141
F2.5
sg146
F10
sg149
F2.5
sg150
F10
sg152
F10
sg153
F5
sg156
F7.5
sg66
F8.8000000000000007
sg160
F7.5
sg70
F10
ssg16
VNew York Observer
p1448
sg18
NsbsVPremiere/Aaron Hillis
p1449
g3
(g4
g5
NtRp1450
(dp1451
g8
g1449
sg9
VAaron Hillis
p1452
sg11
S'http://www.metacritic.com/critic/aaron-hillis?filter=movies'
p1453
sg13
(dp1454
g157
F6.2999999999999998
ssg16
VPremiere
p1455
sg18
NsbsVThe Guardian/Nigel M Smith
p1456
g3
(g4
g5
NtRp1457
(dp1458
g8
g1456
sg9
VNigel M Smith
p1459
sg11
S'http://www.metacritic.com/critic/nigel-m-smith?filter=movies'
p1460
sg13
(dp1461
g133
F6
sg212
F10
ssg16
VThe Guardian
p1462
sg18
NsbsVTheWrap/Robert Abele
p1463
g3
(g4
g5
NtRp1464
(dp1465
g8
g1463
sg9
VRobert Abele
p1466
sg11
S'http://www.metacritic.com/critic/robert-abele?filter=movies'
p1467
sg13
(dp1468
g133
F8.5
sg479
F9
sg88
F7
ssg16
VTheWrap
p1469
sg18
NsbsVVariety/Peter Debruge
p1470
g3
(g4
g5
NtRp1471
(dp1472
g8
g1470
sg9
VPeter Debruge
p1473
sg11
S'http://www.metacritic.com/critic/peter-debruge?filter=movies'
p1474
sg13
(dp1475
g133
F7
sg107
F9
sg153
F7
sg151
F10
sg114
F8
sg156
F9
sg140
F8
sg211
F10
sg124
F6
sg63
F10
sg273
F9
sg65
F10
sg146
F7
sg429
F10
sg128
F10
sg68
F10
sg116
F9
sg147
F8
sg67
F10
sg277
F6
ssg16
VVariety
p1476
sg18
NsbsVFilm Threat/Matthew Sorrento
p1477
g3
(g4
g5
NtRp1478
(dp1479
g8
g1477
sg9
VMatthew Sorrento
p1480
sg11
S'http://www.metacritic.com/critic?filter=movies'
p1481
sg13
(dp1482
g34
F10
sg89
F5
ssg16
VFilm Threat
p1483
sg18
NsbsVTotal Film/Philip Kemp
p1484
g3
(g4
g5
NtRp1485
(dp1486
g8
g1484
sg9
VPhilip Kemp
p1487
sg11
S'http://www.metacritic.com/critic/philip-kemp?filter=movies'
p1488
sg13
(dp1489
g133
F6
sg66
F8
sg69
F8
sg72
F10
ssg16
VTotal Film
p1490
sg18
NsbsVSlant Magazine/Andrew Schenker
p1491
g3
(g4
g5
NtRp1492
(dp1493
g8
g1491
sg9
VAndrew Schenker
p1494
sg11
S'http://www.metacritic.com/critic/andrew-schenker?filter=movies'
p1495
sg13
(dp1496
g272
F3.7999999999999998
sg114
F5
ssg16
VSlant Magazine
p1497
sg18
NsbsVNew York Magazine (Vulture)/Ken Tucker
p1498
g3
(g4
g5
NtRp1499
(dp1500
g8
g1498
sg9
VKen Tucker
p1501
sg11
S'http://www.metacritic.com/critic?filter=movies'
p1502
sg13
(dp1503
g162
F9
sg126
F6
sg157
F5
sg123
F9
sg119
F6
ssg16
VNew York Magazine (Vulture)
p1504
sg18
NsbsVFilm.com/Robert Horton
p1505
g3
(g4
g5
NtRp1506
(dp1507
g8
g1505
sg9
VRobert Horton
p1508
sg11
S'http://www.metacritic.com/critic/robert-horton?filter=movies'
p1509
sg13
(dp1510
g302
F4
sg285
F7
sg249
F4
sg135
F9
ssg16
VFilm.com
p1511
sg18
NsbsVThe New York Times/Dave Kehr
p1512
g3
(g4
g5
NtRp1513
(dp1514
g8
g1512
sg9
VDave Kehr
p1515
sg11
S'http://www.metacritic.com/critic/dave-kehr?filter=movies'
p1516
sg13
(dp1517
g538
F9
ssg16
VThe New York Times
p1518
sg18
NsbsVThe Telegraph/Mike McCahill
p1519
g3
(g4
g5
NtRp1520
(dp1521
g8
g1519
sg9
VMike McCahill
p1522
sg11
S'http://www.metacritic.com/critic/mike-mccahill?filter=movies'
p1523
sg13
(dp1524
g213
F6
ssg16
VThe Telegraph
p1525
sg18
NsbsVTime/Staff (Not Credited)
p1526
g3
(g4
g5
NtRp1527
(dp1528
g8
g1526
sg9
VStaff (Not Credited)
p1529
sg11
S'http://www.metacritic.com/critic?filter=movies'
p1530
sg13
(dp1531
g51
F10
ssg16
VTime
p1532
sg18
NsbsVEmpire/David Parkinson
p1533
g3
(g4
g5
NtRp1534
(dp1535
g8
g1533
sg9
VDavid Parkinson
p1536
sg11
S'http://www.metacritic.com/critic/david-parkinson?filter=movies'
p1537
sg13
(dp1538
g274
F6
sg272
F8
sg90
F8
sg275
F8
sg69
F6
sg118
F8
ssg16
VEmpire
p1539
sg18
NsbsVEntertainment Weekly/Leah Greenblatt
p1540
g3
(g4
g5
NtRp1541
(dp1542
g8
g1540
sg9
VLeah Greenblatt
p1543
sg11
S'http://www.metacritic.com/critic/leah-greenblatt?filter=movies'
p1544
sg13
(dp1545
g156
F8.3000000000000007
sg173
F9.0999999999999996
sg147
F8.3000000000000007
ssg16
VEntertainment Weekly
p1546
sg18
NsbsVThe Dissolve/Mike D'Angelo
p1547
g3
(g4
g5
NtRp1548
(dp1549
g8
g1547
sg9
VMike D'Angelo
p1550
sg11
S'http://www.metacritic.com/critic/mike-dangelo?filter=movies'
p1551
sg13
(dp1552
g68
F6
ssg16
VThe Dissolve
p1553
sg18
NsbsVBaltimore Sun/Michael Sragow
p1554
g3
(g4
g5
NtRp1555
(dp1556
g8
g1554
sg9
VMichael Sragow
p1557
sg11
S'http://www.metacritic.com/critic/michael-sragow?filter=movies'
p1558
sg13
(dp1559
g538
F5
sg112
F10
sg125
F10
sg126
F10
sg33
F10
sg132
F10
sg541
F8.8000000000000007
sg130
F10
sg121
F3.7999999999999998
sg34
F10
sg164
F4.2000000000000002
sg108
F3.7999999999999998
sg136
F5
sg163
F5
sg142
F5.7999999999999998
sg143
F10
sg144
F10
sg123
F10
sg303
F10
sg250
F10
sg154
F6.2999999999999998
sg155
F10
sg157
F5
sg89
F10
sg120
F10
sg162
F5
sg158
F10
sg165
F6.2999999999999998
ssg16
VBaltimore Sun
p1560
sg18
NsbsVVariety/Deborah Young
p1561
g3
(g4
g5
NtRp1562
(dp1563
g8
g1561
sg9
VDeborah Young
p1564
sg11
S'http://www.metacritic.com/critic/deborah-young?filter=movies'
p1565
sg13
(dp1566
g538
F8
ssg16
VVariety
p1567
sg18
NsbsVPremiere/Sara Brady
p1568
g3
(g4
g5
NtRp1569
(dp1570
g8
g1568
sg9
VSara Brady
p1571
sg11
S'http://www.metacritic.com/critic?filter=movies'
p1572
sg13
(dp1573
g142
F7.5
ssg16
VPremiere
p1574
sg18
NsbsVThe New York Times/Elvis Mitchell
p1575
g3
(g4
g5
NtRp1576
(dp1577
g8
g1575
sg9
VElvis Mitchell
p1578
sg11
S'http://www.metacritic.com/critic/elvis-mitchell?filter=movies'
p1579
sg13
(dp1580
g145
F9
sg51
F10
sg135
F9
sg303
F9
sg163
F7
ssg16
VThe New York Times
p1581
sg18
NsbsVVariety/Staff (Not Credited)
p1582
g3
(g4
g5
NtRp1583
(dp1584
g8
g1582
sg9
VStaff (Not Credited)
p1585
sg11
S'http://www.metacritic.com/critic?filter=movies'
p1586
sg13
(dp1587
g202
F9
sg137
F8
sg51
F10
sg111
F9
sg127
F4
sg540
F9
sg542
F7
ssg16
VVariety
p1588
sg18
NsbsVTime/Richard Schickel
p1589
g3
(g4
g5
NtRp1590
(dp1591
g8
g1589
sg9
VRichard Schickel
p1592
sg11
S'http://www.metacritic.com/critic/richard-schickel?filter=movies'
p1593
sg13
(dp1594
g159
F7
sg285
F8
sg99
F6
sg157
F5
sg143
F10
sg144
F5
sg541
F3
sg162
F7
sg35
F6
sg158
F8
sg542
F8
sg164
F10
ssg16
VTime
p1595
sg18
NsbsVSan Francisco Chronicle/Carla Meyer
p1596
g3
(g4
g5
NtRp1597
(dp1598
g8
g1596
sg9
VCarla Meyer
p1599
sg11
S'http://www.metacritic.com/critic/carla-meyer?filter=movies'
p1600
sg13
(dp1601
g538
F5
sg138
F10
sg541
F7.5
sg148
F10
ssg16
VSan Francisco Chronicle
p1602
sg18
NsbsVVariety/Jay Weissberg
p1603
g3
(g4
g5
NtRp1604
(dp1605
g8
g1603
sg9
VJay Weissberg
p1606
sg11
S'http://www.metacritic.com/critic/jay-weissberg?filter=movies'
p1607
sg13
(dp1608
g677
F6
sg276
F7
sg120
F10
sg571
F9
sg325
F9
sg213
F8
ssg16
VVariety
p1609
sg18
NsbsVVariety/Dennis Harvey
p1610
g3
(g4
g5
NtRp1611
(dp1612
g8
g1610
sg9
VDennis Harvey
p1613
sg11
S'http://www.metacritic.com/critic/dennis-harvey?filter=movies'
p1614
sg13
(dp1615
g144
F7
sg522
F5
ssg16
VVariety
p1616
sg18
NsbsVVillage Voice/Scott Foundas
p1617
g3
(g4
g5
NtRp1618
(dp1619
g8
g1617
sg9
VScott Foundas
p1620
sg11
S'http://www.metacritic.com/critic?filter=movies'
p1621
sg13
(dp1622
g107
F10
sg151
F9
sg136
F10
sg275
F9
sg155
F9
sg124
F5
sg143
F10
sg144
F9
ssg16
VVillage Voice
p1623
sg18
NsbsVNew York Magazine (Vulture)/David Edelstein
p1624
g3
(g4
g5
NtRp1625
(dp1626
g8
g1624
sg9
VDavid Edelstein
p1627
sg11
S'http://www.metacritic.com/critic/david-edelstein?filter=movies'
p1628
sg13
(dp1629
g107
F10
sg151
F8
sg72
F9
sg110
F8
sg112
F8
sg64
F10
sg114
F7
sg116
F10
sg69
F10
sg117
F9
sg118
F9
sg122
F9
sg62
F7
sg124
F5
sg530
F8
sg91
F4
sg65
F6
sg128
F7
sg132
F5
sg571
F9
sg130
F10
sg34
F9
sg129
F8
sg133
F6
sg108
F8
sg136
F5
sg139
F9
sg140
F9
sg142
F4
sg143
F9
sg144
F5
sg146
F8
sg63
F10
sg173
F9
sg147
F8
sg149
F4
sg150
F8
sg213
F7
sg152
F8
sg87
F9
sg155
F10
sg156
F4
sg89
F9
sg161
F10
sg120
F9
sg66
F9
sg160
F6
sg153
F9
sg286
F9
sg522
F10
sg164
F10
sg70
F10
sg67
F6
sg277
F8
ssg16
VNew York Magazine (Vulture)
p1630
sg18
NsbsVBaltimore Sun/Ann Hornaday
p1631
g3
(g4
g5
NtRp1632
(dp1633
g8
g1631
sg9
VAnn Hornaday
p1634
sg11
S'http://www.metacritic.com/critic/ann-hornaday?filter=movies'
p1635
sg13
(dp1636
g145
F10
sg302
F3.7999999999999998
sg99
F7.5
sg285
F10
ssg16
VBaltimore Sun
p1637
sg18
NsbsVHitfix/Daniel Fienberg
p1638
g3
(g4
g5
NtRp1639
(dp1640
g8
g1638
sg9
VDaniel Fienberg
p1641
sg11
S'http://www.metacritic.com/critic?filter=movies'
p1642
sg13
(dp1643
g522
F8.3000000000000007
ssg16
VHitfix
p1644
sg18
NsbsVTV Guide Magazine/Cammila Albertson
p1645
g3
(g4
g5
NtRp1646
(dp1647
g8
g1645
sg9
VCammila Albertson
p1648
sg11
S'http://www.metacritic.com/critic?filter=movies'
p1649
sg13
(dp1650
g121
F8.8000000000000007
ssg16
VTV Guide Magazine
p1651
sg18
NsbsVEntertainment Weekly/Kevin P. Sullivan
p1652
g3
(g4
g5
NtRp1653
(dp1654
g8
g1652
sg9
VKevin P. Sullivan
p1655
sg11
S'http://www.metacritic.com/critic?filter=movies'
p1656
sg13
(dp1657
g530
F8.3000000000000007
ssg16
VEntertainment Weekly
p1658
sg18
NsbsVSlant Magazine/R. Kurt Osenlund
p1659
g3
(g4
g5
NtRp1660
(dp1661
g8
g1659
sg9
VR. Kurt Osenlund
p1662
sg11
S'http://www.metacritic.com/critic/r-kurt-osenlund?filter=movies'
p1663
sg13
(dp1664
g65
F5
sg153
F8.8000000000000007
sg66
F7.5
ssg16
VSlant Magazine
p1665
sg18
NsbsVThe Playlist/Gregory Ellwood
p1666
g3
(g4
g5
NtRp1667
(dp1668
g8
g1666
sg9
VGregory Ellwood
p1669
sg11
S'http://www.metacritic.com/critic/gregory-ellwood?filter=movies'
p1670
sg13
(dp1671
g133
F7.5
ssg16
VThe Playlist
p1672
sg18
NsbsVThe Film Stage/Jared Mobarak
p1673
g3
(g4
g5
NtRp1674
(dp1675
g8
g1673
sg9
VJared Mobarak
p1676
sg11
S'http://www.metacritic.com/critic/jared-mobarak?filter=movies'
p1677
sg13
(dp1678
g429
F8.3000000000000007
ssg16
VThe Film Stage
p1679
sg18
NsbsVSan Francisco Chronicle/G. Allen Johnson
p1680
g3
(g4
g5
NtRp1681
(dp1682
g8
g1680
sg9
VG. Allen Johnson
p1683
sg11
S'http://www.metacritic.com/critic?filter=movies'
p1684
sg13
(dp1685
g429
F5
sg274
F7.5
sg90
F5
ssg16
VSan Francisco Chronicle
p1686
sg18
NsbsVVillage Voice/Melissa Anderson
p1687
g3
(g4
g5
NtRp1688
(dp1689
g8
g1687
sg9
VMelissa Anderson
p1690
sg11
S'http://www.metacritic.com/critic/melissa-anderson?filter=movies'
p1691
sg13
(dp1692
g173
F10
ssg16
VVillage Voice
p1693
sg18
NsbsVSan Francisco Chronicle/Ruthe Stein
p1694
g3
(g4
g5
NtRp1695
(dp1696
g8
g1694
sg9
VRuthe Stein
p1697
sg11
S'http://www.metacritic.com/critic/ruthe-stein?filter=movies'
p1698
sg13
(dp1699
g112
F10
sg123
F10
ssg16
VSan Francisco Chronicle
p1700
sg18
NsbsVThe Globe and Mail (Toronto)/James Adams
p1701
g3
(g4
g5
NtRp1702
(dp1703
g8
g1701
sg9
VJames Adams
p1704
sg11
S'http://www.metacritic.com/critic/james-adams?filter=movies'
p1705
sg13
(dp1706
g72
F7.5
ssg16
VThe Globe and Mail (Toronto)
p1707
sg18
NsbsVVillage Voice/Robert Wilonsky
p1708
g3
(g4
g5
NtRp1709
(dp1710
g8
g1708
sg9
VRobert Wilonsky
p1711
sg11
S'http://www.metacritic.com/critic?filter=movies'
p1712
sg13
(dp1713
g130
F10
sg89
F10
ssg16
VVillage Voice
p1714
sg18
NsbsVSlant Magazine/Christopher Gray
p1715
g3
(g4
g5
NtRp1716
(dp1717
g8
g1715
sg9
VChristopher Gray
p1718
sg11
S'http://www.metacritic.com/critic?filter=movies'
p1719
sg13
(dp1720
g156
F3.7999999999999998
sg63
F7.5
sg88
F8.8000000000000007
ssg16
VSlant Magazine
p1721
sg18
NsbsVMr. Showbiz/Michael Atkinson
p1722
g3
(g4
g5
NtRp1723
(dp1724
g8
g1722
sg9
VMichael Atkinson
p1725
sg11
S'http://www.metacritic.com/critic/michael-atkinson?filter=movies'
p1726
sg13
(dp1727
g539
F9
sg135
F3
sg250
F8
ssg16
VMr. Showbiz
p1728
sg18
NsbsVFilm Threat/Nick Antosca
p1729
g3
(g4
g5
NtRp1730
(dp1731
g8
g1729
sg9
VNick Antosca
p1732
sg11
S'http://www.metacritic.com/critic?filter=movies'
p1733
sg13
(dp1734
g108
F7
ssg16
VFilm Threat
p1735
sg18
NsbsVFilm Threat/Pete Vonder Haar
p1736
g3
(g4
g5
NtRp1737
(dp1738
g8
g1736
sg9
VPete Vonder Haar
p1739
sg11
S'http://www.metacritic.com/critic/pete-vonder-haar?filter=movies'
p1740
sg13
(dp1741
g136
F9
sg157
F8
sg142
F5
sg144
F9
sg132
F10
sg155
F8
sg130
F9
sg131
F3
ssg16
VFilm Threat
p1742
sg18
NsbsVPremiere/Staff (Not Credited)
p1743
g3
(g4
g5
NtRp1744
(dp1745
g8
g1743
sg9
VStaff (Not Credited)
p1746
sg11
S'http://www.metacritic.com/critic?filter=movies'
p1747
sg13
(dp1748
g127
F10
ssg16
VPremiere
p1749
sg18
NsbsVScreen International/Fionnuala Halligan
p1750
g3
(g4
g5
NtRp1751
(dp1752
g8
g1750
sg9
VFionnuala Halligan
p1753
sg11
S'http://www.metacritic.com/critic/fionnuala-halligan?filter=movies'
p1754
sg13
(dp1755
g88
F10
sg117
F9
ssg16
VScreen International
p1756
sg18
NsbsVAustin Chronicle/Marjorie Baumgarten
p1757
g3
(g4
g5
NtRp1758
(dp1759
g8
g1757
sg9
VMarjorie Baumgarten
p1760
sg11
S'http://www.metacritic.com/critic/marjorie-baumgarten?filter=movies'
p1761
sg13
(dp1762
g151
F7.7999999999999998
sg25
F8.9000000000000004
sg88
F10
sg273
F5
sg111
F10
sg112
F10
sg539
F7.7999999999999998
sg114
F6.7000000000000002
sg116
F8.9000000000000004
sg117
F7.7999999999999998
sg118
F10
sg119
F6.7000000000000002
sg202
F10
sg124
F5
sg127
F10
sg479
F7.7999999999999998
sg129
F7.7999999999999998
sg571
F8.9000000000000004
sg164
F10
sg137
F10
sg138
F7.7999999999999998
sg163
F10
sg142
F6.7000000000000002
sg212
F8.9000000000000004
sg286
F8.9000000000000004
sg150
F10
sg143
F8.9000000000000004
sg51
F8.9000000000000004
sg89
F8.9000000000000004
sg522
F7.7999999999999998
sg162
F8.9000000000000004
sg70
F8.9000000000000004
sg277
F8.9000000000000004
ssg16
VAustin Chronicle
p1763
sg18
NsbsVVillage Voice/Aaron Cutler
p1764
g3
(g4
g5
NtRp1765
(dp1766
g8
g1764
sg9
VAaron Cutler
p1767
sg11
S'http://www.metacritic.com/critic/aaron-cutler?filter=movies'
p1768
sg13
(dp1769
g277
F9
ssg16
VVillage Voice
p1770
sg18
NsbsVL.A. Weekly/Russel Swensen
p1771
g3
(g4
g5
NtRp1772
(dp1773
g8
g1771
sg9
VRussel Swensen
p1774
sg11
S'http://www.metacritic.com/critic?filter=movies'
p1775
sg13
(dp1776
g125
F7
ssg16
VL.A. Weekly
p1777
sg18
NsbsVSan Francisco Chronicle/Peter Hartlaub
p1778
g3
(g4
g5
NtRp1779
(dp1780
g8
g1778
sg9
VPeter Hartlaub
p1781
sg11
S'http://www.metacritic.com/critic/peter-hartlaub?filter=movies'
p1782
sg13
(dp1783
g133
F7.5
sg155
F10
sg109
F2.5
sg129
F10
ssg16
VSan Francisco Chronicle
p1784
sg18
NsbsVScreen International/Anthony Kaufman
p1785
g3
(g4
g5
NtRp1786
(dp1787
g8
g1785
sg9
VAnthony Kaufman
p1788
sg11
S'http://www.metacritic.com/critic?filter=movies'
p1789
sg13
(dp1790
g146
F7
sg147
F5
ssg16
VScreen International
p1791
sg18
NsbsVThe Globe and Mail (Toronto)/Brad Wheeler
p1792
g3
(g4
g5
NtRp1793
(dp1794
g8
g1792
sg9
VBrad Wheeler
p1795
sg11
S'http://www.metacritic.com/critic/brad-wheeler?filter=movies'
p1796
sg13
(dp1797
g141
F8.8000000000000007
sg212
F8.8000000000000007
ssg16
VThe Globe and Mail (Toronto)
p1798
sg18
NsbsVTV Guide Magazine/Perry Seibert
p1799
g3
(g4
g5
NtRp1800
(dp1801
g8
g1799
sg9
VPerry Seibert
p1802
sg11
S'http://www.metacritic.com/critic?filter=movies'
p1803
sg13
(dp1804
g89
F10
ssg16
VTV Guide Magazine
p1805
sg18
NsbsVThe Film Stage/Zhuo-Ning Su
p1806
g3
(g4
g5
NtRp1807
(dp1808
g8
g1806
sg9
VZhuo-Ning Su
p1809
sg11
S'http://www.metacritic.com/critic/zhuo-ning-su?filter=movies'
p1810
sg13
(dp1811
g479
F9.0999999999999996
sg274
F8.3000000000000007
ssg16
VThe Film Stage
p1812
sg18
NsbsVChristian Science Monitor/Peter Rainer
p1813
g3
(g4
g5
NtRp1814
(dp1815
g8
g1813
sg9
VPeter Rainer
p1816
sg11
S'http://www.metacritic.com/critic/peter-rainer?filter=movies'
p1817
sg13
(dp1818
g107
F5.7999999999999998
sg151
F7.5
sg25
F10
sg88
F10
sg61
F10
sg110
F10
sg112
F10
sg64
F8.3000000000000007
sg90
F9.0999999999999996
sg116
F6.7000000000000002
sg69
F7.5
sg35
F8.3000000000000007
sg522
F8.3000000000000007
sg118
F10
sg122
F10
sg62
F5
sg211
F10
sg124
F5.7999999999999998
sg91
F7.5
sg126
F10
sg65
F5.7999999999999998
sg128
F7.5
sg132
F10
sg130
F9.0999999999999996
sg479
F8.3000000000000007
sg34
F8.3000000000000007
sg325
F9.0999999999999996
sg273
F5.7999999999999998
sg129
F10
sg133
F7.5
sg134
F3.2999999999999998
sg60
F7.5
sg108
F6.7000000000000002
sg274
F9.0999999999999996
sg136
F9.0999999999999996
sg139
F8.3000000000000007
sg140
F7.5
sg141
F5.7999999999999998
sg142
F7.5
sg143
F10
sg144
F7.5
sg146
F10
sg63
F8.3000000000000007
sg173
F9.0999999999999996
sg72
F9.0999999999999996
sg149
F7.5
sg153
F7.5
sg213
F7.5
sg152
F5
sg87
F8.3000000000000007
sg155
F8.3000000000000007
sg275
F7.5
sg156
F8.3000000000000007
sg89
F8.3000000000000007
sg161
F8.3000000000000007
sg120
F10
sg66
F7.5
sg160
F8.3000000000000007
sg67
F9.0999999999999996
sg162
F10
sg164
F9.0999999999999996
sg70
F7.5
sg71
F5.7999999999999998
sg277
F9.0999999999999996
ssg16
VChristian Science Monitor
p1819
sg18
NsbsVBoston Globe/Peter Keough
p1820
g3
(g4
g5
NtRp1821
(dp1822
g8
g1820
sg9
VPeter Keough
p1823
sg11
S'http://www.metacritic.com/critic/peter-keough?filter=movies'
p1824
sg13
(dp1825
g87
F10
sg61
F10
sg530
F7.5
sg71
F8.8000000000000007
sg571
F8.8000000000000007
sg69
F8.8000000000000007
sg67
F10
ssg16
VBoston Globe
p1826
sg18
NsbsVNew York Magazine (Vulture)/Peter Rainer
p1827
g3
(g4
g5
NtRp1828
(dp1829
g8
g1827
sg9
VPeter Rainer
p1830
sg11
S'http://www.metacritic.com/critic/peter-rainer?filter=movies'
p1831
sg13
(dp1832
g538
F8
sg250
F10
sg163
F8
sg138
F10
sg541
F10
sg125
F10
sg539
F5
sg33
F10
sg148
F9
sg158
F9
sg287
F7
sg303
F8
sg165
F9
ssg16
VNew York Magazine (Vulture)
p1833
sg18
NsbsVFilm Threat/David Grove
p1834
g3
(g4
g5
NtRp1835
(dp1836
g8
g1834
sg9
VDavid Grove
p1837
sg11
S'http://www.metacritic.com/critic/david-grove?filter=movies'
p1838
sg13
(dp1839
g113
F6
ssg16
VFilm Threat
p1840
sg18
NsbsVLos Angeles Times/Kenneth Turan
p1841
g3
(g4
g5
NtRp1842
(dp1843
g8
g1841
sg9
VKenneth Turan
p1844
sg11
S'http://www.metacritic.com/critic/kenneth-turan?filter=movies'
p1845
sg13
(dp1846
g538
F10
sg107
F10
sg25
F10
sg88
F10
sg110
F10
sg112
F9
sg64
F10
sg539
F9
sg108
F5
sg52
F3
sg116
F10
sg69
F9
sg118
F10
sg119
F7
sg285
F9
sg122
F10
sg302
F3
sg99
F8
sg124
F5
sg91
F10
sg15
F10
sg429
F9
sg128
F10
sg129
F10
sg541
F9
sg130
F10
sg33
F10
sg34
F9
sg131
F2
sg325
F9
sg132
F8
sg133
F8
sg135
F8
sg136
F10
sg138
F10
sg139
F10
sg140
F8
sg141
F10
sg142
F6
sg143
F10
sg144
F8
sg145
F8
sg146
F10
sg63
F10
sg173
F10
sg72
F10
sg148
F9
sg149
F10
sg164
F9
sg150
F10
sg212
F6
sg287
F4
sg303
F10
sg153
F9
sg155
F10
sg51
F9
sg157
F9
sg89
F10
sg90
F8
sg120
F10
sg66
F10
sg160
F10
sg161
F10
sg162
F10
sg165
F10
sg70
F10
sg277
F10
ssg16
VLos Angeles Times
p1847
sg18
NsbsVSt. Louis Post-Dispatch/Gail Pennington
p1848
g3
(g4
g5
NtRp1849
(dp1850
g8
g1848
sg9
VGail Pennington
p1851
sg11
S'http://www.metacritic.com/critic/gail-pennington?filter=movies'
p1852
sg13
(dp1853
g63
F7.5
ssg16
VSt. Louis Post-Dispatch
p1854
sg18
NsbsVDallas Observer/Staff (Not credited)
p1855
g3
(g4
g5
NtRp1856
(dp1857
g8
g1855
sg9
VStaff (Not credited)
p1858
sg11
S'http://www.metacritic.com/critic?filter=movies'
p1859
sg13
(dp1860
g148
F8
ssg16
VDallas Observer
p1861
sg18
NsbsVThe New Yorker/Pauline Kael
p1862
g3
(g4
g5
NtRp1863
(dp1864
g8
g1862
sg9
VPauline Kael
p1865
sg11
S'http://www.metacritic.com/critic/pauline-kael?filter=movies'
p1866
sg13
(dp1867
g540
F3
ssg16
VThe New Yorker
p1868
sg18
NsbsVThe Globe and Mail (Toronto)/Gayle MacDonald
p1869
g3
(g4
g5
NtRp1870
(dp1871
g8
g1869
sg9
VGayle MacDonald
p1872
sg11
S'http://www.metacritic.com/critic?filter=movies'
p1873
sg13
(dp1874
g134
F5
ssg16
VThe Globe and Mail (Toronto)
p1875
sg18
NsbsVChicago Reader/Staff (not credited)
p1876
g3
(g4
g5
NtRp1877
(dp1878
g8
g1876
sg9
VStaff (not credited)
p1879
sg11
S'http://www.metacritic.com/critic?filter=movies'
p1880
sg13
(dp1881
g155
F10
ssg16
VChicago Reader
p1882
sg18
NsbsVThe Globe and Mail (Toronto)/Staff (Not Credited)
p1883
g3
(g4
g5
NtRp1884
(dp1885
g8
g1883
sg9
VStaff (Not Credited)
p1886
sg11
S'http://www.metacritic.com/critic?filter=movies'
p1887
sg13
(dp1888
g542
F8.8000000000000007
ssg16
VThe Globe and Mail (Toronto)
p1889
sg18
NsbsVThe Hollywood Reporter/Eric Hansen
p1890
g3
(g4
g5
NtRp1891
(dp1892
g8
g1890
sg9
VEric Hansen
p1893
sg11
S'http://www.metacritic.com/critic?filter=movies'
p1894
sg13
(dp1895
g34
F8
ssg16
VThe Hollywood Reporter
p1896
sg18
NsbsVChicago Reader/Ronnie Scheib
p1897
g3
(g4
g5
NtRp1898
(dp1899
g8
g1897
sg9
VRonnie Scheib
p1900
sg11
S'http://www.metacritic.com/critic/ronnie-scheib?filter=movies'
p1901
sg13
(dp1902
g287
F5
ssg16
VChicago Reader
p1903
sg18
NsbsVTime Out New York/Keith Uhlich
p1904
g3
(g4
g5
NtRp1905
(dp1906
g8
g1904
sg9
VKeith Uhlich
p1907
sg11
S'http://www.metacritic.com/critic/keith-uhlich?filter=movies'
p1908
sg13
(dp1909
g108
F8
sg275
F8
sg140
F8
sg124
F8
sg114
F6
sg161
F6
ssg16
VTime Out New York
p1910
sg18
NsbsVVillage Voice/Ed Gonzalez
p1911
g3
(g4
g5
NtRp1912
(dp1913
g8
g1911
sg9
VEd Gonzalez
p1914
sg11
S'http://www.metacritic.com/critic?filter=movies'
p1915
sg13
(dp1916
g35
F5
ssg16
VVillage Voice
p1917
sg18
NsbsVAustin Chronicle/Steve Davis
p1918
g3
(g4
g5
NtRp1919
(dp1920
g8
g1918
sg9
VSteve Davis
p1921
sg11
S'http://www.metacritic.com/critic/steve-davis?filter=movies'
p1922
sg13
(dp1923
g146
F8.9000000000000004
sg128
F10
sg147
F6.7000000000000002
sg213
F8.9000000000000004
ssg16
VAustin Chronicle
p1924
sg18
NsbsVFilm Threat/Don R. Lewis
p1925
g3
(g4
g5
NtRp1926
(dp1927
g8
g1925
sg9
VDon R. Lewis
p1928
sg11
S'http://www.metacritic.com/critic?filter=movies'
p1929
sg13
(dp1930
g112
F9
sg143
F10
ssg16
VFilm Threat
p1931
sg18
NsbsVLos Angeles Times/John Anderson
p1932
g3
(g4
g5
NtRp1933
(dp1934
g8
g1932
sg9
VJohn Anderson
p1935
sg11
S'http://www.metacritic.com/critic?filter=movies'
p1936
sg13
(dp1937
g159
F8
ssg16
VLos Angeles Times
p1938
sg18
NsbsVThe Globe and Mail (Toronto)/Barry Hertz
p1939
g3
(g4
g5
NtRp1940
(dp1941
g8
g1939
sg9
VBarry Hertz
p1942
sg11
S'http://www.metacritic.com/critic/barry-hertz?filter=movies'
p1943
sg13
(dp1944
g60
F8.8000000000000007
sg62
F8.8000000000000007
sg117
F8.8000000000000007
sg479
F6.2999999999999998
sg70
F8.8000000000000007
sg67
F5
ssg16
VThe Globe and Mail (Toronto)
p1945
sg18
NsbsVFilm.com/James Rocchi
p1946
g3
(g4
g5
NtRp1947
(dp1948
g8
g1946
sg9
VJames Rocchi
p1949
sg11
S'http://www.metacritic.com/critic/james-rocchi?filter=movies'
p1950
sg13
(dp1951
g65
F6.2999999999999998
ssg16
VFilm.com
p1952
sg18
NsbsVFilm.com/Tom Keogh
p1953
g3
(g4
g5
NtRp1954
(dp1955
g8
g1953
sg9
VTom Keogh
p1956
sg11
S'http://www.metacritic.com/critic/tom-keogh?filter=movies'
p1957
sg13
(dp1958
g159
F8
sg302
F4
ssg16
VFilm.com
p1959
sg18
NsbsVChicago Sun-Times/Patrick Z. McGavin
p1960
g3
(g4
g5
NtRp1961
(dp1962
g8
g1960
sg9
VPatrick Z. McGavin
p1963
sg11
S'http://www.metacritic.com/critic?filter=movies'
p1964
sg13
(dp1965
g530
F7.5
ssg16
VChicago Sun-Times
p1966
sg18
NsbsVPremiere/Nick Starkey
p1967
g3
(g4
g5
NtRp1968
(dp1969
g8
g1967
sg9
VNick Starkey
p1970
sg11
S'http://www.metacritic.com/critic?filter=movies'
p1971
sg13
(dp1972
g161
F10
ssg16
VPremiere
p1973
sg18
NsbsVVillage Voice/Danny King
p1974
g3
(g4
g5
NtRp1975
(dp1976
g8
g1974
sg9
VDanny King
p1977
sg11
S'http://www.metacritic.com/critic/danny-king?filter=movies'
p1978
sg13
(dp1979
g133
F8
ssg16
VVillage Voice
p1980
sg18
NsbsVChicago Reader/Lisa Alspector
p1981
g3
(g4
g5
NtRp1982
(dp1983
g8
g1981
sg9
VLisa Alspector
p1984
sg11
S'http://www.metacritic.com/critic/lisa-alspector?filter=movies'
p1985
sg13
(dp1986
g159
F8
ssg16
VChicago Reader
p1987
sg18
NsbsVChicago Sun-Times/Bruce Ingram
p1988
g3
(g4
g5
NtRp1989
(dp1990
g8
g1988
sg9
VBruce Ingram
p1991
sg11
S'http://www.metacritic.com/critic/bruce-ingram?filter=movies'
p1992
sg13
(dp1993
g139
F10
sg213
F7.5
ssg16
VChicago Sun-Times
p1994
sg18
NsbsVThe Dissolve/Nathan Rabin
p1995
g3
(g4
g5
NtRp1996
(dp1997
g8
g1995
sg9
VNathan Rabin
p1998
sg11
S'http://www.metacritic.com/critic/nathan-rabin?filter=movies'
p1999
sg13
(dp2000
g530
F8
ssg16
VThe Dissolve
p2001
sg18
NsbsVThe Guardian/Andrew Pulver
p2002
g3
(g4
g5
NtRp2003
(dp2004
g8
g2002
sg9
VAndrew Pulver
p2005
sg11
S'http://www.metacritic.com/critic/andrew-pulver?filter=movies'
p2006
sg13
(dp2007
g479
F8
sg139
F8
sg325
F8
ssg16
VThe Guardian
p2008
sg18
NsbsVThe Verge/Chris Plante
p2009
g3
(g4
g5
NtRp2010
(dp2011
g8
g2009
sg9
VChris Plante
p2012
sg11
S'http://www.metacritic.com/critic?filter=movies'
p2013
sg13
(dp2014
g88
F9.5
ssg16
VThe Verge
p2015
sg18
NsbsVThe Hollywood Reporter/Sura Wood
p2016
g3
(g4
g5
NtRp2017
(dp2018
g8
g2016
sg9
VSura Wood
p2019
sg11
S'http://www.metacritic.com/critic?filter=movies'
p2020
sg13
(dp2021
g144
F6
ssg16
VThe Hollywood Reporter
p2022
sg18
NsbsVHitfix/Catherine Bray
p2023
g3
(g4
g5
NtRp2024
(dp2025
g8
g2023
sg9
VCatherine Bray
p2026
sg11
S'http://www.metacritic.com/critic?filter=movies'
p2027
sg13
(dp2028
g65
F9.0999999999999996
ssg16
VHitfix
p2029
sg18
NsbsVTotal Film/Kevin Harley
p2030
g3
(g4
g5
NtRp2031
(dp2032
g8
g2030
sg9
VKevin Harley
p2033
sg11
S'http://www.metacritic.com/critic/kevin-harley?filter=movies'
p2034
sg13
(dp2035
g156
F8
sg150
F10
ssg16
VTotal Film
p2036
sg18
NsbsVThe Guardian/Xan Brooks
p2037
g3
(g4
g5
NtRp2038
(dp2039
g8
g2037
sg9
VXan Brooks
p2040
sg11
S'http://www.metacritic.com/critic/xan-brooks?filter=movies'
p2041
sg13
(dp2042
g61
F8
sg110
F10
sg141
F8
sg64
F8
sg65
F6
sg68
F10
ssg16
VThe Guardian
p2043
sg18
NsbsVWashington Post/Ann Hornaday
p2044
g3
(g4
g5
NtRp2045
(dp2046
g8
g2044
sg9
VAnn Hornaday
p2047
sg11
S'http://www.metacritic.com/critic/ann-hornaday?filter=movies'
p2048
sg13
(dp2049
g107
F10
sg151
F6.2999999999999998
sg88
F10
sg61
F10
sg110
F6.2999999999999998
sg112
F10
sg64
F10
sg114
F5
sg116
F10
sg69
F7.5
sg35
F7
sg147
F10
sg122
F10
sg62
F6.2999999999999998
sg211
F10
sg124
F3.7999999999999998
sg91
F10
sg65
F10
sg128
F10
sg132
F10
sg479
F8.8000000000000007
sg325
F6.2999999999999998
sg273
F7.5
sg129
F10
sg133
F8.8000000000000007
sg134
F2.5
sg108
F5
sg139
F7.5
sg140
F7.5
sg141
F8.8000000000000007
sg153
F10
sg144
F9
sg146
F10
sg63
F10
sg173
F10
sg72
F10
sg149
F8.8000000000000007
sg150
F10
sg152
F7.5
sg87
F8.8000000000000007
sg275
F7.5
sg156
F6.2999999999999998
sg157
F5
sg89
F10
sg522
F10
sg120
F9
sg66
F10
sg160
F10
sg161
F7.5
sg162
F7
sg163
F9
sg164
F10
sg70
F10
sg67
F7.5
sg277
F7.5
ssg16
VWashington Post
p2050
sg18
NsbsVNPR/Mark Jenkins
p2051
g3
(g4
g5
NtRp2052
(dp2053
g8
g2051
sg9
VMark Jenkins
p2054
sg11
S'http://www.metacritic.com/critic/mark-jenkins?filter=movies'
p2055
sg13
(dp2056
g275
F7
ssg16
VNPR
p2057
sg18
NsbsVIndiewire/Adam Cook
p2058
g3
(g4
g5
NtRp2059
(dp2060
g8
g2058
sg9
VAdam Cook
p2061
sg11
S'http://www.metacritic.com/critic?filter=movies'
p2062
sg13
(dp2063
g274
F4.2000000000000002
ssg16
VIndiewire
p2064
sg18
NsbsVTNT RoughCut/Graham Verdon
p2065
g3
(g4
g5
NtRp2066
(dp2067
g8
g2065
sg9
VGraham Verdon
p2068
sg11
S'http://www.metacritic.com/critic?filter=movies'
p2069
sg13
(dp2070
g99
F4
ssg16
VTNT RoughCut
p2071
sg18
NsbsVEmpire/Angie Errigo
p2072
g3
(g4
g5
NtRp2073
(dp2074
g8
g2072
sg9
VAngie Errigo
p2075
sg11
S'http://www.metacritic.com/critic/angie-errigo?filter=movies'
p2076
sg13
(dp2077
g127
F10
sg146
F8
sg119
F8
ssg16
VEmpire
p2078
sg18
NsbsVConsequence of Sound/Dominick Suzanne-Mayer
p2079
g3
(g4
g5
NtRp2080
(dp2081
g8
g2079
sg9
VDominick Suzanne-Mayer
p2082
sg11
S'http://www.metacritic.com/critic/dominick-suzanne-mayer?filter=movies'
p2083
sg13
(dp2084
g133
F5.7999999999999998
sg128
F10
sg147
F4.2000000000000002
sg91
F9.0999999999999996
ssg16
VConsequence of Sound
p2085
sg18
NsbsVNew Times (L.A.)/Gregory Weinkauf
p2086
g3
(g4
g5
NtRp2087
(dp2088
g8
g2086
sg9
VGregory Weinkauf
p2089
sg11
S'http://www.metacritic.com/critic/gregory-weinkauf?filter=movies'
p2090
sg13
(dp2091
g250
F7
sg303
F9
ssg16
VNew Times (L.A.)
p2092
sg18
NsbsVEmpire/Phil de Semlyen
p2093
g3
(g4
g5
NtRp2094
(dp2095
g8
g2093
sg9
VPhil de Semlyen
p2096
sg11
S'http://www.metacritic.com/critic/phil-de-semlyen?filter=movies'
p2097
sg13
(dp2098
g211
F10
sg88
F10
ssg16
VEmpire
p2099
sg18
NsbsVChicago Tribune/Dave Kehr
p2100
g3
(g4
g5
NtRp2101
(dp2102
g8
g2100
sg9
VDave Kehr
p2103
sg11
S'http://www.metacritic.com/critic/dave-kehr?filter=movies'
p2104
sg13
(dp2105
g540
F8.8000000000000007
ssg16
VChicago Tribune
p2106
sg18
NsbsVSlant Magazine/Steve Macfarlane
p2107
g3
(g4
g5
NtRp2108
(dp2109
g8
g2107
sg9
VSteve Macfarlane
p2110
sg11
S'http://www.metacritic.com/critic/steve-macfarlane?filter=movies'
p2111
sg13
(dp2112
g150
F7.5
ssg16
VSlant Magazine
p2113
sg18
NsbsVWe Got This Covered/Sam Woolf
p2114
g3
(g4
g5
NtRp2115
(dp2116
g8
g2114
sg9
VSam Woolf
p2117
sg11
S'http://www.metacritic.com/critic?filter=movies'
p2118
sg13
(dp2119
g117
F8
ssg16
VWe Got This Covered
p2120
sg18
NsbsVSan Francisco Examiner/G. Allen Johnson
p2121
g3
(g4
g5
NtRp2122
(dp2123
g8
g2121
sg9
VG. Allen Johnson
p2124
sg11
S'http://www.metacritic.com/critic/g-allen-johnson?filter=movies'
p2125
sg13
(dp2126
g145
F8.8000000000000007
sg52
F0
ssg16
VSan Francisco Examiner
p2127
sg18
NsbsVPortland Oregonian/Jeff Baker
p2128
g3
(g4
g5
NtRp2129
(dp2130
g8
g2128
sg9
VJeff Baker
p2131
sg11
S'http://www.metacritic.com/critic/jeff-baker?filter=movies'
p2132
sg13
(dp2133
g156
F6.7000000000000002
sg530
F9.0999999999999996
sg70
F10
sg522
F9.0999999999999996
sg146
F8.3000000000000007
sg150
F10
sg325
F9.0999999999999996
sg117
F9.0999999999999996
ssg16
VPortland Oregonian
p2134
sg18
NsbsVSlant Magazine/John Semley
p2135
g3
(g4
g5
NtRp2136
(dp2137
g8
g2135
sg9
VJohn Semley
p2138
sg11
S'http://www.metacritic.com/critic?filter=movies'
p2139
sg13
(dp2140
g107
F7.5
sg151
F6.2999999999999998
ssg16
VSlant Magazine
p2141
sg18
NsbsVVariety/Lisa Nesselson
p2142
g3
(g4
g5
NtRp2143
(dp2144
g8
g2142
sg9
VLisa Nesselson
p2145
sg11
S'http://www.metacritic.com/critic/lisa-nesselson?filter=movies'
p2146
sg13
(dp2147
g286
F9
sg287
F8
sg123
F9
ssg16
VVariety
p2148
sg18
NsbsVThe Globe and Mail (Toronto)/Rick Groen
p2149
g3
(g4
g5
NtRp2150
(dp2151
g8
g2149
sg9
VRick Groen
p2152
sg11
S'http://www.metacritic.com/critic/rick-groen?filter=movies'
p2153
sg13
(dp2154
g538
F6.2999999999999998
sg114
F7.5
sg52
F3.7999999999999998
sg116
F10
sg35
F6.2999999999999998
sg118
F8.8000000000000007
sg163
F7.5
sg126
F8.8000000000000007
sg129
F10
sg34
F8.8000000000000007
sg131
F3.7999999999999998
sg132
F7.5
sg108
F5
sg138
F7.5
sg140
F7.5
sg142
F7.5
sg143
F10
sg144
F6.2999999999999998
sg286
F8.8000000000000007
sg123
F7.5
sg149
F7.5
sg152
F8.8000000000000007
sg153
F8.8000000000000007
sg275
F7.5
sg51
F8.8000000000000007
sg160
F8.8000000000000007
sg161
F7.5
sg162
F7.5
ssg16
VThe Globe and Mail (Toronto)
p2155
sg18
NsbsVRogerEbert.com/Sheila O'Malley
p2156
g3
(g4
g5
NtRp2157
(dp2158
g8
g2156
sg9
VSheila O'Malley
p2159
sg11
S'http://www.metacritic.com/critic/sheila-omalley?filter=movies'
p2160
sg13
(dp2161
g156
F3.7999999999999998
sg70
F8.8000000000000007
sg479
F7.5
sg150
F8.8000000000000007
sg147
F3.7999999999999998
sg71
F8.8000000000000007
ssg16
VRogerEbert.com
p2162
sg18
NsbsVThe A.V. Club/Nathan Rabin
p2163
g3
(g4
g5
NtRp2164
(dp2165
g8
g2163
sg9
VNathan Rabin
p2166
sg11
S'http://www.metacritic.com/critic/nathan-rabin?filter=movies'
p2167
sg13
(dp2168
g134
F7.5
sg135
F10
sg151
F9.0999999999999996
sg165
F9
sg126
F8
sg113
F7
sg132
F8.3000000000000007
sg164
F10
sg119
F5
sg152
F10
ssg16
VThe A.V. Club
p2169
sg18
NsbsVThe A.V. Club/Mike D'Angelo
p2170
g3
(g4
g5
NtRp2171
(dp2172
g8
g2170
sg9
VMike D'Angelo
p2173
sg11
S'http://www.metacritic.com/critic/mike-dangelo?filter=movies'
p2174
sg13
(dp2175
g87
F8.3000000000000007
sg274
F5
sg61
F7.5
sg273
F6.7000000000000002
sg211
F8.3000000000000007
sg530
F7.5
sg212
F5
sg150
F9.0999999999999996
sg90
F8.3000000000000007
sg117
F10
sg67
F9.0999999999999996
ssg16
VThe A.V. Club
p2176
sg18
NsbsVFilm Threat/Staff (Not credited)
p2177
g3
(g4
g5
NtRp2178
(dp2179
g8
g2177
sg9
VStaff (Not credited)
p2180
sg11
S'http://www.metacritic.com/critic?filter=movies'
p2181
sg13
(dp2182
g538
F6
ssg16
VFilm Threat
p2183
sg18
NsbsVThe Playlist/Chris Willman
p2184
g3
(g4
g5
NtRp2185
(dp2186
g8
g2184
sg9
VChris Willman
p2187
sg11
S'http://www.metacritic.com/critic?filter=movies'
p2188
sg13
(dp2189
g128
F9.0999999999999996
ssg16
VThe Playlist
p2190
sg18
NsbsVCineVue/Joe Walsh
p2191
g3
(g4
g5
NtRp2192
(dp2193
g8
g2191
sg9
VJoe Walsh
p2194
sg11
S'http://www.metacritic.com/critic/joe-walsh?filter=movies'
p2195
sg13
(dp2196
g63
F8
sg128
F10
ssg16
VCineVue
p2197
sg18
NsbsVVillage Voice/J. Hoberman
p2198
g3
(g4
g5
NtRp2199
(dp2200
g8
g2198
sg9
VJ. Hoberman
p2201
sg11
S'http://www.metacritic.com/critic/j-hoberman?filter=movies'
p2202
sg13
(dp2203
g538
F7
sg272
F8
sg112
F10
sg539
F9
sg135
F4
sg118
F8
sg285
F4
sg99
F8
sg125
F7
sg126
F7
sg33
F8
sg132
F9
sg34
F7
sg129
F9
sg108
F9
sg138
F9
sg163
F9
sg142
F8
sg287
F7
sg303
F8
sg250
F4
sg120
F10
sg160
F7
sg161
F7
sg162
F7
sg164
F10
sg158
F7
sg165
F9
ssg16
VVillage Voice
p2204
sg18
NsbsVScreen International/David D'Arcy
p2205
g3
(g4
g5
NtRp2206
(dp2207
g8
g2205
sg9
VDavid D'Arcy
p2208
sg11
S'http://www.metacritic.com/critic/david-darcy?filter=movies'
p2209
sg13
(dp2210
g15
F7
ssg16
VScreen International
p2211
sg18
NsbsVThe Film Stage/Rory O'Connor
p2212
g3
(g4
g5
NtRp2213
(dp2214
g8
g2212
sg9
VRory O'Connor
p2215
sg11
S'http://www.metacritic.com/critic/rory-oconnor?filter=movies'
p2216
sg13
(dp2217
g60
F10
ssg16
VThe Film Stage
p2218
sg18
NsbsVFilm Threat/Zach Haddad
p2219
g3
(g4
g5
NtRp2220
(dp2221
g8
g2219
sg9
VZach Haddad
p2222
sg11
S'http://www.metacritic.com/critic?filter=movies'
p2223
sg13
(dp2224
g109
F6
ssg16
VFilm Threat
p2225
sg18
NsbsVConsequence of Sound/Collin Brennan
p2226
g3
(g4
g5
NtRp2227
(dp2228
g8
g2226
sg9
VCollin Brennan
p2229
sg11
S'http://www.metacritic.com/critic/collin-brennan?filter=movies'
p2230
sg13
(dp2231
g479
F5
ssg16
VConsequence of Sound
p2232
sg18
NsbsVThe Globe and Mail (Toronto)/Geoff Pevere
p2233
g3
(g4
g5
NtRp2234
(dp2235
g8
g2233
sg9
VGeoff Pevere
p2236
sg11
S'http://www.metacritic.com/critic?filter=movies'
p2237
sg13
(dp2238
g325
F7.5
ssg16
VThe Globe and Mail (Toronto)
p2239
sg18
NsbsVBoxoffice Magazine/Pete Hammond
p2240
g3
(g4
g5
NtRp2241
(dp2242
g8
g2240
sg9
VPete Hammond
p2243
sg11
S'http://www.metacritic.com/critic/pete-hammond?filter=movies'
p2244
sg13
(dp2245
g149
F10
sg140
F9
sg153
F8
sg114
F9
sg160
F10
ssg16
VBoxoffice Magazine
p2246
sg18
NsbsVThe Hollywood Reporter/John DeFore
p2247
g3
(g4
g5
NtRp2248
(dp2249
g8
g2247
sg9
VJohn DeFore
p2250
sg11
S'http://www.metacritic.com/critic/john-defore?filter=movies'
p2251
sg13
(dp2252
g156
F10
sg530
F8
sg164
F10
ssg16
VThe Hollywood Reporter
p2253
sg18
NsbsVEntertainment Weekly/Joe McGovern
p2254
g3
(g4
g5
NtRp2255
(dp2256
g8
g2254
sg9
VJoe McGovern
p2257
sg11
S'http://www.metacritic.com/critic?filter=movies'
p2258
sg13
(dp2259
g25
F9.0999999999999996
sg211
F8.3000000000000007
sg87
F10
sg90
F9.0999999999999996
ssg16
VEntertainment Weekly
p2260
sg18
NsbsVScreenCrush/Jordan Hoffman
p2261
g3
(g4
g5
NtRp2262
(dp2263
g8
g2261
sg9
VJordan Hoffman
p2264
sg11
S'http://www.metacritic.com/critic?filter=movies'
p2265
sg13
(dp2266
g128
F10
ssg16
VScreenCrush
p2267
sg18
NsbsVThe Hollywood Reporter/Todd McCarthy
p2268
g3
(g4
g5
NtRp2269
(dp2270
g8
g2268
sg9
VTodd McCarthy
p2271
sg11
S'http://www.metacritic.com/critic/todd-mccarthy?filter=movies'
p2272
sg13
(dp2273
g107
F10
sg151
F8
sg88
F9
sg110
F10
sg64
F10
sg117
F10
sg122
F9
sg62
F5
sg124
F6
sg15
F6
sg65
F10
sg128
F9
sg133
F9
sg139
F9
sg140
F9
sg141
F10
sg146
F10
sg63
F9
sg72
F10
sg150
F9
sg153
F8
sg90
F8
sg66
F8
sg70
F6
sg277
F10
ssg16
VThe Hollywood Reporter
p2274
sg18
NsbsVWall Street Journal/John Anderson
p2275
g3
(g4
g5
NtRp2276
(dp2277
g8
g2275
sg9
VJohn Anderson
p2278
sg11
S'http://www.metacritic.com/critic/john-anderson?filter=movies'
p2279
sg13
(dp2280
g149
F5
sg90
F8
ssg16
VWall Street Journal
p2281
sg18
NsbsVScreen International/Charles Gant
p2282
g3
(g4
g5
NtRp2283
(dp2284
g8
g2282
sg9
VCharles Gant
p2285
sg11
S'http://www.metacritic.com/critic?filter=movies'
p2286
sg13
(dp2287
g63
F8
ssg16
VScreen International
p2288
sg18
NsbsVThe A.V. Club/Keith Uhlich
p2289
g3
(g4
g5
NtRp2290
(dp2291
g8
g2289
sg9
VKeith Uhlich
p2292
sg11
S'http://www.metacritic.com/critic?filter=movies'
p2293
sg13
(dp2294
g325
F7.5
sg571
F9.0999999999999996
ssg16
VThe A.V. Club
p2295
sg18
NsbsVVariety/Owen Gleiberman
p2296
g3
(g4
g5
NtRp2297
(dp2298
g8
g2296
sg9
VOwen Gleiberman
p2299
sg11
S'http://www.metacritic.com/critic/owen-gleiberman?filter=movies'
p2300
sg13
(dp2301
g87
F10
sg62
F9
ssg16
VVariety
p2302
sg18
NsbsVLos Angeles Times/Mark Olsen
p2303
g3
(g4
g5
NtRp2304
(dp2305
g8
g2303
sg9
VMark Olsen
p2306
sg11
S'http://www.metacritic.com/critic/mark-olsen?filter=movies'
p2307
sg13
(dp2308
g117
F9
ssg16
VLos Angeles Times
p2309
sg18
NsbsVFilm Threat/Ross Williams
p2310
g3
(g4
g5
NtRp2311
(dp2312
g8
g2310
sg9
VRoss Williams
p2313
sg11
S'http://www.metacritic.com/critic/ross-williams?filter=movies'
p2314
sg13
(dp2315
g287
F10
ssg16
VFilm Threat
p2316
sg18
NsbsVEmpire/Simon Braund
p2317
g3
(g4
g5
NtRp2318
(dp2319
g8
g2317
sg9
VSimon Braund
p2320
sg11
S'http://www.metacritic.com/critic?filter=movies'
p2321
sg13
(dp2322
g131
F4
sg121
F8
ssg16
VEmpire
p2323
sg18
NsbsVThe Globe and Mail (Toronto)/John Semley
p2324
g3
(g4
g5
NtRp2325
(dp2326
g8
g2324
sg9
VJohn Semley
p2327
sg11
S'http://www.metacritic.com/critic/john-semley?filter=movies'
p2328
sg13
(dp2329
g522
F2.5
ssg16
VThe Globe and Mail (Toronto)
p2330
sg18
NsbsVThe Playlist/Russ Fischer
p2331
g3
(g4
g5
NtRp2332
(dp2333
g8
g2331
sg9
VRuss Fischer
p2334
sg11
S'http://www.metacritic.com/critic/russ-fischer?filter=movies'
p2335
sg13
(dp2336
g62
F9.0999999999999996
sg147
F5
ssg16
VThe Playlist
p2337
sg18
NsbsVTheWrap/Alonso Duralde
p2338
g3
(g4
g5
NtRp2339
(dp2340
g8
g2338
sg9
VAlonso Duralde
p2341
sg11
S'http://www.metacritic.com/critic/alonso-duralde?filter=movies'
p2342
sg13
(dp2343
g273
F6.5999999999999996
sg62
F7.2000000000000002
sg530
F9
sg117
F8.5
sg147
F9
sg65
F9
sg146
F8.5
sg63
F8.9000000000000004
sg173
F8.5
sg522
F8
sg150
F9.5
sg70
F9.5
sg213
F9.1999999999999993
ssg16
VTheWrap
p2344
sg18
NsbsVNewsweek/Jack Kroll
p2345
g3
(g4
g5
NtRp2346
(dp2347
g8
g2345
sg9
VJack Kroll
p2348
sg11
S'http://www.metacritic.com/critic?filter=movies'
p2349
sg13
(dp2350
g540
F10
sg135
F8
ssg16
VNewsweek
p2351
sg18
NsbsVPremiere/Staff (Not credited)
p2352
g3
(g4
g5
NtRp2353
(dp2354
g8
g2352
sg9
VStaff (Not credited)
p2355
sg11
S'http://www.metacritic.com/critic?filter=movies'
p2356
sg13
(dp2357
g149
F8.8000000000000007
sg89
F8.8000000000000007
ssg16
VPremiere
p2358
sg18
NsbsVVillage Voice/April Wolfe
p2359
g3
(g4
g5
NtRp2360
(dp2361
g8
g2359
sg9
VApril Wolfe
p2362
sg11
S'http://www.metacritic.com/critic/april-wolfe?filter=movies'
p2363
sg13
(dp2364
g88
F10
ssg16
VVillage Voice
p2365
sg18
NsbsVThe Hollywood Reporter/Deborah Young
p2366
g3
(g4
g5
NtRp2367
(dp2368
g8
g2366
sg9
VDeborah Young
p2369
sg11
S'http://www.metacritic.com/critic?filter=movies'
p2370
sg13
(dp2371
g60
F9
sg274
F5
sg272
F7
sg61
F8
sg87
F8
sg68
F8
sg116
F10
sg69
F9
sg118
F9
ssg16
VThe Hollywood Reporter
p2372
sg18
NsbsVTime/Stephanie Zacharek
p2373
g3
(g4
g5
NtRp2374
(dp2375
g8
g2373
sg9
VStephanie Zacharek
p2376
sg11
S'http://www.metacritic.com/critic/stephanie-zacharek?filter=movies'
p2377
sg13
(dp2378
g88
F9
sg62
F7
sg91
F10
sg173
F9
sg71
F8
sg147
F7
sg67
F6
ssg16
VTime
p2379
sg18
NsbsVSan Francisco Chronicle/Edward Guthmann
p2380
g3
(g4
g5
NtRp2381
(dp2382
g8
g2380
sg9
VEdward Guthmann
p2383
sg11
S'http://www.metacritic.com/critic/edward-guthmann?filter=movies'
p2384
sg13
(dp2385
g539
F7.5
sg285
F10
sg165
F10
ssg16
VSan Francisco Chronicle
p2386
sg18
NsbsVEmpire/David Hughes
p2387
g3
(g4
g5
NtRp2388
(dp2389
g8
g2387
sg9
VDavid Hughes
p2390
sg11
S'http://www.metacritic.com/critic/david-hughes?filter=movies'
p2391
sg13
(dp2392
g538
F8
sg116
F10
sg68
F8
sg325
F10
sg277
F8
ssg16
VEmpire
p2393
sg18
NsbsVThe Playlist/Drew Taylor
p2394
g3
(g4
g5
NtRp2395
(dp2396
g8
g2394
sg9
VDrew Taylor
p2397
sg11
S'http://www.metacritic.com/critic/drew-taylor?filter=movies'
p2398
sg13
(dp2399
g153
F5
sg530
F7.5
ssg16
VThe Playlist
p2400
sg18
NsbsVChicago Reader/Dave Kehr
p2401
g3
(g4
g5
NtRp2402
(dp2403
g8
g2401
sg9
VDave Kehr
p2404
sg11
S'http://www.metacritic.com/critic/dave-kehr?filter=movies'
p2405
sg13
(dp2406
g202
F10
sg137
F2
ssg16
VChicago Reader
p2407
sg18
NsbsVSlant Magazine/Chris Cabin
p2408
g3
(g4
g5
NtRp2409
(dp2410
g8
g2408
sg9
VChris Cabin
p2411
sg11
S'http://www.metacritic.com/critic/chris-cabin?filter=movies'
p2412
sg13
(dp2413
g273
F6.2999999999999998
sg72
F8.8000000000000007
sg277
F7.5
ssg16
VSlant Magazine
p2414
sg18
NsbsVThe Globe and Mail (Toronto)/Ray Conlogue
p2415
g3
(g4
g5
NtRp2416
(dp2417
g8
g2415
sg9
VRay Conlogue
p2418
sg11
S'http://www.metacritic.com/critic/ray-conlogue?filter=movies'
p2419
sg13
(dp2420
g113
F7.5
ssg16
VThe Globe and Mail (Toronto)
p2421
sg18
NsbsVRogerEbert.com/Glenn Kenny
p2422
g3
(g4
g5
NtRp2423
(dp2424
g8
g2422
sg9
VGlenn Kenny
p2425
sg11
S'http://www.metacritic.com/critic/glenn-kenny?filter=movies'
p2426
sg13
(dp2427
g25
F10
sg122
F8.8000000000000007
sg61
F10
sg139
F10
sg146
F10
sg72
F10
sg273
F2.5
ssg16
VRogerEbert.com
p2428
sg18
NsbsVChicago Tribune/Tasha Robinson
p2429
g3
(g4
g5
NtRp2430
(dp2431
g8
g2429
sg9
VTasha Robinson
p2432
sg11
S'http://www.metacritic.com/critic?filter=movies'
p2433
sg13
(dp2434
g286
F8.8000000000000007
ssg16
VChicago Tribune
p2435
sg18
NsbsVThe Playlist/Rodrigo Perez
p2436
g3
(g4
g5
NtRp2437
(dp2438
g8
g2436
sg9
VRodrigo Perez
p2439
sg11
S'http://www.metacritic.com/critic/rodrigo-perez?filter=movies'
p2440
sg13
(dp2441
g107
F8.3000000000000007
sg151
F4.2000000000000002
sg122
F9.0999999999999996
sg156
F9.0999999999999996
sg124
F8.3000000000000007
sg146
F10
sg69
F8.3000000000000007
sg325
F9.0999999999999996
sg522
F8.3000000000000007
sg67
F8.3000000000000007
ssg16
VThe Playlist
p2442
sg18
NsbsVTNT RoughCut/Christopher Brandon
p2443
g3
(g4
g5
NtRp2444
(dp2445
g8
g2443
sg9
VChristopher Brandon
p2446
sg11
S'http://www.metacritic.com/critic/christopher-brandon?filter=movies'
p2447
sg13
(dp2448
g285
F10
sg135
F7
ssg16
VTNT RoughCut
p2449
sg18
NsbsVThe Seattle Times/Michael Upchurch
p2450
g3
(g4
g5
NtRp2451
(dp2452
g8
g2450
sg9
VMichael Upchurch
p2453
sg11
S'http://www.metacritic.com/critic?filter=movies'
p2454
sg13
(dp2455
g90
F7.5
ssg16
VThe Seattle Times
p2456
sg18
NsbsVVillage Voice/Stephanie Zacharek
p2457
g3
(g4
g5
NtRp2458
(dp2459
g8
g2457
sg9
VStephanie Zacharek
p2460
sg11
S'http://www.metacritic.com/critic/stephanie-zacharek?filter=movies'
p2461
sg13
(dp2462
g122
F4
sg156
F7
sg211
F9
sg64
F10
sg530
F8
sg273
F9
sg65
F7
sg128
F8
sg72
F10
sg150
F8
sg325
F9
sg70
F10
sg213
F9
ssg16
VVillage Voice
p2463
sg18
NsbsVThe Globe and Mail (Toronto)/Nathalie Atkinson 
p2464
g3
(g4
g5
NtRp2465
(dp2466
g8
g2464
sg9
VNathalie Atkinson 
p2467
sg11
S'http://www.metacritic.com/critic?filter=movies'
p2468
sg13
(dp2469
g530
F7.5
ssg16
VThe Globe and Mail (Toronto)
p2470
sg18
NsbsVSan Francisco Chronicle/C.W. Nevius
p2471
g3
(g4
g5
NtRp2472
(dp2473
g8
g2471
sg9
VC.W. Nevius
p2474
sg11
S'http://www.metacritic.com/critic/cw-nevius?filter=movies'
p2475
sg13
(dp2476
g115
F7.5
ssg16
VSan Francisco Chronicle
p2477
sg18
NsbsVEmpire/Staff (Not credited)
p2478
g3
(g4
g5
NtRp2479
(dp2480
g8
g2478
sg9
VStaff (Not credited)
p2481
sg11
S'http://www.metacritic.com/critic?filter=movies'
p2482
sg13
(dp2483
g162
F10
sg173
F8
ssg16
VEmpire
p2484
sg18
NsbsVLos Angeles Times/Michael Ordona
p2485
g3
(g4
g5
NtRp2486
(dp2487
g8
g2485
sg9
VMichael Ordona
p2488
sg11
S'http://www.metacritic.com/critic?filter=movies'
p2489
sg13
(dp2490
g109
F5
ssg16
VLos Angeles Times
p2491
sg18
NsbsVTotal Film/Matt Glasby
p2492
g3
(g4
g5
NtRp2493
(dp2494
g8
g2492
sg9
VMatt Glasby
p2495
sg11
S'http://www.metacritic.com/critic/matt-glasby?filter=movies'
p2496
sg13
(dp2497
g151
F8
sg273
F8
sg117
F10
ssg16
VTotal Film
p2498
sg18
NsbsVThe A.V. Club/Scott Tobias
p2499
g3
(g4
g5
NtRp2500
(dp2501
g8
g2499
sg9
VScott Tobias
p2502
sg11
S'http://www.metacritic.com/critic/scott-tobias?filter=movies'
p2503
sg13
(dp2504
g538
F8
sg107
F10
sg272
F9.0999999999999996
sg138
F9
sg110
F10
sg163
F9
sg141
F9.0999999999999996
sg142
F7.5
sg144
F9.0999999999999996
sg149
F9.0999999999999996
sg114
F7.5
sg123
F6
sg120
F10
sg115
F5
sg116
F10
sg275
F9.0999999999999996
sg158
F7
sg118
F10
sg161
F5
ssg16
VThe A.V. Club
p2505
sg18
NsbsVFilm Threat/Zack Haddad
p2506
g3
(g4
g5
NtRp2507
(dp2508
g8
g2506
sg9
VZack Haddad
p2509
sg11
S'http://www.metacritic.com/critic?filter=movies'
p2510
sg13
(dp2511
g164
F10
ssg16
VFilm Threat
p2512
sg18
NsbsVChicago Sun-Times/Mary Houlihan
p2513
g3
(g4
g5
NtRp2514
(dp2515
g8
g2513
sg9
VMary Houlihan
p2516
sg11
S'http://www.metacritic.com/critic/mary-houlihan?filter=movies'
p2517
sg13
(dp2518
g25
F7.5
ssg16
VChicago Sun-Times
p2519
sg18
NsbsVSlant Magazine/Eric Henderson
p2520
g3
(g4
g5
NtRp2521
(dp2522
g8
g2520
sg9
VEric Henderson
p2523
sg11
S'http://www.metacritic.com/critic/eric-henderson?filter=movies'
p2524
sg13
(dp2525
g133
F6.2999999999999998
sg64
F8.8000000000000007
ssg16
VSlant Magazine
p2526
sg18
NsbsVMTV News/Amy Nicholson
p2527
g3
(g4
g5
NtRp2528
(dp2529
g8
g2527
sg9
VAmy Nicholson
p2530
sg11
S'http://www.metacritic.com/critic/amy-nicholson?filter=movies'
p2531
sg13
(dp2532
g133
F5
sg88
F6.7000000000000002
sg147
F6.7000000000000002
ssg16
VMTV News
p2533
sg18
NsbsVVariety/Editor
p2534
g3
(g4
g5
NtRp2535
(dp2536
g8
g2534
sg9
VEditor
p2537
sg11
S'http://www.metacritic.com/critic?filter=movies'
p2538
sg13
(dp2539
g302
F2
ssg16
VVariety
p2540
sg18
NsbsVTotal Film/Kate Stables
p2541
g3
(g4
g5
NtRp2542
(dp2543
g8
g2541
sg9
VKate Stables
p2544
sg11
S'http://www.metacritic.com/critic?filter=movies'
p2545
sg13
(dp2546
g153
F8
ssg16
VTotal Film
p2547
sg18
NsbsVThe New York Times/Ken Jaworowski
p2548
g3
(g4
g5
NtRp2549
(dp2550
g8
g2548
sg9
VKen Jaworowski
p2551
sg11
S'http://www.metacritic.com/critic/ken-jaworowski?filter=movies'
p2552
sg13
(dp2553
g203
F7
ssg16
VThe New York Times
p2554
sg18
NsbsVPremiere/Jenni Miller
p2555
g3
(g4
g5
NtRp2556
(dp2557
g8
g2555
sg9
VJenni Miller
p2558
sg11
S'http://www.metacritic.com/critic?filter=movies'
p2559
sg13
(dp2560
g130
F7.5
sg154
F7.5
ssg16
VPremiere
p2561
sg18
NsbsVScreen International/Lee Marshall
p2562
g3
(g4
g5
NtRp2563
(dp2564
g8
g2562
sg9
VLee Marshall
p2565
sg11
S'http://www.metacritic.com/critic/lee-marshall?filter=movies'
p2566
sg13
(dp2567
g67
F8
sg71
F8
sg212
F6
ssg16
VScreen International
p2568
sg18
NsbsVFilm.com/Keith Simanton
p2569
g3
(g4
g5
NtRp2570
(dp2571
g8
g2569
sg9
VKeith Simanton
p2572
sg11
S'http://www.metacritic.com/critic?filter=movies'
p2573
sg13
(dp2574
g145
F7
ssg16
VFilm.com
p2575
sg18
NsbsVDallas Observer/Bill Gallo
p2576
g3
(g4
g5
NtRp2577
(dp2578
g8
g2576
sg9
VBill Gallo
p2579
sg11
S'http://www.metacritic.com/critic/bill-gallo?filter=movies'
p2580
sg13
(dp2581
g162
F9
sg115
F7
sg285
F10
sg159
F5
ssg16
VDallas Observer
p2582
sg18
NsbsVL.A. Weekly/Paul Malcolm
p2583
g3
(g4
g5
NtRp2584
(dp2585
g8
g2583
sg9
VPaul Malcolm
p2586
sg11
S'http://www.metacritic.com/critic/paul-malcolm?filter=movies'
p2587
sg13
(dp2588
g131
F3
ssg16
VL.A. Weekly
p2589
sg18
NsbsVThe A.V. Club/Ignatiy Vishnevetsky
p2590
g3
(g4
g5
NtRp2591
(dp2592
g8
g2590
sg9
VIgnatiy Vishnevetsky
p2593
sg11
S'http://www.metacritic.com/critic/ignatiy-vishnevetsky?filter=movies'
p2594
sg13
(dp2595
g133
F9.0999999999999996
sg156
F5.7999999999999998
sg62
F7.5
sg479
F5
sg60
F6.7000000000000002
ssg16
VThe A.V. Club
p2596
sg18
NsbsVRogerEbert.com/Simon Abrams
p2597
g3
(g4
g5
NtRp2598
(dp2599
g8
g2597
sg9
VSimon Abrams
p2600
sg11
S'http://www.metacritic.com/critic/simon-abrams?filter=movies'
p2601
sg13
(dp2602
g530
F8.8000000000000007
sg68
F7.5
ssg16
VRogerEbert.com
p2603
sg18
NsbsVL.A. Weekly/Kim Morgan
p2604
g3
(g4
g5
NtRp2605
(dp2606
g8
g2604
sg9
VKim Morgan
p2607
sg11
S'http://www.metacritic.com/critic?filter=movies'
p2608
sg13
(dp2609
g138
F9
sg119
F4
ssg16
VL.A. Weekly
p2610
sg18
NsbsVIndiewire/Sterlin Johnson
p2611
g3
(g4
g5
NtRp2612
(dp2613
g8
g2611
sg9
VSterlin Johnson
p2614
sg11
S'http://www.metacritic.com/critic?filter=movies'
p2615
sg13
(dp2616
g146
F6.7000000000000002
ssg16
VIndiewire
p2617
sg18
NsbsVNew Times (L.A.)/Bill Gallo
p2618
g3
(g4
g5
NtRp2619
(dp2620
g8
g2618
sg9
VBill Gallo
p2621
sg11
S'http://www.metacritic.com/critic/bill-gallo?filter=movies'
p2622
sg13
(dp2623
g287
F6
ssg16
VNew Times (L.A.)
p2624
sg18
NsbsVSalon.com/Charles Taylor
p2625
g3
(g4
g5
NtRp2626
(dp2627
g8
g2625
sg9
VCharles Taylor
p2628
sg11
S'http://www.metacritic.com/critic/charles-taylor?filter=movies'
p2629
sg13
(dp2630
g302
F4
sg135
F2
sg138
F6
sg99
F6
sg125
F9
sg159
F3
sg123
F9
sg158
F10
sg115
F1
sg287
F4
sg119
F10
ssg16
VSalon.com
p2631
sg18
NsbsVChicago Tribune/Katie Walsh
p2632
g3
(g4
g5
NtRp2633
(dp2634
g8
g2632
sg9
VKatie Walsh
p2635
sg11
S'http://www.metacritic.com/critic/katie-walsh?filter=movies'
p2636
sg13
(dp2637
g133
F8.8000000000000007
ssg16
VChicago Tribune
p2638
sg18
NsbsVScreen International/Tim Grierson
p2639
g3
(g4
g5
NtRp2640
(dp2641
g8
g2639
sg9
VTim Grierson
p2642
sg11
S'http://www.metacritic.com/critic/tim-grierson?filter=movies'
p2643
sg13
(dp2644
g133
F7
sg156
F7
sg128
F8
sg150
F9
sg70
F7
ssg16
VScreen International
p2645
sg18
NsbsVThe Guardian/Paul MacInnes
p2646
g3
(g4
g5
NtRp2647
(dp2648
g8
g2646
sg9
VPaul MacInnes
p2649
sg11
S'http://www.metacritic.com/critic?filter=movies'
p2650
sg13
(dp2651
g128
F10
ssg16
VThe Guardian
p2652
sg18
NsbsVDallas Observer/Hal Hinson
p2653
g3
(g4
g5
NtRp2654
(dp2655
g8
g2653
sg9
VHal Hinson
p2656
sg11
S'http://www.metacritic.com/critic?filter=movies'
p2657
sg13
(dp2658
g135
F5
ssg16
VDallas Observer
p2659
sg18
NsbsVTime Out New York/Geoff Andrew
p2660
g3
(g4
g5
NtRp2661
(dp2662
g8
g2660
sg9
VGeoff Andrew
p2663
sg11
S'http://www.metacritic.com/critic?filter=movies'
p2664
sg13
(dp2665
g213
F8
ssg16
VTime Out New York
p2666
sg18
NsbsVTime Out London/Wendy Ide
p2667
g3
(g4
g5
NtRp2668
(dp2669
g8
g2667
sg9
VWendy Ide
p2670
sg11
S'http://www.metacritic.com/critic?filter=movies'
p2671
sg13
(dp2672
g90
F8
ssg16
VTime Out London
p2673
sg18
NsbsVIndiewire/David Ehrlich
p2674
g3
(g4
g5
NtRp2675
(dp2676
g8
g2674
sg9
VDavid Ehrlich
p2677
sg11
S'http://www.metacritic.com/critic/david-ehrlich?filter=movies'
p2678
sg13
(dp2679
g60
F9.0999999999999996
sg479
F7.5
ssg16
VIndiewire
p2680
sg18
NsbsVTV Guide Magazine/Ken Fox
p2681
g3
(g4
g5
NtRp2682
(dp2683
g8
g2681
sg9
VKen Fox
p2684
sg11
S'http://www.metacritic.com/critic/ken-fox?filter=movies'
p2685
sg13
(dp2686
g126
F10
sg162
F8.8000000000000007
sg155
F8.8000000000000007
sg123
F7
sg163
F8
sg539
F8
sg286
F8.8000000000000007
sg144
F8.8000000000000007
sg120
F10
sg148
F7
sg130
F10
sg34
F10
sg158
F8
sg165
F6
ssg16
VTV Guide Magazine
p2687
sg18
NsbsVNew York Post/Rod Dreher
p2688
g3
(g4
g5
NtRp2689
(dp2690
g8
g2688
sg9
VRod Dreher
p2691
sg11
S'http://www.metacritic.com/critic?filter=movies'
p2692
sg13
(dp2693
g159
F8.8000000000000007
sg285
F10
sg135
F6.2999999999999998
ssg16
VNew York Post
p2694
sg18
NsbsVThe Film Stage/Dan Mecca
p2695
g3
(g4
g5
NtRp2696
(dp2697
g8
g2695
sg9
VDan Mecca
p2698
sg11
S'http://www.metacritic.com/critic?filter=movies'
p2699
sg13
(dp2700
g147
F8.3000000000000007
ssg16
VThe Film Stage
p2701
sg18
NsbsVThe Film Stage/Jordan Raup
p2702
g3
(g4
g5
NtRp2703
(dp2704
g8
g2702
sg9
VJordan Raup
p2705
sg11
S'http://www.metacritic.com/critic/jordan-raup?filter=movies'
p2706
sg13
(dp2707
g88
F9.0999999999999996
ssg16
VThe Film Stage
p2708
sg18
NsbsVTime Out New York/David Ehrlich
p2709
g3
(g4
g5
NtRp2710
(dp2711
g8
g2709
sg9
VDavid Ehrlich
p2712
sg11
S'http://www.metacritic.com/critic/david-ehrlich?filter=movies'
p2713
sg13
(dp2714
g156
F8
sg325
F6
sg530
F6
ssg16
VTime Out New York
p2715
sg18
NsbsVNew Orleans Times-Picayune/Mike Scott
p2716
g3
(g4
g5
NtRp2717
(dp2718
g8
g2716
sg9
VMike Scott
p2719
sg11
S'http://www.metacritic.com/critic/mike-scott?filter=movies'
p2720
sg13
(dp2721
g107
F10
sg151
F8
sg88
F10
sg110
F6
sg64
F10
sg114
F7.5
sg116
F8
sg118
F8
sg122
F6
sg124
F6
sg65
F10
sg128
F10
sg121
F7.5
sg139
F10
sg140
F8.8000000000000007
sg141
F6
sg146
F8
sg63
F10
sg72
F8
sg149
F8.8000000000000007
sg152
F10
sg153
F10
sg89
F10
sg522
F4
sg160
F10
sg67
F8
sg70
F10
sg71
F8
sg277
F8
ssg16
VNew Orleans Times-Picayune
p2722
sg18
NsbsVFilm Threat/Ellen Marshall
p2723
g3
(g4
g5
NtRp2724
(dp2725
g8
g2723
sg9
VEllen Marshall
p2726
sg11
S'http://www.metacritic.com/critic?filter=movies'
p2727
sg13
(dp2728
g126
F10
ssg16
VFilm Threat
p2729
sg18
NsbsVThe Playlist/Charlie Schmidilin
p2730
g3
(g4
g5
NtRp2731
(dp2732
g8
g2730
sg9
VCharlie Schmidilin
p2733
sg11
S'http://www.metacritic.com/critic?filter=movies'
p2734
sg13
(dp2735
g110
F8.3000000000000007
ssg16
VThe Playlist
p2736
sg18
NsbsVSalon.com/Stephanie Zacharek
p2737
g3
(g4
g5
NtRp2738
(dp2739
g8
g2737
sg9
VStephanie Zacharek
p2740
sg11
S'http://www.metacritic.com/critic/stephanie-zacharek?filter=movies'
p2741
sg13
(dp2742
g112
F9
sg539
F9
sg113
F1
sg126
F6
sg121
F9
sg132
F9
sg541
F9
sg130
F7
sg34
F8
sg131
F4
sg164
F5
sg108
F6
sg136
F5
sg163
F7
sg142
F9
sg144
F6
sg129
F8
sg303
F10
sg250
F9
sg154
F4
sg155
F10
sg157
F4
sg89
F5
sg161
F5
sg162
F5
sg165
F10
ssg16
VSalon.com
p2743
sg18
NsbsVSan Francisco Chronicle/Michael Ordoa
p2744
g3
(g4
g5
NtRp2745
(dp2746
g8
g2744
sg9
VMichael Ordoa
p2747
sg11
S'http://www.metacritic.com/critic?filter=movies'
p2748
sg13
(dp2749
g479
F7.5
ssg16
VSan Francisco Chronicle
p2750
sg18
NsbsVArizona Republic/Randy Cordova
p2751
g3
(g4
g5
NtRp2752
(dp2753
g8
g2751
sg9
VRandy Cordova
p2754
sg11
S'http://www.metacritic.com/critic?filter=movies'
p2755
sg13
(dp2756
g134
F5
ssg16
VArizona Republic
p2757
sg18
NsbsVFilm.com/Sean Means
p2758
g3
(g4
g5
NtRp2759
(dp2760
g8
g2758
sg9
VSean Means
p2761
sg11
S'http://www.metacritic.com/critic/sean-means?filter=movies'
p2762
sg13
(dp2763
g135
F9
ssg16
VFilm.com
p2764
sg18
NsbsVTime Out New York/David Fear
p2765
g3
(g4
g5
NtRp2766
(dp2767
g8
g2765
sg9
VDavid Fear
p2768
sg11
S'http://www.metacritic.com/critic/david-fear?filter=movies'
p2769
sg13
(dp2770
g272
F6
sg141
F6
sg66
F6
sg128
F10
sg122
F8
ssg16
VTime Out New York
p2771
sg18
NsbsVSt. Louis Post-Dispatch/Joe Williams
p2772
g3
(g4
g5
NtRp2773
(dp2774
g8
g2772
sg9
VJoe Williams
p2775
sg11
S'http://www.metacritic.com/critic/joe-williams?filter=movies'
p2776
sg13
(dp2777
g134
F5
sg153
F5
sg108
F8.8000000000000007
sg122
F10
sg151
F10
sg275
F7.5
sg139
F10
sg66
F8.8000000000000007
sg141
F10
sg124
F7.5
sg64
F8.8000000000000007
sg114
F6.2999999999999998
sg161
F7.5
sg571
F8.8000000000000007
sg149
F6.2999999999999998
sg140
F7.5
sg110
F10
sg118
F8.8000000000000007
sg152
F8.8000000000000007
ssg16
VSt. Louis Post-Dispatch
p2778
sg18
NsbsVBoxoffice Magazine/Ray Greene
p2779
g3
(g4
g5
NtRp2780
(dp2781
g8
g2779
sg9
VRay Greene
p2782
sg11
S'http://www.metacritic.com/critic/ray-greene?filter=movies'
p2783
sg13
(dp2784
g152
F6
ssg16
VBoxoffice Magazine
p2785
sg18
NsbsVTotal Film/Tom Dawson
p2786
g3
(g4
g5
NtRp2787
(dp2788
g8
g2786
sg9
VTom Dawson
p2789
sg11
S'http://www.metacritic.com/critic/tom-dawson?filter=movies'
p2790
sg13
(dp2791
g272
F8
sg275
F8
ssg16
VTotal Film
p2792
sg18
NsbsVHitfix/Gregory Ellwood
p2793
g3
(g4
g5
NtRp2794
(dp2795
g8
g2793
sg9
VGregory Ellwood
p2796
sg11
S'http://www.metacritic.com/critic/gregory-ellwood?filter=movies'
p2797
sg13
(dp2798
g156
F10
sg117
F8.3000000000000007
sg91
F10
sg146
F9.0999999999999996
sg150
F8.3000000000000007
sg212
F10
sg70
F10
sg71
F8.3000000000000007
ssg16
VHitfix
p2799
sg18
NsbsVThe Globe and Mail (Toronto)/Kiva Reardon
p2800
g3
(g4
g5
NtRp2801
(dp2802
g8
g2800
sg9
VKiva Reardon
p2803
sg11
S'http://www.metacritic.com/critic?filter=movies'
p2804
sg13
(dp2805
g277
F10
ssg16
VThe Globe and Mail (Toronto)
p2806
sg18
NsbsVThe Dissolve/Scott Tobias
p2807
g3
(g4
g5
NtRp2808
(dp2809
g8
g2807
sg9
VScott Tobias
p2810
sg11
S'http://www.metacritic.com/critic/scott-tobias?filter=movies'
p2811
sg13
(dp2812
g122
F10
sg61
F9
sg139
F9
sg211
F8
sg273
F6
sg65
F3
sg66
F9
sg128
F9
sg69
F9
sg325
F8
sg156
F3
sg277
F8
ssg16
VThe Dissolve
p2813
sg18
NsbsVNew York Daily News/Joe Neumaier
p2814
g3
(g4
g5
NtRp2815
(dp2816
g8
g2814
sg9
VJoe Neumaier
p2817
sg11
S'http://www.metacritic.com/critic/joe-neumaier?filter=movies'
p2818
sg13
(dp2819
g107
F8
sg151
F8
sg272
F6
sg110
F8
sg116
F10
sg117
F8
sg118
F8
sg64
F10
sg128
F10
sg130
F8
sg121
F5
sg136
F10
sg139
F6
sg140
F8
sg141
F8
sg63
F10
sg152
F10
sg153
F8
sg275
F8
sg156
F8
sg66
F8
sg160
F10
sg161
F6
sg522
F10
sg277
F8
ssg16
VNew York Daily News
p2820
sg18
NsbsVThe Film Stage/Daniel Schindel
p2821
g3
(g4
g5
NtRp2822
(dp2823
g8
g2821
sg9
VDaniel Schindel
p2824
sg11
S'http://www.metacritic.com/critic/daniel-schindel?filter=movies'
p2825
sg13
(dp2826
g15
F6.7000000000000002
sg62
F9.0999999999999996
ssg16
VThe Film Stage
p2827
sg18
NsbsVThe New Republic/Stanley Kauffmann
p2828
g3
(g4
g5
NtRp2829
(dp2830
g8
g2828
sg9
VStanley Kauffmann
p2831
sg11
S'http://www.metacritic.com/critic/stanley-kauffmann?filter=movies'
p2832
sg13
(dp2833
g538
F5
sg202
F4
sg51
F10
sg163
F10
sg126
F7
sg145
F8
sg123
F7
sg138
F8
sg162
F10
sg540
F3
sg34
F9
sg35
F6
sg158
F8
sg542
F8
sg165
F9
ssg16
VThe New Republic
p2834
sg18
NsbsVPortland Oregonian/Stan Hall
p2835
g3
(g4
g5
NtRp2836
(dp2837
g8
g2835
sg9
VStan Hall
p2838
sg11
S'http://www.metacritic.com/critic/stan-hall?filter=movies'
p2839
sg13
(dp2840
g275
F8.3000000000000007
ssg16
VPortland Oregonian
p2841
sg18
NsbsVAustin Chronicle/Joey O'Bryan
p2842
g3
(g4
g5
NtRp2843
(dp2844
g8
g2842
sg9
VJoey O'Bryan
p2845
sg11
S'http://www.metacritic.com/critic?filter=movies'
p2846
sg13
(dp2847
g43
F8.9000000000000004
ssg16
VAustin Chronicle
p2848
sg18
NsbsVDallas Observer/Robert Wilonsky
p2849
g3
(g4
g5
NtRp2850
(dp2851
g8
g2849
sg9
VRobert Wilonsky
p2852
sg11
S'http://www.metacritic.com/critic/robert-wilonsky?filter=movies'
p2853
sg13
(dp2854
g302
F3
sg163
F10
sg99
F4
sg157
F4
sg142
F7
sg126
F10
sg131
F1
sg119
F5
ssg16
VDallas Observer
p2855
sg18
NsbsVFilm.com/Peter Brunette
p2856
g3
(g4
g5
NtRp2857
(dp2858
g8
g2856
sg9
VPeter Brunette
p2859
sg11
S'http://www.metacritic.com/critic/peter-brunette?filter=movies'
p2860
sg13
(dp2861
g539
F9
sg159
F8
sg135
F10
sg285
F9
ssg16
VFilm.com
p2862
sg18
NsbsVMr. Showbiz/Richard T. Jameson
p2863
g3
(g4
g5
NtRp2864
(dp2865
g8
g2863
sg9
VRichard T. Jameson
p2866
sg11
S'http://www.metacritic.com/critic?filter=movies'
p2867
sg13
(dp2868
g145
F9
ssg16
VMr. Showbiz
p2869
sg18
NsbsVFilm Threat/Chris Barsanti
p2870
g3
(g4
g5
NtRp2871
(dp2872
g8
g2870
sg9
VChris Barsanti
p2873
sg11
S'http://www.metacritic.com/critic?filter=movies'
p2874
sg13
(dp2875
g250
F10
ssg16
VFilm Threat
p2876
sg18
NsbsVTheWrap/Dave White
p2877
g3
(g4
g5
NtRp2878
(dp2879
g8
g2877
sg9
VDave White
p2880
sg11
S'http://www.metacritic.com/critic/dave-white?filter=movies'
p2881
sg13
(dp2882
g71
F9
ssg16
VTheWrap
p2883
sg18
NsbsVConsequence of Sound/Sarah Kurchak
p2884
g3
(g4
g5
NtRp2885
(dp2886
g8
g2884
sg9
VSarah Kurchak
p2887
sg11
S'http://www.metacritic.com/critic/sarah-kurchak?filter=movies'
p2888
sg13
(dp2889
g87
F6.7000000000000002
sg173
F9.0999999999999996
sg67
F10
ssg16
VConsequence of Sound
p2890
sg18
NsbsVNew York Daily News/Jack Mathews
p2891
g3
(g4
g5
NtRp2892
(dp2893
g8
g2891
sg9
VJack Mathews
p2894
sg11
S'http://www.metacritic.com/critic/jack-mathews?filter=movies'
p2895
sg13
(dp2896
g109
F5
sg112
F10
sg539
F8.8000000000000007
sg113
F5
sg35
F7.5
sg119
F8.8000000000000007
sg120
F10
sg125
F10
sg126
F7.5
sg33
F10
sg132
F10
sg34
F8.8000000000000007
sg131
F3.7999999999999998
sg129
F7.5
sg302
F2.5
sg135
F7.5
sg138
F10
sg163
F10
sg142
F10
sg143
F8.8000000000000007
sg144
F6.2999999999999998
sg123
F7.5
sg287
F6.2999999999999998
sg303
F8.8000000000000007
sg155
F10
sg157
F7.5
sg159
F6.2999999999999998
sg286
F8.8000000000000007
sg249
F3.7999999999999998
sg164
F8.8000000000000007
sg165
F8.8000000000000007
ssg16
VNew York Daily News
p2897
sg18
NsbsVSt. Louis Post-Dispatch/Calvin Wilson
p2898
g3
(g4
g5
NtRp2899
(dp2900
g8
g2898
sg9
VCalvin Wilson
p2901
sg11
S'http://www.metacritic.com/critic/calvin-wilson?filter=movies'
p2902
sg13
(dp2903
g133
F8.8000000000000007
sg107
F10
sg87
F10
sg522
F8.8000000000000007
sg88
F10
sg156
F10
sg62
F8.8000000000000007
sg117
F8.8000000000000007
sg70
F8.8000000000000007
sg147
F8.8000000000000007
sg65
F10
sg146
F10
sg128
F10
sg67
F8.8000000000000007
sg116
F10
sg173
F8.8000000000000007
sg150
F10
sg160
F10
sg71
F8.8000000000000007
sg72
F10
ssg16
VSt. Louis Post-Dispatch
p2904
sg18
NsbsVTime/Mary Pols
p2905
g3
(g4
g5
NtRp2906
(dp2907
g8
g2905
sg9
VMary Pols
p2908
sg11
S'http://www.metacritic.com/critic/mary-pols?filter=movies'
p2909
sg13
(dp2910
g275
F8
sg134
F8
sg114
F8
sg63
F10
sg152
F8
ssg16
VTime
p2911
sg18
NsbsVTime Out New York/Tomris Laffly
p2912
g3
(g4
g5
NtRp2913
(dp2914
g8
g2912
sg9
VTomris Laffly
p2915
sg11
S'http://www.metacritic.com/critic?filter=movies'
p2916
sg13
(dp2917
g62
F10
ssg16
VTime Out New York
p2918
sg18
NsbsVVariety/Leonard Klady
p2919
g3
(g4
g5
NtRp2920
(dp2921
g8
g2919
sg9
VLeonard Klady
p2922
sg11
S'http://www.metacritic.com/critic?filter=movies'
p2923
sg13
(dp2924
g145
F9
ssg16
VVariety
p2925
sg18
NsbsVThe Guardian/Caspar Llewellyn Smith
p2926
g3
(g4
g5
NtRp2927
(dp2928
g8
g2926
sg9
VCaspar Llewellyn Smith
p2929
sg11
S'http://www.metacritic.com/critic?filter=movies'
p2930
sg13
(dp2931
g90
F6
ssg16
VThe Guardian
p2932
sg18
NsbsVWashington Post/Stephen Hunter
p2933
g3
(g4
g5
NtRp2934
(dp2935
g8
g2933
sg9
VStephen Hunter
p2936
sg11
S'http://www.metacritic.com/critic/stephen-hunter?filter=movies'
p2937
sg13
(dp2938
g538
F9
sg159
F7
sg250
F6
sg136
F7
sg302
F3
sg115
F2
sg142
F7
sg143
F5
sg126
F10
sg127
F1
sg135
F2
sg33
F9
sg123
F9
sg541
F8
sg286
F8
sg125
F10
sg131
F2
sg158
F10
sg165
F9
ssg16
VWashington Post
p2939
sg18
NsbsVLos Angeles Times/Justin Chang
p2940
g3
(g4
g5
NtRp2941
(dp2942
g8
g2940
sg9
VJustin Chang
p2943
sg11
S'http://www.metacritic.com/critic/justin-chang?filter=movies'
p2944
sg13
(dp2945
g60
F10
sg62
F6
sg87
F9
sg479
F6
sg147
F5
sg71
F8
ssg16
VLos Angeles Times
p2946
sg18
NsbsVArizona Republic/Kerry Lengel
p2947
g3
(g4
g5
NtRp2948
(dp2949
g8
g2947
sg9
VKerry Lengel
p2950
sg11
S'http://www.metacritic.com/critic/kerry-lengel?filter=movies'
p2951
sg13
(dp2952
g140
F8
ssg16
VArizona Republic
p2953
sg18
NsbsVThe Globe and Mail (Toronto)/Johanna Schneller
p2954
g3
(g4
g5
NtRp2955
(dp2956
g8
g2954
sg9
VJohanna Schneller
p2957
sg11
S'http://www.metacritic.com/critic?filter=movies'
p2958
sg13
(dp2959
g147
F6.2999999999999998
ssg16
VThe Globe and Mail (Toronto)
p2960
sg18
NsbsVRogerEbert.com/Peter Sobczynski
p2961
g3
(g4
g5
NtRp2962
(dp2963
g8
g2961
sg9
VPeter Sobczynski
p2964
sg11
S'http://www.metacritic.com/critic/peter-sobczynski?filter=movies'
p2965
sg13
(dp2966
g325
F8.8000000000000007
ssg16
VRogerEbert.com
p2967
sg18
NsbsVVariety/Brian Lowry
p2968
g3
(g4
g5
NtRp2969
(dp2970
g8
g2968
sg9
VBrian Lowry
p2971
sg11
S'http://www.metacritic.com/critic/brian-lowry?filter=movies'
p2972
sg13
(dp2973
g131
F6
ssg16
VVariety
p2974
sg18
NsbsVThe Hollywood Reporter/Michael Rechtshaffen
p2975
g3
(g4
g5
NtRp2976
(dp2977
g8
g2975
sg9
VMichael Rechtshaffen
p2978
sg11
S'http://www.metacritic.com/critic/michael-rechtshaffen?filter=movies'
p2979
sg13
(dp2980
g113
F6
sg131
F4
sg121
F9
sg89
F10
sg134
F8
ssg16
VThe Hollywood Reporter
p2981
sg18
NsbsVLos Angeles Times/Sam Adams
p2982
g3
(g4
g5
NtRp2983
(dp2984
g8
g2982
sg9
VSam Adams
p2985
sg11
S'http://www.metacritic.com/critic?filter=movies'
p2986
sg13
(dp2987
g154
F6
ssg16
VLos Angeles Times
p2988
sg18
NsbsVBoston Globe/Ty Burr
p2989
g3
(g4
g5
NtRp2990
(dp2991
g8
g2989
sg9
VTy Burr
p2992
sg11
S'http://www.metacritic.com/critic/ty-burr?filter=movies'
p2993
sg13
(dp2994
g538
F8.8000000000000007
sg107
F10
sg25
F8.8000000000000007
sg479
F7.5
sg109
F3.7999999999999998
sg111
F10
sg64
F8.8000000000000007
sg90
F7.5
sg158
F10
sg116
F10
sg91
F8.8000000000000007
sg117
F6.2999999999999998
sg119
F6.2999999999999998
sg121
F7.5
sg122
F10
sg123
F8.8000000000000007
sg62
F6.2999999999999998
sg211
F10
sg124
F6.2999999999999998
sg125
F10
sg126
F8.8000000000000007
sg65
F10
sg429
F8.8000000000000007
sg128
F10
sg132
F10
sg130
F10
sg33
F8.8000000000000007
sg34
F8.8000000000000007
sg133
F7.5
sg134
F3.7999999999999998
sg108
F6.2999999999999998
sg136
F7.5
sg138
F10
sg139
F8.8000000000000007
sg140
F7.5
sg141
F8.8000000000000007
sg142
F7.5
sg212
F7.5
sg144
F7.5
sg162
F8.8000000000000007
sg146
F8.8000000000000007
sg63
F8.8000000000000007
sg173
F10
sg72
F8.8000000000000007
sg88
F10
sg148
F8.8000000000000007
sg150
F10
sg143
F10
sg213
F8.8000000000000007
sg153
F8.8000000000000007
sg275
F8.8000000000000007
sg156
F6.2999999999999998
sg157
F7.5
sg89
F10
sg522
F8.8000000000000007
sg120
F10
sg66
F8.8000000000000007
sg160
F10
sg161
F8.8000000000000007
sg68
F8.8000000000000007
sg286
F8.8000000000000007
sg163
F7.5
sg165
F10
sg70
F10
sg277
F8.8000000000000007
ssg16
VBoston Globe
p2995
sg18
NsbsVThe Hollywood Reporter/Leslie Felperin
p2996
g3
(g4
g5
NtRp2997
(dp2998
g8
g2996
sg9
VLeslie Felperin
p2999
sg11
S'http://www.metacritic.com/critic/leslie-felperin?filter=movies'
p3000
sg13
(dp3001
g25
F10
sg211
F10
sg276
F8
sg571
F9
sg147
F5
sg71
F9
ssg16
VThe Hollywood Reporter
p3002
sg18
NsbsVLos Angeles Times/Michael Rechtshaffen
p3003
g3
(g4
g5
NtRp3004
(dp3005
g8
g3003
sg9
VMichael Rechtshaffen
p3006
sg11
S'http://www.metacritic.com/critic/michael-rechtshaffen?filter=movies'
p3007
sg13
(dp3008
g530
F8
ssg16
VLos Angeles Times
p3009
sg18
NsbsVSan Francisco Chronicle/Steve Rubenstein
p3010
g3
(g4
g5
NtRp3011
(dp3012
g8
g3010
sg9
VSteve Rubenstein
p3013
sg11
S'http://www.metacritic.com/critic?filter=movies'
p3014
sg13
(dp3015
g68
F5
ssg16
VSan Francisco Chronicle
p3016
sg18
NsbsVSan Francisco Chronicle/Peter Stack
p3017
g3
(g4
g5
NtRp3018
(dp3019
g8
g3017
sg9
VPeter Stack
p3020
sg11
S'http://www.metacritic.com/critic/peter-stack?filter=movies'
p3021
sg13
(dp3022
g145
F10
sg51
F10
ssg16
VSan Francisco Chronicle
p3023
sg18
NsbsVLos Angeles Times/Sheri Linden
p3024
g3
(g4
g5
NtRp3025
(dp3026
g8
g3024
sg9
VSheri Linden
p3027
sg11
S'http://www.metacritic.com/critic/sheri-linden?filter=movies'
p3028
sg13
(dp3029
g275
F8
sg274
F7
sg522
F10
ssg16
VLos Angeles Times
p3030
sg18
NsbsVThe Globe and Mail (Toronto)/Jeff Gray
p3031
g3
(g4
g5
NtRp3032
(dp3033
g8
g3031
sg9
VJeff Gray
p3034
sg11
S'http://www.metacritic.com/critic?filter=movies'
p3035
sg13
(dp3036
g159
F5
ssg16
VThe Globe and Mail (Toronto)
p3037
sg18
NsbsVNew York Post/Lou Lumenick
p3038
g3
(g4
g5
NtRp3039
(dp3040
g8
g3038
sg9
VLou Lumenick
p3041
sg11
S'http://www.metacritic.com/critic/lou-lumenick?filter=movies'
p3042
sg13
(dp3043
g107
F10
sg302
F6.2999999999999998
sg110
F8.8000000000000007
sg112
F10
sg64
F10
sg113
F5
sg115
F6.2999999999999998
sg147
F8.8000000000000007
sg119
F8.8000000000000007
sg122
F6.2999999999999998
sg99
F10
sg62
F7.5
sg124
F7.5
sg126
F8.8000000000000007
sg65
F8.8000000000000007
sg128
F10
sg132
F10
sg130
F10
sg33
F10
sg34
F8.8000000000000007
sg164
F8.8000000000000007
sg133
F8.8000000000000007
sg134
F5
sg108
F8.8000000000000007
sg140
F7.5
sg141
F10
sg142
F8.8000000000000007
sg143
F10
sg144
F7.5
sg63
F10
sg123
F7.5
sg149
F10
sg150
F8.8000000000000007
sg287
F7.5
sg303
F10
sg153
F7.5
sg250
F7.5
sg155
F10
sg156
F8.8000000000000007
sg89
F10
sg66
F7.5
sg160
F10
sg161
F8.8000000000000007
sg163
F10
sg70
F10
sg165
F10
ssg16
VNew York Post
p3044
sg18
NsbsVVariety/l
p3045
g3
(g4
g5
NtRp3046
(dp3047
g8
g3045
sg9
Vl
sg11
S'http://www.metacritic.com/critic?filter=movies'
p3048
sg13
(dp3049
g35
F5
ssg16
VVariety
p3050
sg18
NsbsVBoston Globe/Wesley Morris
p3051
g3
(g4
g5
NtRp3052
(dp3053
g8
g3051
sg9
VWesley Morris
p3054
sg11
S'http://www.metacritic.com/critic/wesley-morris?filter=movies'
p3055
sg13
(dp3056
g151
F8.8000000000000007
sg154
F6.2999999999999998
sg155
F8.8000000000000007
sg272
F8.8000000000000007
sg110
F10
sg112
F10
sg113
F5
sg114
F7.5
sg129
F10
sg115
F6.2999999999999998
sg164
F10
sg131
F5
sg35
F6.2999999999999998
sg149
F7.5
sg118
F10
sg152
F5
ssg16
VBoston Globe
p3057
sg18
NsbsVFilm.com/John Hartl
p3058
g3
(g4
g5
NtRp3059
(dp3060
g8
g3058
sg9
VJohn Hartl
p3061
sg11
S'http://www.metacritic.com/critic/john-hartl?filter=movies'
p3062
sg13
(dp3063
g202
F10
sg51
F10
sg159
F8
ssg16
VFilm.com
p3064
sg18
NsbsVSan Francisco Examiner/Wesley Morris
p3065
g3
(g4
g5
NtRp3066
(dp3067
g8
g3065
sg9
VWesley Morris
p3068
sg11
S'http://www.metacritic.com/critic/wesley-morris?filter=movies'
p3069
sg13
(dp3070
g202
F10
sg302
F7.5
sg135
F6.2999999999999998
sg99
F10
sg159
F7.5
sg285
F6.2999999999999998
ssg16
VSan Francisco Examiner
p3071
sg18
NsbsVCineVue/Patrick Gamble
p3072
g3
(g4
g5
NtRp3073
(dp3074
g8
g3072
sg9
VPatrick Gamble
p3075
sg11
S'http://www.metacritic.com/critic/patrick-gamble?filter=movies'
p3076
sg13
(dp3077
g212
F6
ssg16
VCineVue
p3078
sg18
NsbsVThe Hollywood Reporter/Stephen Dalton
p3079
g3
(g4
g5
NtRp3080
(dp3081
g8
g3079
sg9
VStephen Dalton
p3082
sg11
S'http://www.metacritic.com/critic/stephen-dalton?filter=movies'
p3083
sg13
(dp3084
g275
F7
sg273
F8
sg173
F7
sg212
F8
ssg16
VThe Hollywood Reporter
p3085
sg18
NsbsVConsequence of Sound/Michael Roffman
p3086
g3
(g4
g5
NtRp3087
(dp3088
g8
g3086
sg9
VMichael Roffman
p3089
sg11
S'http://www.metacritic.com/critic/michael-roffman?filter=movies'
p3090
sg13
(dp3091
g62
F8.3000000000000007
sg117
F10
sg71
F8.3000000000000007
ssg16
VConsequence of Sound
p3092
sg18
NsbsVSan Francisco Chronicle/David Lewis
p3093
g3
(g4
g5
NtRp3094
(dp3095
g8
g3093
sg9
VDavid Lewis
p3096
sg11
S'http://www.metacritic.com/critic?filter=movies'
p3097
sg13
(dp3098
g571
F7.5
ssg16
VSan Francisco Chronicle
p3099
sg18
NsbsVVariety/Ella Taylor
p3100
g3
(g4
g5
NtRp3101
(dp3102
g8
g3100
sg9
VElla Taylor
p3103
sg11
S'http://www.metacritic.com/critic/ella-taylor?filter=movies'
p3104
sg13
(dp3105
g15
F8
ssg16
VVariety
p3106
sg18
NsbsVMiami Herald/Rene Rodriguez
p3107
g3
(g4
g5
NtRp3108
(dp3109
g8
g3107
sg9
VRene Rodriguez
p3110
sg11
S'http://www.metacritic.com/critic/rene-rodriguez?filter=movies'
p3111
sg13
(dp3112
g107
F8.8000000000000007
sg151
F7.5
sg88
F10
sg110
F5
sg112
F10
sg64
F8.8000000000000007
sg539
F6.2999999999999998
sg113
F5
sg123
F6.2999999999999998
sg158
F8.8000000000000007
sg115
F5
sg116
F10
sg69
F8.8000000000000007
sg35
F7.5
sg117
F8.8000000000000007
sg118
F10
sg119
F7.5
sg285
F8.8000000000000007
sg121
F7.5
sg122
F10
sg99
F7.5
sg62
F6.2999999999999998
sg211
F10
sg124
F7.5
sg125
F8.8000000000000007
sg126
F8.8000000000000007
sg65
F8.8000000000000007
sg128
F10
sg129
F8.8000000000000007
sg130
F10
sg33
F10
sg34
F8.8000000000000007
sg325
F8.8000000000000007
sg273
F8.8000000000000007
sg303
F7.5
sg132
F8.8000000000000007
sg134
F5
sg108
F10
sg136
F8.8000000000000007
sg138
F10
sg140
F7.5
sg141
F10
sg142
F7.5
sg143
F10
sg144
F6.2999999999999998
sg63
F7.5
sg173
F8.8000000000000007
sg72
F10
sg148
F8.8000000000000007
sg149
F8.8000000000000007
sg150
F10
sg212
F7.5
sg287
F8.8000000000000007
sg213
F7.5
sg152
F8.8000000000000007
sg87
F7.5
sg250
F7.5
sg43
F7.5
sg154
F7.5
sg155
F7.5
sg157
F7.5
sg89
F10
sg161
F6.2999999999999998
sg120
F10
sg66
F8.8000000000000007
sg160
F10
sg67
F7.5
sg68
F8.8000000000000007
sg162
F10
sg163
F10
sg249
F5
sg164
F10
sg70
F10
sg71
F8.8000000000000007
sg165
F8.8000000000000007
ssg16
VMiami Herald
p3113
sg18
NsbsVSlant Magazine/None
p3114
g3
(g4
g5
NtRp3115
(dp3116
g8
g3114
sg9
Nsg11
Nsg13
(dp3117
g275
F8.8000000000000007
ssg16
VSlant Magazine
p3118
sg18
NsbsVVariety/Leslie Felperin
p3119
g3
(g4
g5
NtRp3120
(dp3121
g8
g3119
sg9
VLeslie Felperin
p3122
sg11
S'http://www.metacritic.com/critic?filter=movies'
p3123
sg13
(dp3124
g132
F9
ssg16
VVariety
p3125
sg18
NsbsVVillage Voice/Karina Longworth
p3126
g3
(g4
g5
NtRp3127
(dp3128
g8
g3126
sg9
VKarina Longworth
p3129
sg11
S'http://www.metacritic.com/critic?filter=movies'
p3130
sg13
(dp3131
g110
F9
sg114
F7
sg140
F8
sg152
F5
ssg16
VVillage Voice
p3132
sg18
NsbsVThe Film Stage/Raphael Deutsch
p3133
g3
(g4
g5
NtRp3134
(dp3135
g8
g3133
sg9
VRaphael Deutsch
p3136
sg11
S'http://www.metacritic.com/critic?filter=movies'
p3137
sg13
(dp3138
g90
F7.5
ssg16
VThe Film Stage
p3139
sg18
NsbsVTime Out New York/Cath Clarke
p3140
g3
(g4
g5
NtRp3141
(dp3142
g8
g3140
sg9
VCath Clarke
p3143
sg11
S'http://www.metacritic.com/critic?filter=movies'
p3144
sg13
(dp3145
g68
F8
ssg16
VTime Out New York
p3146
sg18
NsbsVThe New Yorker/Richard Brody
p3147
g3
(g4
g5
NtRp3148
(dp3149
g8
g3147
sg9
VRichard Brody
p3150
sg11
S'http://www.metacritic.com/critic/richard-brody?filter=movies'
p3151
sg13
(dp3152
g146
F3
ssg16
VThe New Yorker
p3153
sg18
NsbsVHitfix/Guy Lodge
p3154
g3
(g4
g5
NtRp3155
(dp3156
g8
g3154
sg9
VGuy Lodge
p3157
sg11
S'http://www.metacritic.com/critic?filter=movies'
p3158
sg13
(dp3159
g273
F6.7000000000000002
ssg16
VHitfix
p3160
sg18
NsbsVEmpire/Helen O'Hara
p3161
g3
(g4
g5
NtRp3162
(dp3163
g8
g3161
sg9
VHelen O'Hara
p3164
sg11
S'http://www.metacritic.com/critic?filter=movies'
p3165
sg13
(dp3166
g286
F8
sg147
F8
sg164
F10
ssg16
VEmpire
p3167
sg18
NsbsVThe Guardian/Catherine Shoard
p3168
g3
(g4
g5
NtRp3169
(dp3170
g8
g3168
sg9
VCatherine Shoard
p3171
sg11
S'http://www.metacritic.com/critic/catherine-shoard?filter=movies'
p3172
sg13
(dp3173
g67
F10
ssg16
VThe Guardian
p3174
sg18
NsbsVLos Angeles Times/Charles Solomon
p3175
g3
(g4
g5
NtRp3176
(dp3177
g8
g3175
sg9
VCharles Solomon
p3178
sg11
S'http://www.metacritic.com/critic/charles-solomon?filter=movies'
p3179
sg13
(dp3180
g213
F4
ssg16
VLos Angeles Times
p3181
sg18
NsbsVVariety/Justin Chang
p3182
g3
(g4
g5
NtRp3183
(dp3184
g8
g3182
sg9
VJustin Chang
p3185
sg11
S'http://www.metacritic.com/critic/justin-chang?filter=movies'
p3186
sg13
(dp3187
g88
F10
sg136
F10
sg272
F8
sg61
F10
sg139
F10
sg155
F10
sg141
F9
sg64
F10
sg91
F9
sg275
F6
sg160
F10
sg70
F9
sg149
F10
sg150
F10
sg110
F9
sg112
F8
ssg16
VVariety
p3188
sg18
NsbsVThe Globe and Mail (Toronto)/Liam Lacey
p3189
g3
(g4
g5
NtRp3190
(dp3191
g8
g3189
sg9
VLiam Lacey
p3192
sg11
S'http://www.metacritic.com/critic/liam-lacey?filter=movies'
p3193
sg13
(dp3194
g107
F7.5
sg151
F6.2999999999999998
sg109
F6.2999999999999998
sg272
F10
sg61
F10
sg110
F10
sg112
F10
sg64
F10
sg115
F5
sg119
F6.2999999999999998
sg122
F8.8000000000000007
sg211
F8.8000000000000007
sg124
F6.2999999999999998
sg125
F7.5
sg65
F7.5
sg128
F10
sg130
F10
sg33
F7.5
sg164
F8.8000000000000007
sg135
F10
sg136
F7.5
sg139
F8.8000000000000007
sg148
F6.2999999999999998
sg213
F7.5
sg121
F5
sg155
F8.8000000000000007
sg157
F6.2999999999999998
sg120
F8.8000000000000007
sg66
F10
sg158
F8.8000000000000007
sg165
F7.5
ssg16
VThe Globe and Mail (Toronto)
p3195
sg18
NsbsVTime Out London/Cath Clarke
p3196
g3
(g4
g5
NtRp3197
(dp3198
g8
g3196
sg9
VCath Clarke
p3199
sg11
S'http://www.metacritic.com/critic/cath-clarke?filter=movies'
p3200
sg13
(dp3201
g65
F10
sg530
F8
sg122
F8
sg68
F8
ssg16
VTime Out London
p3202
sg18
NsbsVLos Angeles Times/Sheila Benson
p3203
g3
(g4
g5
NtRp3204
(dp3205
g8
g3203
sg9
VSheila Benson
p3206
sg11
S'http://www.metacritic.com/critic/sheila-benson?filter=movies'
p3207
sg13
(dp3208
g540
F9
ssg16
VLos Angeles Times
p3209
sg18
NsbsVThe Dissolve/Keith Phipps
p3210
g3
(g4
g5
NtRp3211
(dp3212
g8
g3210
sg9
VKeith Phipps
p3213
sg11
S'http://www.metacritic.com/critic/keith-phipps?filter=movies'
p3214
sg13
(dp3215
g72
F9
sg64
F9
ssg16
VThe Dissolve
p3216
sg18
NsbsVNew Times (L.A.)/Andy Klein
p3217
g3
(g4
g5
NtRp3218
(dp3219
g8
g3217
sg9
VAndy Klein
p3220
sg11
S'http://www.metacritic.com/critic/andy-klein?filter=movies'
p3221
sg13
(dp3222
g541
F9
ssg16
VNew Times (L.A.)
p3223
sg18
NsbsVHitfix/Drew McWeeny
p3224
g3
(g4
g5
NtRp3225
(dp3226
g8
g3224
sg9
VDrew McWeeny
p3227
sg11
S'http://www.metacritic.com/critic/drew-mcweeny?filter=movies'
p3228
sg13
(dp3229
g133
F5
sg88
F10
sg139
F10
sg62
F8.3000000000000007
sg63
F10
sg67
F10
sg213
F10
ssg16
VHitfix
p3230
sg18
NsbsVBaltimore Sun/Chris Kaltenbach
p3231
g3
(g4
g5
NtRp3232
(dp3233
g8
g3231
sg9
VChris Kaltenbach
p3234
sg11
S'http://www.metacritic.com/critic/chris-kaltenbach?filter=movies'
p3235
sg13
(dp3236
g138
F10
sg115
F3.7999999999999998
sg539
F8.8000000000000007
sg113
F5
sg129
F6.7000000000000002
sg148
F8.8000000000000007
sg286
F9.0999999999999996
sg131
F2.5
sg287
F6.2999999999999998
sg119
F6.2999999999999998
ssg16
VBaltimore Sun
p3237
sg18
NsbsVEmpire/David Eimer
p3238
g3
(g4
g5
NtRp3239
(dp3240
g8
g3238
sg9
VDavid Eimer
p3241
sg11
S'http://www.metacritic.com/critic?filter=movies'
p3242
sg13
(dp3243
g52
F4
ssg16
VEmpire
p3244
sg18
NsbsVTotal Film/Emma Dibdin
p3245
g3
(g4
g5
NtRp3246
(dp3247
g8
g3245
sg9
VEmma Dibdin
p3248
sg11
S'http://www.metacritic.com/critic/emma-dibdin?filter=movies'
p3249
sg13
(dp3250
g110
F10
sg128
F8
sg122
F8
ssg16
VTotal Film
p3251
sg18
NsbsVChicago Sun-Times/Bill Stamets
p3252
g3
(g4
g5
NtRp3253
(dp3254
g8
g3252
sg9
VBill Stamets
p3255
sg11
S'http://www.metacritic.com/critic/bill-stamets?filter=movies'
p3256
sg13
(dp3257
g211
F8.8000000000000007
sg325
F8.8000000000000007
sg277
F10
ssg16
VChicago Sun-Times
p3258
sg18
NsbsVThe Dissolve/Noel Murray
p3259
g3
(g4
g5
NtRp3260
(dp3261
g8
g3259
sg9
VNoel Murray
p3262
sg11
S'http://www.metacritic.com/critic/noel-murray?filter=movies'
p3263
sg13
(dp3264
g25
F8
sg571
F8
ssg16
VThe Dissolve
p3265
sg18
NsbsVEmpire/Chris Hewitt (1)
p3266
g3
(g4
g5
NtRp3267
(dp3268
g8
g3266
sg9
VChris Hewitt (1)
p3269
sg11
S'http://www.metacritic.com/critic/chris-hewitt-1?filter=movies'
p3270
sg13
(dp3271
g108
F8
sg161
F10
ssg16
VEmpire
p3272
sg18
NsbsVTotal Film/Stephen Kelly
p3273
g3
(g4
g5
NtRp3274
(dp3275
g8
g3273
sg9
VStephen Kelly
p3276
sg11
S'http://www.metacritic.com/critic?filter=movies'
p3277
sg13
(dp3278
g87
F8
ssg16
VTotal Film
p3279
sg18
NsbsVAustin Chronicle/Marc Savlov
p3280
g3
(g4
g5
NtRp3281
(dp3282
g8
g3280
sg9
VMarc Savlov
p3283
sg11
S'http://www.metacritic.com/critic/marc-savlov?filter=movies'
p3284
sg13
(dp3285
g538
F8.9000000000000004
sg302
F3
sg109
F3
sg113
F4
sg108
F6.7000000000000002
sg52
F2
sg115
F2
sg91
F8.9000000000000004
sg285
F8.9000000000000004
sg99
F6.7000000000000002
sg211
F8.9000000000000004
sg64
F8.9000000000000004
sg530
F7.7999999999999998
sg125
F8.9000000000000004
sg429
F8.9000000000000004
sg33
F7.7999999999999998
sg132
F8.9000000000000004
sg130
F8.9000000000000004
sg133
F7.7999999999999998
sg134
F4
sg135
F7.7999999999999998
sg136
F5
sg141
F7.7999999999999998
sg145
F8.9000000000000004
sg303
F8.9000000000000004
sg155
F8.9000000000000004
sg157
F7.7999999999999998
sg159
F7.7999999999999998
sg161
F8.9000000000000004
sg158
F8.9000000000000004
ssg16
VAustin Chronicle
p3286
sg18
NsbsVThe Hollywood Reporter/Boyd van Hoeij
p3287
g3
(g4
g5
NtRp3288
(dp3289
g8
g3287
sg9
VBoyd van Hoeij
p3290
sg11
S'http://www.metacritic.com/critic/boyd-van-hoeij?filter=movies'
p3291
sg13
(dp3292
g203
F8
sg325
F8
sg91
F8
ssg16
VThe Hollywood Reporter
p3293
sg18
NsbsVSlant Magazine/Carson Lund
p3294
g3
(g4
g5
NtRp3295
(dp3296
g8
g3294
sg9
VCarson Lund
p3297
sg11
S'http://www.metacritic.com/critic/carson-lund?filter=movies'
p3298
sg13
(dp3299
g203
F6.2999999999999998
ssg16
VSlant Magazine
p3300
sg18
NsbsVThe Hollywood Reporter/David Rooney
p3301
g3
(g4
g5
NtRp3302
(dp3303
g8
g3301
sg9
VDavid Rooney
p3304
sg11
S'http://www.metacritic.com/critic/david-rooney?filter=movies'
p3305
sg13
(dp3306
g677
F10
sg479
F8
sg67
F10
sg213
F7
sg522
F9
ssg16
VThe Hollywood Reporter
p3307
sg18
NsbsVChicago Reader/Andrea Gronvall
p3308
g3
(g4
g5
NtRp3309
(dp3310
g8
g3308
sg9
VAndrea Gronvall
p3311
sg11
S'http://www.metacritic.com/critic/andrea-gronvall?filter=movies'
p3312
sg13
(dp3313
g130
F8
sg144
F5
sg33
F10
sg154
F0
sg89
F9
ssg16
VChicago Reader
p3314
sg18
NsbsVThe New Yorker/David Denby
p3315
g3
(g4
g5
NtRp3316
(dp3317
g8
g3315
sg9
VDavid Denby
p3318
sg11
S'http://www.metacritic.com/critic/david-denby?filter=movies'
p3319
sg13
(dp3320
g107
F9
sg114
F7
sg119
F8
sg64
F9
sg126
F10
sg128
F10
sg541
F10
sg130
F9
sg164
F10
sg134
F5
sg108
F5
sg136
F5
sg138
F9
sg139
F6
sg140
F7
sg144
F5
sg149
F5
sg303
F9
sg250
F8
sg155
F10
sg157
F5
sg89
F8
sg66
F7
sg160
F10
sg161
F9
sg277
F10
sg158
F7
sg165
F8
ssg16
VThe New Yorker
p3321
sg18
NsbsVThe Playlist/Kimber Myers
p3322
g3
(g4
g5
NtRp3323
(dp3324
g8
g3322
sg9
VKimber Myers
p3325
sg11
S'http://www.metacritic.com/critic/kimber-myers?filter=movies'
p3326
sg13
(dp3327
g429
F8.3000000000000007
ssg16
VThe Playlist
p3328
sg18
NsbsVFilm Threat/Rick Kisonak
p3329
g3
(g4
g5
NtRp3330
(dp3331
g8
g3329
sg9
VRick Kisonak
p3332
sg11
S'http://www.metacritic.com/critic/rick-kisonak?filter=movies'
p3333
sg13
(dp3334
g286
F8
sg120
F8
sg165
F8
sg121
F7
sg119
F6
ssg16
VFilm Threat
p3335
sg18
NsbsVBoxoffice Magazine/Wade Major
p3336
g3
(g4
g5
NtRp3337
(dp3338
g8
g3336
sg9
VWade Major
p3339
sg11
S'http://www.metacritic.com/critic/wade-major?filter=movies'
p3340
sg13
(dp3341
g118
F8
ssg16
VBoxoffice Magazine
p3342
sg18
NsbsVL.A. Weekly/Ella Taylor
p3343
g3
(g4
g5
NtRp3344
(dp3345
g8
g3343
sg9
VElla Taylor
p3346
sg11
S'http://www.metacritic.com/critic/ella-taylor?filter=movies'
p3347
sg13
(dp3348
g538
F9
sg120
F10
sg250
F7
sg112
F10
sg126
F9
sg123
F5
sg541
F10
sg162
F9
sg285
F8
sg249
F2
sg158
F8
sg165
F10
ssg16
VL.A. Weekly
p3349
sg18
NsbsVThe Film Stage/Nick Newman
p3350
g3
(g4
g5
NtRp3351
(dp3352
g8
g3350
sg9
VNick Newman
p3353
sg11
S'http://www.metacritic.com/critic/nick-newman?filter=movies'
p3354
sg13
(dp3355
g133
F7.5
ssg16
VThe Film Stage
p3356
sg18
NsbsVSlant Magazine/Elise Nakhnikian
p3357
g3
(g4
g5
NtRp3358
(dp3359
g8
g3357
sg9
VElise Nakhnikian
p3360
sg11
S'http://www.metacritic.com/critic/elise-nakhnikian?filter=movies'
p3361
sg13
(dp3362
g146
F6.2999999999999998
sg25
F8.8000000000000007
sg571
F8.8000000000000007
ssg16
VSlant Magazine
p3363
sg18
NsbsVSlant Magazine/Matt Noller
p3364
g3
(g4
g5
NtRp3365
(dp3366
g8
g3364
sg9
VMatt Noller
p3367
sg11
S'http://www.metacritic.com/critic?filter=movies'
p3368
sg13
(dp3369
g43
F8.8000000000000007
ssg16
VSlant Magazine
p3370
sg18
NsbsVSan Francisco Chronicle/Mick LaSalle
p3371
g3
(g4
g5
NtRp3372
(dp3373
g8
g3371
sg9
VMick LaSalle
p3374
sg11
S'http://www.metacritic.com/critic/mick-lasalle?filter=movies'
p3375
sg13
(dp3376
g107
F10
sg151
F10
sg88
F7.5
sg272
F5
sg110
F5
sg64
F10
sg113
F2.5
sg114
F7.5
sg52
F2.5
sg116
F7.5
sg91
F10
sg35
F7.5
sg117
F7.5
sg119
F7.5
sg120
F10
sg122
F5
sg62
F7.5
sg124
F2.5
sg530
F7.5
sg125
F7.5
sg126
F10
sg65
F10
sg128
F10
sg132
F10
sg130
F7.5
sg33
F7.5
sg34
F10
sg131
F0
sg273
F7.5
sg164
F5
sg302
F5
sg108
F10
sg136
F7.5
sg139
F10
sg140
F10
sg141
F5
sg142
F5
sg212
F7.5
sg144
F7.5
sg162
F10
sg146
F10
sg63
F7.5
sg173
F10
sg72
F7.5
sg121
F7.5
sg150
F10
sg143
F10
sg287
F7.5
sg213
F10
sg152
F10
sg153
F10
sg250
F5
sg43
F5
sg154
F2.5
sg156
F7.5
sg157
F7.5
sg89
F7.5
sg522
F7.5
sg159
F7.5
sg66
F7.5
sg160
F10
sg67
F10
sg286
F7.5
sg163
F7.5
sg70
F10
sg303
F10
sg158
F10
ssg16
VSan Francisco Chronicle
p3377
sg18
NsbsVThe Playlist/Oliver Lyttelton
p3378
g3
(g4
g5
NtRp3379
(dp3380
g8
g3378
sg9
VOliver Lyttelton
p3381
sg11
S'http://www.metacritic.com/critic/oliver-lyttelton?filter=movies'
p3382
sg13
(dp3383
g25
F9.0999999999999996
sg274
F4.2000000000000002
sg211
F10
sg64
F10
sg91
F8.3000000000000007
sg479
F9.0999999999999996
sg71
F10
sg213
F7.5
ssg16
VThe Playlist
p3384
sg18
NsbsVWashington Post/Stephanie Merry
p3385
g3
(g4
g5
NtRp3386
(dp3387
g8
g3385
sg9
VStephanie Merry
p3388
sg11
S'http://www.metacritic.com/critic/stephanie-merry?filter=movies'
p3389
sg13
(dp3390
g429
F7.5
sg117
F7.5
sg71
F6.2999999999999998
sg212
F7.5
ssg16
VWashington Post
p3391
sg18
NsbsVThe Hollywood Reporter/Sheri Linden
p3392
g3
(g4
g5
NtRp3393
(dp3394
g8
g3392
sg9
VSheri Linden
p3395
sg11
S'http://www.metacritic.com/critic/sheri-linden?filter=movies'
p3396
sg13
(dp3397
g538
F9
ssg16
VThe Hollywood Reporter
p3398
sg18
NsbsVVariety/Todd McCarthy
p3399
g3
(g4
g5
NtRp3400
(dp3401
g8
g3399
sg9
VTodd McCarthy
p3402
sg11
S'http://www.metacritic.com/critic/todd-mccarthy?filter=movies'
p3403
sg13
(dp3404
g135
F9
sg115
F6
sg119
F8
sg159
F6
sg125
F9
sg33
F10
sg541
F9
sg130
F8
sg164
F10
sg108
F8
sg138
F9
sg163
F9
sg142
F9
sg143
F10
sg303
F9
sg152
F8
sg250
F7
sg157
F7
sg89
F10
sg285
F9
sg161
F9
sg162
F8
sg158
F5
ssg16
VVariety
p3405
sg18
NsbsVThe New York Times/Manohla Dargis
p3406
g3
(g4
g5
NtRp3407
(dp3408
g8
g3406
sg9
VManohla Dargis
p3409
sg11
S'http://www.metacritic.com/critic/manohla-dargis?filter=movies'
p3410
sg13
(dp3411
g107
F10
sg272
F9
sg61
F6
sg116
F10
sg147
F8
sg122
F10
sg211
F8
sg15
F7
sg65
F10
sg128
F10
sg132
F9
sg571
F10
sg129
F10
sg133
F9
sg134
F4
sg108
F5
sg136
F9
sg138
F9
sg141
F8
sg142
F5
sg123
F6
sg213
F7
sg154
F5
sg157
F9
sg89
F7
sg120
F10
sg160
F9
sg161
F10
sg164
F10
sg67
F10
ssg16
VThe New York Times
p3412
sg18
NsbsVThe Hollywood Reporter/Bernard Besserglik
p3413
g3
(g4
g5
NtRp3414
(dp3415
g8
g3413
sg9
VBernard Besserglik
p3416
sg11
S'http://www.metacritic.com/critic?filter=movies'
p3417
sg13
(dp3418
g123
F8
ssg16
VThe Hollywood Reporter
p3419
sg18
NsbsVCineVue/Matthew Anderson
p3420
g3
(g4
g5
NtRp3421
(dp3422
g8
g3420
sg9
VMatthew Anderson
p3423
sg11
S'http://www.metacritic.com/critic/matthew-anderson?filter=movies'
p3424
sg13
(dp3425
g62
F8
ssg16
VCineVue
p3426
sg18
NsbsVNew York Observer/Thelma Adams
p3427
g3
(g4
g5
NtRp3428
(dp3429
g8
g3427
sg9
VThelma Adams
p3430
sg11
S'http://www.metacritic.com/critic?filter=movies'
p3431
sg13
(dp3432
g87
F7.5
ssg16
VNew York Observer
p3433
sg18
NsbsVThe Hollywood Reporter/Duane Byrge
p3434
g3
(g4
g5
NtRp3435
(dp3436
g8
g3434
sg9
VDuane Byrge
p3437
sg11
S'http://www.metacritic.com/critic?filter=movies'
p3438
sg13
(dp3439
g152
F5
ssg16
VThe Hollywood Reporter
p3440
sg18
NsbsVThe Seattle Times/Moira Macdonald
p3441
g3
(g4
g5
NtRp3442
(dp3443
g8
g3441
sg9
VMoira Macdonald
p3444
sg11
S'http://www.metacritic.com/critic/moira-macdonald?filter=movies'
p3445
sg13
(dp3446
g133
F8.8000000000000007
sg88
F10
sg62
F6.2999999999999998
sg128
F10
sg150
F10
sg117
F8.8000000000000007
ssg16
VThe Seattle Times
p3447
sg18
NsbsVThe Playlist/Jessica Kiang
p3448
g3
(g4
g5
NtRp3449
(dp3450
g8
g3448
sg9
VJessica Kiang
p3451
sg11
S'http://www.metacritic.com/critic/jessica-kiang?filter=movies'
p3452
sg13
(dp3453
g60
F8.3000000000000007
sg87
F8.3000000000000007
sg677
F10
sg61
F5
sg139
F8.3000000000000007
sg117
F7.5
sg63
F8.3000000000000007
sg276
F9.0999999999999996
sg212
F8.3000000000000007
sg273
F10
sg65
F10
sg66
F6.7000000000000002
sg173
F10
sg68
F9.0999999999999996
sg150
F10
sg90
F7.5
sg70
F9.0999999999999996
sg277
F8.3000000000000007
ssg16
VThe Playlist
p3454
sg18
NsbsVThe Hollywood Reporter/Ray Bennett
p3455
g3
(g4
g5
NtRp3456
(dp3457
g8
g3455
sg9
VRay Bennett
p3458
sg11
S'http://www.metacritic.com/critic/ray-bennett?filter=movies'
p3459
sg13
(dp3460
g112
F8
sg143
F8
sg120
F8
sg129
F8
sg162
F10
sg35
F6
ssg16
VThe Hollywood Reporter
p3461
sg18
NsbsVNew York Post/Sara Stewart
p3462
g3
(g4
g5
NtRp3463
(dp3464
g8
g3462
sg9
VSara Stewart
p3465
sg11
S'http://www.metacritic.com/critic/sara-stewart?filter=movies'
p3466
sg13
(dp3467
g87
F7.5
sg325
F10
ssg16
VNew York Post
p3468
sg18
NsbsVSlate/Dana Stevens
p3469
g3
(g4
g5
NtRp3470
(dp3471
g8
g3469
sg9
VDana Stevens
p3472
sg11
S'http://www.metacritic.com/critic/dana-stevens?filter=movies'
p3473
sg13
(dp3474
g107
F9
sg151
F5
sg88
F10
sg110
F8
sg64
F8
sg116
F8
sg117
F8
sg118
F10
sg122
F9
sg124
F4
sg522
F8
sg65
F8
sg128
F9
sg132
F10
sg130
F8
sg121
F7
sg34
F10
sg129
F10
sg133
F6
sg134
F6
sg108
F7
sg136
F10
sg139
F7
sg140
F7
sg141
F4
sg142
F6
sg143
F7
sg144
F5
sg63
F10
sg173
F10
sg72
F9
sg149
F7
sg150
F10
sg152
F9
sg87
F8
sg275
F8
sg89
F10
sg161
F9
sg120
F9
sg66
F9
sg160
F8
sg153
F8
sg286
F10
sg164
F10
sg70
F9
sg67
F10
sg277
F10
ssg16
VSlate
p3475
sg18
NsbsVVariety/Alissa Simon
p3476
g3
(g4
g5
NtRp3477
(dp3478
g8
g3476
sg9
VAlissa Simon
p3479
sg11
S'http://www.metacritic.com/critic?filter=movies'
p3480
sg13
(dp3481
g69
F8
sg118
F9
sg90
F9
ssg16
VVariety
p3482
sg18
NsbsVFilm.com/David Ehrlich
p3483
g3
(g4
g5
NtRp3484
(dp3485
g8
g3483
sg9
VDavid Ehrlich
p3486
sg11
S'http://www.metacritic.com/critic/david-ehrlich?filter=movies'
p3487
sg13
(dp3488
g122
F8
ssg16
VFilm.com
p3489
sg18
NsbsVThe A.V. Club/A.A. Dowd 
p3490
g3
(g4
g5
NtRp3491
(dp3492
g8
g3490
sg9
VA.A. Dowd 
p3493
sg11
S'http://www.metacritic.com/critic/aa-dowd?filter=movies'
p3494
sg13
(dp3495
g72
F8.3000000000000007
sg522
F9.0999999999999996
sg88
F10
sg122
F10
sg139
F8.3000000000000007
sg64
F8.3000000000000007
sg63
F9.0999999999999996
sg91
F9.0999999999999996
sg147
F5.7999999999999998
sg65
F8.3000000000000007
sg66
F5.7999999999999998
sg128
F9.0999999999999996
sg213
F7.5
sg68
F7.5
sg173
F10
sg69
F9.0999999999999996
sg70
F8.3000000000000007
sg71
F8.3000000000000007
sg277
F8.3000000000000007
ssg16
VThe A.V. Club
p3496
sg18
NsbsVNew York Daily News/Joe Dziemianowicz
p3497
g3
(g4
g5
NtRp3498
(dp3499
g8
g3497
sg9
VJoe Dziemianowicz
p3500
sg11
S'http://www.metacritic.com/critic/joe-dziemianowicz?filter=movies'
p3501
sg13
(dp3502
g62
F8
ssg16
VNew York Daily News
p3503
sg18
NsbsVChicago Tribune/Mark Caro
p3504
g3
(g4
g5
NtRp3505
(dp3506
g8
g3504
sg9
VMark Caro
p3507
sg11
S'http://www.metacritic.com/critic/mark-caro?filter=movies'
p3508
sg13
(dp3509
g115
F5
sg249
F3.7999999999999998
sg163
F7.5
sg165
F8.8000000000000007
ssg16
VChicago Tribune
p3510
sg18
NsbsVSan Francisco Chronicle/Amy Biancolli
p3511
g3
(g4
g5
NtRp3512
(dp3513
g8
g3511
sg9
VAmy Biancolli
p3514
sg11
S'http://www.metacritic.com/critic/amy-biancolli?filter=movies'
p3515
sg13
(dp3516
g149
F10
sg134
F5
sg161
F7.5
sg118
F10
ssg16
VSan Francisco Chronicle
p3517
sg18
NsbsVVariety/Rob Nelson
p3518
g3
(g4
g5
NtRp3519
(dp3520
g8
g3518
sg9
VRob Nelson
p3521
sg11
S'http://www.metacritic.com/critic/rob-nelson?filter=movies'
p3522
sg13
(dp3523
g530
F4
ssg16
VVariety
p3524
sg18
NsbsVSan Francisco Chronicle/Walter Addiego
p3525
g3
(g4
g5
NtRp3526
(dp3527
g8
g3525
sg9
VWalter Addiego
p3528
sg11
S'http://www.metacritic.com/critic/walter-addiego?filter=movies'
p3529
sg13
(dp3530
g275
F7.5
sg69
F7.5
sg71
F7.5
sg277
F10
ssg16
VSan Francisco Chronicle
p3531
sg18
NsbsVFilm Threat/Mark Bell
p3532
g3
(g4
g5
NtRp3533
(dp3534
g8
g3532
sg9
VMark Bell
p3535
sg11
S'http://www.metacritic.com/critic?filter=movies'
p3536
sg13
(dp3537
g154
F7
sg129
F7
ssg16
VFilm Threat
p3538
sg18
NsbsVThe Globe and Mail (Toronto)/Christopher Harris
p3539
g3
(g4
g5
NtRp3540
(dp3541
g8
g3539
sg9
VChristopher Harris
p3542
sg11
S'http://www.metacritic.com/critic?filter=movies'
p3543
sg13
(dp3544
g43
F7.5
ssg16
VThe Globe and Mail (Toronto)
p3545
sg18
NsbsVEmpire/William Thomas
p3546
g3
(g4
g5
NtRp3547
(dp3548
g8
g3546
sg9
VWilliam Thomas
p3549
sg11
S'http://www.metacritic.com/critic/william-thomas?filter=movies'
p3550
sg13
(dp3551
g109
F6
ssg16
VEmpire
p3552
sg18
NsbsVTime/Richard Corliss
p3553
g3
(g4
g5
NtRp3554
(dp3555
g8
g3553
sg9
VRichard Corliss
p3556
sg11
S'http://www.metacritic.com/critic/richard-corliss?filter=movies'
p3557
sg13
(dp3558
g107
F10
sg151
F8
sg110
F7
sg64
F10
sg539
F9
sg540
F10
sg118
F10
sg119
F9
sg202
F10
sg122
F10
sg123
F9
sg124
F5
sg125
F10
sg126
F9
sg128
F10
sg130
F10
sg33
F10
sg34
F10
sg302
F3
sg108
F10
sg136
F10
sg138
F10
sg163
F9
sg141
F10
sg142
F10
sg145
F4
sg72
F7
sg121
F5
sg149
F10
sg287
F5
sg303
F10
sg153
F8
sg154
F7
sg155
F10
sg89
F10
sg120
F10
sg160
F10
sg161
F9
sg165
F9
ssg16
VTime
p3559
sg18
NsbsVSan Francisco Chronicle/Judy Stone
p3560
g3
(g4
g5
NtRp3561
(dp3562
g8
g3560
sg9
VJudy Stone
p3563
sg11
S'http://www.metacritic.com/critic?filter=movies'
p3564
sg13
(dp3565
g540
F7.5
ssg16
VSan Francisco Chronicle
p3566
sg18
NsbsVNewsweek/David Ansen
p3567
g3
(g4
g5
NtRp3568
(dp3569
g8
g3567
sg9
VDavid Ansen
p3570
sg11
S'http://www.metacritic.com/critic/david-ansen?filter=movies'
p3571
sg13
(dp3572
g112
F8
sg119
F6
sg99
F9
sg125
F10
sg33
F10
sg132
F10
sg541
F8
sg130
F10
sg34
F9
sg164
F10
sg136
F7
sg138
F10
sg142
F9
sg144
F5
sg286
F10
sg129
F7
sg303
F10
sg155
F10
sg157
F7
sg162
F10
sg158
F9
sg165
F9
ssg16
VNewsweek
p3573
sg18
NsbsVSlant Magazine/Kenji Fujishima
p3574
g3
(g4
g5
NtRp3575
(dp3576
g8
g3574
sg9
VKenji Fujishima
p3577
sg11
S'http://www.metacritic.com/critic/kenji-fujishima?filter=movies'
p3578
sg13
(dp3579
g71
F6.2999999999999998
sg276
F7.5
ssg16
VSlant Magazine
p3580
sg18
NsbsVPortland Oregonian/Marc Mohan
p3581
g3
(g4
g5
NtRp3582
(dp3583
g8
g3581
sg9
VMarc Mohan
p3584
sg11
S'http://www.metacritic.com/critic/marc-mohan?filter=movies'
p3585
sg13
(dp3586
g107
F8.3000000000000007
sg151
F9.0999999999999996
sg25
F9.0999999999999996
sg64
F10
sg122
F8.3000000000000007
sg61
F9.0999999999999996
sg139
F9.0999999999999996
sg153
F7.5
sg63
F9.0999999999999996
sg212
F5.7999999999999998
sg65
F10
sg66
F8.3000000000000007
sg128
F8.3000000000000007
sg72
F10
sg571
F8.3000000000000007
sg116
F9.0999999999999996
sg277
F8.3000000000000007
sg152
F5
ssg16
VPortland Oregonian
p3587
sg18
NsbsVUSA Today/Claudia Puig
p3588
g3
(g4
g5
NtRp3589
(dp3590
g8
g3588
sg9
VClaudia Puig
p3591
sg11
S'http://www.metacritic.com/critic/claudia-puig?filter=movies'
p3592
sg13
(dp3593
g107
F6.2999999999999998
sg151
F8.8000000000000007
sg110
F6.2999999999999998
sg112
F8.8000000000000007
sg64
F10
sg114
F6.2999999999999998
sg35
F7.5
sg118
F10
sg122
F8.8000000000000007
sg124
F6.2999999999999998
sg125
F8.8000000000000007
sg126
F10
sg65
F8.8000000000000007
sg128
F10
sg132
F8.8000000000000007
sg130
F10
sg33
F10
sg34
F10
sg129
F7.5
sg108
F8.8000000000000007
sg136
F10
sg139
F8.8000000000000007
sg140
F7.5
sg141
F7.5
sg142
F7.5
sg143
F8.8000000000000007
sg144
F8.8000000000000007
sg72
F7.5
sg121
F7.5
sg149
F8.8000000000000007
sg287
F8.8000000000000007
sg303
F7.5
sg152
F10
sg153
F8.8000000000000007
sg154
F6.2999999999999998
sg155
F8.8000000000000007
sg89
F10
sg120
F8.8000000000000007
sg66
F10
sg160
F10
sg161
F7.5
sg286
F10
sg163
F8.8000000000000007
sg164
F8.8000000000000007
ssg16
VUSA Today
p3594
sg18
NsbsVTV Guide Magazine/Maitland McDonagh
p3595
g3
(g4
g5
NtRp3596
(dp3597
g8
g3595
sg9
VMaitland McDonagh
p3598
sg11
S'http://www.metacritic.com/critic/maitland-mcdonagh?filter=movies'
p3599
sg13
(dp3600
g538
F7
sg109
F3.7999999999999998
sg112
F10
sg113
F6
sg115
F4
sg35
F7.5
sg285
F8
sg99
F8
sg125
F6
sg33
F7
sg132
F7.5
sg541
F5
sg131
F4
sg164
F7.5
sg302
F4
sg135
F8
sg136
F10
sg142
F6.2999999999999998
sg143
F7.5
sg129
F7.5
sg287
F6
sg303
F7
sg157
F6
sg159
F4
ssg16
VTV Guide Magazine
p3601
sg18
NsbsVThe Guardian/Lanre Bakare
p3602
g3
(g4
g5
NtRp3603
(dp3604
g8
g3602
sg9
VLanre Bakare
p3605
sg11
S'http://www.metacritic.com/critic/lanre-bakare?filter=movies'
p3606
sg13
(dp3607
g88
F6
ssg16
VThe Guardian
p3608
sg18
NsbsVThe New York Times/Stephen Holden
p3609
g3
(g4
g5
NtRp3610
(dp3611
g8
g3609
sg9
VStephen Holden
p3612
sg11
S'http://www.metacritic.com/critic/stephen-holden?filter=movies'
p3613
sg13
(dp3614
g250
F9
sg541
F10
sg212
F9
sg159
F2
sg52
F7
sg162
F10
sg69
F10
sg35
F6
ssg16
VThe New York Times
p3615
sg18
NsbsVVillage Voice/Michael Nordine
p3616
g3
(g4
g5
NtRp3617
(dp3618
g8
g3616
sg9
VMichael Nordine
p3619
sg11
S'http://www.metacritic.com/critic/michael-nordine?filter=movies'
p3620
sg13
(dp3621
g71
F9
ssg16
VVillage Voice
p3622
sg18
NsbsVLos Angeles Times/Robert Abele
p3623
g3
(g4
g5
NtRp3624
(dp3625
g8
g3623
sg9
VRobert Abele
p3626
sg11
S'http://www.metacritic.com/critic/robert-abele?filter=movies'
p3627
sg13
(dp3628
g273
F7
ssg16
VLos Angeles Times
p3629
sg18
NsbsVCineVue/Tom Graham
p3630
g3
(g4
g5
NtRp3631
(dp3632
g8
g3630
sg9
VTom Graham
p3633
sg11
S'http://www.metacritic.com/critic?filter=movies'
p3634
sg13
(dp3635
g146
F8
ssg16
VCineVue
p3636
sg18
NsbsVScreen International/Mark Adams
p3637
g3
(g4
g5
NtRp3638
(dp3639
g8
g3637
sg9
VMark Adams
p3640
sg11
S'http://www.metacritic.com/critic/mark-adams?filter=movies'
p3641
sg13
(dp3642
g173
F9
ssg16
VScreen International
p3643
sg18
NsbsVThe Globe and Mail (Toronto)/Jay Scott
p3644
g3
(g4
g5
NtRp3645
(dp3646
g8
g3644
sg9
VJay Scott
p3647
sg11
S'http://www.metacritic.com/critic/jay-scott?filter=movies'
p3648
sg13
(dp3649
g540
F10
ssg16
VThe Globe and Mail (Toronto)
p3650
sg18
NsbsVFilm Threat/Eric Campos
p3651
g3
(g4
g5
NtRp3652
(dp3653
g8
g3651
sg9
VEric Campos
p3654
sg11
S'http://www.metacritic.com/critic?filter=movies'
p3655
sg13
(dp3656
g125
F10
ssg16
VFilm Threat
p3657
sg18
NsbsVThe A.V. Club/Noel Murray
p3658
g3
(g4
g5
NtRp3659
(dp3660
g8
g3658
sg9
VNoel Murray
p3661
sg11
S'http://www.metacritic.com/critic/noel-murray?filter=movies'
p3662
sg13
(dp3663
g154
F6.7000000000000002
sg112
F9.0999999999999996
sg146
F9.0999999999999996
sg429
F9.0999999999999996
sg148
F7
sg286
F9.0999999999999996
sg34
F7.5
sg35
F6.7000000000000002
ssg16
VThe A.V. Club
p3664
sg18
NsbsVTotal Film/Jamie Graham
p3665
g3
(g4
g5
NtRp3666
(dp3667
g8
g3665
sg9
VJamie Graham
p3668
sg11
S'http://www.metacritic.com/critic/jamie-graham?filter=movies'
p3669
sg13
(dp3670
g25
F8
sg88
F10
sg65
F10
sg63
F10
sg67
F8
sg116
F10
sg70
F8
sg213
F8
ssg16
VTotal Film
p3671
sg18
NsbsVL.A. Weekly/Manohla Dargis
p3672
g3
(g4
g5
NtRp3673
(dp3674
g8
g3672
sg9
VManohla Dargis
p3675
sg11
S'http://www.metacritic.com/critic/manohla-dargis?filter=movies'
p3676
sg13
(dp3677
g539
F9
sg135
F6
sg287
F2
sg303
F10
ssg16
VL.A. Weekly
p3678
sg18
NsbsVScreen International/Jonathan Romney
p3679
g3
(g4
g5
NtRp3680
(dp3681
g8
g3679
sg9
VJonathan Romney
p3682
sg11
S'http://www.metacritic.com/critic/jonathan-romney?filter=movies'
p3683
sg13
(dp3684
g62
F6
sg91
F9
ssg16
VScreen International
p3685
sg18
NsbsVThe Hollywood Reporter/Kirk Honeycutt
p3686
g3
(g4
g5
NtRp3687
(dp3688
g8
g3686
sg9
VKirk Honeycutt
p3689
sg11
S'http://www.metacritic.com/critic/kirk-honeycutt?filter=movies'
p3690
sg13
(dp3691
g108
F6
sg154
F8
sg163
F10
sg136
F10
sg149
F9
sg138
F10
sg157
F9
sg142
F8
sg161
F10
sg126
F10
sg286
F9
sg114
F7
sg160
F10
sg132
F8
sg155
F10
sg148
F8
sg130
F10
sg165
F9
sg119
F6
ssg16
VThe Hollywood Reporter
p3692
sg18
NsbsVEmpire/Damon Wise
p3693
g3
(g4
g5
NtRp3694
(dp3695
g8
g3693
sg9
VDamon Wise
p3696
sg11
S'http://www.metacritic.com/critic/damon-wise?filter=movies'
p3697
sg13
(dp3698
g139
F8
sg120
F10
sg66
F10
sg160
F8
sg129
F8
sg110
F10
ssg16
VEmpire
p3699
sg18
NsbsVVillage Voice/Alan Scherstuhl
p3700
g3
(g4
g5
NtRp3701
(dp3702
g8
g3700
sg9
VAlan Scherstuhl
p3703
sg11
S'http://www.metacritic.com/critic/alan-scherstuhl?filter=movies'
p3704
sg13
(dp3705
g274
F8
sg61
F10
sg62
F7
sg90
F10
sg15
F8
sg68
F10
sg69
F9
sg522
F6
ssg16
VVillage Voice
p3706
sg18
NsbsVTampa Bay Times/Steve Persall
p3707
g3
(g4
g5
NtRp3708
(dp3709
g8
g3707
sg9
VSteve Persall
p3710
sg11
S'http://www.metacritic.com/critic/steve-persall?filter=movies'
p3711
sg13
(dp3712
g107
F10
sg88
F10
sg110
F10
sg114
F6.7000000000000002
sg116
F10
sg117
F10
sg118
F10
sg122
F10
sg62
F6.7000000000000002
sg64
F10
sg147
F9.0999999999999996
sg65
F10
sg128
F10
sg133
F5.7999999999999998
sg134
F8.3000000000000007
sg139
F10
sg140
F10
sg141
F7.5
sg146
F8.3000000000000007
sg63
F10
sg72
F10
sg149
F8.3000000000000007
sg150
F8.3000000000000007
sg152
F10
sg153
F7.5
sg43
F5.7999999999999998
sg156
F7.5
sg522
F10
sg66
F10
sg160
F10
sg67
F10
sg70
F10
sg71
F10
ssg16
VTampa Bay Times
p3713
sg18
NsbsVRolling Stone/Peter Travers
p3714
g3
(g4
g5
NtRp3715
(dp3716
g8
g3714
sg9
VPeter Travers
p3717
sg11
S'http://www.metacritic.com/critic/peter-travers?filter=movies'
p3718
sg13
(dp3719
g88
F10
sg107
F10
sg72
F8.8000000000000007
sg109
F2.5
sg151
F8.8000000000000007
sg110
F10
sg112
F10
sg64
F10
sg539
F9
sg113
F2.5
sg114
F7.5
sg123
F8.8000000000000007
sg213
F8.8000000000000007
sg158
F8.8000000000000007
sg116
F8.8000000000000007
sg91
F8.8000000000000007
sg117
F8.8000000000000007
sg118
F8.8000000000000007
sg119
F8.8000000000000007
sg285
F10
sg122
F8.8000000000000007
sg302
F4
sg99
F9
sg62
F6.2999999999999998
sg211
F8.8000000000000007
sg124
F6.2999999999999998
sg530
F7.5
sg125
F7.5
sg126
F8.8000000000000007
sg65
F10
sg128
F10
sg132
F10
sg541
F10
sg130
F10
sg33
F8.8000000000000007
sg34
F8.8000000000000007
sg131
F0
sg273
F8.8000000000000007
sg303
F10
sg129
F8.8000000000000007
sg133
F8.8000000000000007
sg134
F5
sg153
F8.8000000000000007
sg108
F7.5
sg136
F8.8000000000000007
sg138
F10
sg139
F8.8000000000000007
sg140
F8.8000000000000007
sg141
F8.8000000000000007
sg142
F7.5
sg143
F10
sg144
F8.8000000000000007
sg146
F8.8000000000000007
sg63
F10
sg173
F8.8000000000000007
sg147
F8.8000000000000007
sg121
F8.8000000000000007
sg149
F8.8000000000000007
sg164
F10
sg150
F10
sg542
F10
sg152
F8.8000000000000007
sg87
F8.8000000000000007
sg250
F9
sg154
F6.2999999999999998
sg155
F8.8000000000000007
sg275
F7.5
sg51
F8
sg156
F8.8000000000000007
sg157
F7.5
sg89
F10
sg161
F8.8000000000000007
sg120
F10
sg66
F8.8000000000000007
sg160
F10
sg67
F10
sg163
F8.8000000000000007
sg162
F10
sg522
F8.8000000000000007
sg165
F8.8000000000000007
sg70
F10
sg71
F8.8000000000000007
sg277
F10
ssg16
VRolling Stone
p3720
sg18
NsbsVBoston Globe/Jay Carr
p3721
g3
(g4
g5
NtRp3722
(dp3723
g8
g3721
sg9
VJay Carr
p3724
sg11
S'http://www.metacritic.com/critic/jay-carr?filter=movies'
p3725
sg13
(dp3726
g302
F2.5
sg250
F10
sg99
F7.5
sg285
F10
sg541
F10
sg249
F6.2999999999999998
sg287
F8.8000000000000007
sg303
F10
ssg16
VBoston Globe
p3727
sg18
NsbsVNew York Daily News/Jami Bernard
p3728
g3
(g4
g5
NtRp3729
(dp3730
g8
g3728
sg9
VJami Bernard
p3731
sg11
S'http://www.metacritic.com/critic/jami-bernard?filter=movies'
p3732
sg13
(dp3733
g538
F8.8000000000000007
sg250
F8.8000000000000007
sg99
F5
sg285
F10
sg115
F3.7999999999999998
sg541
F8.8000000000000007
sg162
F10
sg158
F8.8000000000000007
ssg16
VNew York Daily News
p3734
sg18
NsbsVRogerEbert.com/Matt Zoller Seitz
p3735
g3
(g4
g5
NtRp3736
(dp3737
g8
g3735
sg9
VMatt Zoller Seitz
p3738
sg11
S'http://www.metacritic.com/critic/matt-zoller-seitz?filter=movies'
p3739
sg13
(dp3740
g88
F10
sg64
F10
sg90
F7.5
sg63
F10
sg571
F10
sg522
F7.5
sg67
F8.8000000000000007
ssg16
VRogerEbert.com
p3741
sg18
NsbsVFilm Threat/Ron Wells
p3742
g3
(g4
g5
NtRp3743
(dp3744
g8
g3742
sg9
VRon Wells
p3745
sg11
S'http://www.metacritic.com/critic/ron-wells?filter=movies'
p3746
sg13
(dp3747
g303
F8
ssg16
VFilm Threat
p3748
sg18
NsbsVThe Hollywood Reporter/Frank Scheck
p3749
g3
(g4
g5
NtRp3750
(dp3751
g8
g3749
sg9
VFrank Scheck
p3752
sg11
S'http://www.metacritic.com/critic/frank-scheck?filter=movies'
p3753
sg13
(dp3754
g109
F3
ssg16
VThe Hollywood Reporter
p3755
sg18
NsbsVNPR/Ian Buckwalter
p3756
g3
(g4
g5
NtRp3757
(dp3758
g8
g3756
sg9
VIan Buckwalter
p3759
sg11
S'http://www.metacritic.com/critic/ian-buckwalter?filter=movies'
p3760
sg13
(dp3761
g134
F4.5
sg153
F8
sg72
F9.5
ssg16
VNPR
p3762
sg18
NsbsVSlate/David Edelstein
p3763
g3
(g4
g5
NtRp3764
(dp3765
g8
g3763
sg9
VDavid Edelstein
p3766
sg11
S'http://www.metacritic.com/critic/david-edelstein?filter=movies'
p3767
sg13
(dp3768
g159
F7
sg135
F3
sg163
F10
sg138
F9
sg99
F9
sg157
F7
sg125
F7
sg126
F9
sg250
F9
sg33
F10
sg123
F8
sg541
F10
sg162
F6
sg249
F5
sg131
F6
sg158
F10
sg303
F10
sg165
F9
ssg16
VSlate
p3769
sg18
NsbsVThe New York Times/Vincent Canby
p3770
g3
(g4
g5
NtRp3771
(dp3772
g8
g3770
sg9
VVincent Canby
p3773
sg11
S'http://www.metacritic.com/critic?filter=movies'
p3774
sg13
(dp3775
g137
F9
sg540
F10
sg542
F10
ssg16
VThe New York Times
p3776
sg18
NsbsVVariety/Maggie Lee
p3777
g3
(g4
g5
NtRp3778
(dp3779
g8
g3777
sg9
VMaggie Lee
p3780
sg11
S'http://www.metacritic.com/critic/maggie-lee?filter=movies'
p3781
sg13
(dp3782
g60
F8
sg25
F9
ssg16
VVariety
p3783
sg18
NsbsVNPR/Scott Tobias
p3784
g3
(g4
g5
NtRp3785
(dp3786
g8
g3784
sg9
VScott Tobias
p3787
sg11
S'http://www.metacritic.com/critic/scott-tobias?filter=movies'
p3788
sg13
(dp3789
g108
F6.7000000000000002
sg152
F9
ssg16
VNPR
p3790
sg18
NsbsVVillage Voice/Dennis Lim
p3791
g3
(g4
g5
NtRp3792
(dp3793
g8
g3791
sg9
VDennis Lim
p3794
sg11
S'http://www.metacritic.com/critic/dennis-lim?filter=movies'
p3795
sg13
(dp3796
g302
F3
sg541
F8
ssg16
VVillage Voice
p3797
sg18
NsbsVAustin Chronicle/Kimberley Jones
p3798
g3
(g4
g5
NtRp3799
(dp3800
g8
g3798
sg9
VKimberley Jones
p3801
sg11
S'http://www.metacritic.com/critic/kimberley-jones?filter=movies'
p3802
sg13
(dp3803
g107
F8.9000000000000004
sg122
F8.9000000000000004
sg123
F5
sg62
F6.7000000000000002
sg126
F7.7999999999999998
sg65
F10
sg121
F7.7999999999999998
sg541
F7.7999999999999998
sg139
F10
sg140
F7.7999999999999998
sg153
F6.7000000000000002
sg63
F8.9000000000000004
sg173
F10
sg72
F8.9000000000000004
sg149
F7.7999999999999998
sg287
F8.9000000000000004
sg152
F6.7000000000000002
sg87
F8.9000000000000004
sg250
F7.7999999999999998
sg156
F7.7999999999999998
sg160
F8.9000000000000004
sg249
F2
sg67
F6.7000000000000002
sg165
F8.9000000000000004
ssg16
VAustin Chronicle
p3804
sg18
NsbsVArizona Republic/Bill Goodykoontz
p3805
g3
(g4
g5
NtRp3806
(dp3807
g8
g3805
sg9
VBill Goodykoontz
p3808
sg11
S'http://www.metacritic.com/critic/bill-goodykoontz?filter=movies'
p3809
sg13
(dp3810
g107
F10
sg151
F8
sg25
F8
sg88
F10
sg110
F9
sg64
F10
sg114
F7
sg116
F9
sg117
F8
sg118
F10
sg122
F10
sg62
F8
sg211
F9
sg124
F5
sg530
F9
sg91
F9
sg65
F10
sg429
F8
sg128
F10
sg325
F8
sg273
F8
sg133
F8
sg139
F9
sg141
F8
sg153
F9
sg212
F8
sg146
F9
sg63
F10
sg173
F9
sg72
F9
sg149
F10
sg150
F9
sg213
F8
sg152
F9
sg87
F9
sg275
F9
sg156
F9
sg522
F9
sg147
F8
sg66
F8
sg160
F10
sg67
F9
sg70
F10
sg71
F8
sg277
F9
ssg16
VArizona Republic
p3811
sg18
NsbsVEntertainment Weekly/Chris Nashawaty
p3812
g3
(g4
g5
NtRp3813
(dp3814
g8
g3812
sg9
VChris Nashawaty
p3815
sg11
S'http://www.metacritic.com/critic/chris-nashawaty?filter=movies'
p3816
sg13
(dp3817
g133
F7.5
sg88
F10
sg122
F7.5
sg273
F10
sg62
F7.5
sg117
F10
sg63
F10
sg91
F10
sg522
F9.0999999999999996
sg65
F9.0999999999999996
sg146
F8.3000000000000007
sg66
F8.3000000000000007
sg213
F7.5
sg67
F9.0999999999999996
sg150
F9.0999999999999996
sg325
F9.0999999999999996
sg70
F10
sg71
F10
sg277
F7.5
ssg16
VEntertainment Weekly
p3818
sg18
NsbsVChicago Tribune/Marc Caro
p3819
g3
(g4
g5
NtRp3820
(dp3821
g8
g3819
sg9
VMarc Caro
p3822
sg11
S'http://www.metacritic.com/critic?filter=movies'
p3823
sg13
(dp3824
g159
F8.8000000000000007
ssg16
VChicago Tribune
p3825
sg18
NsbsVPhiladelphia Inquirer/Carrie Rickey
p3826
g3
(g4
g5
NtRp3827
(dp3828
g8
g3826
sg9
VCarrie Rickey
p3829
sg11
S'http://www.metacritic.com/critic/carrie-rickey?filter=movies'
p3830
sg13
(dp3831
g112
F10
sg113
F5
sg114
F7.5
sg115
F5
sg285
F7.5
sg125
F7.5
sg126
F8.8000000000000007
sg541
F7.5
sg34
F10
sg302
F2.5
sg134
F5
sg136
F7.5
sg138
F10
sg140
F8.8000000000000007
sg144
F8.8000000000000007
sg286
F10
sg148
F8.8000000000000007
sg43
F7.5
sg157
F6.2999999999999998
sg89
F10
sg159
F8.8000000000000007
sg160
F10
sg162
F8.8000000000000007
sg249
F6.2999999999999998
sg158
F8.8000000000000007
sg165
F10
ssg16
VPhiladelphia Inquirer
p3832
sg18
NsbsVBoxoffice Magazine/Amy Nicholson
p3833
g3
(g4
g5
NtRp3834
(dp3835
g8
g3833
sg9
VAmy Nicholson
p3836
sg11
S'http://www.metacritic.com/critic?filter=movies'
p3837
sg13
(dp3838
g141
F7
ssg16
VBoxoffice Magazine
p3839
sg18
NsbsVChicago Sun-Times/Steven Boone
p3840
g3
(g4
g5
NtRp3841
(dp3842
g8
g3840
sg9
VSteven Boone
p3843
sg11
S'http://www.metacritic.com/critic?filter=movies'
p3844
sg13
(dp3845
g275
F8.8000000000000007
ssg16
VChicago Sun-Times
p3846
sg18
NsbsVRogerEbert.com/Brian Tallerico
p3847
g3
(g4
g5
NtRp3848
(dp3849
g8
g3847
sg9
VBrian Tallerico
p3850
sg11
S'http://www.metacritic.com/critic/brian-tallerico?filter=movies'
p3851
sg13
(dp3852
g60
F8.8000000000000007
sg62
F7.5
sg117
F7.5
sg429
F8.8000000000000007
sg212
F7.5
ssg16
VRogerEbert.com
p3853
sg18
NsbsVChicago Reader/Jonathan Rosenbaum
p3854
g3
(g4
g5
NtRp3855
(dp3856
g8
g3854
sg9
VJonathan Rosenbaum
p3857
sg11
S'http://www.metacritic.com/critic/jonathan-rosenbaum?filter=movies'
p3858
sg13
(dp3859
g538
F9
sg111
F8
sg112
F10
sg542
F2
sg52
F4
sg540
F10
sg35
F5
sg119
F5
sg99
F9
sg126
F7
sg127
F10
sg129
F7
sg541
F9
sg145
F8
sg34
F7
sg131
F6
sg164
F7
sg302
F6
sg135
F8
sg138
F7
sg163
F10
sg143
F3
sg123
F6
sg303
F6
sg250
F9
sg51
F8
sg285
F9
sg162
F7
sg249
F4
sg158
F9
sg165
F7
ssg16
VChicago Reader
p3860
sg18
NsbsVChicago Reader/Ben Sachs
p3861
g3
(g4
g5
NtRp3862
(dp3863
g8
g3861
sg9
VBen Sachs
p3864
sg11
S'http://www.metacritic.com/critic?filter=movies'
p3865
sg13
(dp3866
g114
F5
ssg16
VChicago Reader
p3867
sg18
NsbsVThe A.V. Club/David Ehrlich
p3868
g3
(g4
g5
NtRp3869
(dp3870
g8
g3868
sg9
VDavid Ehrlich
p3871
sg11
S'http://www.metacritic.com/critic/david-ehrlich?filter=movies'
p3872
sg13
(dp3873
g25
F10
ssg16
VThe A.V. Club
p3874
sg18
NsbsVFilm.com/Ernest Hardy
p3875
g3
(g4
g5
NtRp3876
(dp3877
g8
g3875
sg9
VErnest Hardy
p3878
sg11
S'http://www.metacritic.com/critic/ernest-hardy?filter=movies'
p3879
sg13
(dp3880
g99
F9
ssg16
VFilm.com
p3881
sg18
NsbsVThe Film Stage/Giovanni Marchini Camia
p3882
g3
(g4
g5
NtRp3883
(dp3884
g8
g3882
sg9
VGiovanni Marchini Camia
p3885
sg11
S'http://www.metacritic.com/critic/giovanni-marchini-camia?filter=movies'
p3886
sg13
(dp3887
g87
F6.7000000000000002
sg71
F8.3000000000000007
sg276
F7.5
sg117
F7.5
ssg16
VThe Film Stage
p3888
sg18
NsbsVUSA Today/Brian Truitt
p3889
g3
(g4
g5
NtRp3890
(dp3891
g8
g3889
sg9
VBrian Truitt
p3892
sg11
S'http://www.metacritic.com/critic/brian-truitt?filter=movies'
p3893
sg13
(dp3894
g133
F6.2999999999999998
sg88
F10
sg156
F8.8000000000000007
sg62
F7.5
sg63
F8.8000000000000007
sg70
F10
sg67
F7.5
ssg16
VUSA Today
p3895
sg18
NsbsVBoxoffice Magazine/John P. McCarthy
p3896
g3
(g4
g5
NtRp3897
(dp3898
g8
g3896
sg9
VJohn P. McCarthy
p3899
sg11
S'http://www.metacritic.com/critic/john-p-mccarthy?filter=movies'
p3900
sg13
(dp3901
g134
F5
ssg16
VBoxoffice Magazine
p3902
sg18
NsbsVFilm Threat/Clint Morris
p3903
g3
(g4
g5
NtRp3904
(dp3905
g8
g3903
sg9
VClint Morris
p3906
sg11
S'http://www.metacritic.com/critic?filter=movies'
p3907
sg13
(dp3908
g115
F4
ssg16
VFilm Threat
p3909
sg18
NsbsVVillage Voice/Alex Pappademas
p3910
g3
(g4
g5
NtRp3911
(dp3912
g8
g3910
sg9
VAlex Pappademas
p3913
sg11
S'http://www.metacritic.com/critic?filter=movies'
p3914
sg13
(dp3915
g115
F3
ssg16
VVillage Voice
p3916
sg18
NsbsVWashington Post/Desson Thomson
p3917
g3
(g4
g5
NtRp3918
(dp3919
g8
g3917
sg9
VDesson Thomson
p3920
sg11
S'http://www.metacritic.com/critic/desson-thomson?filter=movies'
p3921
sg13
(dp3922
g539
F9
sg113
F8
sg52
F4
sg115
F6
sg540
F10
sg119
F8
sg285
F9
sg125
F10
sg127
F10
sg33
F10
sg541
F9
sg145
F9
sg121
F7
sg34
F10
sg131
F8
sg302
F3
sg135
F8
sg138
F10
sg123
F6
sg148
F9
sg287
F10
sg303
F10
sg250
F9
sg43
F8
sg155
F9
sg51
F7
sg157
F9
sg159
F9
sg249
F4
sg158
F10
sg165
F8
ssg16
VWashington Post
p3923
sg18
NsbsVSlant Magazine/Nick Schager
p3924
g3
(g4
g5
NtRp3925
(dp3926
g8
g3924
sg9
VNick Schager
p3927
sg11
S'http://www.metacritic.com/critic/nick-schager?filter=movies'
p3928
sg13
(dp3929
g134
F2.5
sg141
F7.5
sg118
F8.8000000000000007
ssg16
VSlant Magazine
p3930
sg18
NsbsVPortland Oregonian/Kim Morgan
p3931
g3
(g4
g5
NtRp3932
(dp3933
g8
g3931
sg9
VKim Morgan
p3934
sg11
S'http://www.metacritic.com/critic/kim-morgan?filter=movies'
p3935
sg13
(dp3936
g115
F4.2000000000000002
sg302
F5
sg249
F4.2000000000000002
ssg16
VPortland Oregonian
p3937
sg18
NsbsVOrlando Sentinel/Roger Moore
p3938
g3
(g4
g5
NtRp3939
(dp3940
g8
g3938
sg9
VRoger Moore
p3941
sg11
S'http://www.metacritic.com/critic/roger-moore?filter=movies'
p3942
sg13
(dp3943
g134
F5
sg140
F7.5
sg114
F7.5
sg160
F10
sg149
F7.5
sg152
F7.5
ssg16
VOrlando Sentinel
p3944
sg18
NsbsVThe New York Times/A.O. Scott
p3945
g3
(g4
g5
NtRp3946
(dp3947
g8
g3945
sg9
VA.O. Scott
p3948
sg11
S'http://www.metacritic.com/critic/ao-scott?filter=movies'
p3949
sg13
(dp3950
g151
F10
sg88
F9
sg110
F10
sg112
F10
sg64
F9
sg539
F10
sg113
F1
sg114
F7
sg91
F7
sg117
F6
sg118
F8
sg62
F6
sg124
F5
sg125
F9
sg90
F10
sg33
F10
sg130
F10
sg479
F9
sg34
F10
sg325
F6
sg273
F7
sg302
F5
sg139
F10
sg140
F9
sg153
F10
sg143
F10
sg144
F8
sg146
F9
sg63
F10
sg173
F9
sg72
F10
sg121
F7
sg149
F6
sg150
F10
sg287
F9
sg152
F5
sg87
F10
sg155
F10
sg275
F10
sg156
F7
sg522
F10
sg66
F9
sg68
F8
sg286
F9
sg165
F10
sg70
F10
sg71
F10
sg277
F10
ssg16
VThe New York Times
p3951
sg18
NsbsVVariety/Guy Lodge
p3952
g3
(g4
g5
NtRp3953
(dp3954
g8
g3952
sg9
VGuy Lodge
p3955
sg11
S'http://www.metacritic.com/critic/guy-lodge?filter=movies'
p3956
sg13
(dp3957
g274
F6
sg71
F10
sg212
F8
ssg16
VVariety
p3958
sg18
NsbsVFilm Threat/Phil Hall
p3959
g3
(g4
g5
NtRp3960
(dp3961
g8
g3959
sg9
VPhil Hall
p3962
sg11
S'http://www.metacritic.com/critic/phil-hall?filter=movies'
p3963
sg13
(dp3964
g162
F4
sg158
F5
ssg16
VFilm Threat
p3965
sg18
NsbsVVillage Voice/Nathan Lee
p3966
g3
(g4
g5
NtRp3967
(dp3968
g8
g3966
sg9
VNathan Lee
p3969
sg11
S'http://www.metacritic.com/critic?filter=movies'
p3970
sg13
(dp3971
g109
F4
ssg16
VVillage Voice
p3972
sg18
NsbsVNew York Daily News/Jordan Hoffman
p3973
g3
(g4
g5
NtRp3974
(dp3975
g8
g3973
sg9
VJordan Hoffman
p3976
sg11
S'http://www.metacritic.com/critic?filter=movies'
p3977
sg13
(dp3978
g69
F8
sg213
F8
ssg16
VNew York Daily News
p3979
sg18
NsbsVLos Angeles Times/Carina Chocano
p3980
g3
(g4
g5
NtRp3981
(dp3982
g8
g3980
sg9
VCarina Chocano
p3983
sg11
S'http://www.metacritic.com/critic/carina-chocano?filter=movies'
p3984
sg13
(dp3985
g286
F8
sg126
F9
sg35
F7
sg123
F8
ssg16
VLos Angeles Times
p3986
sg18
NsbsVL.A. Weekly/John Patterson
p3987
g3
(g4
g5
NtRp3988
(dp3989
g8
g3987
sg9
VJohn Patterson
p3990
sg11
S'http://www.metacritic.com/critic/john-patterson?filter=movies'
p3991
sg13
(dp3992
g159
F8
ssg16
VL.A. Weekly
p3993
sg18
NsbsVEmpire/Colin Kennedy
p3994
g3
(g4
g5
NtRp3995
(dp3996
g8
g3994
sg9
VColin Kennedy
p3997
sg11
S'http://www.metacritic.com/critic?filter=movies'
p3998
sg13
(dp3999
g163
F8
ssg16
VEmpire
p4000
sg18
NsbsVVillage Voice/Chris Packham
p4001
g3
(g4
g5
NtRp4002
(dp4003
g8
g4001
sg9
VChris Packham
p4004
sg11
S'http://www.metacritic.com/critic?filter=movies'
p4005
sg13
(dp4006
g153
F9
ssg16
VVillage Voice
p4007
sg18
NsbsVCharlotte Observer/Lawrence Toppman
p4008
g3
(g4
g5
NtRp4009
(dp4010
g8
g4008
sg9
VLawrence Toppman
p4011
sg11
S'http://www.metacritic.com/critic/lawrence-toppman?filter=movies'
p4012
sg13
(dp4013
g107
F8.8000000000000007
sg110
F8.8000000000000007
sg112
F10
sg64
F10
sg113
F6.2999999999999998
sg115
F3.7999999999999998
sg116
F8.8000000000000007
sg91
F8.8000000000000007
sg117
F6.2999999999999998
sg118
F8.8000000000000007
sg119
F8.8000000000000007
sg285
F8.8000000000000007
sg122
F10
sg99
F2.5
sg62
F7.5
sg124
F7.5
sg125
F7.5
sg126
F7.5
sg65
F8.3000000000000007
sg128
F10
sg129
F8.8000000000000007
sg541
F7.5
sg130
F8.8000000000000007
sg33
F10
sg131
F3.7999999999999998
sg325
F9.0999999999999996
sg132
F7.5
sg302
F3.7999999999999998
sg134
F6.2999999999999998
sg163
F7.5
sg136
F10
sg138
F10
sg139
F8.3000000000000007
sg140
F6.2999999999999998
sg141
F7.5
sg142
F7.5
sg143
F7.5
sg144
F8.8000000000000007
sg63
F10
sg173
F7.5
sg147
F8.8000000000000007
sg148
F10
sg149
F8.8000000000000007
sg303
F10
sg152
F8.8000000000000007
sg153
F10
sg154
F5
sg155
F10
sg156
F9.0999999999999996
sg157
F10
sg158
F8.8000000000000007
sg120
F6.2999999999999998
sg160
F10
sg67
F5
sg162
F10
sg249
F3.7999999999999998
sg164
F7.5
sg70
F10
sg71
F8.8000000000000007
sg165
F6.2999999999999998
ssg16
VCharlotte Observer
p4014
sg18
NsbsVFilm.com/Stephanie Zacharek
p4015
g3
(g4
g5
NtRp4016
(dp4017
g8
g4015
sg9
VStephanie Zacharek
p4018
sg11
S'http://www.metacritic.com/critic/stephanie-zacharek?filter=movies'
p4019
sg13
(dp4020
g107
F10
ssg16
VFilm.com
p4021
sg18
NsbsVThe New York Times/Dana Stevens
p4022
g3
(g4
g5
NtRp4023
(dp4024
g8
g4022
sg9
VDana Stevens
p4025
sg11
S'http://www.metacritic.com/critic/dana-stevens?filter=movies'
p4026
sg13
(dp4027
g126
F9
sg148
F9
sg115
F2
sg249
F3
sg131
F4
sg158
F9
sg119
F7
ssg16
VThe New York Times
p4028
sg18
NsbsVTNT RoughCut/Matt Kelsey
p4029
g3
(g4
g5
NtRp4030
(dp4031
g8
g4029
sg9
VMatt Kelsey
p4032
sg11
S'http://www.metacritic.com/critic?filter=movies'
p4033
sg13
(dp4034
g159
F8.5
ssg16
VTNT RoughCut
p4035
sg18
NsbsVEmpire/Nev Pierce
p4036
g3
(g4
g5
NtRp4037
(dp4038
g8
g4036
sg9
VNev Pierce
p4039
sg11
S'http://www.metacritic.com/critic?filter=movies'
p4040
sg13
(dp4041
g149
F10
sg150
F8
sg141
F10
sg152
F8
ssg16
VEmpire
p4042
sg18
NsbsVMovieline/Stephanie Zacharek
p4043
g3
(g4
g5
NtRp4044
(dp4045
g8
g4043
sg9
VStephanie Zacharek
p4046
sg11
S'http://www.metacritic.com/critic/stephanie-zacharek?filter=movies'
p4047
sg13
(dp4048
g134
F4
sg140
F9
sg114
F7.5
sg160
F9.5
sg149
F3
sg118
F8.5
sg152
F8.5
ssg16
VMovieline
p4049
sg18
NsbsVIndiewire/Eric Kohn
p4050
g3
(g4
g5
NtRp4051
(dp4052
g8
g4050
sg9
VEric Kohn
p4053
sg11
S'http://www.metacritic.com/critic/eric-kohn?filter=movies'
p4054
sg13
(dp4055
g107
F10
sg151
F7.5
sg88
F8.3000000000000007
sg272
F9.0999999999999996
sg61
F9.0999999999999996
sg273
F8.3000000000000007
sg64
F9.0999999999999996
sg203
F10
sg114
F6.7000000000000002
sg116
F9.0999999999999996
sg117
F6.7000000000000002
sg118
F10
sg122
F9.0999999999999996
sg62
F7.5
sg211
F10
sg124
F7.5
sg91
F9.0999999999999996
sg15
F7.5
sg65
F9.0999999999999996
sg128
F10
sg133
F6.7000000000000002
sg139
F9.0999999999999996
sg141
F7.5
sg63
F9.0999999999999996
sg173
F9.0999999999999996
sg72
F9.0999999999999996
sg150
F10
sg213
F10
sg153
F7.5
sg275
F7.5
sg147
F8.3000000000000007
sg66
F6.7000000000000002
sg67
F9.0999999999999996
sg68
F10
sg70
F7.5
sg71
F9.0999999999999996
ssg16
VIndiewire
p4056
sg18
NsbsVSlant Magazine/Calum Marsh
p4057
g3
(g4
g5
NtRp4058
(dp4059
g8
g4057
sg9
VCalum Marsh
p4060
sg11
S'http://www.metacritic.com/critic?filter=movies'
p4061
sg13
(dp4062
g116
F5
sg110
F5
ssg16
VSlant Magazine
p4063
sg18
NsbsVSlant Magazine/James Lattimer
p4064
g3
(g4
g5
NtRp4065
(dp4066
g8
g4064
sg9
VJames Lattimer
p4067
sg11
S'http://www.metacritic.com/critic/james-lattimer?filter=movies'
p4068
sg13
(dp4069
g60
F5
ssg16
VSlant Magazine
p4070
sg18
NsbsVPortland Oregonian/Diana Abu-Jaber
p4071
g3
(g4
g5
NtRp4072
(dp4073
g8
g4071
sg9
VDiana Abu-Jaber
p4074
sg11
S'http://www.metacritic.com/critic/diana-abu-jaber?filter=movies'
p4075
sg13
(dp4076
g159
F7.5
ssg16
VPortland Oregonian
p4077
sg18
NsbsVTime/Mary Corliss
p4078
g3
(g4
g5
NtRp4079
(dp4080
g8
g4078
sg9
VMary Corliss
p4081
sg11
S'http://www.metacritic.com/critic?filter=movies'
p4082
sg13
(dp4083
g116
F10
ssg16
VTime
p4084
sg18
NsbsVChicago Tribune/Gene Siskel
p4085
g3
(g4
g5
NtRp4086
(dp4087
g8
g4085
sg9
VGene Siskel
p4088
sg11
S'http://www.metacritic.com/critic/gene-siskel?filter=movies'
p4089
sg13
(dp4090
g145
F10
sg51
F10
sg137
F10
ssg16
VChicago Tribune
p4091
sg18
NsbsVL.A. Weekly/Scott Foundas
p4092
g3
(g4
g5
NtRp4093
(dp4094
g8
g4092
sg9
VScott Foundas
p4095
sg11
S'http://www.metacritic.com/critic/scott-foundas?filter=movies'
p4096
sg13
(dp4097
g109
F5
sg157
F8
sg142
F10
sg161
F10
sg89
F9
sg113
F8
sg33
F10
sg132
F8
sg148
F9
sg34
F5
sg164
F10
sg35
F5
sg129
F9
ssg16
VL.A. Weekly
p4098
sg18
NsbsVThe Guardian/Brian Moylan
p4099
g3
(g4
g5
NtRp4100
(dp4101
g8
g4099
sg9
VBrian Moylan
p4102
sg11
S'http://www.metacritic.com/critic?filter=movies'
p4103
sg13
(dp4104
g147
F8
ssg16
VThe Guardian
p4105
sg18
NsbsVNew York Post/Jonathan Foreman
p4106
g3
(g4
g5
NtRp4107
(dp4108
g8
g4106
sg9
VJonathan Foreman
p4109
sg11
S'http://www.metacritic.com/critic/jonathan-foreman?filter=movies'
p4110
sg13
(dp4111
g539
F10
sg541
F10
sg249
F5
sg135
F5
sg125
F7.5
ssg16
VNew York Post
p4112
sg18
NsbsVWashington Post/Michael O'Sullivan
p4113
g3
(g4
g5
NtRp4114
(dp4115
g8
g4113
sg9
VMichael O'Sullivan
p4116
sg11
S'http://www.metacritic.com/critic/michael-osullivan?filter=movies'
p4117
sg13
(dp4118
g163
F9
sg25
F8.8000000000000007
sg530
F7.5
sg213
F8.8000000000000007
sg571
F8.8000000000000007
ssg16
VWashington Post
p4119
sg18
NsbsVTotal Film/Emma Morgan
p4120
g3
(g4
g5
NtRp4121
(dp4122
g8
g4120
sg9
VEmma Morgan
p4123
sg11
S'http://www.metacritic.com/critic?filter=movies'
p4124
sg13
(dp4125
g139
F8
ssg16
VTotal Film
p4126
sg18
NsbsVFilm Threat/Harry Hartoonian
p4127
g3
(g4
g5
NtRp4128
(dp4129
g8
g4127
sg9
VHarry Hartoonian
p4130
sg11
S'http://www.metacritic.com/critic?filter=movies'
p4131
sg13
(dp4132
g52
F2
ssg16
VFilm Threat
p4133
sg18
NsbsVBoxoffice Magazine/Sara Maria Vizcarrondo
p4134
g3
(g4
g5
NtRp4135
(dp4136
g8
g4134
sg9
VSara Maria Vizcarrondo
p4137
sg11
S'http://www.metacritic.com/critic/sara-maria-vizcarrondo?filter=movies'
p4138
sg13
(dp4139
g110
F7
ssg16
VBoxoffice Magazine
p4140
sg18
NsbsVScreenCrush/Matt Singer
p4141
g3
(g4
g5
NtRp4142
(dp4143
g8
g4141
sg9
VMatt Singer
p4144
sg11
S'http://www.metacritic.com/critic/matt-singer?filter=movies'
p4145
sg13
(dp4146
g133
F7
sg62
F8
sg117
F8
ssg16
VScreenCrush
p4147
sg18
NsbsVFilm Threat/Mariko McDonald
p4148
g3
(g4
g5
NtRp4149
(dp4150
g8
g4148
sg9
VMariko McDonald
p4151
sg11
S'http://www.metacritic.com/critic?filter=movies'
p4152
sg13
(dp4153
g163
F10
ssg16
VFilm Threat
p4154
sg18
NsbsVThe Guardian/Ed Gibbs
p4155
g3
(g4
g5
NtRp4156
(dp4157
g8
g4155
sg9
VEd Gibbs
p4158
sg11
S'http://www.metacritic.com/critic?filter=movies'
p4159
sg13
(dp4160
g156
F8
ssg16
VThe Guardian
p4161
sg18
NsbsVChicago Tribune/Allison Benedikt
p4162
g3
(g4
g5
NtRp4163
(dp4164
g8
g4162
sg9
VAllison Benedikt
p4165
sg11
S'http://www.metacritic.com/critic/allison-benedikt?filter=movies'
p4166
sg13
(dp4167
g131
F1.2
ssg16
VChicago Tribune
p4168
sg18
NsbsVWall Street Journal/Joanne Kaufman
p4169
g3
(g4
g5
NtRp4170
(dp4171
g8
g4169
sg9
VJoanne Kaufman
p4172
sg11
S'http://www.metacritic.com/critic?filter=movies'
p4173
sg13
(dp4174
g108
F5
ssg16
VWall Street Journal
p4175
sg18
NsbsVMcClatchy-Tribune News Service/Roger Moore
p4176
g3
(g4
g5
NtRp4177
(dp4178
g8
g4176
sg9
VRoger Moore
p4179
sg11
S'http://www.metacritic.com/critic/roger-moore?filter=movies'
p4180
sg13
(dp4181
g25
F7.5
sg122
F8.8000000000000007
sg139
F8.8000000000000007
sg64
F8.8000000000000007
sg65
F10
sg66
F10
sg128
F10
sg72
F6.2999999999999998
ssg16
VMcClatchy-Tribune News Service
p4182
sg18
NsbsVIndiewire/Greg Cwick
p4183
g3
(g4
g5
NtRp4184
(dp4185
g8
g4183
sg9
VGreg Cwick
p4186
sg11
S'http://www.metacritic.com/critic?filter=movies'
p4187
sg13
(dp4188
g277
F10
ssg16
VIndiewire
p4189
sg18
NsbsVScreen International/Dan Fainaru
p4190
g3
(g4
g5
NtRp4191
(dp4192
g8
g4190
sg9
VDan Fainaru
p4193
sg11
S'http://www.metacritic.com/critic/dan-fainaru?filter=movies'
p4194
sg13
(dp4195
g274
F5
ssg16
VScreen International
p4196
sg18
NsbsVSlant Magazine/Matt Brennan
p4197
g3
(g4
g5
NtRp4198
(dp4199
g8
g4197
sg9
VMatt Brennan
p4200
sg11
S'http://www.metacritic.com/critic/matt-brennan?filter=movies'
p4201
sg13
(dp4202
g173
F10
ssg16
VSlant Magazine
p4203
sg18
NsbsVNew York Post/V.A. Musetto
p4204
g3
(g4
g5
NtRp4205
(dp4206
g8
g4204
sg9
VV.A. Musetto
p4207
sg11
S'http://www.metacritic.com/critic/va-musetto?filter=movies'
p4208
sg13
(dp4209
g538
F8.8000000000000007
sg272
F7.5
sg120
F8.8000000000000007
sg148
F7.5
sg286
F7.5
sg35
F5
sg158
F7.5
ssg16
VNew York Post
p4210
sg18
NsbsVSlant Magazine/Jake Cole
p4211
g3
(g4
g5
NtRp4212
(dp4213
g8
g4211
sg9
VJake Cole
p4214
sg11
S'http://www.metacritic.com/critic/jake-cole?filter=movies'
p4215
sg13
(dp4216
g62
F7.5
ssg16
VSlant Magazine
p4217
sg18
NsbsVWall Street Journal/Julie Salamon
p4218
g3
(g4
g5
NtRp4219
(dp4220
g8
g4218
sg9
VJulie Salamon
p4221
sg11
S'http://www.metacritic.com/critic/julie-salamon?filter=movies'
p4222
sg13
(dp4223
g51
F10
sg540
F3
ssg16
VWall Street Journal
p4224
sg18
Nsbs.