(dp1
S'dr-strangelove-or-how-i-learned-to-stop-worrying-and-love-the-bomb'
p2
I9
sS'pans-labyrinth'
p3
F8.5
sS'the-hobbit-an-unexpected-journey'
p4
I5
sS'in-the-mood-for-love'
p5
I10
sS'american-wedding'
p6
I2
sS'the-pianist'
p7
I9
sS'sicario'
p8
I5
sS'2001-a-space-odyssey'
p9
I10
sS'the-nice-guys'
p10
I2
sS'the-lord-of-the-rings-the-two-towers'
p11
I9
sS'capote'
p12
F8.5
sS'gosford-park'
p13
F8.5
sS'wall-e'
p14
I8
sS'the-salt-of-the-earth'
p15
F8.5
sS'there-will-be-blood'
p16
F9.5
sS'gone-in-sixty-seconds'
p17
I2
sS'eyes-wide-shut'
p18
I8
sS'the-grand-budapest-hotel'
p19
I8
sS'45-years'
p20
F7.5
sS'spring-summer-fall-winter-and-spring'
p21
I9
sS'inception'
p22
I6
sS'lincoln'
p23
I8
sS'waking-life'
p24
F6.5
sS'rocknrolla'
p25
I4
sS'ratatouille'
p26
I8
sS'schindlers-list'
p27
F8.5
sS'avatar'
p28
I7
sS'a-pigeon-sat-on-a-branch-reflecting-on-existence'
p29
I8
sS'the-end-of-the-tour'
p30
F7.5
sS'the-lobster'
p31
I8
sS'the-tale-of-the-princess-kaguya'
p32
I8
sS'manchester-by-the-sea'
p33
F8.5
sS'crimes-and-misdemeanors'
p34
I8
sS'anaconda'
p35
I2
sS'2-fast-2-furious'
p36
I2
sS'about-elly-2009'
p37
I8
sS'captain-fantastic'
p38
I7
sS'a-separation'
p39
I10
sS'brazil'
p40
I8
sS'the-postmans-white-nights'
p41
F8.5
sS'magnolia'
p42
I8
sS'son-of-saul'
p43
I9
sS'sand-storm'
p44
I8
sS'birdman-or-the-unexpected-virtue-of-ignorance'
p45
I7
sS'dheepan'
p46
I8
sS'borat-cultural-learnings-of-america-for-make-benefit-glorious-nation-of-kazakhstan'
p47
F8.5
sS'fargo'
p48
F8.5
sS'after-the-storm-2016'
p49
I8
sS'sweet-bean'
p50
I7
sS'sideways'
p51
F8.5
sS'eternal-sunshine-of-the-spotless-mind'
p52
I9
sS'the-dark-knight-rises'
p53
I6
sS'superman-returns'
p54
I5
sS'inside-llewyn-davis'
p55
I8
sS'carol'
p56
F9.5
sS'victoria'
p57
I8
sS'wild-tales'
p58
I8
sS'blue-valentine'
p59
F7.5
sS'chungking-express'
p60
I9
sS'me-and-earl-and-the-dying-girl'
p61
F7.5
sS'graduation'
p62
F8.5
sS'rams'
p63
I10
sS'the-sixth-sense'
p64
I5
sS'the-wedding-planner'
p65
I2
sS'lost-in-translation'
p66
F8.5
sS'the-return-2004'
p67
I8
sS'ghost-rider'
p68
I1
sS'once-upon-a-time-in-anatolia'
p69
F9.5
sS'mommy'
p70
I7
sS'crazy-stupid-love'
p71
I2
sS'full-metal-jacket'
p72
I8
sS'her'
p73
I8
sS'leviathan-2014'
p74
I10
sS'what-we-do-in-the-shadows'
p75
I7
sS'12-years-a-slave'
p76
F8.5
sS'children-of-men'
p77
I7
sS'gett-the-trial-of-viviane-amsalem'
p78
I10
sS'the-hangover'
p79
I2
sS'the-lives-of-others'
p80
F8.5
sS'the-dukes-of-hazzard'
p81
I2
sS'midnight-in-paris'
p82
I7
sS'into-the-wild'
p83
I8
sS'amelie'
p84
I9
sS'the-lord-of-the-rings-the-fellowship-of-the-ring'
p85
I9
sS'the-salesman'
p86
I10
sS'up'
p87
I7
sS'american-beauty'
p88
I9
sS'nebraska'
p89
I8
sS'persepolis'
p90
F8.5
sS'spotlight'
p91
I8
sS'anomalisa'
p92
I8
sS'zero-dark-thirty'
p93
I7
sS'django-unchained'
p94
I7
sS'winter-sleep'
p95
F9.5
sS'the-master'
p96
F8.5
sS'the-academy-of-muses'
p97
I4
sS'inglourious-basterds'
p98
I6
sS'amour'
p99
F8.5
sS'paris-je-taime'
p100
F6.5
sS'ray'
p101
I9
sS'gravity'
p102
F7.5
sS'april-and-the-extraordinary-world'
p103
I8
sS'the-lord-of-the-rings-the-return-of-the-king'
p104
I9
sS'sully'
p105
F6.5
sS'the-hangover-part-ii'
p106
I2
sS'the-dark-knight'
p107
F6.5
sS'a-clockwork-orange'
p108
I9
sS'no-country-for-old-men'
p109
F8.5
sS'brooklyn'
p110
F8.5
sS'inside-out-2015'
p111
I7
sS'a-very-long-engagement'
p112
I8
sS'beyond-the-hills'
p113
I8
sS'batman-begins'
p114
I6
sS'4-months-3-weeks-and-2-days'
p115
I10
sS'the-social-network'
p116
I8
sS'brokeback-mountain'
p117
F8.5
sS'ida'
p118
I10
s.