(dp1
S'the-return-2004'
p2
I8
sS'boyhood'
p3
I7
sS'sully'
p4
F6.5
sS'ghost-rider'
p5
I1
sS'phantom-thread'
p6
I9
sS'the-other-side-of-hope'
p7
F8.5
sS'once-upon-a-time-in-anatolia'
p8
F9.5
sS'mommy'
p9
I7
sS'spring-summer-fall-winter-and-spring'
p10
I9
sS'pans-labyrinth'
p11
I9
sS'the-hobbit-an-unexpected-journey'
p12
I5
sS'in-the-mood-for-love'
p13
I10
sS'inception'
p14
I6
sS'crazy-stupid-love'
p15
I2
sS'spotlight'
p16
I8
sS'full-metal-jacket'
p17
I8
sS'the-square-2017'
p18
I9
sS'tempestad'
p19
I10
sS'embrace-of-the-serpent'
p20
I8
sS'the-wedding-planner'
p21
I2
sS'her'
p22
I8
sS'2001-a-space-odyssey'
p23
I10
sS'fallen-angels'
p24
I9
sS'a-very-long-engagement'
p25
I8
sS'three-billboards-outside-ebbing-missouri'
p26
F7.5
sS'leviathan-2014'
p27
I10
sS'what-we-do-in-the-shadows'
p28
I7
sS'the-lord-of-the-rings-the-two-towers'
p29
I9
sS'capote'
p30
F8.5
sS'april-and-the-extraordinary-world'
p31
I8
sS'12-years-a-slave'
p32
F8.5
sS'wild-tales'
p33
I8
sS'gett-the-trial-of-viviane-amsalem'
p34
I10
sS'gosford-park'
p35
F8.5
sS'wall-e'
p36
I8
sS'dheepan'
p37
I8
sS'the-lives-of-others'
p38
F8.5
sS'moonlight-2016'
p39
F9.5
sS'the-salt-of-the-earth'
p40
F8.5
sS'the-incredibles'
p41
I5
sS'there-will-be-blood'
p42
F9.5
sS'on-body-and-soul'
p43
I9
sS'dr-strangelove-or-how-i-learned-to-stop-worrying-and-love-the-bomb'
p44
I9
sS'paterson'
p45
F8.5
sS'the-grand-budapest-hotel'
p46
I8
sS'midnight-in-paris'
p47
I7
sS'lincoln'
p48
I8
sS'the-white-ribbon'
p49
F8.5
sS'into-the-wild'
p50
I8
sS'blue-jasmine'
p51
F7.5
sS'waking-life'
p52
F6.5
sS'45-years'
p53
F7.5
sS'blackkklansman'
p54
I6
sS'loveless-2017'
p55
I10
sS'inglourious-basterds'
p56
I6
sS'the-immigrant'
p57
I6
sS'amelie'
p58
I9
sS'the-lord-of-the-rings-the-fellowship-of-the-ring'
p59
I9
sS'the-salesman'
p60
I10
sS'days-of-being-wild-re-release'
p61
F8.5
sS'inherent-vice'
p62
I7
sS'rocknrolla'
p63
I4
sS'ratatouille'
p64
I8
sS'schindlers-list'
p65
F8.5
sS'up'
p66
I7
sS'american-beauty'
p67
I9
sS'the-fog-of-war-eleven-lessons-from-the-life-of-robert-s-mcnamara'
p68
F8.5
sS'avatar'
p69
I7
sS'a-pigeon-sat-on-a-branch-reflecting-on-existence'
p70
I8
sS'persepolis'
p71
F8.5
sS'the-pianist'
p72
I9
sS'anomalisa'
p73
I8
sS'zero-dark-thirty'
p74
I7
sS'the-shape-of-water'
p75
I8
sS'the-tale-of-the-princess-kaguya'
p76
I8
sS'american-wedding'
p77
I2
sS'manchester-by-the-sea'
p78
F8.5
sS'the-hangover-part-ii'
p79
I2
sS'winter-sleep'
p80
F9.5
sS'the-master'
p81
F8.5
sS'rosmarys-baby'
p82
I8
sS'the-academy-of-muses'
p83
I4
sS'last-flag-flying'
p84
I5
sS'the-central-park-five'
p85
F9.5
sS'eyes-wide-shut'
p86
I8
sS'dogman'
p87
F7.5
sS'anaconda'
p88
I2
sS'2-fast-2-furious'
p89
I2
sS'amour'
p90
F8.5
sS'about-elly-2009'
p91
I8
sS'paris-je-taime'
p92
F6.5
sS'captain-fantastic'
p93
I7
sS'a-separation'
p94
I10
sS'ray'
p95
I9
sS'brazil'
p96
I8
sS'the-sixth-sense'
p97
I5
sS'gangs-of-new-york'
p98
I5
sS'dead-poets-society'
p99
F7.5
sS'the-postmans-white-nights'
p100
F8.5
sS'the-dukes-of-hazzard'
p101
I2
sS'the-wild-pear-tree'
p102
I10
sS'gravity'
p103
F7.5
sS'gone-in-sixty-seconds'
p104
I2
sS'son-of-saul'
p105
I9
sS'sand-storm'
p106
I8
sS'a-fantastic-woman'
p107
I9
sS'nebraska'
p108
I8
sS'the-lord-of-the-rings-the-return-of-the-king'
p109
I9
sS'borat-cultural-learnings-of-america-for-make-benefit-glorious-nation-of-kazakhstan'
p110
F8.5
sS'sideways'
p111
F8.5
sS'fargo'
p112
F8.5
sS'manhattan'
p113
I9
sS'children-of-men'
p114
I7
sS'happy-together'
p115
F8.8000000000000007
sS'django-unchained'
p116
I7
sS'birdman-or-the-unexpected-virtue-of-ignorance'
p117
I7
sS'after-the-storm-2016'
p118
I8
sS'the-nice-guys'
p119
I2
sS'disobedience'
p120
F6.5
sS'sweet-bean'
p121
I7
sS'the-dark-knight'
p122
F6.5
sS'a-clockwork-orange'
p123
I9
sS'annie-hall-1977'
p124
F9.5
sS'eternal-sunshine-of-the-spotless-mind'
p125
I7
sS'the-dark-knight-rises'
p126
I6
sS'superman-returns'
p127
I5
sS'no-country-for-old-men'
p128
F8.5
sS'ray-liz'
p129
F8.5
sS'toni-erdmann'
p130
I9
sS'happy-end'
p131
F7.5
sS'inside-llewyn-davis'
p132
I8
sS'the-hangover'
p133
I2
sS'carol'
p134
F9.5
sS'victoria'
p135
I8
sS'the-thin-blue-line'
p136
I8
sS'crimes-and-misdemeanors'
p137
F8.5
sS'chungking-express'
p138
F9.5
sS'beyond-the-hills'
p139
I8
sS'me-and-earl-and-the-dying-girl'
p140
F7.5
sS'batman-begins'
p141
I6
sS'sicario'
p142
I5
sS'brooklyn'
p143
F8.5
sS'graduation'
p144
F8.5
sS'rams'
p145
I10
sS'4-months-3-weeks-and-2-days'
p146
I10
sS'inside-out-2015'
p147
I7
sS'the-social-network'
p148
I8
sS'the-lobster'
p149
I8
sS'brokeback-mountain'
p150
F8.5
sS'the-end-of-the-tour'
p151
F7.5
sS'hannah-and-her-sisters'
p152
I9
sS'lost-in-translation'
p153
F8.5
sS'magnolia'
p154
I8
sS'ida'
p155
I10
s.