(dp1
S'the-return-2004'
p2
I8
sS'boyhood'
p3
I7
sS'sully'
p4
F6.5
sS'ghost-rider'
p5
I1
sS'phantom-thread'
p6
I9
sS'the-other-side-of-hope'
p7
F8.5
sS'once-upon-a-time-in-anatolia'
p8
F9.5
sS'mommy'
p9
I7
sS'spring-summer-fall-winter-and-spring'
p10
I9
sS'pans-labyrinth'
p11
I9
sS'the-hobbit-an-unexpected-journey'
p12
I5
sS'in-the-mood-for-love'
p13
I10
sS'inception'
p14
I6
sS'crazy-stupid-love'
p15
I2
sS'spotlight'
p16
I8
sS'full-metal-jacket'
p17
I8
sS'the-square-2017'
p18
I9
sS'tempestad'
p19
I10
sS'embrace-of-the-serpent'
p20
I8
sS'the-wedding-planner'
p21
I2
sS'her'
p22
I8
sS'2001-a-space-odyssey'
p23
I10
sS'fallen-angels'
p24
I9
sS'a-very-long-engagement'
p25
I8
sS'three-billboards-outside-ebbing-missouri'
p26
F7.5
sS'leviathan-2014'
p27
I10
sS'what-we-do-in-the-shadows'
p28
I7
sS'the-lord-of-the-rings-the-two-towers'
p29
I9
sS'capote'
p30
F8.5
sS'april-and-the-extraordinary-world'
p31
I8
sS'12-years-a-slave'
p32
F8.5
sS'wild-tales'
p33
I8
sS'gett-the-trial-of-viviane-amsalem'
p34
I10
sS'gosford-park'
p35
F8.5
sS'wall-e'
p36
I8
sS'dheepan'
p37
I8
sS'the-lives-of-others'
p38
F8.5
sS'moonlight-2016'
p39
F9.5
sS'the-salt-of-the-earth'
p40
F8.5
sS'the-incredibles'
p41
I5
sS'there-will-be-blood'
p42
F9.5
sS'on-body-and-soul'
p43
I9
sS'dr-strangelove-or-how-i-learned-to-stop-worrying-and-love-the-bomb'
p44
I9
sS'paterson'
p45
F8.5
sS'the-grand-budapest-hotel'
p46
I8
sS'midnight-in-paris'
p47
I7
sS'lincoln'
p48
I8
sS'the-white-ribbon'
p49
F8.5
sS'into-the-wild'
p50
I8
sS'waking-life'
p51
F6.5
sS'45-years'
p52
F7.5
sS'loveless-2017'
p53
I10
sS'inglourious-basterds'
p54
I6
sS'the-immigrant'
p55
I6
sS'amelie'
p56
I9
sS'the-lord-of-the-rings-the-fellowship-of-the-ring'
p57
I9
sS'the-salesman'
p58
I10
sS'days-of-being-wild-re-release'
p59
F8.5
sS'inherent-vice'
p60
I7
sS'rocknrolla'
p61
I4
sS'ratatouille'
p62
I8
sS'schindlers-list'
p63
F8.5
sS'up'
p64
I7
sS'american-beauty'
p65
I9
sS'the-fog-of-war-eleven-lessons-from-the-life-of-robert-s-mcnamara'
p66
F8.5
sS'avatar'
p67
I7
sS'a-pigeon-sat-on-a-branch-reflecting-on-existence'
p68
I8
sS'persepolis'
p69
F8.5
sS'the-pianist'
p70
I9
sS'anomalisa'
p71
I8
sS'zero-dark-thirty'
p72
I7
sS'the-shape-of-water'
p73
I8
sS'the-tale-of-the-princess-kaguya'
p74
I8
sS'american-wedding'
p75
I2
sS'manchester-by-the-sea'
p76
F8.5
sS'the-hangover-part-ii'
p77
I2
sS'winter-sleep'
p78
F9.5
sS'the-master'
p79
F8.5
sS'the-academy-of-muses'
p80
I4
sS'last-flag-flying'
p81
I5
sS'the-central-park-five'
p82
F9.5
sS'eyes-wide-shut'
p83
I8
sS'dogman'
p84
F7.5
sS'anaconda'
p85
I2
sS'2-fast-2-furious'
p86
I2
sS'amour'
p87
F8.5
sS'about-elly-2009'
p88
I8
sS'paris-je-taime'
p89
F6.5
sS'captain-fantastic'
p90
I7
sS'a-separation'
p91
I10
sS'ray'
p92
I9
sS'brazil'
p93
I8
sS'the-sixth-sense'
p94
I5
sS'gangs-of-new-york'
p95
I5
sS'the-postmans-white-nights'
p96
F8.5
sS'the-dukes-of-hazzard'
p97
I2
sS'the-wild-pear-tree'
p98
I10
sS'gravity'
p99
F7.5
sS'gone-in-sixty-seconds'
p100
I2
sS'son-of-saul'
p101
I9
sS'sand-storm'
p102
I8
sS'a-fantastic-woman'
p103
I9
sS'nebraska'
p104
I8
sS'the-lord-of-the-rings-the-return-of-the-king'
p105
I9
sS'borat-cultural-learnings-of-america-for-make-benefit-glorious-nation-of-kazakhstan'
p106
F8.5
sS'sideways'
p107
F8.5
sS'fargo'
p108
F8.5
sS'manhattan'
p109
I9
sS'children-of-men'
p110
I7
sS'django-unchained'
p111
I7
sS'birdman-or-the-unexpected-virtue-of-ignorance'
p112
I7
sS'after-the-storm-2016'
p113
I8
sS'the-nice-guys'
p114
I2
sS'disobedience'
p115
F6.5
sS'sweet-bean'
p116
I7
sS'the-dark-knight'
p117
F6.5
sS'a-clockwork-orange'
p118
I9
sS'annie-hall-1977'
p119
F9.5
sS'eternal-sunshine-of-the-spotless-mind'
p120
I8
sS'the-dark-knight-rises'
p121
I6
sS'superman-returns'
p122
I5
sS'no-country-for-old-men'
p123
F8.5
sS'toni-erdmann'
p124
I9
sS'happy-end'
p125
F7.5
sS'inside-llewyn-davis'
p126
I8
sS'the-hangover'
p127
I2
sS'carol'
p128
F9.5
sS'victoria'
p129
I8
sS'the-thin-blue-line'
p130
I8
sS'crimes-and-misdemeanors'
p131
F8.5
sS'blue-valentine'
p132
F7.5
sS'chungking-express'
p133
F9.5
sS'beyond-the-hills'
p134
I8
sS'me-and-earl-and-the-dying-girl'
p135
F7.5
sS'batman-begins'
p136
I6
sS'sicario'
p137
I5
sS'brooklyn'
p138
F8.5
sS'graduation'
p139
F8.5
sS'rams'
p140
I10
sS'4-months-3-weeks-and-2-days'
p141
I10
sS'inside-out-2015'
p142
I7
sS'the-social-network'
p143
I8
sS'the-lobster'
p144
I8
sS'brokeback-mountain'
p145
F8.5
sS'the-end-of-the-tour'
p146
F7.5
sS'hannah-and-her-sisters'
p147
I9
sS'lost-in-translation'
p148
F8.5
sS'magnolia'
p149
I8
sS'ida'
p150
I10
s.